ARM GAS  /var/folders/fb/yfxt3z4538j6z0vjt03w70vc0000gn/T//ccW52HDD.s 			page 1


   1              		.cpu cortex-m7
   2              		.arch armv7e-m
   3              		.fpu fpv5-d16
   4              		.eabi_attribute 28, 1
   5              		.eabi_attribute 20, 1
   6              		.eabi_attribute 21, 1
   7              		.eabi_attribute 23, 3
   8              		.eabi_attribute 24, 1
   9              		.eabi_attribute 25, 1
  10              		.eabi_attribute 26, 1
  11              		.eabi_attribute 30, 2
  12              		.eabi_attribute 34, 1
  13              		.eabi_attribute 18, 4
  14              		.file	"Heavy_daisy_control.cpp"
  15              		.text
  16              	.Ltext0:
  17              		.cfi_sections	.debug_frame
  18              		.section	.text._ZN12HeavyContext7getSizeEv,"axG",%progbits,_ZN12HeavyContext7getSizeEv,comdat
  19              		.align	1
  20              		.p2align 2,,3
  21              		.weak	_ZN12HeavyContext7getSizeEv
  22              		.syntax unified
  23              		.thumb
  24              		.thumb_func
  26              	_ZN12HeavyContext7getSizeEv:
  27              	.LVL0:
  28              	.LFB965:
  29              		.file 1 "source/HeavyContext.hpp"
   1:source/HeavyContext.hpp **** /**
   2:source/HeavyContext.hpp ****  * Copyright (c) 2014-2018 Enzien Audio Ltd.
   3:source/HeavyContext.hpp ****  *
   4:source/HeavyContext.hpp ****  * Permission to use, copy, modify, and/or distribute this software for any
   5:source/HeavyContext.hpp ****  * purpose with or without fee is hereby granted, provided that the above
   6:source/HeavyContext.hpp ****  * copyright notice and this permission notice appear in all copies.
   7:source/HeavyContext.hpp ****  *
   8:source/HeavyContext.hpp ****  * THE SOFTWARE IS PROVIDED "AS IS" AND THE AUTHOR DISCLAIMS ALL WARRANTIES WITH
   9:source/HeavyContext.hpp ****  * REGARD TO THIS SOFTWARE INCLUDING ALL IMPLIED WARRANTIES OF MERCHANTABILITY
  10:source/HeavyContext.hpp ****  * AND FITNESS. IN NO EVENT SHALL THE AUTHOR BE LIABLE FOR ANY SPECIAL, DIRECT,
  11:source/HeavyContext.hpp ****  * INDIRECT, OR CONSEQUENTIAL DAMAGES OR ANY DAMAGES WHATSOEVER RESULTING FROM
  12:source/HeavyContext.hpp ****  * LOSS OF USE, DATA OR PROFITS, WHETHER IN AN ACTION OF CONTRACT, NEGLIGENCE OR
  13:source/HeavyContext.hpp ****  * OTHER TORTIOUS ACTION, ARISING OUT OF OR IN CONNECTION WITH THE USE OR
  14:source/HeavyContext.hpp ****  * PERFORMANCE OF THIS SOFTWARE.
  15:source/HeavyContext.hpp ****  */
  16:source/HeavyContext.hpp **** 
  17:source/HeavyContext.hpp **** #ifndef _HEAVY_CONTEXT_H_
  18:source/HeavyContext.hpp **** #define _HEAVY_CONTEXT_H_
  19:source/HeavyContext.hpp **** 
  20:source/HeavyContext.hpp **** #include "HeavyContextInterface.hpp"
  21:source/HeavyContext.hpp **** #include "HvLightPipe.h"
  22:source/HeavyContext.hpp **** #include "HvMessageQueue.h"
  23:source/HeavyContext.hpp **** #include "HvMath.h"
  24:source/HeavyContext.hpp **** 
  25:source/HeavyContext.hpp **** struct HvTable;
  26:source/HeavyContext.hpp **** 
  27:source/HeavyContext.hpp **** class HeavyContext : public HeavyContextInterface {
  28:source/HeavyContext.hpp **** 
  29:source/HeavyContext.hpp ****  public:
ARM GAS  /var/folders/fb/yfxt3z4538j6z0vjt03w70vc0000gn/T//ccW52HDD.s 			page 2


  30:source/HeavyContext.hpp ****   HeavyContext(double sampleRate, int poolKb=10, int inQueueKb=2, int outQueueKb=0);
  31:source/HeavyContext.hpp ****   virtual ~HeavyContext();
  32:source/HeavyContext.hpp **** 
  33:source/HeavyContext.hpp ****   int getSize() override { return (int) numBytes; }
  30              		.loc 1 33 7 view -0
  31              		.cfi_startproc
  32              		@ args = 0, pretend = 0, frame = 0
  33              		@ frame_needed = 0, uses_anonymous_args = 0
  34              		@ link register save eliminated.
  35              		.loc 1 33 28 view .LVU1
  36              		.loc 1 33 51 is_stmt 0 view .LVU2
  37 0000 4069     		ldr	r0, [r0, #20]
  38              	.LVL1:
  39              		.loc 1 33 51 view .LVU3
  40 0002 7047     		bx	lr
  41              		.cfi_endproc
  42              	.LFE965:
  44              		.section	.text._ZN12HeavyContext13getSampleRateEv,"axG",%progbits,_ZN12HeavyContext13getSampleRate
  45              		.align	1
  46              		.p2align 2,,3
  47              		.weak	_ZN12HeavyContext13getSampleRateEv
  48              		.syntax unified
  49              		.thumb
  50              		.thumb_func
  52              	_ZN12HeavyContext13getSampleRateEv:
  53              	.LVL2:
  54              	.LFB966:
  34:source/HeavyContext.hpp **** 
  35:source/HeavyContext.hpp ****   double getSampleRate() override { return sampleRate; }
  55              		.loc 1 35 10 is_stmt 1 view -0
  56              		.cfi_startproc
  57              		@ args = 0, pretend = 0, frame = 0
  58              		@ frame_needed = 0, uses_anonymous_args = 0
  59              		@ link register save eliminated.
  60              		.loc 1 35 37 view .LVU5
  61              		.loc 1 35 56 is_stmt 0 view .LVU6
  62 0000 90ED020B 		vldr.64	d0, [r0, #8]
  63 0004 7047     		bx	lr
  64              		.cfi_endproc
  65              	.LFE966:
  67 0006 00BF     		.section	.text._ZN12HeavyContext16getCurrentSampleEv,"axG",%progbits,_ZN12HeavyContext16getCurrent
  68              		.align	1
  69              		.p2align 2,,3
  70              		.weak	_ZN12HeavyContext16getCurrentSampleEv
  71              		.syntax unified
  72              		.thumb
  73              		.thumb_func
  75              	_ZN12HeavyContext16getCurrentSampleEv:
  76              	.LVL3:
  77              	.LFB967:
  36:source/HeavyContext.hpp **** 
  37:source/HeavyContext.hpp ****   hv_uint32_t getCurrentSample() override { return blockStartTimestamp; }
  78              		.loc 1 37 15 is_stmt 1 view -0
  79              		.cfi_startproc
  80              		@ args = 0, pretend = 0, frame = 0
  81              		@ frame_needed = 0, uses_anonymous_args = 0
  82              		@ link register save eliminated.
ARM GAS  /var/folders/fb/yfxt3z4538j6z0vjt03w70vc0000gn/T//ccW52HDD.s 			page 3


  83              		.loc 1 37 45 view .LVU8
  84              		.loc 1 37 73 is_stmt 0 view .LVU9
  85 0000 0069     		ldr	r0, [r0, #16]
  86              	.LVL4:
  87              		.loc 1 37 73 view .LVU10
  88 0002 7047     		bx	lr
  89              		.cfi_endproc
  90              	.LFE967:
  92              		.section	.text._ZN12HeavyContext21samplesToMillisecondsEm,"axG",%progbits,_ZN12HeavyContext21sampl
  93              		.align	1
  94              		.p2align 2,,3
  95              		.weak	_ZN12HeavyContext21samplesToMillisecondsEm
  96              		.syntax unified
  97              		.thumb
  98              		.thumb_func
 100              	_ZN12HeavyContext21samplesToMillisecondsEm:
 101              	.LVL5:
 102              	.LFB968:
  38:source/HeavyContext.hpp ****   float samplesToMilliseconds(hv_uint32_t numSamples) override { return (float) (1000.0*numSamples/
 103              		.loc 1 38 9 is_stmt 1 view -0
 104              		.cfi_startproc
 105              		@ args = 0, pretend = 0, frame = 0
 106              		@ frame_needed = 0, uses_anonymous_args = 0
 107              		@ link register save eliminated.
 108              		.loc 1 38 66 view .LVU12
 109              		.loc 1 38 88 is_stmt 0 view .LVU13
 110 0000 07EE901A 		vmov	s15, r1	@ int
 111 0004 9FED065B 		vldr.64	d5, .L6
 112 0008 B8EE677B 		vcvt.f64.u32	d7, s15
 113              		.loc 1 38 99 view .LVU14
 114 000c 90ED026B 		vldr.64	d6, [r0, #8]
 115              		.loc 1 38 88 view .LVU15
 116 0010 27EE057B 		vmul.f64	d7, d7, d5
 117              		.loc 1 38 99 view .LVU16
 118 0014 87EE060B 		vdiv.f64	d0, d7, d6
 119              		.loc 1 38 113 view .LVU17
 120 0018 B7EEC00B 		vcvt.f32.f64	s0, d0
 121 001c 7047     		bx	lr
 122              	.L7:
 123 001e 00BF     		.align	3
 124              	.L6:
 125 0020 00000000 		.word	0
 126 0024 00408F40 		.word	1083129856
 127              		.cfi_endproc
 128              	.LFE968:
 130              		.section	.text._ZN12HeavyContext11setUserDataEPv,"axG",%progbits,_ZN12HeavyContext11setUserDataEPv
 131              		.align	1
 132              		.p2align 2,,3
 133              		.weak	_ZN12HeavyContext11setUserDataEPv
 134              		.syntax unified
 135              		.thumb
 136              		.thumb_func
 138              	_ZN12HeavyContext11setUserDataEPv:
 139              	.LVL6:
 140              	.LFB970:
  39:source/HeavyContext.hpp ****   hv_uint32_t millisecondsToSamples(float ms) override { return (hv_uint32_t) (hv_max_f(0.0f,ms)*sa
  40:source/HeavyContext.hpp **** 
ARM GAS  /var/folders/fb/yfxt3z4538j6z0vjt03w70vc0000gn/T//ccW52HDD.s 			page 4


  41:source/HeavyContext.hpp ****   void setUserData(void *x) override { userData = x; }
 141              		.loc 1 41 8 is_stmt 1 view -0
 142              		.cfi_startproc
 143              		@ args = 0, pretend = 0, frame = 0
 144              		@ frame_needed = 0, uses_anonymous_args = 0
 145              		@ link register save eliminated.
 146              		.loc 1 41 40 view .LVU19
 147              		.loc 1 41 49 is_stmt 0 view .LVU20
 148 0000 8165     		str	r1, [r0, #88]
 149              		.loc 1 41 54 view .LVU21
 150 0002 7047     		bx	lr
 151              		.cfi_endproc
 152              	.LFE970:
 154              		.section	.text._ZN12HeavyContext11getUserDataEv,"axG",%progbits,_ZN12HeavyContext11getUserDataEv,c
 155              		.align	1
 156              		.p2align 2,,3
 157              		.weak	_ZN12HeavyContext11getUserDataEv
 158              		.syntax unified
 159              		.thumb
 160              		.thumb_func
 162              	_ZN12HeavyContext11getUserDataEv:
 163              	.LVL7:
 164              	.LFB971:
  42:source/HeavyContext.hpp ****   void *getUserData() override { return userData; }
 165              		.loc 1 42 9 is_stmt 1 view -0
 166              		.cfi_startproc
 167              		@ args = 0, pretend = 0, frame = 0
 168              		@ frame_needed = 0, uses_anonymous_args = 0
 169              		@ link register save eliminated.
 170              		.loc 1 42 34 view .LVU23
 171              		.loc 1 42 51 is_stmt 0 view .LVU24
 172 0000 806D     		ldr	r0, [r0, #88]
 173              	.LVL8:
 174              		.loc 1 42 51 view .LVU25
 175 0002 7047     		bx	lr
 176              		.cfi_endproc
 177              	.LFE971:
 179              		.section	.text._ZN12HeavyContext11setSendHookEPFvP21HeavyContextInterfacePKcmPK9HvMessageE,"axG",%
 180              		.align	1
 181              		.p2align 2,,3
 182              		.weak	_ZN12HeavyContext11setSendHookEPFvP21HeavyContextInterfacePKcmPK9HvMessageE
 183              		.syntax unified
 184              		.thumb
 185              		.thumb_func
 187              	_ZN12HeavyContext11setSendHookEPFvP21HeavyContextInterfacePKcmPK9HvMessageE:
 188              	.LVL9:
 189              	.LFB972:
  43:source/HeavyContext.hpp **** 
  44:source/HeavyContext.hpp ****   // hook management
  45:source/HeavyContext.hpp ****   void setSendHook(HvSendHook_t *f) override { sendHook = f; }
 190              		.loc 1 45 8 is_stmt 1 view -0
 191              		.cfi_startproc
 192              		@ args = 0, pretend = 0, frame = 0
 193              		@ frame_needed = 0, uses_anonymous_args = 0
 194              		@ link register save eliminated.
 195              		.loc 1 45 48 view .LVU27
 196              		.loc 1 45 57 is_stmt 0 view .LVU28
ARM GAS  /var/folders/fb/yfxt3z4538j6z0vjt03w70vc0000gn/T//ccW52HDD.s 			page 5


 197 0000 0165     		str	r1, [r0, #80]
 198              		.loc 1 45 62 view .LVU29
 199 0002 7047     		bx	lr
 200              		.cfi_endproc
 201              	.LFE972:
 203              		.section	.text._ZN12HeavyContext11getSendHookEv,"axG",%progbits,_ZN12HeavyContext11getSendHookEv,c
 204              		.align	1
 205              		.p2align 2,,3
 206              		.weak	_ZN12HeavyContext11getSendHookEv
 207              		.syntax unified
 208              		.thumb
 209              		.thumb_func
 211              	_ZN12HeavyContext11getSendHookEv:
 212              	.LVL10:
 213              	.LFB973:
  46:source/HeavyContext.hpp ****   HvSendHook_t *getSendHook() override { return sendHook; }
 214              		.loc 1 46 17 is_stmt 1 view -0
 215              		.cfi_startproc
 216              		@ args = 0, pretend = 0, frame = 0
 217              		@ frame_needed = 0, uses_anonymous_args = 0
 218              		@ link register save eliminated.
 219              		.loc 1 46 42 view .LVU31
 220              		.loc 1 46 59 is_stmt 0 view .LVU32
 221 0000 006D     		ldr	r0, [r0, #80]
 222              	.LVL11:
 223              		.loc 1 46 59 view .LVU33
 224 0002 7047     		bx	lr
 225              		.cfi_endproc
 226              	.LFE973:
 228              		.section	.text._ZN12HeavyContext12setPrintHookEPFvP21HeavyContextInterfacePKcS3_PK9HvMessageE,"axG
 229              		.align	1
 230              		.p2align 2,,3
 231              		.weak	_ZN12HeavyContext12setPrintHookEPFvP21HeavyContextInterfacePKcS3_PK9HvMessageE
 232              		.syntax unified
 233              		.thumb
 234              		.thumb_func
 236              	_ZN12HeavyContext12setPrintHookEPFvP21HeavyContextInterfacePKcS3_PK9HvMessageE:
 237              	.LVL12:
 238              	.LFB974:
  47:source/HeavyContext.hpp **** 
  48:source/HeavyContext.hpp ****   void setPrintHook(HvPrintHook_t *f) override { printHook = f; }
 239              		.loc 1 48 8 is_stmt 1 view -0
 240              		.cfi_startproc
 241              		@ args = 0, pretend = 0, frame = 0
 242              		@ frame_needed = 0, uses_anonymous_args = 0
 243              		@ link register save eliminated.
 244              		.loc 1 48 50 view .LVU35
 245              		.loc 1 48 60 is_stmt 0 view .LVU36
 246 0000 4165     		str	r1, [r0, #84]
 247              		.loc 1 48 65 view .LVU37
 248 0002 7047     		bx	lr
 249              		.cfi_endproc
 250              	.LFE974:
 252              		.section	.text._ZN12HeavyContext12getPrintHookEv,"axG",%progbits,_ZN12HeavyContext12getPrintHookEv
 253              		.align	1
 254              		.p2align 2,,3
 255              		.weak	_ZN12HeavyContext12getPrintHookEv
ARM GAS  /var/folders/fb/yfxt3z4538j6z0vjt03w70vc0000gn/T//ccW52HDD.s 			page 6


 256              		.syntax unified
 257              		.thumb
 258              		.thumb_func
 260              	_ZN12HeavyContext12getPrintHookEv:
 261              	.LVL13:
 262              	.LFB975:
  49:source/HeavyContext.hpp ****   HvPrintHook_t *getPrintHook() override { return printHook; }
 263              		.loc 1 49 18 is_stmt 1 view -0
 264              		.cfi_startproc
 265              		@ args = 0, pretend = 0, frame = 0
 266              		@ frame_needed = 0, uses_anonymous_args = 0
 267              		@ link register save eliminated.
 268              		.loc 1 49 44 view .LVU39
 269              		.loc 1 49 62 is_stmt 0 view .LVU40
 270 0000 406D     		ldr	r0, [r0, #84]
 271              	.LVL14:
 272              		.loc 1 49 62 view .LVU41
 273 0002 7047     		bx	lr
 274              		.cfi_endproc
 275              	.LFE975:
 277              		.section	.rodata._ZN19Heavy_daisy_control7getNameEv.str1.4,"aMS",%progbits,1
 278              		.align	2
 279              	.LC0:
 280 0000 64616973 		.ascii	"daisy_control\000"
 280      795F636F 
 280      6E74726F 
 280      6C00
 281              		.section	.text._ZN19Heavy_daisy_control7getNameEv,"axG",%progbits,_ZN19Heavy_daisy_control7getName
 282              		.align	1
 283              		.p2align 2,,3
 284              		.weak	_ZN19Heavy_daisy_control7getNameEv
 285              		.syntax unified
 286              		.thumb
 287              		.thumb_func
 289              	_ZN19Heavy_daisy_control7getNameEv:
 290              	.LVL15:
 291              	.LFB989:
 292              		.file 2 "source/Heavy_daisy_control.hpp"
   1:source/Heavy_daisy_control.hpp **** /**
   2:source/Heavy_daisy_control.hpp ****  * Copyright (c) 2023 Enzien Audio, Ltd.
   3:source/Heavy_daisy_control.hpp ****  * 
   4:source/Heavy_daisy_control.hpp ****  * Redistribution and use in source and binary forms, with or without modification,
   5:source/Heavy_daisy_control.hpp ****  * are permitted provided that the following conditions are met:
   6:source/Heavy_daisy_control.hpp ****  * 
   7:source/Heavy_daisy_control.hpp ****  * 1. Redistributions of source code must retain the above copyright notice,
   8:source/Heavy_daisy_control.hpp ****  *    this list of conditions, and the following disclaimer.
   9:source/Heavy_daisy_control.hpp ****  * 
  10:source/Heavy_daisy_control.hpp ****  * 2. Redistributions in binary form must reproduce the phrase "powered by heavy",
  11:source/Heavy_daisy_control.hpp ****  *    the heavy logo, and a hyperlink to https://enzienaudio.com, all in a visible
  12:source/Heavy_daisy_control.hpp ****  *    form.
  13:source/Heavy_daisy_control.hpp ****  * 
  14:source/Heavy_daisy_control.hpp ****  *   2.1 If the Application is distributed in a store system (for example,
  15:source/Heavy_daisy_control.hpp ****  *       the Apple "App Store" or "Google Play"), the phrase "powered by heavy"
  16:source/Heavy_daisy_control.hpp ****  *       shall be included in the app description or the copyright text as well as
  17:source/Heavy_daisy_control.hpp ****  *       the in the app itself. The heavy logo will shall be visible in the app
  18:source/Heavy_daisy_control.hpp ****  *       itself as well.
  19:source/Heavy_daisy_control.hpp ****  * 
ARM GAS  /var/folders/fb/yfxt3z4538j6z0vjt03w70vc0000gn/T//ccW52HDD.s 			page 7


  20:source/Heavy_daisy_control.hpp ****  * THIS SOFTWARE IS PROVIDED BY THE COPYRIGHT HOLDERS AND CONTRIBUTORS "AS IS"
  21:source/Heavy_daisy_control.hpp ****  * AND ANY EXPRESS OR IMPLIED WARRANTIES, INCLUDING, BUT NOT LIMITED TO,
  22:source/Heavy_daisy_control.hpp ****  * THE IMPLIED WARRANTIES OF MERCHANTABILITY AND FITNESS FOR A PARTICULAR PURPOSE
  23:source/Heavy_daisy_control.hpp ****  * ARE DISCLAIMED. IN NO EVENT SHALL THE COPYRIGHT HOLDER OR CONTRIBUTORS BE LIABLE
  24:source/Heavy_daisy_control.hpp ****  * FOR ANY DIRECT, INDIRECT, INCIDENTAL, SPECIAL, EXEMPLARY, OR CONSEQUENTIAL
  25:source/Heavy_daisy_control.hpp ****  * DAMAGES (INCLUDING, BUT NOT LIMITED TO, PROCUREMENT OF SUBSTITUTE GOODS OR
  26:source/Heavy_daisy_control.hpp ****  * SERVICES; LOSS OF USE, DATA, OR PROFITS; OR BUSINESS INTERRUPTION) HOWEVER
  27:source/Heavy_daisy_control.hpp ****  * CAUSED AND ON ANY THEORY OF LIABILITY, WHETHER IN CONTRACT, STRICT LIABILITY,
  28:source/Heavy_daisy_control.hpp ****  * OR TORT (INCLUDING NEGLIGENCE OR OTHERWISE) ARISING IN ANY WAY OUT OF THE USE OF
  29:source/Heavy_daisy_control.hpp ****  * THIS SOFTWARE, EVEN IF ADVISED OF THE POSSIBILITY OF SUCH DAMAGE.
  30:source/Heavy_daisy_control.hpp ****  * 
  31:source/Heavy_daisy_control.hpp ****  */
  32:source/Heavy_daisy_control.hpp **** 
  33:source/Heavy_daisy_control.hpp **** #ifndef _HEAVY_CONTEXT_DAISY_CONTROL_HPP_
  34:source/Heavy_daisy_control.hpp **** #define _HEAVY_CONTEXT_DAISY_CONTROL_HPP_
  35:source/Heavy_daisy_control.hpp **** 
  36:source/Heavy_daisy_control.hpp **** // object includes
  37:source/Heavy_daisy_control.hpp **** #include "HeavyContext.hpp"
  38:source/Heavy_daisy_control.hpp **** #include "HvSignalPhasor.h"
  39:source/Heavy_daisy_control.hpp **** #include "HvControlBinop.h"
  40:source/Heavy_daisy_control.hpp **** #include "HvSignalLine.h"
  41:source/Heavy_daisy_control.hpp **** #include "HvControlPrint.h"
  42:source/Heavy_daisy_control.hpp **** #include "HvSignalVar.h"
  43:source/Heavy_daisy_control.hpp **** #include "HvMath.h"
  44:source/Heavy_daisy_control.hpp **** #include "HvControlCast.h"
  45:source/Heavy_daisy_control.hpp **** #include "HvControlVar.h"
  46:source/Heavy_daisy_control.hpp **** 
  47:source/Heavy_daisy_control.hpp **** class Heavy_daisy_control : public HeavyContext {
  48:source/Heavy_daisy_control.hpp **** 
  49:source/Heavy_daisy_control.hpp ****  public:
  50:source/Heavy_daisy_control.hpp ****   Heavy_daisy_control(double sampleRate, int poolKb=10, int inQueueKb=2, int outQueueKb=0);
  51:source/Heavy_daisy_control.hpp ****   ~Heavy_daisy_control();
  52:source/Heavy_daisy_control.hpp **** 
  53:source/Heavy_daisy_control.hpp ****   const char *getName() override { return "daisy_control"; }
 293              		.loc 2 53 15 is_stmt 1 view -0
 294              		.cfi_startproc
 295              		@ args = 0, pretend = 0, frame = 0
 296              		@ frame_needed = 0, uses_anonymous_args = 0
 297              		@ link register save eliminated.
 298              		.loc 2 53 36 view .LVU43
 299              		.loc 2 53 60 is_stmt 0 view .LVU44
 300 0000 0048     		ldr	r0, .L15
 301              	.LVL16:
 302              		.loc 2 53 60 view .LVU45
 303 0002 7047     		bx	lr
 304              	.L16:
 305              		.align	2
 306              	.L15:
 307 0004 00000000 		.word	.LC0
 308              		.cfi_endproc
 309              	.LFE989:
 311              		.section	.text._ZN19Heavy_daisy_control19getNumInputChannelsEv,"axG",%progbits,_ZN19Heavy_daisy_co
 312              		.align	1
 313              		.p2align 2,,3
 314              		.weak	_ZN19Heavy_daisy_control19getNumInputChannelsEv
 315              		.syntax unified
 316              		.thumb
ARM GAS  /var/folders/fb/yfxt3z4538j6z0vjt03w70vc0000gn/T//ccW52HDD.s 			page 8


 317              		.thumb_func
 319              	_ZN19Heavy_daisy_control19getNumInputChannelsEv:
 320              	.LVL17:
 321              	.LFB990:
  54:source/Heavy_daisy_control.hpp ****   int getNumInputChannels() override { return 0; }
 322              		.loc 2 54 7 is_stmt 1 view -0
 323              		.cfi_startproc
 324              		@ args = 0, pretend = 0, frame = 0
 325              		@ frame_needed = 0, uses_anonymous_args = 0
 326              		@ link register save eliminated.
 327              		.loc 2 54 40 view .LVU47
 328              		.loc 2 54 50 is_stmt 0 view .LVU48
 329 0000 0020     		movs	r0, #0
 330              	.LVL18:
 331              		.loc 2 54 50 view .LVU49
 332 0002 7047     		bx	lr
 333              		.cfi_endproc
 334              	.LFE990:
 336              		.section	.text._ZN19Heavy_daisy_control20getNumOutputChannelsEv,"axG",%progbits,_ZN19Heavy_daisy_c
 337              		.align	1
 338              		.p2align 2,,3
 339              		.weak	_ZN19Heavy_daisy_control20getNumOutputChannelsEv
 340              		.syntax unified
 341              		.thumb
 342              		.thumb_func
 344              	_ZN19Heavy_daisy_control20getNumOutputChannelsEv:
 345              	.LVL19:
 346              	.LFB991:
  55:source/Heavy_daisy_control.hpp ****   int getNumOutputChannels() override { return 2; }
 347              		.loc 2 55 7 is_stmt 1 view -0
 348              		.cfi_startproc
 349              		@ args = 0, pretend = 0, frame = 0
 350              		@ frame_needed = 0, uses_anonymous_args = 0
 351              		@ link register save eliminated.
 352              		.loc 2 55 41 view .LVU51
 353              		.loc 2 55 51 is_stmt 0 view .LVU52
 354 0000 0220     		movs	r0, #2
 355              	.LVL20:
 356              		.loc 2 55 51 view .LVU53
 357 0002 7047     		bx	lr
 358              		.cfi_endproc
 359              	.LFE991:
 361              		.section	.text._ZN19Heavy_daisy_control15getTableForHashEm,"ax",%progbits
 362              		.align	1
 363              		.p2align 2,,3
 364              		.global	_ZN19Heavy_daisy_control15getTableForHashEm
 365              		.syntax unified
 366              		.thumb
 367              		.thumb_func
 369              	_ZN19Heavy_daisy_control15getTableForHashEm:
 370              	.LVL21:
 371              	.LFB1001:
 372              		.file 3 "source/Heavy_daisy_control.cpp"
   1:source/Heavy_daisy_control.cpp **** /**
   2:source/Heavy_daisy_control.cpp ****  * Copyright (c) 2023 Enzien Audio, Ltd.
   3:source/Heavy_daisy_control.cpp ****  * 
   4:source/Heavy_daisy_control.cpp ****  * Redistribution and use in source and binary forms, with or without modification,
ARM GAS  /var/folders/fb/yfxt3z4538j6z0vjt03w70vc0000gn/T//ccW52HDD.s 			page 9


   5:source/Heavy_daisy_control.cpp ****  * are permitted provided that the following conditions are met:
   6:source/Heavy_daisy_control.cpp ****  * 
   7:source/Heavy_daisy_control.cpp ****  * 1. Redistributions of source code must retain the above copyright notice,
   8:source/Heavy_daisy_control.cpp ****  *    this list of conditions, and the following disclaimer.
   9:source/Heavy_daisy_control.cpp ****  * 
  10:source/Heavy_daisy_control.cpp ****  * 2. Redistributions in binary form must reproduce the phrase "powered by heavy",
  11:source/Heavy_daisy_control.cpp ****  *    the heavy logo, and a hyperlink to https://enzienaudio.com, all in a visible
  12:source/Heavy_daisy_control.cpp ****  *    form.
  13:source/Heavy_daisy_control.cpp ****  * 
  14:source/Heavy_daisy_control.cpp ****  *   2.1 If the Application is distributed in a store system (for example,
  15:source/Heavy_daisy_control.cpp ****  *       the Apple "App Store" or "Google Play"), the phrase "powered by heavy"
  16:source/Heavy_daisy_control.cpp ****  *       shall be included in the app description or the copyright text as well as
  17:source/Heavy_daisy_control.cpp ****  *       the in the app itself. The heavy logo will shall be visible in the app
  18:source/Heavy_daisy_control.cpp ****  *       itself as well.
  19:source/Heavy_daisy_control.cpp ****  * 
  20:source/Heavy_daisy_control.cpp ****  * THIS SOFTWARE IS PROVIDED BY THE COPYRIGHT HOLDERS AND CONTRIBUTORS "AS IS"
  21:source/Heavy_daisy_control.cpp ****  * AND ANY EXPRESS OR IMPLIED WARRANTIES, INCLUDING, BUT NOT LIMITED TO,
  22:source/Heavy_daisy_control.cpp ****  * THE IMPLIED WARRANTIES OF MERCHANTABILITY AND FITNESS FOR A PARTICULAR PURPOSE
  23:source/Heavy_daisy_control.cpp ****  * ARE DISCLAIMED. IN NO EVENT SHALL THE COPYRIGHT HOLDER OR CONTRIBUTORS BE LIABLE
  24:source/Heavy_daisy_control.cpp ****  * FOR ANY DIRECT, INDIRECT, INCIDENTAL, SPECIAL, EXEMPLARY, OR CONSEQUENTIAL
  25:source/Heavy_daisy_control.cpp ****  * DAMAGES (INCLUDING, BUT NOT LIMITED TO, PROCUREMENT OF SUBSTITUTE GOODS OR
  26:source/Heavy_daisy_control.cpp ****  * SERVICES; LOSS OF USE, DATA, OR PROFITS; OR BUSINESS INTERRUPTION) HOWEVER
  27:source/Heavy_daisy_control.cpp ****  * CAUSED AND ON ANY THEORY OF LIABILITY, WHETHER IN CONTRACT, STRICT LIABILITY,
  28:source/Heavy_daisy_control.cpp ****  * OR TORT (INCLUDING NEGLIGENCE OR OTHERWISE) ARISING IN ANY WAY OUT OF THE USE OF
  29:source/Heavy_daisy_control.cpp ****  * THIS SOFTWARE, EVEN IF ADVISED OF THE POSSIBILITY OF SUCH DAMAGE.
  30:source/Heavy_daisy_control.cpp ****  * 
  31:source/Heavy_daisy_control.cpp ****  */
  32:source/Heavy_daisy_control.cpp **** 
  33:source/Heavy_daisy_control.cpp **** #include "Heavy_daisy_control.hpp"
  34:source/Heavy_daisy_control.cpp **** 
  35:source/Heavy_daisy_control.cpp **** #define Context(_c) reinterpret_cast<Heavy_daisy_control *>(_c)
  36:source/Heavy_daisy_control.cpp **** 
  37:source/Heavy_daisy_control.cpp **** 
  38:source/Heavy_daisy_control.cpp **** 
  39:source/Heavy_daisy_control.cpp **** /*
  40:source/Heavy_daisy_control.cpp ****  * C Functions
  41:source/Heavy_daisy_control.cpp ****  */
  42:source/Heavy_daisy_control.cpp **** 
  43:source/Heavy_daisy_control.cpp **** extern "C" {
  44:source/Heavy_daisy_control.cpp ****   HV_EXPORT HeavyContextInterface *hv_daisy_control_new(double sampleRate) {
  45:source/Heavy_daisy_control.cpp ****     return new Heavy_daisy_control(sampleRate);
  46:source/Heavy_daisy_control.cpp ****   }
  47:source/Heavy_daisy_control.cpp **** 
  48:source/Heavy_daisy_control.cpp ****   HV_EXPORT HeavyContextInterface *hv_daisy_control_new_with_options(double sampleRate,
  49:source/Heavy_daisy_control.cpp ****       int poolKb, int inQueueKb, int outQueueKb) {
  50:source/Heavy_daisy_control.cpp ****     return new Heavy_daisy_control(sampleRate, poolKb, inQueueKb, outQueueKb);
  51:source/Heavy_daisy_control.cpp ****   }
  52:source/Heavy_daisy_control.cpp **** } // extern "C"
  53:source/Heavy_daisy_control.cpp **** 
  54:source/Heavy_daisy_control.cpp **** 
  55:source/Heavy_daisy_control.cpp **** 
  56:source/Heavy_daisy_control.cpp **** 
  57:source/Heavy_daisy_control.cpp **** 
  58:source/Heavy_daisy_control.cpp **** 
  59:source/Heavy_daisy_control.cpp **** 
  60:source/Heavy_daisy_control.cpp **** /*
  61:source/Heavy_daisy_control.cpp ****  * Class Functions
ARM GAS  /var/folders/fb/yfxt3z4538j6z0vjt03w70vc0000gn/T//ccW52HDD.s 			page 10


  62:source/Heavy_daisy_control.cpp ****  */
  63:source/Heavy_daisy_control.cpp **** 
  64:source/Heavy_daisy_control.cpp **** Heavy_daisy_control::Heavy_daisy_control(double sampleRate, int poolKb, int inQueueKb, int outQueue
  65:source/Heavy_daisy_control.cpp ****     : HeavyContext(sampleRate, poolKb, inQueueKb, outQueueKb) {
  66:source/Heavy_daisy_control.cpp ****   numBytes += sPhasor_init(&sPhasor_WIqHwY1c, sampleRate);
  67:source/Heavy_daisy_control.cpp ****   numBytes += sLine_init(&sLine_vmZdgXXU);
  68:source/Heavy_daisy_control.cpp ****   numBytes += cVar_init_f(&cVar_AW77KVCO, 0.0f);
  69:source/Heavy_daisy_control.cpp ****   numBytes += sVarf_init(&sVarf_axfsxrnT, 0.0f, 0.0f, false);
  70:source/Heavy_daisy_control.cpp ****   
  71:source/Heavy_daisy_control.cpp **** }
  72:source/Heavy_daisy_control.cpp **** 
  73:source/Heavy_daisy_control.cpp **** Heavy_daisy_control::~Heavy_daisy_control() {
  74:source/Heavy_daisy_control.cpp ****   // nothing to free
  75:source/Heavy_daisy_control.cpp **** }
  76:source/Heavy_daisy_control.cpp **** 
  77:source/Heavy_daisy_control.cpp **** HvTable *Heavy_daisy_control::getTableForHash(hv_uint32_t tableHash) {
 373              		.loc 3 77 70 is_stmt 1 view -0
 374              		.cfi_startproc
 375              		@ args = 0, pretend = 0, frame = 0
 376              		@ frame_needed = 0, uses_anonymous_args = 0
 377              		@ link register save eliminated.
  78:source/Heavy_daisy_control.cpp ****   return nullptr;
 378              		.loc 3 78 3 view .LVU55
  79:source/Heavy_daisy_control.cpp **** }
 379              		.loc 3 79 1 is_stmt 0 view .LVU56
 380 0000 0020     		movs	r0, #0
 381              	.LVL22:
 382              		.loc 3 79 1 view .LVU57
 383 0002 7047     		bx	lr
 384              		.cfi_endproc
 385              	.LFE1001:
 387              		.section	.rodata._ZN19Heavy_daisy_control16getParameterInfoEiP15HvParameterInfo.str1.4,"aMS",%prog
 388              		.align	2
 389              	.LC1:
 390 0000 62757474 		.ascii	"button1\000"
 390      6F6E3100 
 391              		.align	2
 392              	.LC2:
 393 0008 62757474 		.ascii	"button1_press\000"
 393      6F6E315F 
 393      70726573 
 393      7300
 394 0016 0000     		.align	2
 395              	.LC3:
 396 0018 6374726C 		.ascii	"ctrl\000"
 396      00
 397 001d 000000   		.align	2
 398              	.LC4:
 399 0020 696E7661 		.ascii	"invalid parameter index\000"
 399      6C696420 
 399      70617261 
 399      6D657465 
 399      7220696E 
 400              		.section	.text._ZN19Heavy_daisy_control16getParameterInfoEiP15HvParameterInfo,"ax",%progbits
 401              		.align	1
 402              		.p2align 2,,3
 403              		.global	_ZN19Heavy_daisy_control16getParameterInfoEiP15HvParameterInfo
ARM GAS  /var/folders/fb/yfxt3z4538j6z0vjt03w70vc0000gn/T//ccW52HDD.s 			page 11


 404              		.syntax unified
 405              		.thumb
 406              		.thumb_func
 408              	_ZN19Heavy_daisy_control16getParameterInfoEiP15HvParameterInfo:
 409              	.LVL23:
 410              	.LFB1003:
  80:source/Heavy_daisy_control.cpp **** 
  81:source/Heavy_daisy_control.cpp **** void Heavy_daisy_control::scheduleMessageForReceiver(hv_uint32_t receiverHash, HvMessage *m) {
  82:source/Heavy_daisy_control.cpp ****   switch (receiverHash) {
  83:source/Heavy_daisy_control.cpp ****     case 0xFB2DC5B6: { // button1
  84:source/Heavy_daisy_control.cpp ****       mq_addMessageByTimestamp(&mq, m, 0, &cReceive_axElndMB_sendMessage);
  85:source/Heavy_daisy_control.cpp ****       break;
  86:source/Heavy_daisy_control.cpp ****     }
  87:source/Heavy_daisy_control.cpp ****     case 0xDF1CF8D9: { // button1_press
  88:source/Heavy_daisy_control.cpp ****       mq_addMessageByTimestamp(&mq, m, 0, &cReceive_Qe1xe8gU_sendMessage);
  89:source/Heavy_daisy_control.cpp ****       break;
  90:source/Heavy_daisy_control.cpp ****     }
  91:source/Heavy_daisy_control.cpp ****     case 0x44BF7D9D: { // ctrl
  92:source/Heavy_daisy_control.cpp ****       mq_addMessageByTimestamp(&mq, m, 0, &cReceive_gJQ9EXSU_sendMessage);
  93:source/Heavy_daisy_control.cpp ****       break;
  94:source/Heavy_daisy_control.cpp ****     }
  95:source/Heavy_daisy_control.cpp ****     default: return;
  96:source/Heavy_daisy_control.cpp ****   }
  97:source/Heavy_daisy_control.cpp **** }
  98:source/Heavy_daisy_control.cpp **** 
  99:source/Heavy_daisy_control.cpp **** int Heavy_daisy_control::getParameterInfo(int index, HvParameterInfo *info) {
 411              		.loc 3 99 77 is_stmt 1 view -0
 412              		.cfi_startproc
 413              		@ args = 0, pretend = 0, frame = 0
 414              		@ frame_needed = 0, uses_anonymous_args = 0
 415              		@ link register save eliminated.
 100:source/Heavy_daisy_control.cpp ****   if (info != nullptr) {
 416              		.loc 3 100 3 view .LVU59
 417 0000 6AB1     		cbz	r2, .L29
 101:source/Heavy_daisy_control.cpp ****     switch (index) {
 418              		.loc 3 101 5 view .LVU60
 419 0002 0129     		cmp	r1, #1
 420 0004 32D0     		beq	.L22
 421 0006 0229     		cmp	r1, #2
 422 0008 1FD0     		beq	.L23
 423 000a 51B1     		cbz	r1, .L33
 102:source/Heavy_daisy_control.cpp ****       case 0: {
 103:source/Heavy_daisy_control.cpp ****         info->name = "button1";
 104:source/Heavy_daisy_control.cpp ****         info->hash = 0xFB2DC5B6;
 105:source/Heavy_daisy_control.cpp ****         info->type = HvParameterType::HV_PARAM_TYPE_PARAMETER_IN;
 106:source/Heavy_daisy_control.cpp ****         info->minVal = 0.0f;
 107:source/Heavy_daisy_control.cpp ****         info->maxVal = 1.0f;
 108:source/Heavy_daisy_control.cpp ****         info->defaultVal = 0.5f;
 109:source/Heavy_daisy_control.cpp ****         break;
 110:source/Heavy_daisy_control.cpp ****       }
 111:source/Heavy_daisy_control.cpp ****       case 1: {
 112:source/Heavy_daisy_control.cpp ****         info->name = "button1_press";
 113:source/Heavy_daisy_control.cpp ****         info->hash = 0xDF1CF8D9;
 114:source/Heavy_daisy_control.cpp ****         info->type = HvParameterType::HV_PARAM_TYPE_PARAMETER_IN;
 115:source/Heavy_daisy_control.cpp ****         info->minVal = 0.0f;
 116:source/Heavy_daisy_control.cpp ****         info->maxVal = 1.0f;
 117:source/Heavy_daisy_control.cpp ****         info->defaultVal = 0.5f;
ARM GAS  /var/folders/fb/yfxt3z4538j6z0vjt03w70vc0000gn/T//ccW52HDD.s 			page 12


 118:source/Heavy_daisy_control.cpp ****         break;
 119:source/Heavy_daisy_control.cpp ****       }
 120:source/Heavy_daisy_control.cpp ****       case 2: {
 121:source/Heavy_daisy_control.cpp ****         info->name = "ctrl";
 122:source/Heavy_daisy_control.cpp ****         info->hash = 0x44BF7D9D;
 123:source/Heavy_daisy_control.cpp ****         info->type = HvParameterType::HV_PARAM_TYPE_PARAMETER_IN;
 124:source/Heavy_daisy_control.cpp ****         info->minVal = 0.0f;
 125:source/Heavy_daisy_control.cpp ****         info->maxVal = 1.0f;
 126:source/Heavy_daisy_control.cpp ****         info->defaultVal = 0.5f;
 127:source/Heavy_daisy_control.cpp ****         break;
 128:source/Heavy_daisy_control.cpp ****       }
 129:source/Heavy_daisy_control.cpp ****       default: {
 424              		.loc 3 129 7 view .LVU61
 425              		.loc 3 129 16 view .LVU62
 130:source/Heavy_daisy_control.cpp ****         info->name = "invalid parameter index";
 426              		.loc 3 130 9 view .LVU63
 131:source/Heavy_daisy_control.cpp ****         info->hash = 0;
 132:source/Heavy_daisy_control.cpp ****         info->type = HvParameterType::HV_PARAM_TYPE_PARAMETER_IN;
 133:source/Heavy_daisy_control.cpp ****         info->minVal = 0.0f;
 427              		.loc 3 133 22 is_stmt 0 view .LVU64
 428 000c 0023     		movs	r3, #0
 131:source/Heavy_daisy_control.cpp ****         info->hash = 0;
 429              		.loc 3 131 20 view .LVU65
 430 000e 0021     		movs	r1, #0
 431              	.LVL24:
 130:source/Heavy_daisy_control.cpp ****         info->name = "invalid parameter index";
 432              		.loc 3 130 20 view .LVU66
 433 0010 1A48     		ldr	r0, .L34
 434              	.LVL25:
 131:source/Heavy_daisy_control.cpp ****         info->hash = 0;
 435              		.loc 3 131 20 view .LVU67
 436 0012 5160     		str	r1, [r2, #4]
 132:source/Heavy_daisy_control.cpp ****         info->minVal = 0.0f;
 437              		.loc 3 132 20 view .LVU68
 438 0014 1172     		strb	r1, [r2, #8]
 130:source/Heavy_daisy_control.cpp ****         info->name = "invalid parameter index";
 439              		.loc 3 130 20 view .LVU69
 440 0016 1060     		str	r0, [r2]
 131:source/Heavy_daisy_control.cpp ****         info->hash = 0;
 441              		.loc 3 131 9 is_stmt 1 view .LVU70
 132:source/Heavy_daisy_control.cpp ****         info->minVal = 0.0f;
 442              		.loc 3 132 9 view .LVU71
 443              		.loc 3 133 9 view .LVU72
 444              		.loc 3 133 22 is_stmt 0 view .LVU73
 445 0018 D360     		str	r3, [r2, #12]	@ float
 134:source/Heavy_daisy_control.cpp ****         info->maxVal = 0.0f;
 446              		.loc 3 134 9 is_stmt 1 view .LVU74
 447              		.loc 3 134 22 is_stmt 0 view .LVU75
 448 001a 1361     		str	r3, [r2, #16]	@ float
 135:source/Heavy_daisy_control.cpp ****         info->defaultVal = 0.0f;
 449              		.loc 3 135 9 is_stmt 1 view .LVU76
 450              		.loc 3 135 26 is_stmt 0 view .LVU77
 451 001c 5361     		str	r3, [r2, #20]	@ float
 136:source/Heavy_daisy_control.cpp ****         break;
 452              		.loc 3 136 9 is_stmt 1 view .LVU78
 453              	.L29:
 137:source/Heavy_daisy_control.cpp ****       }
ARM GAS  /var/folders/fb/yfxt3z4538j6z0vjt03w70vc0000gn/T//ccW52HDD.s 			page 13


 138:source/Heavy_daisy_control.cpp ****     }
 139:source/Heavy_daisy_control.cpp ****   }
 140:source/Heavy_daisy_control.cpp ****   return 3;
 454              		.loc 3 140 3 view .LVU79
 141:source/Heavy_daisy_control.cpp **** }
 455              		.loc 3 141 1 is_stmt 0 view .LVU80
 456 001e 0320     		movs	r0, #3
 457 0020 7047     		bx	lr
 458              	.LVL26:
 459              	.L33:
 102:source/Heavy_daisy_control.cpp ****         info->name = "button1";
 460              		.loc 3 102 7 is_stmt 1 view .LVU81
 102:source/Heavy_daisy_control.cpp ****         info->name = "button1";
 461              		.loc 3 102 15 view .LVU82
 103:source/Heavy_daisy_control.cpp ****         info->hash = 0xFB2DC5B6;
 462              		.loc 3 103 9 view .LVU83
 107:source/Heavy_daisy_control.cpp ****         info->defaultVal = 0.5f;
 463              		.loc 3 107 22 is_stmt 0 view .LVU84
 464 0022 4FF07E50 		mov	r0, #1065353216
 465              	.LVL27:
 108:source/Heavy_daisy_control.cpp ****         break;
 466              		.loc 3 108 26 view .LVU85
 467 0026 4FF07C53 		mov	r3, #1056964608
 106:source/Heavy_daisy_control.cpp ****         info->maxVal = 1.0f;
 468              		.loc 3 106 22 view .LVU86
 469 002a 4FF0000C 		mov	ip, #0
 105:source/Heavy_daisy_control.cpp ****         info->minVal = 0.0f;
 470              		.loc 3 105 20 view .LVU87
 471 002e 1172     		strb	r1, [r2, #8]
 104:source/Heavy_daisy_control.cpp ****         info->type = HvParameterType::HV_PARAM_TYPE_PARAMETER_IN;
 472              		.loc 3 104 20 view .LVU88
 473 0030 1349     		ldr	r1, .L34+4
 474              	.LVL28:
 107:source/Heavy_daisy_control.cpp ****         info->defaultVal = 0.5f;
 475              		.loc 3 107 22 view .LVU89
 476 0032 1061     		str	r0, [r2, #16]	@ float
 477              		.loc 3 141 1 view .LVU90
 478 0034 0320     		movs	r0, #3
 106:source/Heavy_daisy_control.cpp ****         info->maxVal = 1.0f;
 479              		.loc 3 106 22 view .LVU91
 480 0036 C2F80CC0 		str	ip, [r2, #12]	@ float
 104:source/Heavy_daisy_control.cpp ****         info->type = HvParameterType::HV_PARAM_TYPE_PARAMETER_IN;
 481              		.loc 3 104 20 view .LVU92
 482 003a 5160     		str	r1, [r2, #4]
 108:source/Heavy_daisy_control.cpp ****         break;
 483              		.loc 3 108 26 view .LVU93
 484 003c 5361     		str	r3, [r2, #20]	@ float
  99:source/Heavy_daisy_control.cpp ****   if (info != nullptr) {
 485              		.loc 3 99 77 view .LVU94
 486 003e 10B4     		push	{r4}
 487              		.cfi_def_cfa_offset 4
 488              		.cfi_offset 4, -4
 103:source/Heavy_daisy_control.cpp ****         info->hash = 0xFB2DC5B6;
 489              		.loc 3 103 20 view .LVU95
 490 0040 104C     		ldr	r4, .L34+8
 491 0042 1460     		str	r4, [r2]
 104:source/Heavy_daisy_control.cpp ****         info->type = HvParameterType::HV_PARAM_TYPE_PARAMETER_IN;
ARM GAS  /var/folders/fb/yfxt3z4538j6z0vjt03w70vc0000gn/T//ccW52HDD.s 			page 14


 492              		.loc 3 104 9 is_stmt 1 view .LVU96
 105:source/Heavy_daisy_control.cpp ****         info->minVal = 0.0f;
 493              		.loc 3 105 9 view .LVU97
 106:source/Heavy_daisy_control.cpp ****         info->maxVal = 1.0f;
 494              		.loc 3 106 9 view .LVU98
 107:source/Heavy_daisy_control.cpp ****         info->defaultVal = 0.5f;
 495              		.loc 3 107 9 view .LVU99
 108:source/Heavy_daisy_control.cpp ****         break;
 496              		.loc 3 108 9 view .LVU100
 109:source/Heavy_daisy_control.cpp ****       }
 497              		.loc 3 109 9 view .LVU101
 140:source/Heavy_daisy_control.cpp **** }
 498              		.loc 3 140 3 view .LVU102
 499              		.loc 3 141 1 is_stmt 0 view .LVU103
 500 0044 5DF8044B 		ldr	r4, [sp], #4
 501              		.cfi_restore 4
 502              		.cfi_def_cfa_offset 0
 503 0048 7047     		bx	lr
 504              	.LVL29:
 505              	.L23:
 120:source/Heavy_daisy_control.cpp ****         info->name = "ctrl";
 506              		.loc 3 120 7 is_stmt 1 view .LVU104
 120:source/Heavy_daisy_control.cpp ****         info->name = "ctrl";
 507              		.loc 3 120 15 view .LVU105
 121:source/Heavy_daisy_control.cpp ****         info->hash = 0x44BF7D9D;
 508              		.loc 3 121 9 view .LVU106
 125:source/Heavy_daisy_control.cpp ****         info->defaultVal = 0.5f;
 509              		.loc 3 125 22 is_stmt 0 view .LVU107
 510 004a 4FF07E5C 		mov	ip, #1065353216
 126:source/Heavy_daisy_control.cpp ****         break;
 511              		.loc 3 126 26 view .LVU108
 512 004e 4FF07C50 		mov	r0, #1056964608
 513              	.LVL30:
 121:source/Heavy_daisy_control.cpp ****         info->hash = 0x44BF7D9D;
 514              		.loc 3 121 20 view .LVU109
 515 0052 0D49     		ldr	r1, .L34+12
 516              	.LVL31:
 122:source/Heavy_daisy_control.cpp ****         info->type = HvParameterType::HV_PARAM_TYPE_PARAMETER_IN;
 517              		.loc 3 122 20 view .LVU110
 518 0054 0D4B     		ldr	r3, .L34+16
 519              	.L32:
 126:source/Heavy_daisy_control.cpp ****         break;
 520              		.loc 3 126 26 view .LVU111
 521 0056 5061     		str	r0, [r2, #20]	@ float
 522              		.loc 3 141 1 view .LVU112
 523 0058 0320     		movs	r0, #3
 125:source/Heavy_daisy_control.cpp ****         info->defaultVal = 0.5f;
 524              		.loc 3 125 22 view .LVU113
 525 005a C2F810C0 		str	ip, [r2, #16]	@ float
 122:source/Heavy_daisy_control.cpp ****         info->type = HvParameterType::HV_PARAM_TYPE_PARAMETER_IN;
 526              		.loc 3 122 20 view .LVU114
 527 005e C2E90013 		strd	r1, r3, [r2]
 123:source/Heavy_daisy_control.cpp ****         info->minVal = 0.0f;
 528              		.loc 3 123 9 is_stmt 1 view .LVU115
 123:source/Heavy_daisy_control.cpp ****         info->minVal = 0.0f;
 529              		.loc 3 123 20 is_stmt 0 view .LVU116
 530 0062 0021     		movs	r1, #0
ARM GAS  /var/folders/fb/yfxt3z4538j6z0vjt03w70vc0000gn/T//ccW52HDD.s 			page 15


 124:source/Heavy_daisy_control.cpp ****         info->maxVal = 1.0f;
 531              		.loc 3 124 22 view .LVU117
 532 0064 0023     		movs	r3, #0
 123:source/Heavy_daisy_control.cpp ****         info->minVal = 0.0f;
 533              		.loc 3 123 20 view .LVU118
 534 0066 1172     		strb	r1, [r2, #8]
 124:source/Heavy_daisy_control.cpp ****         info->maxVal = 1.0f;
 535              		.loc 3 124 9 is_stmt 1 view .LVU119
 124:source/Heavy_daisy_control.cpp ****         info->maxVal = 1.0f;
 536              		.loc 3 124 22 is_stmt 0 view .LVU120
 537 0068 D360     		str	r3, [r2, #12]	@ float
 125:source/Heavy_daisy_control.cpp ****         info->defaultVal = 0.5f;
 538              		.loc 3 125 9 is_stmt 1 view .LVU121
 126:source/Heavy_daisy_control.cpp ****         break;
 539              		.loc 3 126 9 view .LVU122
 127:source/Heavy_daisy_control.cpp ****       }
 540              		.loc 3 127 9 view .LVU123
 140:source/Heavy_daisy_control.cpp **** }
 541              		.loc 3 140 3 view .LVU124
 542              		.loc 3 141 1 is_stmt 0 view .LVU125
 543 006a 7047     		bx	lr
 544              	.LVL32:
 545              	.L22:
 111:source/Heavy_daisy_control.cpp ****         info->name = "button1_press";
 546              		.loc 3 111 7 is_stmt 1 view .LVU126
 111:source/Heavy_daisy_control.cpp ****         info->name = "button1_press";
 547              		.loc 3 111 15 view .LVU127
 112:source/Heavy_daisy_control.cpp ****         info->hash = 0xDF1CF8D9;
 548              		.loc 3 112 9 view .LVU128
 116:source/Heavy_daisy_control.cpp ****         info->defaultVal = 0.5f;
 549              		.loc 3 116 22 is_stmt 0 view .LVU129
 550 006c 4FF07E5C 		mov	ip, #1065353216
 117:source/Heavy_daisy_control.cpp ****         break;
 551              		.loc 3 117 26 view .LVU130
 552 0070 4FF07C50 		mov	r0, #1056964608
 553              	.LVL33:
 112:source/Heavy_daisy_control.cpp ****         info->hash = 0xDF1CF8D9;
 554              		.loc 3 112 20 view .LVU131
 555 0074 0649     		ldr	r1, .L34+20
 556              	.LVL34:
 113:source/Heavy_daisy_control.cpp ****         info->type = HvParameterType::HV_PARAM_TYPE_PARAMETER_IN;
 557              		.loc 3 113 20 view .LVU132
 558 0076 074B     		ldr	r3, .L34+24
 559 0078 EDE7     		b	.L32
 560              	.L35:
 561 007a 00BF     		.align	2
 562              	.L34:
 563 007c 20000000 		.word	.LC4
 564 0080 B6C52DFB 		.word	-80886346
 565 0084 00000000 		.word	.LC1
 566 0088 18000000 		.word	.LC3
 567 008c 9D7DBF44 		.word	1153400221
 568 0090 08000000 		.word	.LC2
 569 0094 D9F81CDF 		.word	-551749415
 570              		.cfi_endproc
 571              	.LFE1003:
 573              		.section	.text._ZN19Heavy_daisy_controlD2Ev,"ax",%progbits
ARM GAS  /var/folders/fb/yfxt3z4538j6z0vjt03w70vc0000gn/T//ccW52HDD.s 			page 16


 574              		.align	1
 575              		.p2align 2,,3
 576              		.global	_ZN19Heavy_daisy_controlD2Ev
 577              		.syntax unified
 578              		.thumb
 579              		.thumb_func
 581              	_ZN19Heavy_daisy_controlD2Ev:
 582              	.LVL35:
 583              	.LFB998:
  73:source/Heavy_daisy_control.cpp ****   // nothing to free
 584              		.loc 3 73 1 is_stmt 1 view -0
 585              		.cfi_startproc
 586              		@ args = 0, pretend = 0, frame = 0
 587              		@ frame_needed = 0, uses_anonymous_args = 0
 588              	.LBB87:
  73:source/Heavy_daisy_control.cpp ****   // nothing to free
 589              		.loc 3 73 43 is_stmt 0 view .LVU134
 590 0000 034B     		ldr	r3, .L38
 591              	.LBE87:
  73:source/Heavy_daisy_control.cpp ****   // nothing to free
 592              		.loc 3 73 1 view .LVU135
 593 0002 10B5     		push	{r4, lr}
 594              		.cfi_def_cfa_offset 8
 595              		.cfi_offset 4, -8
 596              		.cfi_offset 14, -4
  73:source/Heavy_daisy_control.cpp ****   // nothing to free
 597              		.loc 3 73 1 view .LVU136
 598 0004 0446     		mov	r4, r0
 599              	.LBB88:
  73:source/Heavy_daisy_control.cpp ****   // nothing to free
 600              		.loc 3 73 43 view .LVU137
 601 0006 0360     		str	r3, [r0]
 602 0008 FFF7FEFF 		bl	_ZN12HeavyContextD2Ev
 603              	.LVL36:
  73:source/Heavy_daisy_control.cpp ****   // nothing to free
 604              		.loc 3 73 43 view .LVU138
 605              	.LBE88:
  75:source/Heavy_daisy_control.cpp **** 
 606              		.loc 3 75 1 view .LVU139
 607 000c 2046     		mov	r0, r4
 608 000e 10BD     		pop	{r4, pc}
 609              	.LVL37:
 610              	.L39:
  75:source/Heavy_daisy_control.cpp **** 
 611              		.loc 3 75 1 view .LVU140
 612              		.align	2
 613              	.L38:
 614 0010 08000000 		.word	.LANCHOR0+8
 615              		.cfi_endproc
 616              	.LFE998:
 618              		.global	_ZN19Heavy_daisy_controlD1Ev
 619              		.thumb_set _ZN19Heavy_daisy_controlD1Ev,_ZN19Heavy_daisy_controlD2Ev
 620              		.section	.text._ZN19Heavy_daisy_controlD0Ev,"ax",%progbits
 621              		.align	1
 622              		.p2align 2,,3
 623              		.global	_ZN19Heavy_daisy_controlD0Ev
 624              		.syntax unified
ARM GAS  /var/folders/fb/yfxt3z4538j6z0vjt03w70vc0000gn/T//ccW52HDD.s 			page 17


 625              		.thumb
 626              		.thumb_func
 628              	_ZN19Heavy_daisy_controlD0Ev:
 629              	.LVL38:
 630              	.LFB1000:
  73:source/Heavy_daisy_control.cpp ****   // nothing to free
 631              		.loc 3 73 1 is_stmt 1 view -0
 632              		.cfi_startproc
 633              		@ args = 0, pretend = 0, frame = 0
 634              		@ frame_needed = 0, uses_anonymous_args = 0
 635              	.LBB89:
 636              	.LBB90:
  73:source/Heavy_daisy_control.cpp ****   // nothing to free
 637              		.loc 3 73 43 is_stmt 0 view .LVU142
 638 0000 054B     		ldr	r3, .L42
 639              	.LBE90:
 640              	.LBE89:
  73:source/Heavy_daisy_control.cpp ****   // nothing to free
 641              		.loc 3 73 1 view .LVU143
 642 0002 10B5     		push	{r4, lr}
 643              		.cfi_def_cfa_offset 8
 644              		.cfi_offset 4, -8
 645              		.cfi_offset 14, -4
  73:source/Heavy_daisy_control.cpp ****   // nothing to free
 646              		.loc 3 73 1 view .LVU144
 647 0004 0446     		mov	r4, r0
 648              	.LVL39:
 649              	.LBB92:
 650              	.LBI89:
  73:source/Heavy_daisy_control.cpp ****   // nothing to free
 651              		.loc 3 73 1 is_stmt 1 view .LVU145
 652              	.LBB91:
  73:source/Heavy_daisy_control.cpp ****   // nothing to free
 653              		.loc 3 73 43 is_stmt 0 view .LVU146
 654 0006 0360     		str	r3, [r0]
 655 0008 FFF7FEFF 		bl	_ZN12HeavyContextD2Ev
 656              	.LVL40:
  73:source/Heavy_daisy_control.cpp ****   // nothing to free
 657              		.loc 3 73 43 view .LVU147
 658              	.LBE91:
 659              	.LBE92:
  75:source/Heavy_daisy_control.cpp **** 
 660              		.loc 3 75 1 view .LVU148
 661 000c B821     		movs	r1, #184
 662 000e 2046     		mov	r0, r4
 663 0010 FFF7FEFF 		bl	_ZdlPvj
 664              	.LVL41:
 665 0014 2046     		mov	r0, r4
 666 0016 10BD     		pop	{r4, pc}
 667              	.LVL42:
 668              	.L43:
  75:source/Heavy_daisy_control.cpp **** 
 669              		.loc 3 75 1 view .LVU149
 670              		.align	2
 671              	.L42:
 672 0018 08000000 		.word	.LANCHOR0+8
 673              		.cfi_endproc
ARM GAS  /var/folders/fb/yfxt3z4538j6z0vjt03w70vc0000gn/T//ccW52HDD.s 			page 18


 674              	.LFE1000:
 676              		.section	.text._ZN19Heavy_daisy_control13processInlineEPfS0_i,"ax",%progbits
 677              		.align	1
 678              		.p2align 2,,3
 679              		.global	_ZN19Heavy_daisy_control13processInlineEPfS0_i
 680              		.syntax unified
 681              		.thumb
 682              		.thumb_func
 684              	_ZN19Heavy_daisy_control13processInlineEPfS0_i:
 685              	.LVL43:
 686              	.LFB1016:
 142:source/Heavy_daisy_control.cpp **** 
 143:source/Heavy_daisy_control.cpp **** 
 144:source/Heavy_daisy_control.cpp **** 
 145:source/Heavy_daisy_control.cpp **** /*
 146:source/Heavy_daisy_control.cpp ****  * Send Function Implementations
 147:source/Heavy_daisy_control.cpp ****  */
 148:source/Heavy_daisy_control.cpp **** 
 149:source/Heavy_daisy_control.cpp **** 
 150:source/Heavy_daisy_control.cpp **** void Heavy_daisy_control::cVar_AW77KVCO_sendMessage(HeavyContextInterface *_c, int letIn, const HvM
 151:source/Heavy_daisy_control.cpp ****   cBinop_k_onMessage(_c, NULL, HV_BINOP_MULTIPLY, 2000.0f, 0, m, &cBinop_4tVV6Rnh_sendMessage);
 152:source/Heavy_daisy_control.cpp **** }
 153:source/Heavy_daisy_control.cpp **** 
 154:source/Heavy_daisy_control.cpp **** void Heavy_daisy_control::cCast_8ZVuQ8Zq_sendMessage(HeavyContextInterface *_c, int letIn, const Hv
 155:source/Heavy_daisy_control.cpp ****   cCast_onMessage(_c, HV_CAST_BANG, 0, m, &cCast_jy66met6_sendMessage);
 156:source/Heavy_daisy_control.cpp ****   cCast_onMessage(_c, HV_CAST_BANG, 0, m, &cCast_Nt5hgoBa_sendMessage);
 157:source/Heavy_daisy_control.cpp **** }
 158:source/Heavy_daisy_control.cpp **** 
 159:source/Heavy_daisy_control.cpp **** void Heavy_daisy_control::cCast_Nt5hgoBa_sendMessage(HeavyContextInterface *_c, int letIn, const Hv
 160:source/Heavy_daisy_control.cpp ****   cMsg_n6Kq10ds_sendMessage(_c, 0, m);
 161:source/Heavy_daisy_control.cpp **** }
 162:source/Heavy_daisy_control.cpp **** 
 163:source/Heavy_daisy_control.cpp **** void Heavy_daisy_control::cCast_jy66met6_sendMessage(HeavyContextInterface *_c, int letIn, const Hv
 164:source/Heavy_daisy_control.cpp ****   cMsg_VLKH4ctf_sendMessage(_c, 0, m);
 165:source/Heavy_daisy_control.cpp **** }
 166:source/Heavy_daisy_control.cpp **** 
 167:source/Heavy_daisy_control.cpp **** void Heavy_daisy_control::cMsg_VLKH4ctf_sendMessage(HeavyContextInterface *_c, int letIn, const HvM
 168:source/Heavy_daisy_control.cpp ****   HvMessage *m = nullptr;
 169:source/Heavy_daisy_control.cpp ****   m = HV_MESSAGE_ON_STACK(1);
 170:source/Heavy_daisy_control.cpp ****   msg_init(m, 1, msg_getTimestamp(n));
 171:source/Heavy_daisy_control.cpp ****   msg_setFloat(m, 0, 1.0f);
 172:source/Heavy_daisy_control.cpp ****   sLine_onMessage(_c, &Context(_c)->sLine_vmZdgXXU, 0, m, NULL);
 173:source/Heavy_daisy_control.cpp **** }
 174:source/Heavy_daisy_control.cpp **** 
 175:source/Heavy_daisy_control.cpp **** void Heavy_daisy_control::cMsg_n6Kq10ds_sendMessage(HeavyContextInterface *_c, int letIn, const HvM
 176:source/Heavy_daisy_control.cpp ****   HvMessage *m = nullptr;
 177:source/Heavy_daisy_control.cpp ****   m = HV_MESSAGE_ON_STACK(2);
 178:source/Heavy_daisy_control.cpp ****   msg_init(m, 2, msg_getTimestamp(n));
 179:source/Heavy_daisy_control.cpp ****   msg_setFloat(m, 0, 0.0f);
 180:source/Heavy_daisy_control.cpp ****   msg_setFloat(m, 1, 500.0f);
 181:source/Heavy_daisy_control.cpp ****   sLine_onMessage(_c, &Context(_c)->sLine_vmZdgXXU, 0, m, NULL);
 182:source/Heavy_daisy_control.cpp **** }
 183:source/Heavy_daisy_control.cpp **** 
 184:source/Heavy_daisy_control.cpp **** void Heavy_daisy_control::cBinop_4tVV6Rnh_sendMessage(HeavyContextInterface *_c, int letIn, const H
 185:source/Heavy_daisy_control.cpp ****   sVarf_onMessage(_c, &Context(_c)->sVarf_axfsxrnT, m);
 186:source/Heavy_daisy_control.cpp **** }
 187:source/Heavy_daisy_control.cpp **** 
ARM GAS  /var/folders/fb/yfxt3z4538j6z0vjt03w70vc0000gn/T//ccW52HDD.s 			page 19


 188:source/Heavy_daisy_control.cpp **** void Heavy_daisy_control::cSend_bF0tWjeW_sendMessage(HeavyContextInterface *_c, int letIn, const Hv
 189:source/Heavy_daisy_control.cpp ****   if (_c->getSendHook() != nullptr) _c->getSendHook()(_c, "led1", 0xE817C68D, m);
 190:source/Heavy_daisy_control.cpp **** }
 191:source/Heavy_daisy_control.cpp **** 
 192:source/Heavy_daisy_control.cpp **** void Heavy_daisy_control::cReceive_Qe1xe8gU_sendMessage(HeavyContextInterface *_c, int letIn, const
 193:source/Heavy_daisy_control.cpp ****   cSend_bF0tWjeW_sendMessage(_c, 0, m);
 194:source/Heavy_daisy_control.cpp ****   cPrint_onMessage(_c, m, "print");
 195:source/Heavy_daisy_control.cpp **** }
 196:source/Heavy_daisy_control.cpp **** 
 197:source/Heavy_daisy_control.cpp **** void Heavy_daisy_control::cReceive_axElndMB_sendMessage(HeavyContextInterface *_c, int letIn, const
 198:source/Heavy_daisy_control.cpp ****   cCast_onMessage(_c, HV_CAST_BANG, 0, m, &cCast_jy66met6_sendMessage);
 199:source/Heavy_daisy_control.cpp ****   cCast_onMessage(_c, HV_CAST_BANG, 0, m, &cCast_Nt5hgoBa_sendMessage);
 200:source/Heavy_daisy_control.cpp **** }
 201:source/Heavy_daisy_control.cpp **** 
 202:source/Heavy_daisy_control.cpp **** void Heavy_daisy_control::cReceive_gJQ9EXSU_sendMessage(HeavyContextInterface *_c, int letIn, const
 203:source/Heavy_daisy_control.cpp ****   cBinop_k_onMessage(_c, NULL, HV_BINOP_MULTIPLY, 2000.0f, 0, m, &cBinop_4tVV6Rnh_sendMessage);
 204:source/Heavy_daisy_control.cpp ****   cPrint_onMessage(_c, m, "print");
 205:source/Heavy_daisy_control.cpp **** }
 206:source/Heavy_daisy_control.cpp **** 
 207:source/Heavy_daisy_control.cpp **** 
 208:source/Heavy_daisy_control.cpp **** 
 209:source/Heavy_daisy_control.cpp **** 
 210:source/Heavy_daisy_control.cpp **** /*
 211:source/Heavy_daisy_control.cpp ****  * Context Process Implementation
 212:source/Heavy_daisy_control.cpp ****  */
 213:source/Heavy_daisy_control.cpp **** 
 214:source/Heavy_daisy_control.cpp **** int Heavy_daisy_control::process(float **inputBuffers, float **outputBuffers, int n) {
 215:source/Heavy_daisy_control.cpp ****   while (hLp_hasData(&inQueue)) {
 216:source/Heavy_daisy_control.cpp ****     hv_uint32_t numBytes = 0;
 217:source/Heavy_daisy_control.cpp ****     ReceiverMessagePair *p = reinterpret_cast<ReceiverMessagePair *>(hLp_getReadBuffer(&inQueue, &n
 218:source/Heavy_daisy_control.cpp ****     hv_assert(numBytes >= sizeof(ReceiverMessagePair));
 219:source/Heavy_daisy_control.cpp ****     scheduleMessageForReceiver(p->receiverHash, &p->msg);
 220:source/Heavy_daisy_control.cpp ****     hLp_consume(&inQueue);
 221:source/Heavy_daisy_control.cpp ****   }
 222:source/Heavy_daisy_control.cpp ****   const int n4 = n & ~HV_N_SIMD_MASK; // ensure that the block size is a multiple of HV_N_SIMD
 223:source/Heavy_daisy_control.cpp **** 
 224:source/Heavy_daisy_control.cpp ****   // temporary signal vars
 225:source/Heavy_daisy_control.cpp ****   hv_bufferf_t Bf0, Bf1, Bf2, Bf3, Bf4;
 226:source/Heavy_daisy_control.cpp **** 
 227:source/Heavy_daisy_control.cpp ****   // input and output vars
 228:source/Heavy_daisy_control.cpp ****   hv_bufferf_t O0, O1;
 229:source/Heavy_daisy_control.cpp **** 
 230:source/Heavy_daisy_control.cpp ****   // declare and init the zero buffer
 231:source/Heavy_daisy_control.cpp ****   hv_bufferf_t ZERO; __hv_zero_f(VOf(ZERO));
 232:source/Heavy_daisy_control.cpp **** 
 233:source/Heavy_daisy_control.cpp ****   hv_uint32_t nextBlock = blockStartTimestamp;
 234:source/Heavy_daisy_control.cpp ****   for (int n = 0; n < n4; n += HV_N_SIMD) {
 235:source/Heavy_daisy_control.cpp **** 
 236:source/Heavy_daisy_control.cpp ****     // process all of the messages for this block
 237:source/Heavy_daisy_control.cpp ****     nextBlock += HV_N_SIMD;
 238:source/Heavy_daisy_control.cpp ****     while (mq_hasMessageBefore(&mq, nextBlock)) {
 239:source/Heavy_daisy_control.cpp ****       MessageNode *const node = mq_peek(&mq);
 240:source/Heavy_daisy_control.cpp ****       node->sendMessage(this, node->let, node->m);
 241:source/Heavy_daisy_control.cpp ****       mq_pop(&mq);
 242:source/Heavy_daisy_control.cpp ****     }
 243:source/Heavy_daisy_control.cpp **** 
 244:source/Heavy_daisy_control.cpp ****     
ARM GAS  /var/folders/fb/yfxt3z4538j6z0vjt03w70vc0000gn/T//ccW52HDD.s 			page 20


 245:source/Heavy_daisy_control.cpp **** 
 246:source/Heavy_daisy_control.cpp ****     // zero output buffers
 247:source/Heavy_daisy_control.cpp ****     __hv_zero_f(VOf(O0));
 248:source/Heavy_daisy_control.cpp ****     __hv_zero_f(VOf(O1));
 249:source/Heavy_daisy_control.cpp **** 
 250:source/Heavy_daisy_control.cpp ****     // process all signal functions
 251:source/Heavy_daisy_control.cpp ****     __hv_varread_f(&sVarf_axfsxrnT, VOf(Bf0));
 252:source/Heavy_daisy_control.cpp ****     __hv_phasor_f(&sPhasor_WIqHwY1c, VIf(Bf0), VOf(Bf0));
 253:source/Heavy_daisy_control.cpp ****     __hv_var_k_f(VOf(Bf1), 0.5f, 0.5f, 0.5f, 0.5f, 0.5f, 0.5f, 0.5f, 0.5f);
 254:source/Heavy_daisy_control.cpp ****     __hv_sub_f(VIf(Bf0), VIf(Bf1), VOf(Bf1));
 255:source/Heavy_daisy_control.cpp ****     __hv_abs_f(VIf(Bf1), VOf(Bf1));
 256:source/Heavy_daisy_control.cpp ****     __hv_var_k_f(VOf(Bf0), 0.25f, 0.25f, 0.25f, 0.25f, 0.25f, 0.25f, 0.25f, 0.25f);
 257:source/Heavy_daisy_control.cpp ****     __hv_sub_f(VIf(Bf1), VIf(Bf0), VOf(Bf0));
 258:source/Heavy_daisy_control.cpp ****     __hv_var_k_f(VOf(Bf1), 6.283185307179586f, 6.283185307179586f, 6.283185307179586f, 6.2831853071
 259:source/Heavy_daisy_control.cpp ****     __hv_mul_f(VIf(Bf0), VIf(Bf1), VOf(Bf1));
 260:source/Heavy_daisy_control.cpp ****     __hv_mul_f(VIf(Bf1), VIf(Bf1), VOf(Bf0));
 261:source/Heavy_daisy_control.cpp ****     __hv_mul_f(VIf(Bf1), VIf(Bf0), VOf(Bf2));
 262:source/Heavy_daisy_control.cpp ****     __hv_mul_f(VIf(Bf2), VIf(Bf0), VOf(Bf0));
 263:source/Heavy_daisy_control.cpp ****     __hv_var_k_f(VOf(Bf3), 0.007833333333333f, 0.007833333333333f, 0.007833333333333f, 0.0078333333
 264:source/Heavy_daisy_control.cpp ****     __hv_var_k_f(VOf(Bf4), -0.166666666666667f, -0.166666666666667f, -0.166666666666667f, -0.166666
 265:source/Heavy_daisy_control.cpp ****     __hv_fma_f(VIf(Bf2), VIf(Bf4), VIf(Bf1), VOf(Bf1));
 266:source/Heavy_daisy_control.cpp ****     __hv_fma_f(VIf(Bf0), VIf(Bf3), VIf(Bf1), VOf(Bf1));
 267:source/Heavy_daisy_control.cpp ****     __hv_line_f(&sLine_vmZdgXXU, VOf(Bf3));
 268:source/Heavy_daisy_control.cpp ****     __hv_mul_f(VIf(Bf1), VIf(Bf3), VOf(Bf3));
 269:source/Heavy_daisy_control.cpp ****     __hv_add_f(VIf(Bf3), VIf(O0), VOf(O0));
 270:source/Heavy_daisy_control.cpp **** 
 271:source/Heavy_daisy_control.cpp ****     // save output vars to output buffer
 272:source/Heavy_daisy_control.cpp ****     __hv_store_f(outputBuffers[0]+n, VIf(O0));
 273:source/Heavy_daisy_control.cpp ****     __hv_store_f(outputBuffers[1]+n, VIf(O1));
 274:source/Heavy_daisy_control.cpp ****   }
 275:source/Heavy_daisy_control.cpp **** 
 276:source/Heavy_daisy_control.cpp ****   blockStartTimestamp = nextBlock;
 277:source/Heavy_daisy_control.cpp **** 
 278:source/Heavy_daisy_control.cpp ****   return n4; // return the number of frames processed
 279:source/Heavy_daisy_control.cpp **** }
 280:source/Heavy_daisy_control.cpp **** 
 281:source/Heavy_daisy_control.cpp **** int Heavy_daisy_control::processInline(float *inputBuffers, float *outputBuffers, int n4) {
 687              		.loc 3 281 91 is_stmt 1 view -0
 688              		.cfi_startproc
 689              		@ args = 0, pretend = 0, frame = 0
 690              		@ frame_needed = 1, uses_anonymous_args = 0
 282:source/Heavy_daisy_control.cpp ****   hv_assert(!(n4 & HV_N_SIMD_MASK)); // ensure that n4 is a multiple of HV_N_SIMD
 691              		.loc 3 282 3 view .LVU151
 283:source/Heavy_daisy_control.cpp **** 
 284:source/Heavy_daisy_control.cpp ****   // define the heavy input buffer for 0 channel(s)
 285:source/Heavy_daisy_control.cpp ****   float **const bIn = NULL;
 692              		.loc 3 285 3 view .LVU152
 286:source/Heavy_daisy_control.cpp **** 
 287:source/Heavy_daisy_control.cpp ****   // define the heavy output buffer for 2 channel(s)
 288:source/Heavy_daisy_control.cpp ****   float **const bOut = reinterpret_cast<float **>(hv_alloca(2*sizeof(float *)));
 693              		.loc 3 288 3 view .LVU153
 281:source/Heavy_daisy_control.cpp ****   hv_assert(!(n4 & HV_N_SIMD_MASK)); // ensure that n4 is a multiple of HV_N_SIMD
 694              		.loc 3 281 91 is_stmt 0 view .LVU154
 695 0000 B0B5     		push	{r4, r5, r7, lr}
 696              		.cfi_def_cfa_offset 16
 697              		.cfi_offset 4, -16
 698              		.cfi_offset 5, -12
ARM GAS  /var/folders/fb/yfxt3z4538j6z0vjt03w70vc0000gn/T//ccW52HDD.s 			page 21


 699              		.cfi_offset 7, -8
 700              		.cfi_offset 14, -4
 701 0002 1146     		mov	r1, r2
 702              	.LVL44:
 281:source/Heavy_daisy_control.cpp ****   hv_assert(!(n4 & HV_N_SIMD_MASK)); // ensure that n4 is a multiple of HV_N_SIMD
 703              		.loc 3 281 91 view .LVU155
 704 0004 00AF     		add	r7, sp, #0
 705              		.cfi_def_cfa_register 7
 706              		.loc 3 288 51 view .LVU156
 707 0006 82B0     		sub	sp, sp, #8
 289:source/Heavy_daisy_control.cpp ****   bOut[0] = outputBuffers+(0*n4);
 290:source/Heavy_daisy_control.cpp ****   bOut[1] = outputBuffers+(1*n4);
 291:source/Heavy_daisy_control.cpp **** 
 292:source/Heavy_daisy_control.cpp ****   int n = process(bIn, bOut, n4);
 708              		.loc 3 292 32 view .LVU157
 709 0008 0568     		ldr	r5, [r0]
 290:source/Heavy_daisy_control.cpp **** 
 710              		.loc 3 290 26 view .LVU158
 711 000a 01EB8304 		add	r4, r1, r3, lsl #2
 288:source/Heavy_daisy_control.cpp ****   bOut[0] = outputBuffers+(0*n4);
 712              		.loc 3 288 51 view .LVU159
 713 000e 6A46     		mov	r2, sp
 714              	.LVL45:
 289:source/Heavy_daisy_control.cpp ****   bOut[0] = outputBuffers+(0*n4);
 715              		.loc 3 289 3 is_stmt 1 view .LVU160
 716              		.loc 3 292 18 is_stmt 0 view .LVU161
 717 0010 2D6C     		ldr	r5, [r5, #64]
 290:source/Heavy_daisy_control.cpp **** 
 718              		.loc 3 290 11 view .LVU162
 719 0012 C2E90014 		strd	r1, r4, [r2]
 720              		.loc 3 292 3 is_stmt 1 view .LVU163
 721              		.loc 3 292 18 is_stmt 0 view .LVU164
 722 0016 0021     		movs	r1, #0
 723              	.LVL46:
 724              		.loc 3 292 18 view .LVU165
 725 0018 A847     		blx	r5
 726              	.LVL47:
 293:source/Heavy_daisy_control.cpp ****   return n;
 727              		.loc 3 293 3 is_stmt 1 view .LVU166
 294:source/Heavy_daisy_control.cpp **** }
 728              		.loc 3 294 1 is_stmt 0 view .LVU167
 729 001a BD46     		mov	sp, r7
 730              		.cfi_def_cfa_register 13
 731              	.LVL48:
 732              		.loc 3 294 1 view .LVU168
 733              		@ sp needed
 734 001c B0BD     		pop	{r4, r5, r7, pc}
 735              		.cfi_endproc
 736              	.LFE1016:
 738 001e 00BF     		.section	.rodata._ZN19Heavy_daisy_control24processInlineInterleavedEPfS0_i.str1.4,"aMS",%progbits,
 739              		.align	2
 740              	.LC5:
 741 0000 6E342026 		.ascii	"n4 & ~(1-1)\000"
 741      207E2831 
 741      2D312900 
 742              		.align	2
 743              	.LC6:
ARM GAS  /var/folders/fb/yfxt3z4538j6z0vjt03w70vc0000gn/T//ccW52HDD.s 			page 22


 744 000c 76697274 		.ascii	"virtual int Heavy_daisy_control::processInlineInter"
 744      75616C20 
 744      696E7420 
 744      48656176 
 744      795F6461 
 745 003f 6C656176 		.ascii	"leaved(float*, float*, int)\000"
 745      65642866 
 745      6C6F6174 
 745      2A2C2066 
 745      6C6F6174 
 746 005b 00       		.align	2
 747              	.LC7:
 748 005c 736F7572 		.ascii	"source/Heavy_daisy_control.cpp\000"
 748      63652F48 
 748      65617679 
 748      5F646169 
 748      73795F63 
 749              		.section	.text._ZN19Heavy_daisy_control24processInlineInterleavedEPfS0_i,"ax",%progbits
 750              		.align	1
 751              		.p2align 2,,3
 752              		.global	_ZN19Heavy_daisy_control24processInlineInterleavedEPfS0_i
 753              		.syntax unified
 754              		.thumb
 755              		.thumb_func
 757              	_ZN19Heavy_daisy_control24processInlineInterleavedEPfS0_i:
 758              	.LVL49:
 759              	.LFB1017:
 295:source/Heavy_daisy_control.cpp **** 
 296:source/Heavy_daisy_control.cpp **** int Heavy_daisy_control::processInlineInterleaved(float *inputBuffers, float *outputBuffers, int n4
 760              		.loc 3 296 102 is_stmt 1 view -0
 761              		.cfi_startproc
 762              		@ args = 0, pretend = 0, frame = 0
 763              		@ frame_needed = 1, uses_anonymous_args = 0
 297:source/Heavy_daisy_control.cpp ****   hv_assert(n4 & ~HV_N_SIMD_MASK); // ensure that n4 is a multiple of HV_N_SIMD
 764              		.loc 3 297 3 view .LVU170
 296:source/Heavy_daisy_control.cpp ****   hv_assert(n4 & ~HV_N_SIMD_MASK); // ensure that n4 is a multiple of HV_N_SIMD
 765              		.loc 3 296 102 is_stmt 0 view .LVU171
 766 0000 2DE9F843 		push	{r3, r4, r5, r6, r7, r8, r9, lr}
 767              		.cfi_def_cfa_offset 32
 768              		.cfi_offset 3, -32
 769              		.cfi_offset 4, -28
 770              		.cfi_offset 5, -24
 771              		.cfi_offset 6, -20
 772              		.cfi_offset 7, -16
 773              		.cfi_offset 8, -12
 774              		.cfi_offset 9, -8
 775              		.cfi_offset 14, -4
 776 0004 00AF     		add	r7, sp, #0
 777              		.cfi_def_cfa_register 7
 778              		.loc 3 297 3 view .LVU172
 779 0006 2BB3     		cbz	r3, .L54
 298:source/Heavy_daisy_control.cpp **** 
 299:source/Heavy_daisy_control.cpp ****   // define the heavy input buffer for 0 channel(s), uninterleave
 300:source/Heavy_daisy_control.cpp ****   float *const bIn = NULL;
 780              		.loc 3 300 3 is_stmt 1 view .LVU173
 781              	.LVL50:
 301:source/Heavy_daisy_control.cpp **** 
ARM GAS  /var/folders/fb/yfxt3z4538j6z0vjt03w70vc0000gn/T//ccW52HDD.s 			page 23


 302:source/Heavy_daisy_control.cpp ****   // define the heavy output buffer for 2 channel(s)
 303:source/Heavy_daisy_control.cpp ****   float *const bOut = reinterpret_cast<float *>(hv_alloca(2*n4*sizeof(float)));
 782              		.loc 3 303 3 view .LVU174
 783 0008 1646     		mov	r6, r2
 784              		.loc 3 303 49 is_stmt 0 view .LVU175
 785 000a 6A46     		mov	r2, sp
 786              	.LVL51:
 304:source/Heavy_daisy_control.cpp **** 
 305:source/Heavy_daisy_control.cpp ****   int n = processInline(bIn, bOut, n4);
 787              		.loc 3 305 24 view .LVU176
 788 000c 0021     		movs	r1, #0
 789              	.LVL52:
 790              		.loc 3 305 24 view .LVU177
 791 000e 1D46     		mov	r5, r3
 303:source/Heavy_daisy_control.cpp **** 
 792              		.loc 3 303 49 view .LVU178
 793 0010 A2EBC302 		sub	r2, r2, r3, lsl #3
 794 0014 4FEA8509 		lsl	r9, r5, #2
 795 0018 9546     		mov	sp, r2
 796              		.loc 3 305 38 view .LVU179
 797 001a 0268     		ldr	r2, [r0]
 303:source/Heavy_daisy_control.cpp **** 
 798              		.loc 3 303 49 view .LVU180
 799 001c E846     		mov	r8, sp
 800              	.LVL53:
 801              		.loc 3 305 3 is_stmt 1 view .LVU181
 802              		.loc 3 305 24 is_stmt 0 view .LVU182
 803 001e 546C     		ldr	r4, [r2, #68]
 804 0020 4246     		mov	r2, r8
 805 0022 A047     		blx	r4
 806              	.LVL54:
 807              		.loc 3 305 24 view .LVU183
 808 0024 0023     		movs	r3, #0
 809 0026 08EB8504 		add	r4, r8, r5, lsl #2
 810              	.LVL55:
 306:source/Heavy_daisy_control.cpp **** 
 307:source/Heavy_daisy_control.cpp ****   // interleave the heavy output into the output buffer
 308:source/Heavy_daisy_control.cpp ****   #if HV_SIMD_AVX
 309:source/Heavy_daisy_control.cpp ****   for (int i = 0, j = 0; j < n4; j += 8, i += 16) {
 310:source/Heavy_daisy_control.cpp ****     __m256 x = _mm256_load_ps(bOut+j);    // LLLLLLLL
 311:source/Heavy_daisy_control.cpp ****     __m256 y = _mm256_load_ps(bOut+n4+j); // RRRRRRRR
 312:source/Heavy_daisy_control.cpp ****     __m256 a = _mm256_unpacklo_ps(x, y);  // LRLRLRLR
 313:source/Heavy_daisy_control.cpp ****     __m256 b = _mm256_unpackhi_ps(x, y);  // LRLRLRLR
 314:source/Heavy_daisy_control.cpp ****     _mm256_store_ps(outputBuffers+i, a);
 315:source/Heavy_daisy_control.cpp ****     _mm256_store_ps(outputBuffers+8+i, b);
 316:source/Heavy_daisy_control.cpp ****   }
 317:source/Heavy_daisy_control.cpp ****   #elif HV_SIMD_SSE
 318:source/Heavy_daisy_control.cpp ****   for (int i = 0, j = 0; j < n4; j += 4, i += 8) {
 319:source/Heavy_daisy_control.cpp ****     __m128 x = _mm_load_ps(bOut+j);    // LLLL
 320:source/Heavy_daisy_control.cpp ****     __m128 y = _mm_load_ps(bOut+n4+j); // RRRR
 321:source/Heavy_daisy_control.cpp ****     __m128 a = _mm_unpacklo_ps(x, y);  // LRLR
 322:source/Heavy_daisy_control.cpp ****     __m128 b = _mm_unpackhi_ps(x, y);  // LRLR
 323:source/Heavy_daisy_control.cpp ****     _mm_store_ps(outputBuffers+i, a);
 324:source/Heavy_daisy_control.cpp ****     _mm_store_ps(outputBuffers+4+i, b);
 325:source/Heavy_daisy_control.cpp ****   }
 326:source/Heavy_daisy_control.cpp ****   #elif HV_SIMD_NEON
 327:source/Heavy_daisy_control.cpp ****   // https://community.arm.com/groups/processors/blog/2012/03/13/coding-for-neon--part-5-rearrangin
ARM GAS  /var/folders/fb/yfxt3z4538j6z0vjt03w70vc0000gn/T//ccW52HDD.s 			page 24


 328:source/Heavy_daisy_control.cpp ****   for (int i = 0, j = 0; j < n4; j += 4, i += 8) {
 329:source/Heavy_daisy_control.cpp ****     float32x4_t x = vld1q_f32(bOut+j);
 330:source/Heavy_daisy_control.cpp ****     float32x4_t y = vld1q_f32(bOut+n4+j);
 331:source/Heavy_daisy_control.cpp ****     float32x4x2_t z = {x, y};
 332:source/Heavy_daisy_control.cpp ****     vst2q_f32(outputBuffers+i, z); // interleave and store
 333:source/Heavy_daisy_control.cpp ****   }
 334:source/Heavy_daisy_control.cpp ****   #else // HV_SIMD_NONE
 335:source/Heavy_daisy_control.cpp ****   for (int i = 0; i < 2; ++i) {
 811              		.loc 3 335 3 is_stmt 1 view .LVU184
 812              	.LBB93:
 813              		.loc 3 335 21 view .LVU185
 814              		.loc 3 335 12 is_stmt 0 view .LVU186
 815 002a 1A46     		mov	r2, r3
 816              	.LVL56:
 817              	.L50:
 818              	.LBB94:
 336:source/Heavy_daisy_control.cpp ****     for (int j = 0; j < n4; ++j) {
 819              		.loc 3 336 23 is_stmt 1 view .LVU187
 820 002c 002D     		cmp	r5, #0
 821 002e 09DD     		ble	.L48
 822 0030 08EB8301 		add	r1, r8, r3, lsl #2
 823 0034 06EB820C 		add	ip, r6, r2, lsl #2
 824              	.LVL57:
 825              	.L49:
 337:source/Heavy_daisy_control.cpp ****       outputBuffers[i+2*j] = bOut[i*n4+j];
 826              		.loc 3 337 7 discriminator 2 view .LVU188
 827              		.loc 3 337 41 is_stmt 0 discriminator 2 view .LVU189
 828 0038 51F804EB 		ldr	lr, [r1], #4	@ float
 336:source/Heavy_daisy_control.cpp ****     for (int j = 0; j < n4; ++j) {
 829              		.loc 3 336 23 discriminator 2 view .LVU190
 830 003c A142     		cmp	r1, r4
 831              		.loc 3 337 28 discriminator 2 view .LVU191
 832 003e 4CF808EB 		str	lr, [ip], #8	@ float
 336:source/Heavy_daisy_control.cpp ****     for (int j = 0; j < n4; ++j) {
 833              		.loc 3 336 5 is_stmt 1 discriminator 2 view .LVU192
 336:source/Heavy_daisy_control.cpp ****     for (int j = 0; j < n4; ++j) {
 834              		.loc 3 336 23 discriminator 2 view .LVU193
 835 0042 F9D1     		bne	.L49
 836              	.L48:
 336:source/Heavy_daisy_control.cpp ****     for (int j = 0; j < n4; ++j) {
 837              		.loc 3 336 23 is_stmt 0 discriminator 2 view .LVU194
 838              	.LBE94:
 335:source/Heavy_daisy_control.cpp ****     for (int j = 0; j < n4; ++j) {
 839              		.loc 3 335 3 is_stmt 1 view .LVU195
 840              	.LVL58:
 335:source/Heavy_daisy_control.cpp ****     for (int j = 0; j < n4; ++j) {
 841              		.loc 3 335 21 view .LVU196
 842 0044 2B44     		add	r3, r3, r5
 843 0046 4C44     		add	r4, r4, r9
 844 0048 12B1     		cbz	r2, .L51
 845              	.LBE93:
 338:source/Heavy_daisy_control.cpp ****     }
 339:source/Heavy_daisy_control.cpp ****   }
 340:source/Heavy_daisy_control.cpp ****   #endif
 341:source/Heavy_daisy_control.cpp **** 
 342:source/Heavy_daisy_control.cpp ****   return n;
 846              		.loc 3 342 3 view .LVU197
ARM GAS  /var/folders/fb/yfxt3z4538j6z0vjt03w70vc0000gn/T//ccW52HDD.s 			page 25


 343:source/Heavy_daisy_control.cpp **** }
 847              		.loc 3 343 1 is_stmt 0 view .LVU198
 848 004a BD46     		mov	sp, r7
 849              		.cfi_remember_state
 850              		.cfi_def_cfa_register 13
 851              		@ sp needed
 852 004c BDE8F883 		pop	{r3, r4, r5, r6, r7, r8, r9, pc}
 853              	.LVL59:
 854              	.L51:
 855              		.cfi_restore_state
 856              	.LBB95:
 857              		.loc 3 343 1 view .LVU199
 858 0050 0122     		movs	r2, #1
 859              	.LVL60:
 860              		.loc 3 343 1 view .LVU200
 861 0052 EBE7     		b	.L50
 862              	.LVL61:
 863              	.L54:
 864              		.loc 3 343 1 view .LVU201
 865              	.LBE95:
 297:source/Heavy_daisy_control.cpp **** 
 866              		.loc 3 297 3 discriminator 1 view .LVU202
 867 0054 034B     		ldr	r3, .L55
 868              	.LVL62:
 297:source/Heavy_daisy_control.cpp **** 
 869              		.loc 3 297 3 discriminator 1 view .LVU203
 870 0056 40F22911 		movw	r1, #297
 871              	.LVL63:
 297:source/Heavy_daisy_control.cpp **** 
 872              		.loc 3 297 3 discriminator 1 view .LVU204
 873 005a 034A     		ldr	r2, .L55+4
 874              	.LVL64:
 297:source/Heavy_daisy_control.cpp **** 
 875              		.loc 3 297 3 discriminator 1 view .LVU205
 876 005c 0348     		ldr	r0, .L55+8
 877              	.LVL65:
 297:source/Heavy_daisy_control.cpp **** 
 878              		.loc 3 297 3 discriminator 1 view .LVU206
 879 005e FFF7FEFF 		bl	__assert_func
 880              	.LVL66:
 881              	.L56:
 882 0062 00BF     		.align	2
 883              	.L55:
 884 0064 00000000 		.word	.LC5
 885 0068 0C000000 		.word	.LC6
 886 006c 5C000000 		.word	.LC7
 887              		.cfi_endproc
 888              	.LFE1017:
 890              		.section	.text._ZN19Heavy_daisy_control27cBinop_4tVV6Rnh_sendMessageEP21HeavyContextInterfaceiPK9H
 891              		.align	1
 892              		.p2align 2,,3
 893              		.global	_ZN19Heavy_daisy_control27cBinop_4tVV6Rnh_sendMessageEP21HeavyContextInterfaceiPK9HvMessag
 894              		.syntax unified
 895              		.thumb
 896              		.thumb_func
 898              	_ZN19Heavy_daisy_control27cBinop_4tVV6Rnh_sendMessageEP21HeavyContextInterfaceiPK9HvMessage:
 899              	.LVL67:
ARM GAS  /var/folders/fb/yfxt3z4538j6z0vjt03w70vc0000gn/T//ccW52HDD.s 			page 26


 900              	.LFB1010:
 184:source/Heavy_daisy_control.cpp ****   sVarf_onMessage(_c, &Context(_c)->sVarf_axfsxrnT, m);
 901              		.loc 3 184 113 is_stmt 1 view -0
 902              		.cfi_startproc
 903              		@ args = 0, pretend = 0, frame = 0
 904              		@ frame_needed = 0, uses_anonymous_args = 0
 905              		@ link register save eliminated.
 185:source/Heavy_daisy_control.cpp **** }
 906              		.loc 3 185 3 view .LVU208
 185:source/Heavy_daisy_control.cpp **** }
 907              		.loc 3 185 18 is_stmt 0 view .LVU209
 908 0000 00F1B001 		add	r1, r0, #176
 909              	.LVL68:
 185:source/Heavy_daisy_control.cpp **** }
 910              		.loc 3 185 18 view .LVU210
 911 0004 FFF7FEBF 		b	sVarf_onMessage
 912              	.LVL69:
 185:source/Heavy_daisy_control.cpp **** }
 913              		.loc 3 185 18 view .LVU211
 914              		.cfi_endproc
 915              	.LFE1010:
 917              		.section	.rodata._ZN19Heavy_daisy_control29cReceive_gJQ9EXSU_sendMessageEP21HeavyContextInterfacei
 918              		.align	2
 919              	.LC8:
 920 0000 7072696E 		.ascii	"print\000"
 920      7400
 921              		.section	.text._ZN19Heavy_daisy_control29cReceive_gJQ9EXSU_sendMessageEP21HeavyContextInterfaceiPK
 922              		.align	1
 923              		.p2align 2,,3
 924              		.global	_ZN19Heavy_daisy_control29cReceive_gJQ9EXSU_sendMessageEP21HeavyContextInterfaceiPK9HvMess
 925              		.syntax unified
 926              		.thumb
 927              		.thumb_func
 929              	_ZN19Heavy_daisy_control29cReceive_gJQ9EXSU_sendMessageEP21HeavyContextInterfaceiPK9HvMessage:
 930              	.LVL70:
 931              	.LFB1014:
 202:source/Heavy_daisy_control.cpp ****   cBinop_k_onMessage(_c, NULL, HV_BINOP_MULTIPLY, 2000.0f, 0, m, &cBinop_4tVV6Rnh_sendMessage);
 932              		.loc 3 202 115 is_stmt 1 view -0
 933              		.cfi_startproc
 934              		@ args = 0, pretend = 0, frame = 0
 935              		@ frame_needed = 0, uses_anonymous_args = 0
 203:source/Heavy_daisy_control.cpp ****   cPrint_onMessage(_c, m, "print");
 936              		.loc 3 203 3 view .LVU213
 202:source/Heavy_daisy_control.cpp ****   cBinop_k_onMessage(_c, NULL, HV_BINOP_MULTIPLY, 2000.0f, 0, m, &cBinop_4tVV6Rnh_sendMessage);
 937              		.loc 3 202 115 is_stmt 0 view .LVU214
 938 0000 30B5     		push	{r4, r5, lr}
 939              		.cfi_def_cfa_offset 12
 940              		.cfi_offset 4, -12
 941              		.cfi_offset 5, -8
 942              		.cfi_offset 14, -4
 203:source/Heavy_daisy_control.cpp ****   cPrint_onMessage(_c, m, "print");
 943              		.loc 3 203 21 view .LVU215
 944 0002 0023     		movs	r3, #0
 202:source/Heavy_daisy_control.cpp ****   cBinop_k_onMessage(_c, NULL, HV_BINOP_MULTIPLY, 2000.0f, 0, m, &cBinop_4tVV6Rnh_sendMessage);
 945              		.loc 3 202 115 view .LVU216
 946 0004 83B0     		sub	sp, sp, #12
 947              		.cfi_def_cfa_offset 24
ARM GAS  /var/folders/fb/yfxt3z4538j6z0vjt03w70vc0000gn/T//ccW52HDD.s 			page 27


 202:source/Heavy_daisy_control.cpp ****   cBinop_k_onMessage(_c, NULL, HV_BINOP_MULTIPLY, 2000.0f, 0, m, &cBinop_4tVV6Rnh_sendMessage);
 948              		.loc 3 202 115 view .LVU217
 949 0006 1446     		mov	r4, r2
 203:source/Heavy_daisy_control.cpp ****   cPrint_onMessage(_c, m, "print");
 950              		.loc 3 203 21 view .LVU218
 951 0008 0849     		ldr	r1, .L60
 952              	.LVL71:
 202:source/Heavy_daisy_control.cpp ****   cBinop_k_onMessage(_c, NULL, HV_BINOP_MULTIPLY, 2000.0f, 0, m, &cBinop_4tVV6Rnh_sendMessage);
 953              		.loc 3 202 115 view .LVU219
 954 000a 0546     		mov	r5, r0
 203:source/Heavy_daisy_control.cpp ****   cPrint_onMessage(_c, m, "print");
 955              		.loc 3 203 21 view .LVU220
 956 000c 9FED080A 		vldr.32	s0, .L60+4
 957 0010 0191     		str	r1, [sp, #4]
 958 0012 0222     		movs	r2, #2
 959              	.LVL72:
 203:source/Heavy_daisy_control.cpp ****   cPrint_onMessage(_c, m, "print");
 960              		.loc 3 203 21 view .LVU221
 961 0014 1946     		mov	r1, r3
 962 0016 0094     		str	r4, [sp]
 963 0018 FFF7FEFF 		bl	cBinop_k_onMessage
 964              	.LVL73:
 204:source/Heavy_daisy_control.cpp **** }
 965              		.loc 3 204 3 is_stmt 1 view .LVU222
 204:source/Heavy_daisy_control.cpp **** }
 966              		.loc 3 204 19 is_stmt 0 view .LVU223
 967 001c 054A     		ldr	r2, .L60+8
 968 001e 2146     		mov	r1, r4
 969 0020 2846     		mov	r0, r5
 205:source/Heavy_daisy_control.cpp **** 
 970              		.loc 3 205 1 view .LVU224
 971 0022 03B0     		add	sp, sp, #12
 972              		.cfi_def_cfa_offset 12
 973              		@ sp needed
 974 0024 BDE83040 		pop	{r4, r5, lr}
 975              		.cfi_restore 14
 976              		.cfi_restore 5
 977              		.cfi_restore 4
 978              		.cfi_def_cfa_offset 0
 979              	.LVL74:
 204:source/Heavy_daisy_control.cpp **** }
 980              		.loc 3 204 19 view .LVU225
 981 0028 FFF7FEBF 		b	cPrint_onMessage
 982              	.LVL75:
 983              	.L61:
 204:source/Heavy_daisy_control.cpp **** }
 984              		.loc 3 204 19 view .LVU226
 985              		.align	2
 986              	.L60:
 987 002c 00000000 		.word	_ZN19Heavy_daisy_control27cBinop_4tVV6Rnh_sendMessageEP21HeavyContextInterfaceiPK9HvMessage
 988 0030 0000FA44 		.word	1157234688
 989 0034 00000000 		.word	.LC8
 990              		.cfi_endproc
 991              	.LFE1014:
 993              		.section	.rodata._ZN19Heavy_daisy_control7processEPPfS1_i.str1.4,"aMS",%progbits,1
 994              		.align	2
 995              	.LC9:
ARM GAS  /var/folders/fb/yfxt3z4538j6z0vjt03w70vc0000gn/T//ccW52HDD.s 			page 28


 996 0000 6E756D42 		.ascii	"numBytes >= sizeof(ReceiverMessagePair)\000"
 996      79746573 
 996      203E3D20 
 996      73697A65 
 996      6F662852 
 997              		.align	2
 998              	.LC10:
 999 0028 76697274 		.ascii	"virtual int Heavy_daisy_control::process(float**, f"
 999      75616C20 
 999      696E7420 
 999      48656176 
 999      795F6461 
 1000 005b 6C6F6174 		.ascii	"loat**, int)\000"
 1000      2A2A2C20 
 1000      696E7429 
 1000      00
 1001              		.section	.text._ZN19Heavy_daisy_control7processEPPfS1_i,"ax",%progbits
 1002              		.align	1
 1003              		.p2align 2,,3
 1004              		.global	_ZN19Heavy_daisy_control7processEPPfS1_i
 1005              		.syntax unified
 1006              		.thumb
 1007              		.thumb_func
 1009              	_ZN19Heavy_daisy_control7processEPPfS1_i:
 1010              	.LVL76:
 1011              	.LFB1015:
 214:source/Heavy_daisy_control.cpp ****   while (hLp_hasData(&inQueue)) {
 1012              		.loc 3 214 86 is_stmt 1 view -0
 1013              		.cfi_startproc
 1014              		@ args = 0, pretend = 0, frame = 8
 1015              		@ frame_needed = 0, uses_anonymous_args = 0
 214:source/Heavy_daisy_control.cpp ****   while (hLp_hasData(&inQueue)) {
 1016              		.loc 3 214 86 is_stmt 0 view .LVU228
 1017 0000 2DE9F043 		push	{r4, r5, r6, r7, r8, r9, lr}
 1018              		.cfi_def_cfa_offset 28
 1019              		.cfi_offset 4, -28
 1020              		.cfi_offset 5, -24
 1021              		.cfi_offset 6, -20
 1022              		.cfi_offset 7, -16
 1023              		.cfi_offset 8, -12
 1024              		.cfi_offset 9, -8
 1025              		.cfi_offset 14, -4
 1026 0004 0446     		mov	r4, r0
 1027 0006 83B0     		sub	sp, sp, #12
 1028              		.cfi_def_cfa_offset 40
 214:source/Heavy_daisy_control.cpp ****   while (hLp_hasData(&inQueue)) {
 1029              		.loc 3 214 86 view .LVU229
 1030 0008 1546     		mov	r5, r2
 1031 000a 1E46     		mov	r6, r3
 215:source/Heavy_daisy_control.cpp ****     hv_uint32_t numBytes = 0;
 1032              		.loc 3 215 21 view .LVU230
 1033 000c 00F15C08 		add	r8, r0, #92
 1034 0010 14E0     		b	.L65
 1035              	.LVL77:
 1036              	.L80:
 1037              	.LBB96:
 216:source/Heavy_daisy_control.cpp ****     ReceiverMessagePair *p = reinterpret_cast<ReceiverMessagePair *>(hLp_getReadBuffer(&inQueue, &n
ARM GAS  /var/folders/fb/yfxt3z4538j6z0vjt03w70vc0000gn/T//ccW52HDD.s 			page 29


 1038              		.loc 3 216 5 is_stmt 1 view .LVU231
 216:source/Heavy_daisy_control.cpp ****     ReceiverMessagePair *p = reinterpret_cast<ReceiverMessagePair *>(hLp_getReadBuffer(&inQueue, &n
 1039              		.loc 3 216 17 is_stmt 0 view .LVU232
 1040 0012 0023     		movs	r3, #0
 217:source/Heavy_daisy_control.cpp ****     hv_assert(numBytes >= sizeof(ReceiverMessagePair));
 1041              		.loc 3 217 87 view .LVU233
 1042 0014 01A9     		add	r1, sp, #4
 1043 0016 4046     		mov	r0, r8
 216:source/Heavy_daisy_control.cpp ****     ReceiverMessagePair *p = reinterpret_cast<ReceiverMessagePair *>(hLp_getReadBuffer(&inQueue, &n
 1044              		.loc 3 216 17 view .LVU234
 1045 0018 0193     		str	r3, [sp, #4]
 217:source/Heavy_daisy_control.cpp ****     hv_assert(numBytes >= sizeof(ReceiverMessagePair));
 1046              		.loc 3 217 5 is_stmt 1 view .LVU235
 217:source/Heavy_daisy_control.cpp ****     hv_assert(numBytes >= sizeof(ReceiverMessagePair));
 1047              		.loc 3 217 87 is_stmt 0 view .LVU236
 1048 001a FFF7FEFF 		bl	hLp_getReadBuffer
 1049              	.LVL78:
 218:source/Heavy_daisy_control.cpp ****     scheduleMessageForReceiver(p->receiverHash, &p->msg);
 1050              		.loc 3 218 5 view .LVU237
 1051 001e 019B     		ldr	r3, [sp, #4]
 217:source/Heavy_daisy_control.cpp ****     hv_assert(numBytes >= sizeof(ReceiverMessagePair));
 1052              		.loc 3 217 87 view .LVU238
 1053 0020 0246     		mov	r2, r0
 1054              	.LVL79:
 218:source/Heavy_daisy_control.cpp ****     scheduleMessageForReceiver(p->receiverHash, &p->msg);
 1055              		.loc 3 218 5 is_stmt 1 view .LVU239
 1056 0022 132B     		cmp	r3, #19
 1057 0024 40F29280 		bls	.L79
 219:source/Heavy_daisy_control.cpp ****     hLp_consume(&inQueue);
 1058              		.loc 3 219 5 discriminator 1 view .LVU240
 219:source/Heavy_daisy_control.cpp ****     hLp_consume(&inQueue);
 1059              		.loc 3 219 56 is_stmt 0 discriminator 1 view .LVU241
 1060 0028 2368     		ldr	r3, [r4]
 219:source/Heavy_daisy_control.cpp ****     hLp_consume(&inQueue);
 1061              		.loc 3 219 31 discriminator 1 view .LVU242
 1062 002a 2046     		mov	r0, r4
 1063              	.LVL80:
 219:source/Heavy_daisy_control.cpp ****     hLp_consume(&inQueue);
 1064              		.loc 3 219 31 discriminator 1 view .LVU243
 1065 002c 52F8041B 		ldr	r1, [r2], #4
 1066              	.LVL81:
 219:source/Heavy_daisy_control.cpp ****     hLp_consume(&inQueue);
 1067              		.loc 3 219 31 discriminator 1 view .LVU244
 1068 0030 D3F89030 		ldr	r3, [r3, #144]
 1069 0034 9847     		blx	r3
 1070              	.LVL82:
 220:source/Heavy_daisy_control.cpp ****   }
 1071              		.loc 3 220 5 is_stmt 1 discriminator 1 view .LVU245
 220:source/Heavy_daisy_control.cpp ****   }
 1072              		.loc 3 220 16 is_stmt 0 discriminator 1 view .LVU246
 1073 0036 4046     		mov	r0, r8
 1074 0038 FFF7FEFF 		bl	hLp_consume
 1075              	.LVL83:
 1076              	.L65:
 220:source/Heavy_daisy_control.cpp ****   }
 1077              		.loc 3 220 16 discriminator 1 view .LVU247
 1078              	.LBE96:
ARM GAS  /var/folders/fb/yfxt3z4538j6z0vjt03w70vc0000gn/T//ccW52HDD.s 			page 30


 215:source/Heavy_daisy_control.cpp ****     hv_uint32_t numBytes = 0;
 1079              		.loc 3 215 3 is_stmt 1 view .LVU248
 215:source/Heavy_daisy_control.cpp ****     hv_uint32_t numBytes = 0;
 1080              		.loc 3 215 21 view .LVU249
 1081 003c 4046     		mov	r0, r8
 1082 003e FFF7FEFF 		bl	hLp_hasData
 1083              	.LVL84:
 1084 0042 0746     		mov	r7, r0
 1085 0044 0028     		cmp	r0, #0
 1086 0046 E4D1     		bne	.L80
 222:source/Heavy_daisy_control.cpp **** 
 1087              		.loc 3 222 3 view .LVU250
 1088              	.LVL85:
 225:source/Heavy_daisy_control.cpp **** 
 1089              		.loc 3 225 3 view .LVU251
 228:source/Heavy_daisy_control.cpp **** 
 1090              		.loc 3 228 3 view .LVU252
 231:source/Heavy_daisy_control.cpp **** 
 1091              		.loc 3 231 3 view .LVU253
 231:source/Heavy_daisy_control.cpp **** 
 1092              		.loc 3 231 22 view .LVU254
 1093              		.file 4 "source/HvMath.h"
   1:source/HvMath.h **** /**
   2:source/HvMath.h ****  * Copyright (c) 2014-2018 Enzien Audio Ltd.
   3:source/HvMath.h ****  *
   4:source/HvMath.h ****  * Permission to use, copy, modify, and/or distribute this software for any
   5:source/HvMath.h ****  * purpose with or without fee is hereby granted, provided that the above
   6:source/HvMath.h ****  * copyright notice and this permission notice appear in all copies.
   7:source/HvMath.h ****  *
   8:source/HvMath.h ****  * THE SOFTWARE IS PROVIDED "AS IS" AND THE AUTHOR DISCLAIMS ALL WARRANTIES WITH
   9:source/HvMath.h ****  * REGARD TO THIS SOFTWARE INCLUDING ALL IMPLIED WARRANTIES OF MERCHANTABILITY
  10:source/HvMath.h ****  * AND FITNESS. IN NO EVENT SHALL THE AUTHOR BE LIABLE FOR ANY SPECIAL, DIRECT,
  11:source/HvMath.h ****  * INDIRECT, OR CONSEQUENTIAL DAMAGES OR ANY DAMAGES WHATSOEVER RESULTING FROM
  12:source/HvMath.h ****  * LOSS OF USE, DATA OR PROFITS, WHETHER IN AN ACTION OF CONTRACT, NEGLIGENCE OR
  13:source/HvMath.h ****  * OTHER TORTIOUS ACTION, ARISING OUT OF OR IN CONNECTION WITH THE USE OR
  14:source/HvMath.h ****  * PERFORMANCE OF THIS SOFTWARE.
  15:source/HvMath.h ****  */
  16:source/HvMath.h **** 
  17:source/HvMath.h **** #ifndef _HEAVY_MATH_H_
  18:source/HvMath.h **** #define _HEAVY_MATH_H_
  19:source/HvMath.h **** 
  20:source/HvMath.h **** #include "HvUtils.h"
  21:source/HvMath.h **** 
  22:source/HvMath.h **** // https://software.intel.com/sites/landingpage/IntrinsicsGuide/
  23:source/HvMath.h **** // https://gcc.gnu.org/onlinedocs/gcc-4.8.1/gcc/ARM-NEON-Intrinsics.html
  24:source/HvMath.h **** // http://codesuppository.blogspot.co.uk/2015/02/sse2neonh-porting-guide-and-header-file.html
  25:source/HvMath.h **** 
  26:source/HvMath.h **** static inline void __hv_zero_f(hv_bOutf_t bOut) {
  27:source/HvMath.h **** #if HV_SIMD_AVX
  28:source/HvMath.h ****   *bOut = _mm256_setzero_ps();
  29:source/HvMath.h **** #elif HV_SIMD_SSE
  30:source/HvMath.h ****   *bOut = _mm_setzero_ps();
  31:source/HvMath.h **** #elif HV_SIMD_NEON
  32:source/HvMath.h ****   *bOut = vdupq_n_f32(0.0f);
  33:source/HvMath.h **** #else // HV_SIMD_NONE
  34:source/HvMath.h ****   *bOut = 0.0f;
 1094              		.loc 4 34 3 view .LVU255
ARM GAS  /var/folders/fb/yfxt3z4538j6z0vjt03w70vc0000gn/T//ccW52HDD.s 			page 31


 233:source/Heavy_daisy_control.cpp ****   for (int n = 0; n < n4; n += HV_N_SIMD) {
 1095              		.loc 3 233 3 view .LVU256
 1096              	.LBB97:
 234:source/Heavy_daisy_control.cpp **** 
 1097              		.loc 3 234 21 is_stmt 0 view .LVU257
 1098 0048 002E     		cmp	r6, #0
 1099              	.LBE97:
 233:source/Heavy_daisy_control.cpp ****   for (int n = 0; n < n4; n += HV_N_SIMD) {
 1100              		.loc 3 233 15 view .LVU258
 1101 004a D4F81080 		ldr	r8, [r4, #16]
 1102              	.LVL86:
 234:source/Heavy_daisy_control.cpp **** 
 1103              		.loc 3 234 3 is_stmt 1 view .LVU259
 1104              	.LBB216:
 234:source/Heavy_daisy_control.cpp **** 
 1105              		.loc 3 234 21 view .LVU260
 1106 004e 76DD     		ble	.L73
 1107 0050 06EB0809 		add	r9, r6, r8
 1108 0054 A069     		ldr	r0, [r4, #24]
 1109              	.L72:
 1110              	.LBB98:
 237:source/Heavy_daisy_control.cpp ****     while (mq_hasMessageBefore(&mq, nextBlock)) {
 1111              		.loc 3 237 5 view .LVU261
 237:source/Heavy_daisy_control.cpp ****     while (mq_hasMessageBefore(&mq, nextBlock)) {
 1112              		.loc 3 237 15 is_stmt 0 view .LVU262
 1113 0056 08F10108 		add	r8, r8, #1
 1114              	.LVL87:
 238:source/Heavy_daisy_control.cpp ****       MessageNode *const node = mq_peek(&mq);
 1115              		.loc 3 238 5 is_stmt 1 view .LVU263
 238:source/Heavy_daisy_control.cpp ****       MessageNode *const node = mq_peek(&mq);
 1116              		.loc 3 238 31 view .LVU264
 1117              	.LBB99:
 1118              	.LBI99:
 1119              		.file 5 "source/HvMessageQueue.h"
   1:source/HvMessageQueue.h **** /**
   2:source/HvMessageQueue.h ****  * Copyright (c) 2014-2018 Enzien Audio Ltd.
   3:source/HvMessageQueue.h ****  *
   4:source/HvMessageQueue.h ****  * Permission to use, copy, modify, and/or distribute this software for any
   5:source/HvMessageQueue.h ****  * purpose with or without fee is hereby granted, provided that the above
   6:source/HvMessageQueue.h ****  * copyright notice and this permission notice appear in all copies.
   7:source/HvMessageQueue.h ****  *
   8:source/HvMessageQueue.h ****  * THE SOFTWARE IS PROVIDED "AS IS" AND THE AUTHOR DISCLAIMS ALL WARRANTIES WITH
   9:source/HvMessageQueue.h ****  * REGARD TO THIS SOFTWARE INCLUDING ALL IMPLIED WARRANTIES OF MERCHANTABILITY
  10:source/HvMessageQueue.h ****  * AND FITNESS. IN NO EVENT SHALL THE AUTHOR BE LIABLE FOR ANY SPECIAL, DIRECT,
  11:source/HvMessageQueue.h ****  * INDIRECT, OR CONSEQUENTIAL DAMAGES OR ANY DAMAGES WHATSOEVER RESULTING FROM
  12:source/HvMessageQueue.h ****  * LOSS OF USE, DATA OR PROFITS, WHETHER IN AN ACTION OF CONTRACT, NEGLIGENCE OR
  13:source/HvMessageQueue.h ****  * OTHER TORTIOUS ACTION, ARISING OUT OF OR IN CONNECTION WITH THE USE OR
  14:source/HvMessageQueue.h ****  * PERFORMANCE OF THIS SOFTWARE.
  15:source/HvMessageQueue.h ****  */
  16:source/HvMessageQueue.h **** 
  17:source/HvMessageQueue.h **** #ifndef _MESSAGE_QUEUE_H_
  18:source/HvMessageQueue.h **** #define _MESSAGE_QUEUE_H_
  19:source/HvMessageQueue.h **** 
  20:source/HvMessageQueue.h **** #include "HvMessage.h"
  21:source/HvMessageQueue.h **** #include "HvMessagePool.h"
  22:source/HvMessageQueue.h **** 
  23:source/HvMessageQueue.h **** #ifdef __cplusplus
ARM GAS  /var/folders/fb/yfxt3z4538j6z0vjt03w70vc0000gn/T//ccW52HDD.s 			page 32


  24:source/HvMessageQueue.h **** extern "C" {
  25:source/HvMessageQueue.h **** #endif
  26:source/HvMessageQueue.h **** 
  27:source/HvMessageQueue.h **** #ifdef __cplusplus
  28:source/HvMessageQueue.h **** class HeavyContextInterface;
  29:source/HvMessageQueue.h **** #else
  30:source/HvMessageQueue.h **** typedef struct HeavyContextInterface HeavyContextInterface;
  31:source/HvMessageQueue.h **** #endif
  32:source/HvMessageQueue.h **** 
  33:source/HvMessageQueue.h **** typedef struct MessageNode {
  34:source/HvMessageQueue.h ****   struct MessageNode *prev; // doubly linked list
  35:source/HvMessageQueue.h ****   struct MessageNode *next;
  36:source/HvMessageQueue.h ****   HvMessage *m;
  37:source/HvMessageQueue.h ****   void (*sendMessage)(HeavyContextInterface *, int, const HvMessage *);
  38:source/HvMessageQueue.h ****   int let;
  39:source/HvMessageQueue.h **** } MessageNode;
  40:source/HvMessageQueue.h **** 
  41:source/HvMessageQueue.h **** /** A doubly linked list containing scheduled messages. */
  42:source/HvMessageQueue.h **** typedef struct HvMessageQueue {
  43:source/HvMessageQueue.h ****   MessageNode *head; // the head of the queue
  44:source/HvMessageQueue.h ****   MessageNode *tail; // the tail of the queue
  45:source/HvMessageQueue.h ****   MessageNode *pool; // the head of the reserve pool
  46:source/HvMessageQueue.h ****   HvMessagePool mp;
  47:source/HvMessageQueue.h **** } HvMessageQueue;
  48:source/HvMessageQueue.h **** 
  49:source/HvMessageQueue.h **** hv_size_t mq_initWithPoolSize(HvMessageQueue *q, hv_size_t poolSizeKB);
  50:source/HvMessageQueue.h **** 
  51:source/HvMessageQueue.h **** void mq_free(HvMessageQueue *q);
  52:source/HvMessageQueue.h **** 
  53:source/HvMessageQueue.h **** int mq_size(HvMessageQueue *q);
  54:source/HvMessageQueue.h **** 
  55:source/HvMessageQueue.h **** static inline HvMessage *mq_node_getMessage(MessageNode *n) {
  56:source/HvMessageQueue.h ****   return n->m;
  57:source/HvMessageQueue.h **** }
  58:source/HvMessageQueue.h **** 
  59:source/HvMessageQueue.h **** static inline int mq_node_getLet(MessageNode *n) {
  60:source/HvMessageQueue.h ****   return n->let;
  61:source/HvMessageQueue.h **** }
  62:source/HvMessageQueue.h **** 
  63:source/HvMessageQueue.h **** static inline bool mq_hasMessage(HvMessageQueue *q) {
  64:source/HvMessageQueue.h ****   return (q->head != NULL);
  65:source/HvMessageQueue.h **** }
  66:source/HvMessageQueue.h **** 
  67:source/HvMessageQueue.h **** // true if there is a message and it occurs before (<) timestamp
  68:source/HvMessageQueue.h **** static inline bool mq_hasMessageBefore(HvMessageQueue *const q, const hv_uint32_t timestamp) {
 1120              		.loc 5 68 20 view .LVU265
 1121              	.LBB100:
  69:source/HvMessageQueue.h ****   return mq_hasMessage(q) && (msg_getTimestamp(mq_node_getMessage(q->head)) < timestamp);
 1122              		.loc 5 69 3 view .LVU266
 1123              	.LBB101:
 1124              	.LBI101:
  63:source/HvMessageQueue.h ****   return (q->head != NULL);
 1125              		.loc 5 63 20 view .LVU267
 1126              	.LBB102:
  64:source/HvMessageQueue.h **** }
 1127              		.loc 5 64 3 view .LVU268
  64:source/HvMessageQueue.h **** }
ARM GAS  /var/folders/fb/yfxt3z4538j6z0vjt03w70vc0000gn/T//ccW52HDD.s 			page 33


 1128              		.loc 5 64 3 is_stmt 0 view .LVU269
 1129              	.LBE102:
 1130              	.LBE101:
 1131              		.loc 5 69 27 view .LVU270
 1132 005a 70B1     		cbz	r0, .L70
 1133              	.LVL88:
 1134              	.L67:
 1135              	.LBB104:
 1136              	.LBI104:
  55:source/HvMessageQueue.h ****   return n->m;
 1137              		.loc 5 55 26 is_stmt 1 view .LVU271
 1138              	.LBB105:
  56:source/HvMessageQueue.h **** }
 1139              		.loc 5 56 3 view .LVU272
  56:source/HvMessageQueue.h **** }
 1140              		.loc 5 56 13 is_stmt 0 view .LVU273
 1141 005c 8268     		ldr	r2, [r0, #8]
 1142              	.LVL89:
  56:source/HvMessageQueue.h **** }
 1143              		.loc 5 56 13 view .LVU274
 1144              	.LBE105:
 1145              	.LBE104:
 1146              	.LBB106:
 1147              	.LBI106:
 1148              		.file 6 "source/HvMessage.h"
   1:source/HvMessage.h **** /**
   2:source/HvMessage.h ****  * Copyright (c) 2014-2018 Enzien Audio Ltd.
   3:source/HvMessage.h ****  *
   4:source/HvMessage.h ****  * Permission to use, copy, modify, and/or distribute this software for any
   5:source/HvMessage.h ****  * purpose with or without fee is hereby granted, provided that the above
   6:source/HvMessage.h ****  * copyright notice and this permission notice appear in all copies.
   7:source/HvMessage.h ****  *
   8:source/HvMessage.h ****  * THE SOFTWARE IS PROVIDED "AS IS" AND THE AUTHOR DISCLAIMS ALL WARRANTIES WITH
   9:source/HvMessage.h ****  * REGARD TO THIS SOFTWARE INCLUDING ALL IMPLIED WARRANTIES OF MERCHANTABILITY
  10:source/HvMessage.h ****  * AND FITNESS. IN NO EVENT SHALL THE AUTHOR BE LIABLE FOR ANY SPECIAL, DIRECT,
  11:source/HvMessage.h ****  * INDIRECT, OR CONSEQUENTIAL DAMAGES OR ANY DAMAGES WHATSOEVER RESULTING FROM
  12:source/HvMessage.h ****  * LOSS OF USE, DATA OR PROFITS, WHETHER IN AN ACTION OF CONTRACT, NEGLIGENCE OR
  13:source/HvMessage.h ****  * OTHER TORTIOUS ACTION, ARISING OUT OF OR IN CONNECTION WITH THE USE OR
  14:source/HvMessage.h ****  * PERFORMANCE OF THIS SOFTWARE.
  15:source/HvMessage.h ****  */
  16:source/HvMessage.h **** 
  17:source/HvMessage.h **** #ifndef _HEAVY_MESSAGE_H_
  18:source/HvMessage.h **** #define _HEAVY_MESSAGE_H_
  19:source/HvMessage.h **** 
  20:source/HvMessage.h **** #include "HvUtils.h"
  21:source/HvMessage.h **** 
  22:source/HvMessage.h **** #ifdef __cplusplus
  23:source/HvMessage.h **** extern "C" {
  24:source/HvMessage.h **** #endif
  25:source/HvMessage.h **** 
  26:source/HvMessage.h **** typedef enum ElementType {
  27:source/HvMessage.h ****   HV_MSG_BANG = 0,
  28:source/HvMessage.h ****   HV_MSG_FLOAT = 1,
  29:source/HvMessage.h ****   HV_MSG_SYMBOL = 2,
  30:source/HvMessage.h ****   HV_MSG_HASH = 3
  31:source/HvMessage.h **** } ElementType;
  32:source/HvMessage.h **** 
ARM GAS  /var/folders/fb/yfxt3z4538j6z0vjt03w70vc0000gn/T//ccW52HDD.s 			page 34


  33:source/HvMessage.h **** typedef struct Element {
  34:source/HvMessage.h ****   ElementType type;
  35:source/HvMessage.h ****   union {
  36:source/HvMessage.h ****     float f; // float
  37:source/HvMessage.h ****     const char *s; // symbol
  38:source/HvMessage.h ****     hv_uint32_t h; // hash
  39:source/HvMessage.h ****   } data;
  40:source/HvMessage.h **** } Element;
  41:source/HvMessage.h **** 
  42:source/HvMessage.h **** typedef struct HvMessage {
  43:source/HvMessage.h ****   hv_uint32_t timestamp; // the sample at which this message should be processed
  44:source/HvMessage.h ****   hv_uint16_t numElements;
  45:source/HvMessage.h ****   hv_uint16_t numBytes; // the total number of bytes that this message occupies in memory, includin
  46:source/HvMessage.h ****   Element elem;
  47:source/HvMessage.h **** } HvMessage;
  48:source/HvMessage.h **** 
  49:source/HvMessage.h **** typedef struct ReceiverMessagePair {
  50:source/HvMessage.h ****   hv_uint32_t receiverHash;
  51:source/HvMessage.h ****   HvMessage msg;
  52:source/HvMessage.h **** } ReceiverMessagePair;
  53:source/HvMessage.h **** 
  54:source/HvMessage.h **** #define HV_MESSAGE_ON_STACK(_x) (HvMessage *) hv_alloca(msg_getCoreSize(_x))
  55:source/HvMessage.h **** 
  56:source/HvMessage.h **** /** Returns the number of bytes that this message consumes in memory, not including strings. */
  57:source/HvMessage.h **** static inline hv_size_t msg_getCoreSize(hv_size_t numElements) {
  58:source/HvMessage.h ****   hv_assert(numElements > 0);
  59:source/HvMessage.h ****   return sizeof(HvMessage) + ((numElements-1) * sizeof(Element));
  60:source/HvMessage.h **** }
  61:source/HvMessage.h **** 
  62:source/HvMessage.h **** HvMessage *msg_copy(const HvMessage *m);
  63:source/HvMessage.h **** 
  64:source/HvMessage.h **** /** Copies the message into the given buffer. The buffer must be at least as large as msg_getNumHea
  65:source/HvMessage.h **** void msg_copyToBuffer(const HvMessage *m, char *buffer, hv_size_t len);
  66:source/HvMessage.h **** 
  67:source/HvMessage.h **** void msg_setElementToFrom(HvMessage *n, int indexN, const HvMessage *const m, int indexM);
  68:source/HvMessage.h **** 
  69:source/HvMessage.h **** /** Frees a message on the heap. Does nothing if argument is NULL. */
  70:source/HvMessage.h **** void msg_free(HvMessage *m);
  71:source/HvMessage.h **** 
  72:source/HvMessage.h **** HvMessage *msg_init(HvMessage *m, hv_size_t numElements, hv_uint32_t timestamp);
  73:source/HvMessage.h **** 
  74:source/HvMessage.h **** HvMessage *msg_initWithFloat(HvMessage *m, hv_uint32_t timestamp, float f);
  75:source/HvMessage.h **** 
  76:source/HvMessage.h **** HvMessage *msg_initWithBang(HvMessage *m, hv_uint32_t timestamp);
  77:source/HvMessage.h **** 
  78:source/HvMessage.h **** HvMessage *msg_initWithSymbol(HvMessage *m, hv_uint32_t timestamp, const char *s);
  79:source/HvMessage.h **** 
  80:source/HvMessage.h **** HvMessage *msg_initWithHash(HvMessage *m, hv_uint32_t timestamp, hv_uint32_t h);
  81:source/HvMessage.h **** 
  82:source/HvMessage.h **** static inline hv_uint32_t msg_getTimestamp(const HvMessage *m) {
 1149              		.loc 6 82 27 is_stmt 1 view .LVU275
 1150              	.LBB107:
  83:source/HvMessage.h ****   return m->timestamp;
 1151              		.loc 6 83 3 view .LVU276
 1152              		.loc 6 83 3 is_stmt 0 view .LVU277
 1153              	.LBE107:
 1154              	.LBE106:
ARM GAS  /var/folders/fb/yfxt3z4538j6z0vjt03w70vc0000gn/T//ccW52HDD.s 			page 35


 1155              		.loc 5 69 27 view .LVU278
 1156 005e 1368     		ldr	r3, [r2]
 1157 0060 9845     		cmp	r8, r3
 1158 0062 0AD9     		bls	.L70
 1159              	.LVL90:
 1160              		.loc 5 69 27 view .LVU279
 1161              	.LBE100:
 1162              	.LBE99:
 1163              	.LBB110:
 239:source/Heavy_daisy_control.cpp ****       node->sendMessage(this, node->let, node->m);
 1164              		.loc 3 239 7 is_stmt 1 view .LVU280
 239:source/Heavy_daisy_control.cpp ****       node->sendMessage(this, node->let, node->m);
 1165              		.loc 3 239 7 is_stmt 0 view .LVU281
 1166              	.LBE110:
 1167              	.LBE98:
 1168              	.LBE216:
  70:source/HvMessageQueue.h **** }
  71:source/HvMessageQueue.h **** 
  72:source/HvMessageQueue.h **** static inline MessageNode *mq_peek(HvMessageQueue *q) {
  73:source/HvMessageQueue.h ****   return q->head;
 1169              		.loc 5 73 3 is_stmt 1 view .LVU282
 1170              	.LBB217:
 1171              	.LBB209:
 1172              	.LBB111:
 240:source/Heavy_daisy_control.cpp ****       mq_pop(&mq);
 1173              		.loc 3 240 7 view .LVU283
 240:source/Heavy_daisy_control.cpp ****       mq_pop(&mq);
 1174              		.loc 3 240 24 is_stmt 0 view .LVU284
 1175 0064 D0E90331 		ldrd	r3, r1, [r0, #12]
 1176 0068 2046     		mov	r0, r4
 1177              	.LVL91:
 240:source/Heavy_daisy_control.cpp ****       mq_pop(&mq);
 1178              		.loc 3 240 24 view .LVU285
 1179 006a 9847     		blx	r3
 1180              	.LVL92:
 241:source/Heavy_daisy_control.cpp ****     }
 1181              		.loc 3 241 7 is_stmt 1 view .LVU286
 241:source/Heavy_daisy_control.cpp ****     }
 1182              		.loc 3 241 13 is_stmt 0 view .LVU287
 1183 006c 04F11800 		add	r0, r4, #24
 1184 0070 FFF7FEFF 		bl	mq_pop
 1185              	.LVL93:
 1186              	.LBE111:
 238:source/Heavy_daisy_control.cpp ****       MessageNode *const node = mq_peek(&mq);
 1187              		.loc 3 238 5 is_stmt 1 view .LVU288
 238:source/Heavy_daisy_control.cpp ****       MessageNode *const node = mq_peek(&mq);
 1188              		.loc 3 238 31 view .LVU289
 1189              	.LBB112:
  68:source/HvMessageQueue.h ****   return mq_hasMessage(q) && (msg_getTimestamp(mq_node_getMessage(q->head)) < timestamp);
 1190              		.loc 5 68 20 view .LVU290
 1191              	.LBB109:
  69:source/HvMessageQueue.h **** }
 1192              		.loc 5 69 3 view .LVU291
 1193              	.LBB108:
  63:source/HvMessageQueue.h ****   return (q->head != NULL);
 1194              		.loc 5 63 20 view .LVU292
 1195              	.LBB103:
ARM GAS  /var/folders/fb/yfxt3z4538j6z0vjt03w70vc0000gn/T//ccW52HDD.s 			page 36


  64:source/HvMessageQueue.h **** }
 1196              		.loc 5 64 3 view .LVU293
  64:source/HvMessageQueue.h **** }
 1197              		.loc 5 64 14 is_stmt 0 view .LVU294
 1198 0074 A069     		ldr	r0, [r4, #24]
 1199              	.LVL94:
  64:source/HvMessageQueue.h **** }
 1200              		.loc 5 64 14 view .LVU295
 1201              	.LBE103:
 1202              	.LBE108:
  69:source/HvMessageQueue.h **** }
 1203              		.loc 5 69 27 view .LVU296
 1204 0076 0028     		cmp	r0, #0
 1205 0078 F0D1     		bne	.L67
 1206              	.LVL95:
 1207              	.L70:
  69:source/HvMessageQueue.h **** }
 1208              		.loc 5 69 27 view .LVU297
 1209              	.LBE109:
 1210              	.LBE112:
 247:source/Heavy_daisy_control.cpp ****     __hv_zero_f(VOf(O1));
 1211              		.loc 3 247 5 is_stmt 1 view .LVU298
 247:source/Heavy_daisy_control.cpp ****     __hv_zero_f(VOf(O1));
 1212              		.loc 3 247 5 is_stmt 0 view .LVU299
 1213              	.LBE209:
 1214              	.LBE217:
 1215              		.loc 4 34 3 is_stmt 1 view .LVU300
 1216              	.LBB218:
 1217              	.LBB210:
 248:source/Heavy_daisy_control.cpp **** 
 1218              		.loc 3 248 5 view .LVU301
 248:source/Heavy_daisy_control.cpp **** 
 1219              		.loc 3 248 5 is_stmt 0 view .LVU302
 1220              	.LBE210:
 1221              	.LBE218:
 1222              		.loc 4 34 3 is_stmt 1 view .LVU303
 1223              	.LBB219:
 1224              	.LBB211:
 251:source/Heavy_daisy_control.cpp ****     __hv_phasor_f(&sPhasor_WIqHwY1c, VIf(Bf0), VOf(Bf0));
 1225              		.loc 3 251 5 view .LVU304
 1226              	.LBB113:
 1227              	.LBI113:
 1228              		.file 7 "source/HvSignalVar.h"
   1:source/HvSignalVar.h **** /**
   2:source/HvSignalVar.h ****  * Copyright (c) 2014-2018 Enzien Audio Ltd.
   3:source/HvSignalVar.h ****  *
   4:source/HvSignalVar.h ****  * Permission to use, copy, modify, and/or distribute this software for any
   5:source/HvSignalVar.h ****  * purpose with or without fee is hereby granted, provided that the above
   6:source/HvSignalVar.h ****  * copyright notice and this permission notice appear in all copies.
   7:source/HvSignalVar.h ****  *
   8:source/HvSignalVar.h ****  * THE SOFTWARE IS PROVIDED "AS IS" AND THE AUTHOR DISCLAIMS ALL WARRANTIES WITH
   9:source/HvSignalVar.h ****  * REGARD TO THIS SOFTWARE INCLUDING ALL IMPLIED WARRANTIES OF MERCHANTABILITY
  10:source/HvSignalVar.h ****  * AND FITNESS. IN NO EVENT SHALL THE AUTHOR BE LIABLE FOR ANY SPECIAL, DIRECT,
  11:source/HvSignalVar.h ****  * INDIRECT, OR CONSEQUENTIAL DAMAGES OR ANY DAMAGES WHATSOEVER RESULTING FROM
  12:source/HvSignalVar.h ****  * LOSS OF USE, DATA OR PROFITS, WHETHER IN AN ACTION OF CONTRACT, NEGLIGENCE OR
  13:source/HvSignalVar.h ****  * OTHER TORTIOUS ACTION, ARISING OUT OF OR IN CONNECTION WITH THE USE OR
  14:source/HvSignalVar.h ****  * PERFORMANCE OF THIS SOFTWARE.
ARM GAS  /var/folders/fb/yfxt3z4538j6z0vjt03w70vc0000gn/T//ccW52HDD.s 			page 37


  15:source/HvSignalVar.h ****  */
  16:source/HvSignalVar.h **** 
  17:source/HvSignalVar.h **** #ifndef _HEAVY_SIGNAL_VAR_H_
  18:source/HvSignalVar.h **** #define _HEAVY_SIGNAL_VAR_H_
  19:source/HvSignalVar.h **** 
  20:source/HvSignalVar.h **** #include "HvHeavyInternal.h"
  21:source/HvSignalVar.h **** 
  22:source/HvSignalVar.h **** #ifdef __cplusplus
  23:source/HvSignalVar.h **** extern "C" {
  24:source/HvSignalVar.h **** #endif
  25:source/HvSignalVar.h **** 
  26:source/HvSignalVar.h **** // __var~f, __varread~f, __varwrite~f
  27:source/HvSignalVar.h **** 
  28:source/HvSignalVar.h **** typedef struct SignalVarf {
  29:source/HvSignalVar.h ****   hv_bufferf_t v;
  30:source/HvSignalVar.h **** } SignalVarf;
  31:source/HvSignalVar.h **** 
  32:source/HvSignalVar.h **** hv_size_t sVarf_init(SignalVarf *o, float k, float step, bool reverse);
  33:source/HvSignalVar.h **** 
  34:source/HvSignalVar.h **** static inline void __hv_varread_f(SignalVarf *o, hv_bOutf_t bOut) {
 1229              		.loc 7 34 20 view .LVU305
 1230              	.LBB114:
  35:source/HvSignalVar.h ****   *bOut = o->v;
 1231              		.loc 7 35 3 view .LVU306
 1232              		.loc 7 35 3 is_stmt 0 view .LVU307
 1233              	.LBE114:
 1234              	.LBE113:
 252:source/Heavy_daisy_control.cpp ****     __hv_var_k_f(VOf(Bf1), 0.5f, 0.5f, 0.5f, 0.5f, 0.5f, 0.5f, 0.5f, 0.5f);
 1235              		.loc 3 252 5 is_stmt 1 view .LVU308
 1236              	.LBB115:
 1237              	.LBI115:
 1238              		.file 8 "source/HvSignalPhasor.h"
   1:source/HvSignalPhasor.h **** /**
   2:source/HvSignalPhasor.h ****  * Copyright (c) 2014-2018 Enzien Audio Ltd.
   3:source/HvSignalPhasor.h ****  *
   4:source/HvSignalPhasor.h ****  * Permission to use, copy, modify, and/or distribute this software for any
   5:source/HvSignalPhasor.h ****  * purpose with or without fee is hereby granted, provided that the above
   6:source/HvSignalPhasor.h ****  * copyright notice and this permission notice appear in all copies.
   7:source/HvSignalPhasor.h ****  *
   8:source/HvSignalPhasor.h ****  * THE SOFTWARE IS PROVIDED "AS IS" AND THE AUTHOR DISCLAIMS ALL WARRANTIES WITH
   9:source/HvSignalPhasor.h ****  * REGARD TO THIS SOFTWARE INCLUDING ALL IMPLIED WARRANTIES OF MERCHANTABILITY
  10:source/HvSignalPhasor.h ****  * AND FITNESS. IN NO EVENT SHALL THE AUTHOR BE LIABLE FOR ANY SPECIAL, DIRECT,
  11:source/HvSignalPhasor.h ****  * INDIRECT, OR CONSEQUENTIAL DAMAGES OR ANY DAMAGES WHATSOEVER RESULTING FROM
  12:source/HvSignalPhasor.h ****  * LOSS OF USE, DATA OR PROFITS, WHETHER IN AN ACTION OF CONTRACT, NEGLIGENCE OR
  13:source/HvSignalPhasor.h ****  * OTHER TORTIOUS ACTION, ARISING OUT OF OR IN CONNECTION WITH THE USE OR
  14:source/HvSignalPhasor.h ****  * PERFORMANCE OF THIS SOFTWARE.
  15:source/HvSignalPhasor.h ****  */
  16:source/HvSignalPhasor.h **** 
  17:source/HvSignalPhasor.h **** #ifndef _HEAVY_SIGNAL_PHASOR_H_
  18:source/HvSignalPhasor.h **** #define _HEAVY_SIGNAL_PHASOR_H_
  19:source/HvSignalPhasor.h **** 
  20:source/HvSignalPhasor.h **** #include "HvHeavyInternal.h"
  21:source/HvSignalPhasor.h **** 
  22:source/HvSignalPhasor.h **** #ifdef __cplusplus
  23:source/HvSignalPhasor.h **** extern "C" {
  24:source/HvSignalPhasor.h **** #endif
  25:source/HvSignalPhasor.h **** 
ARM GAS  /var/folders/fb/yfxt3z4538j6z0vjt03w70vc0000gn/T//ccW52HDD.s 			page 38


  26:source/HvSignalPhasor.h **** typedef struct SignalPhasor {
  27:source/HvSignalPhasor.h **** #if HV_SIMD_AVX
  28:source/HvSignalPhasor.h ****   __m256 phase; // current phase
  29:source/HvSignalPhasor.h ****   __m256 inc;   // phase increment
  30:source/HvSignalPhasor.h **** #elif HV_SIMD_SSE
  31:source/HvSignalPhasor.h ****   __m128i phase;
  32:source/HvSignalPhasor.h ****   __m128i inc;
  33:source/HvSignalPhasor.h **** #elif HV_SIMD_NEON
  34:source/HvSignalPhasor.h ****   uint32x4_t phase;
  35:source/HvSignalPhasor.h ****   int32x4_t inc;
  36:source/HvSignalPhasor.h **** #else // HV_SIMD_NONE
  37:source/HvSignalPhasor.h ****   hv_uint32_t phase;
  38:source/HvSignalPhasor.h ****   hv_int32_t inc;
  39:source/HvSignalPhasor.h **** #endif
  40:source/HvSignalPhasor.h ****   union {
  41:source/HvSignalPhasor.h ****     float f2sc; // float to step conversion (used for __phasor~f)
  42:source/HvSignalPhasor.h ****     hv_int32_t s; // step value (used for __phasor_k~f)
  43:source/HvSignalPhasor.h ****   } step;
  44:source/HvSignalPhasor.h **** } SignalPhasor;
  45:source/HvSignalPhasor.h **** 
  46:source/HvSignalPhasor.h **** hv_size_t sPhasor_init(SignalPhasor *o, double samplerate);
  47:source/HvSignalPhasor.h **** 
  48:source/HvSignalPhasor.h **** hv_size_t sPhasor_k_init(SignalPhasor *o, float frequency, double samplerate);
  49:source/HvSignalPhasor.h **** 
  50:source/HvSignalPhasor.h **** void sPhasor_k_onMessage(HeavyContextInterface *_c, SignalPhasor *o, int letIn, const HvMessage *m)
  51:source/HvSignalPhasor.h **** 
  52:source/HvSignalPhasor.h **** void sPhasor_onMessage(HeavyContextInterface *_c, SignalPhasor *o, int letIn, const HvMessage *m);
  53:source/HvSignalPhasor.h **** 
  54:source/HvSignalPhasor.h **** static inline void __hv_phasor_f(SignalPhasor *o, hv_bInf_t bIn, hv_bOutf_t bOut) {
 1239              		.loc 8 54 20 view .LVU309
 1240              	.LBB116:
  55:source/HvSignalPhasor.h **** #if HV_SIMD_AVX
  56:source/HvSignalPhasor.h ****   __m256 p = _mm256_mul_ps(bIn, _mm256_set1_ps(o->step.f2sc)); // a b c d e f g h
  57:source/HvSignalPhasor.h **** 
  58:source/HvSignalPhasor.h ****   __m256 z = _mm256_setzero_ps();
  59:source/HvSignalPhasor.h **** 
  60:source/HvSignalPhasor.h ****   // http://stackoverflow.com/questions/11906814/how-to-rotate-an-sse-avx-vector
  61:source/HvSignalPhasor.h ****   __m256 a = _mm256_permute_ps(p, _MM_SHUFFLE(2,1,0,3)); // d a b c h e f g
  62:source/HvSignalPhasor.h ****   __m256 b = _mm256_permute2f128_ps(a, a, 0x01);         // h e f g d a b c
  63:source/HvSignalPhasor.h ****   __m256 c = _mm256_blend_ps(a, b, 0x10);                // d a b c d e f g
  64:source/HvSignalPhasor.h ****   __m256 d = _mm256_blend_ps(c, z, 0x01);                // 0 a b c d e f g
  65:source/HvSignalPhasor.h ****   __m256 e = _mm256_add_ps(p, d); // a (a+b) (b+c) (c+d) (d+e) (e+f) (f+g) (g+h)
  66:source/HvSignalPhasor.h **** 
  67:source/HvSignalPhasor.h ****   __m256 f = _mm256_permute_ps(e, _MM_SHUFFLE(1,0,3,2)); // (b+c) (c+d) a (a+b) (f+g) (g+h) (d+e) (
  68:source/HvSignalPhasor.h ****   __m256 g = _mm256_permute2f128_ps(f, f, 0x01);         // (f+g) (g+h) (d+e) (e+f) (b+c) (c+d) a (
  69:source/HvSignalPhasor.h ****   __m256 h = _mm256_blend_ps(f, g, 0x33);                // (b+c) (c+d) a (a+b) (b+c) (c+d) (d+e) (
  70:source/HvSignalPhasor.h ****   __m256 i = _mm256_blend_ps(h, z, 0x03);                // 0 0 a (a+b) (b+c) (c+d) (d+e) (e+f)
  71:source/HvSignalPhasor.h ****   __m256 j = _mm256_add_ps(e, i); // a (a+b) (a+b+c) (a+b+c+d) (b+c+d+e) (c+d+e+f) (d+e+f+g) (e+f+g
  72:source/HvSignalPhasor.h **** 
  73:source/HvSignalPhasor.h ****   __m256 k = _mm256_permute2f128_ps(j, z, 0x02);         // 0 0 0 0 a (a+b) (a+b+c) (a+b+c+d) (b+c+
  74:source/HvSignalPhasor.h ****   __m256 m = _mm256_add_ps(j, k); // a (a+b) (a+b+c) (a+b+c+d) (a+b+c+d+e) (a+b+c+d+e+f) (a+b+c+d+e
  75:source/HvSignalPhasor.h **** 
  76:source/HvSignalPhasor.h ****   __m256 n = _mm256_or_ps(_mm256_andnot_ps(
  77:source/HvSignalPhasor.h ****       _mm256_set1_ps(-INFINITY),
  78:source/HvSignalPhasor.h ****       _mm256_add_ps(o->phase, m)),
  79:source/HvSignalPhasor.h ****       _mm256_set1_ps(1.0f));
  80:source/HvSignalPhasor.h **** 
ARM GAS  /var/folders/fb/yfxt3z4538j6z0vjt03w70vc0000gn/T//ccW52HDD.s 			page 39


  81:source/HvSignalPhasor.h ****   *bOut = _mm256_sub_ps(n, _mm256_set1_ps(1.0f));
  82:source/HvSignalPhasor.h **** 
  83:source/HvSignalPhasor.h ****   __m256 x = _mm256_permute_ps(n, _MM_SHUFFLE(3,3,3,3));
  84:source/HvSignalPhasor.h ****   o->phase = _mm256_permute2f128_ps(x, x, 0x11);
  85:source/HvSignalPhasor.h **** #elif HV_SIMD_SSE
  86:source/HvSignalPhasor.h ****   __m128i p = _mm_cvtps_epi32(_mm_mul_ps(bIn, _mm_set1_ps(o->step.f2sc))); // convert frequency to 
  87:source/HvSignalPhasor.h ****   p = _mm_add_epi32(p, _mm_slli_si128(p, 4)); // add incremental steps to phase (prefix sum)
  88:source/HvSignalPhasor.h ****   p = _mm_add_epi32(p, _mm_slli_si128(p, 8)); // http://stackoverflow.com/questions/10587598/simd-p
  89:source/HvSignalPhasor.h ****   p = _mm_add_epi32(o->phase, p);
  90:source/HvSignalPhasor.h ****   *bOut = _mm_sub_ps(_mm_castsi128_ps(
  91:source/HvSignalPhasor.h ****       _mm_or_si128(_mm_srli_epi32(p, 9),
  92:source/HvSignalPhasor.h ****       _mm_set_epi32(0x3F800000, 0x3F800000, 0x3F800000, 0x3F800000))),
  93:source/HvSignalPhasor.h ****       _mm_set1_ps(1.0f));
  94:source/HvSignalPhasor.h ****   o->phase = _mm_shuffle_epi32(p, _MM_SHUFFLE(3,3,3,3));
  95:source/HvSignalPhasor.h **** #elif HV_SIMD_NEON
  96:source/HvSignalPhasor.h ****   int32x4_t p = vcvtq_s32_f32(vmulq_n_f32(bIn, o->step.f2sc));
  97:source/HvSignalPhasor.h ****   p = vaddq_s32(p, vextq_s32(vdupq_n_s32(0), p, 3)); // http://stackoverflow.com/questions/11259596
  98:source/HvSignalPhasor.h ****   p = vaddq_s32(p, vextq_s32(vdupq_n_s32(0), p, 2));
  99:source/HvSignalPhasor.h ****   uint32x4_t pp = vaddq_u32(o->phase, vreinterpretq_u32_s32(p));
 100:source/HvSignalPhasor.h ****   *bOut = vsubq_f32(vreinterpretq_f32_u32(vorrq_u32(vshrq_n_u32(pp, 9), vdupq_n_u32(0x3F800000))), 
 101:source/HvSignalPhasor.h ****   o->phase = vdupq_n_u32(pp[3]);
 102:source/HvSignalPhasor.h **** #else // HV_SIMD_NONE
 103:source/HvSignalPhasor.h ****   const hv_uint32_t p = (o->phase >> 9) | 0x3F800000;
 1241              		.loc 8 103 3 view .LVU310
 1242              		.loc 8 103 29 is_stmt 0 view .LVU311
 1243 007a D4F88830 		ldr	r3, [r4, #136]
 1244              	.LVL96:
 104:source/HvSignalPhasor.h ****   *bOut = *((float *) (&p)) - 1.0f;
 1245              		.loc 8 104 3 is_stmt 1 view .LVU312
 105:source/HvSignalPhasor.h ****   o->phase += ((int) (bIn * o->step.f2sc));
 1246              		.loc 8 105 3 view .LVU313
 104:source/HvSignalPhasor.h ****   *bOut = *((float *) (&p)) - 1.0f;
 1247              		.loc 8 104 29 is_stmt 0 view .LVU314
 1248 007e B7EE004A 		vmov.f32	s8, #1.0e+0
 1249              	.LBE116:
 1250              	.LBE115:
 1251              	.LBB124:
 1252              	.LBB125:
  35:source/HvMath.h **** #endif
  36:source/HvMath.h **** }
  37:source/HvMath.h **** 
  38:source/HvMath.h **** static inline void __hv_zero_i(hv_bOuti_t bOut) {
  39:source/HvMath.h **** #if HV_SIMD_AVX
  40:source/HvMath.h ****   *bOut = _mm256_setzero_si256();
  41:source/HvMath.h **** #elif HV_SIMD_SSE
  42:source/HvMath.h ****   *bOut = _mm_setzero_si128();
  43:source/HvMath.h **** #elif HV_SIMD_NEON
  44:source/HvMath.h ****   *bOut = vdupq_n_s32(0);
  45:source/HvMath.h **** #else // HV_SIMD_NONE
  46:source/HvMath.h ****   *bOut = 0;
  47:source/HvMath.h **** #endif
  48:source/HvMath.h **** }
  49:source/HvMath.h **** 
  50:source/HvMath.h **** static inline void __hv_load_f(float *bIn, hv_bOutf_t bOut) {
  51:source/HvMath.h **** #if HV_SIMD_AVX
  52:source/HvMath.h ****   *bOut = _mm256_load_ps(bIn);
  53:source/HvMath.h **** #elif HV_SIMD_SSE
ARM GAS  /var/folders/fb/yfxt3z4538j6z0vjt03w70vc0000gn/T//ccW52HDD.s 			page 40


  54:source/HvMath.h ****   *bOut = _mm_load_ps(bIn);
  55:source/HvMath.h **** #elif HV_SIMD_NEON
  56:source/HvMath.h ****   *bOut = vld1q_f32(bIn);
  57:source/HvMath.h **** #else // HV_SIMD_NONE
  58:source/HvMath.h ****   *bOut = *bIn;
  59:source/HvMath.h **** #endif
  60:source/HvMath.h **** }
  61:source/HvMath.h **** 
  62:source/HvMath.h **** static inline void __hv_store_f(float *bOut, hv_bInf_t bIn) {
  63:source/HvMath.h **** #if HV_SIMD_AVX
  64:source/HvMath.h ****   _mm256_store_ps(bOut, bIn);
  65:source/HvMath.h **** #elif HV_SIMD_SSE
  66:source/HvMath.h ****   _mm_store_ps(bOut, bIn);
  67:source/HvMath.h **** #elif HV_SIMD_NEON
  68:source/HvMath.h ****   vst1q_f32(bOut, bIn);
  69:source/HvMath.h **** #else // HV_SIMD_NONE
  70:source/HvMath.h ****   *bOut = bIn;
  71:source/HvMath.h **** #endif
  72:source/HvMath.h **** }
  73:source/HvMath.h **** 
  74:source/HvMath.h **** static inline void __hv_log2_f(hv_bInf_t bIn, hv_bOutf_t bOut) {
  75:source/HvMath.h **** #if HV_SIMD_AVX
  76:source/HvMath.h ****   hv_assert(0); // __hv_log2_f() not implemented
  77:source/HvMath.h **** #elif HV_SIMD_SSE
  78:source/HvMath.h ****   // https://en.wikipedia.org/wiki/Fast_inverse_square_root
  79:source/HvMath.h ****   __m128i a = _mm_castps_si128(bIn);
  80:source/HvMath.h ****   __m128i b = _mm_srli_epi32(a, 23);
  81:source/HvMath.h ****   __m128i c = _mm_sub_epi32(b, _mm_set1_epi32(127)); // exponent (int)
  82:source/HvMath.h ****   __m128 d = _mm_cvtepi32_ps(c); // exponent (float)
  83:source/HvMath.h ****   __m128i e = _mm_or_si128(_mm_andnot_si128(_mm_set1_epi32(0xFF800000), a), _mm_set1_epi32(0x3F8000
  84:source/HvMath.h ****   __m128 f = _mm_castsi128_ps(e); // 1+m (float)
  85:source/HvMath.h ****   __m128 g = _mm_add_ps(d, f); // e + 1 + m
  86:source/HvMath.h ****   __m128 h = _mm_add_ps(g, _mm_set1_ps(-0.9569643f)); // e + 1 + m + (sigma-1)
  87:source/HvMath.h ****   *bOut = h;
  88:source/HvMath.h **** #elif HV_SIMD_NEON
  89:source/HvMath.h ****   int32x4_t a = vreinterpretq_s32_f32(bIn);
  90:source/HvMath.h ****   int32x4_t b = vshrq_n_s32(a, 23);
  91:source/HvMath.h ****   int32x4_t c = vsubq_s32(b, vdupq_n_s32(127));
  92:source/HvMath.h ****   float32x4_t d = vcvtq_f32_s32(c);
  93:source/HvMath.h ****   int32x4_t e = vorrq_s32(vbicq_s32(a, vdupq_n_s32(0xFF800000)), vdupq_n_s32(0x3F800000));
  94:source/HvMath.h ****   float32x4_t f = vreinterpretq_f32_s32(e);
  95:source/HvMath.h ****   float32x4_t g = vaddq_f32(d, f);
  96:source/HvMath.h ****   float32x4_t h = vaddq_f32(g, vdupq_n_f32(-0.9569643f));
  97:source/HvMath.h ****   *bOut = h;
  98:source/HvMath.h **** #else // HV_SIMD_NONE
  99:source/HvMath.h ****   *bOut = 1.442695040888963f * hv_log_f(bIn);
 100:source/HvMath.h **** #endif
 101:source/HvMath.h **** }
 102:source/HvMath.h **** 
 103:source/HvMath.h **** // NOTE(mhroth): this is a pretty ghetto implementation
 104:source/HvMath.h **** static inline void __hv_cos_f(hv_bInf_t bIn, hv_bOutf_t bOut) {
 105:source/HvMath.h **** #if HV_SIMD_AVX
 106:source/HvMath.h ****   *bOut = _mm256_set_ps(
 107:source/HvMath.h ****       hv_cos_f(bIn[7]), hv_cos_f(bIn[6]), hv_cos_f(bIn[5]), hv_cos_f(bIn[4]),
 108:source/HvMath.h ****       hv_cos_f(bIn[3]), hv_cos_f(bIn[2]), hv_cos_f(bIn[1]), hv_cos_f(bIn[0]));
 109:source/HvMath.h **** #elif HV_SIMD_SSE
 110:source/HvMath.h ****   const float *const b = (float *) &bIn;
ARM GAS  /var/folders/fb/yfxt3z4538j6z0vjt03w70vc0000gn/T//ccW52HDD.s 			page 41


 111:source/HvMath.h ****   *bOut = _mm_set_ps(hv_cos_f(b[3]), hv_cos_f(b[2]), hv_cos_f(b[1]), hv_cos_f(b[0]));
 112:source/HvMath.h **** #elif HV_SIMD_NEON
 113:source/HvMath.h ****   *bOut = (float32x4_t) {hv_cos_f(bIn[0]), hv_cos_f(bIn[1]), hv_cos_f(bIn[2]), hv_cos_f(bIn[3])};
 114:source/HvMath.h **** #else // HV_SIMD_NONE
 115:source/HvMath.h ****   *bOut = hv_cos_f(bIn);
 116:source/HvMath.h **** #endif
 117:source/HvMath.h **** }
 118:source/HvMath.h **** 
 119:source/HvMath.h **** static inline void __hv_acos_f(hv_bInf_t bIn, hv_bOutf_t bOut) {
 120:source/HvMath.h **** #if HV_SIMD_AVX
 121:source/HvMath.h ****   hv_assert(0); // __hv_acos_f() not implemented
 122:source/HvMath.h **** #elif HV_SIMD_SSE
 123:source/HvMath.h ****   hv_assert(0); // __hv_acos_f() not implemented
 124:source/HvMath.h **** #elif HV_SIMD_NEON
 125:source/HvMath.h ****   hv_assert(0); // __hv_acos_f() not implemented
 126:source/HvMath.h **** #else // HV_SIMD_NONE
 127:source/HvMath.h ****   *bOut = hv_acos_f(bIn);
 128:source/HvMath.h **** #endif
 129:source/HvMath.h **** }
 130:source/HvMath.h **** 
 131:source/HvMath.h **** static inline void __hv_cosh_f(hv_bInf_t bIn, hv_bOutf_t bOut) {
 132:source/HvMath.h **** #if HV_SIMD_AVX
 133:source/HvMath.h ****   hv_assert(0); // __hv_cosh_f() not implemented
 134:source/HvMath.h **** #elif HV_SIMD_SSE
 135:source/HvMath.h ****   hv_assert(0); // __hv_cosh_f() not implemented
 136:source/HvMath.h **** #elif HV_SIMD_NEON
 137:source/HvMath.h ****   hv_assert(0); // __hv_cosh_f() not implemented
 138:source/HvMath.h **** #else // HV_SIMD_NONE
 139:source/HvMath.h ****   *bOut = hv_cosh_f(bIn);
 140:source/HvMath.h **** #endif
 141:source/HvMath.h **** }
 142:source/HvMath.h **** 
 143:source/HvMath.h **** static inline void __hv_acosh_f(hv_bInf_t bIn, hv_bOutf_t bOut) {
 144:source/HvMath.h **** #if HV_SIMD_AVX
 145:source/HvMath.h ****   hv_assert(0); // __hv_acosh_f() not implemented
 146:source/HvMath.h **** #elif HV_SIMD_SSE
 147:source/HvMath.h ****   hv_assert(0); // __hv_acosh_f() not implemented
 148:source/HvMath.h **** #elif HV_SIMD_NEON
 149:source/HvMath.h ****   hv_assert(0); // __hv_acosh_f() not implemented
 150:source/HvMath.h **** #else // HV_SIMD_NONE
 151:source/HvMath.h ****   *bOut = hv_acosh_f(bIn);
 152:source/HvMath.h **** #endif
 153:source/HvMath.h **** }
 154:source/HvMath.h **** 
 155:source/HvMath.h **** static inline void __hv_sin_f(hv_bInf_t bIn, hv_bOutf_t bOut) {
 156:source/HvMath.h **** #if HV_SIMD_AVX
 157:source/HvMath.h ****   hv_assert(0); // __hv_sin_f() not implemented
 158:source/HvMath.h **** #elif HV_SIMD_SSE
 159:source/HvMath.h ****   hv_assert(0); // __hv_sin_f() not implemented
 160:source/HvMath.h **** #elif HV_SIMD_NEON
 161:source/HvMath.h ****   hv_assert(0); // __hv_sin_f() not implemented
 162:source/HvMath.h **** #else // HV_SIMD_NONE
 163:source/HvMath.h ****   *bOut = hv_sin_f(bIn);
 164:source/HvMath.h **** #endif
 165:source/HvMath.h **** }
 166:source/HvMath.h **** 
 167:source/HvMath.h **** static inline void __hv_asin_f(hv_bInf_t bIn, hv_bOutf_t bOut) {
ARM GAS  /var/folders/fb/yfxt3z4538j6z0vjt03w70vc0000gn/T//ccW52HDD.s 			page 42


 168:source/HvMath.h **** #if HV_SIMD_AVX
 169:source/HvMath.h ****   hv_assert(0); // __hv_asin_f() not implemented
 170:source/HvMath.h **** #elif HV_SIMD_SSE
 171:source/HvMath.h ****   hv_assert(0); // __hv_asin_f() not implemented
 172:source/HvMath.h **** #elif HV_SIMD_NEON
 173:source/HvMath.h ****   hv_assert(0); // __hv_asin_f() not implemented
 174:source/HvMath.h **** #else // HV_SIMD_NONE
 175:source/HvMath.h ****   *bOut = hv_asin_f(bIn);
 176:source/HvMath.h **** #endif
 177:source/HvMath.h **** }
 178:source/HvMath.h **** 
 179:source/HvMath.h **** static inline void __hv_sinh_f(hv_bInf_t bIn, hv_bOutf_t bOut) {
 180:source/HvMath.h **** #if HV_SIMD_AVX
 181:source/HvMath.h ****   hv_assert(0); // __hv_sinh_f() not implemented
 182:source/HvMath.h **** #elif HV_SIMD_SSE
 183:source/HvMath.h ****   hv_assert(0); // __hv_sinh_f() not implemented
 184:source/HvMath.h **** #elif HV_SIMD_NEON
 185:source/HvMath.h ****   hv_assert(0); // __hv_sinh_f() not implemented
 186:source/HvMath.h **** #else // HV_SIMD_NONE
 187:source/HvMath.h ****   *bOut = hv_sinh_f(bIn);
 188:source/HvMath.h **** #endif
 189:source/HvMath.h **** }
 190:source/HvMath.h **** 
 191:source/HvMath.h **** static inline void __hv_asinh_f(hv_bInf_t bIn, hv_bOutf_t bOut) {
 192:source/HvMath.h **** #if HV_SIMD_AVX
 193:source/HvMath.h ****   hv_assert(0); // __hv_asinh_f() not implemented
 194:source/HvMath.h **** #elif HV_SIMD_SSE
 195:source/HvMath.h ****   hv_assert(0); // __hv_asinh_f() not implemented
 196:source/HvMath.h **** #elif HV_SIMD_NEON
 197:source/HvMath.h ****   hv_assert(0); // __hv_asinh_f() not implemented
 198:source/HvMath.h **** #else // HV_SIMD_NONE
 199:source/HvMath.h ****   *bOut = hv_asinh_f(bIn);
 200:source/HvMath.h **** #endif
 201:source/HvMath.h **** }
 202:source/HvMath.h **** 
 203:source/HvMath.h **** static inline void __hv_tan_f(hv_bInf_t bIn, hv_bOutf_t bOut) {
 204:source/HvMath.h **** #if HV_SIMD_AVX
 205:source/HvMath.h ****   hv_assert(0); // __hv_tan_f() not implemented
 206:source/HvMath.h **** #elif HV_SIMD_SSE
 207:source/HvMath.h ****   hv_assert(0); // __hv_tan_f() not implemented
 208:source/HvMath.h **** #elif HV_SIMD_NEON
 209:source/HvMath.h ****   hv_assert(0); // __hv_tan_f() not implemented
 210:source/HvMath.h **** #else // HV_SIMD_NONE
 211:source/HvMath.h ****   *bOut = hv_tan_f(bIn);
 212:source/HvMath.h **** #endif
 213:source/HvMath.h **** }
 214:source/HvMath.h **** 
 215:source/HvMath.h **** static inline void __hv_atan_f(hv_bInf_t bIn, hv_bOutf_t bOut) {
 216:source/HvMath.h **** #if HV_SIMD_AVX
 217:source/HvMath.h ****   hv_assert(0); // __hv_atan_f() not implemented
 218:source/HvMath.h **** #elif HV_SIMD_SSE
 219:source/HvMath.h ****   hv_assert(0); // __hv_atan_f() not implemented
 220:source/HvMath.h **** #elif HV_SIMD_NEON
 221:source/HvMath.h ****   hv_assert(0); // __hv_atan_f() not implemented
 222:source/HvMath.h **** #else // HV_SIMD_NONE
 223:source/HvMath.h ****   *bOut = hv_atan_f(bIn);
 224:source/HvMath.h **** #endif
ARM GAS  /var/folders/fb/yfxt3z4538j6z0vjt03w70vc0000gn/T//ccW52HDD.s 			page 43


 225:source/HvMath.h **** }
 226:source/HvMath.h **** 
 227:source/HvMath.h **** static inline void __hv_atan2_f(hv_bInf_t bIn0, hv_bInf_t bIn1, hv_bOutf_t bOut) {
 228:source/HvMath.h **** #if HV_SIMD_AVX
 229:source/HvMath.h ****   hv_assert(0); // __hv_atan2_f() not implemented
 230:source/HvMath.h **** #elif HV_SIMD_SSE
 231:source/HvMath.h ****   hv_assert(0); // __hv_atan2_f() not implemented
 232:source/HvMath.h **** #elif HV_SIMD_NEON
 233:source/HvMath.h ****   hv_assert(0); // __hv_atan2_f() not implemented
 234:source/HvMath.h **** #else // HV_SIMD_NONE
 235:source/HvMath.h ****   *bOut = hv_atan2_f(bIn0, bIn1);
 236:source/HvMath.h **** #endif
 237:source/HvMath.h **** }
 238:source/HvMath.h **** 
 239:source/HvMath.h **** static inline void __hv_tanh_f(hv_bInf_t bIn, hv_bOutf_t bOut) {
 240:source/HvMath.h **** #if HV_SIMD_AVX
 241:source/HvMath.h ****   hv_assert(0); // __hv_tanh_f() not implemented
 242:source/HvMath.h **** #elif HV_SIMD_SSE
 243:source/HvMath.h ****   hv_assert(0); // __hv_tanh_f() not implemented
 244:source/HvMath.h **** #elif HV_SIMD_NEON
 245:source/HvMath.h ****   hv_assert(0); // __hv_tanh_f() not implemented
 246:source/HvMath.h **** #else // HV_SIMD_NONE
 247:source/HvMath.h ****   *bOut = hv_tanh_f(bIn);
 248:source/HvMath.h **** #endif
 249:source/HvMath.h **** }
 250:source/HvMath.h **** 
 251:source/HvMath.h **** static inline void __hv_atanh_f(hv_bInf_t bIn, hv_bOutf_t bOut) {
 252:source/HvMath.h **** #if HV_SIMD_AVX
 253:source/HvMath.h ****   hv_assert(0); // __hv_atanh_f() not implemented
 254:source/HvMath.h **** #elif HV_SIMD_SSE
 255:source/HvMath.h ****   hv_assert(0); // __hv_atanh_f() not implemented
 256:source/HvMath.h **** #elif HV_SIMD_NEON
 257:source/HvMath.h ****   hv_assert(0); // __hv_atanh_f() not implemented
 258:source/HvMath.h **** #else // HV_SIMD_NONE
 259:source/HvMath.h ****   *bOut = hv_atanh_f(bIn);
 260:source/HvMath.h **** #endif
 261:source/HvMath.h **** }
 262:source/HvMath.h **** 
 263:source/HvMath.h **** static inline void __hv_sqrt_f(hv_bInf_t bIn, hv_bOutf_t bOut) {
 264:source/HvMath.h **** #if HV_SIMD_AVX
 265:source/HvMath.h ****   *bOut = _mm256_sqrt_ps(bIn);
 266:source/HvMath.h **** #elif HV_SIMD_SSE
 267:source/HvMath.h ****   *bOut = _mm_sqrt_ps(bIn);
 268:source/HvMath.h **** #elif HV_SIMD_NEON
 269:source/HvMath.h ****   const float32x4_t y = vrsqrteq_f32(bIn);
 270:source/HvMath.h ****   *bOut = vmulq_f32(bIn, vmulq_f32(vrsqrtsq_f32(vmulq_f32(bIn, y), y), y)); // numerical results ma
 271:source/HvMath.h **** #else // HV_SIMD_NONE
 272:source/HvMath.h ****   *bOut = hv_sqrt_f(bIn);
 273:source/HvMath.h **** #endif
 274:source/HvMath.h **** }
 275:source/HvMath.h **** 
 276:source/HvMath.h **** static inline void __hv_rsqrt_f(hv_bInf_t bIn, hv_bOutf_t bOut) {
 277:source/HvMath.h **** #if HV_SIMD_AVX
 278:source/HvMath.h ****   *bOut = _mm256_rsqrt_ps(bIn);
 279:source/HvMath.h **** #elif HV_SIMD_SSE
 280:source/HvMath.h ****   *bOut = _mm_rsqrt_ps(bIn);
 281:source/HvMath.h **** #elif HV_SIMD_NEON
ARM GAS  /var/folders/fb/yfxt3z4538j6z0vjt03w70vc0000gn/T//ccW52HDD.s 			page 44


 282:source/HvMath.h ****   const float32x4_t y = vrsqrteq_f32(bIn);
 283:source/HvMath.h ****   *bOut = vmulq_f32(vrsqrtsq_f32(vmulq_f32(bIn, y), y), y); // numerical results may be inexact
 284:source/HvMath.h **** #else // HV_SIMD_NONE
 285:source/HvMath.h ****   *bOut = 1.0f/hv_sqrt_f(bIn);
 286:source/HvMath.h **** #endif
 287:source/HvMath.h **** }
 288:source/HvMath.h **** 
 289:source/HvMath.h **** static inline void __hv_abs_f(hv_bInf_t bIn, hv_bOutf_t bOut) {
 290:source/HvMath.h **** #if HV_SIMD_AVX
 291:source/HvMath.h ****   *bOut = _mm256_andnot_ps(_mm256_set1_ps(-0.0f), bIn);
 292:source/HvMath.h **** #elif HV_SIMD_SSE
 293:source/HvMath.h ****   *bOut = _mm_andnot_ps(_mm_set1_ps(-0.0f), bIn); // == 1 << 31
 294:source/HvMath.h **** #elif HV_SIMD_NEON
 295:source/HvMath.h ****   *bOut = vabsq_f32(bIn);
 296:source/HvMath.h **** #else // HV_SIMD_NONE
 297:source/HvMath.h ****   *bOut = hv_abs_f(bIn);
 298:source/HvMath.h **** #endif
 299:source/HvMath.h **** }
 300:source/HvMath.h **** 
 301:source/HvMath.h **** static inline void __hv_neg_f(hv_bInf_t bIn, hv_bOutf_t bOut) {
 302:source/HvMath.h **** #if HV_SIMD_AVX
 303:source/HvMath.h ****   *bOut = _mm256_xor_ps(bIn, _mm256_set1_ps(-0.0f));
 304:source/HvMath.h **** #elif HV_SIMD_SSE
 305:source/HvMath.h ****   *bOut = _mm_xor_ps(bIn, _mm_set1_ps(-0.0f));
 306:source/HvMath.h **** #elif HV_SIMD_NEON
 307:source/HvMath.h ****   *bOut = vnegq_f32(bIn);
 308:source/HvMath.h **** #else // HV_SIMD_NONE
 309:source/HvMath.h ****   *bOut = bIn * -1.0f;
 310:source/HvMath.h **** #endif
 311:source/HvMath.h **** }
 312:source/HvMath.h **** 
 313:source/HvMath.h **** static inline void __hv_exp_f(hv_bInf_t bIn, hv_bOutf_t bOut) {
 314:source/HvMath.h **** #if HV_SIMD_AVX
 315:source/HvMath.h ****   float *const b = (float *) hv_alloca(HV_N_SIMD*sizeof(float));
 316:source/HvMath.h ****   _mm256_store_ps(b, bIn);
 317:source/HvMath.h ****   *bOut = _mm256_set_ps(
 318:source/HvMath.h ****       hv_exp_f(b[7]), hv_exp_f(b[6]), hv_exp_f(b[5]), hv_exp_f(b[4]),
 319:source/HvMath.h ****       hv_exp_f(b[3]), hv_exp_f(b[2]), hv_exp_f(b[1]), hv_exp_f(b[0]));
 320:source/HvMath.h **** #elif HV_SIMD_SSE
 321:source/HvMath.h ****   float *const b = (float *) hv_alloca(HV_N_SIMD*sizeof(float));
 322:source/HvMath.h ****   _mm_store_ps(b, bIn);
 323:source/HvMath.h ****   *bOut = _mm_set_ps(hv_exp_f(b[3]), hv_exp_f(b[2]), hv_exp_f(b[1]), hv_exp_f(b[0]));
 324:source/HvMath.h **** #elif HV_SIMD_NEON
 325:source/HvMath.h ****   *bOut = (float32x4_t) {
 326:source/HvMath.h ****     hv_exp_f(bIn[0]),
 327:source/HvMath.h ****     hv_exp_f(bIn[1]),
 328:source/HvMath.h ****     hv_exp_f(bIn[2]),
 329:source/HvMath.h ****     hv_exp_f(bIn[3])};
 330:source/HvMath.h **** #else // HV_SIMD_NONE
 331:source/HvMath.h ****   *bOut = hv_exp_f(bIn);
 332:source/HvMath.h **** #endif
 333:source/HvMath.h **** }
 334:source/HvMath.h **** 
 335:source/HvMath.h **** static inline void __hv_ceil_f(hv_bInf_t bIn, hv_bOutf_t bOut) {
 336:source/HvMath.h **** #if HV_SIMD_AVX
 337:source/HvMath.h ****   *bOut = _mm256_ceil_ps(bIn);
 338:source/HvMath.h **** #elif HV_SIMD_SSE
ARM GAS  /var/folders/fb/yfxt3z4538j6z0vjt03w70vc0000gn/T//ccW52HDD.s 			page 45


 339:source/HvMath.h ****   *bOut = _mm_ceil_ps(bIn);
 340:source/HvMath.h **** #elif HV_SIMD_NEON
 341:source/HvMath.h **** #if __ARM_ARCH >= 8
 342:source/HvMath.h ****   *bOut = vrndpq_f32(bIn);
 343:source/HvMath.h **** #else
 344:source/HvMath.h ****   // A slow NEON implementation of __hv_ceil_f() is being used because
 345:source/HvMath.h ****   // the necessary intrinsic cannot be found. It is only available in ARMv8.
 346:source/HvMath.h ****   *bOut = (float32x4_t) {hv_ceil_f(bIn[0]), hv_ceil_f(bIn[1]), hv_ceil_f(bIn[2]), hv_ceil_f(bIn[3])
 347:source/HvMath.h **** #endif // vrndpq_f32
 348:source/HvMath.h **** #else // HV_SIMD_NONE
 349:source/HvMath.h ****   *bOut = hv_ceil_f(bIn);
 350:source/HvMath.h **** #endif
 351:source/HvMath.h **** }
 352:source/HvMath.h **** 
 353:source/HvMath.h **** static inline void __hv_floor_f(hv_bInf_t bIn, hv_bOutf_t bOut) {
 354:source/HvMath.h **** #if HV_SIMD_AVX
 355:source/HvMath.h ****   *bOut = _mm256_floor_ps(bIn);
 356:source/HvMath.h **** #elif HV_SIMD_SSE
 357:source/HvMath.h ****   *bOut = _mm_floor_ps(bIn);
 358:source/HvMath.h **** #elif HV_SIMD_NEON
 359:source/HvMath.h **** #if __ARM_ARCH >= 8
 360:source/HvMath.h ****   *bOut = vrndmq_f32(bIn);
 361:source/HvMath.h **** #else
 362:source/HvMath.h ****   // A slow implementation of __hv_floor_f() is being used because
 363:source/HvMath.h ****   // the necessary intrinsic cannot be found. It is only available from ARMv8.
 364:source/HvMath.h ****   *bOut = (float32x4_t) {hv_floor_f(bIn[0]), hv_floor_f(bIn[1]), hv_floor_f(bIn[2]), hv_floor_f(bIn
 365:source/HvMath.h **** #endif // vrndmq_f32
 366:source/HvMath.h **** #else // HV_SIMD_NONE
 367:source/HvMath.h ****   *bOut = hv_floor_f(bIn);
 368:source/HvMath.h **** #endif
 369:source/HvMath.h **** }
 370:source/HvMath.h **** 
 371:source/HvMath.h **** // __add~f
 372:source/HvMath.h **** static inline void __hv_add_f(hv_bInf_t bIn0, hv_bInf_t bIn1, hv_bOutf_t bOut) {
 373:source/HvMath.h **** #if HV_SIMD_AVX
 374:source/HvMath.h ****   *bOut = _mm256_add_ps(bIn0, bIn1);
 375:source/HvMath.h **** #elif HV_SIMD_SSE
 376:source/HvMath.h ****   *bOut = _mm_add_ps(bIn0, bIn1);
 377:source/HvMath.h **** #elif HV_SIMD_NEON
 378:source/HvMath.h ****   *bOut = vaddq_f32(bIn0, bIn1);
 379:source/HvMath.h **** #else // HV_SIMD_NONE
 380:source/HvMath.h ****   *bOut = bIn0 + bIn1;
 381:source/HvMath.h **** #endif
 382:source/HvMath.h **** }
 383:source/HvMath.h **** 
 384:source/HvMath.h **** // __add~i
 385:source/HvMath.h **** static inline void __hv_add_i(hv_bIni_t bIn0, hv_bIni_t bIn1, hv_bOuti_t bOut) {
 386:source/HvMath.h **** #if HV_SIMD_AVX
 387:source/HvMath.h ****   __m128i x = _mm_add_epi32(_mm256_castsi256_si128(bIn0), _mm256_castsi256_si128(bIn1));
 388:source/HvMath.h ****   __m128i y = _mm_add_epi32(_mm256_extractf128_si256(bIn0, 1), _mm256_extractf128_si256(bIn1, 1));
 389:source/HvMath.h ****   *bOut = _mm256_insertf128_si256(_mm256_castsi128_si256(x), y, 1);
 390:source/HvMath.h **** #elif HV_SIMD_SSE
 391:source/HvMath.h ****   *bOut = _mm_add_epi32(bIn0, bIn1);
 392:source/HvMath.h **** #elif HV_SIMD_NEON
 393:source/HvMath.h ****   *bOut = vaddq_s32(bIn0, bIn1);
 394:source/HvMath.h **** #else // HV_SIMD_NONE
 395:source/HvMath.h ****   *bOut = bIn0 + bIn1;
ARM GAS  /var/folders/fb/yfxt3z4538j6z0vjt03w70vc0000gn/T//ccW52HDD.s 			page 46


 396:source/HvMath.h **** #endif
 397:source/HvMath.h **** }
 398:source/HvMath.h **** 
 399:source/HvMath.h **** // __sub~f
 400:source/HvMath.h **** static inline void __hv_sub_f(hv_bInf_t bIn0, hv_bInf_t bIn1, hv_bOutf_t bOut) {
 401:source/HvMath.h **** #if HV_SIMD_AVX
 402:source/HvMath.h ****   *bOut = _mm256_sub_ps(bIn0, bIn1);
 403:source/HvMath.h **** #elif HV_SIMD_SSE
 404:source/HvMath.h ****   *bOut = _mm_sub_ps(bIn0, bIn1);
 405:source/HvMath.h **** #elif HV_SIMD_NEON
 406:source/HvMath.h ****   *bOut = vsubq_f32(bIn0, bIn1);
 407:source/HvMath.h **** #else // HV_SIMD_NONE
 408:source/HvMath.h ****   *bOut = bIn0 - bIn1;
 1253              		.loc 4 408 16 view .LVU315
 1254 0082 F6EE004A 		vmov.f32	s9, #5.0e-1
 1255              	.LBE125:
 1256              	.LBE124:
 1257              	.LBB128:
 1258              	.LBB129:
 409:source/HvMath.h **** #endif
 410:source/HvMath.h **** }
 411:source/HvMath.h **** 
 412:source/HvMath.h **** // __mul~f
 413:source/HvMath.h **** static inline void __hv_mul_f(hv_bInf_t bIn0, hv_bInf_t bIn1, hv_bOutf_t bOut) {
 414:source/HvMath.h **** #if HV_SIMD_AVX
 415:source/HvMath.h ****   *bOut = _mm256_mul_ps(bIn0, bIn1);
 416:source/HvMath.h **** #elif HV_SIMD_SSE
 417:source/HvMath.h ****   *bOut = _mm_mul_ps(bIn0, bIn1);
 418:source/HvMath.h **** #elif HV_SIMD_NEON
 419:source/HvMath.h ****   *bOut = vmulq_f32(bIn0, bIn1);
 420:source/HvMath.h **** #else // HV_SIMD_NONE
 421:source/HvMath.h ****   *bOut = bIn0 * bIn1;
 1259              		.loc 4 421 16 view .LVU316
 1260 0086 DFED346A 		vldr.32	s13, .L82
 1261              	.LBE129:
 1262              	.LBE128:
 1263              	.LBB132:
 1264              	.LBB117:
 103:source/HvSignalPhasor.h ****   *bOut = *((float *) (&p)) - 1.0f;
 1265              		.loc 8 103 35 view .LVU317
 1266 008a 590A     		lsrs	r1, r3, #9
 1267              	.LBE117:
 1268              	.LBE132:
 1269              	.LBB133:
 1270              	.LBB134:
 408:source/HvMath.h **** #endif
 1271              		.loc 4 408 16 view .LVU318
 1272 008c B5EE005A 		vmov.f32	s10, #2.5e-1
 1273              	.LBE134:
 1274              	.LBE133:
 1275              	.LBB137:
 1276              	.LBB118:
 1277              		.loc 8 105 27 view .LVU319
 1278 0090 94ED2C6A 		vldr.32	s12, [r4, #176]
 103:source/HvSignalPhasor.h ****   *bOut = *((float *) (&p)) - 1.0f;
 1279              		.loc 8 103 41 view .LVU320
 1280 0094 41F07E52 		orr	r2, r1, #1065353216
ARM GAS  /var/folders/fb/yfxt3z4538j6z0vjt03w70vc0000gn/T//ccW52HDD.s 			page 47


 1281              	.LVL97:
 1282              		.loc 8 105 27 view .LVU321
 1283 0098 94ED247A 		vldr.32	s14, [r4, #144]
 1284              	.LBE118:
 1285              	.LBE137:
 1286              	.LBB138:
 1287              	.LBB139:
 422:source/HvMath.h **** #endif
 423:source/HvMath.h **** }
 424:source/HvMath.h **** 
 425:source/HvMath.h **** // __*~i
 426:source/HvMath.h **** static inline void __hv_mul_i(hv_bIni_t bIn0, hv_bIni_t bIn1, hv_bOuti_t bOut) {
 427:source/HvMath.h **** #if HV_SIMD_AVX
 428:source/HvMath.h ****   __m128i x = _mm_mullo_epi32(_mm256_castsi256_si128(bIn0), _mm256_castsi256_si128(bIn1));
 429:source/HvMath.h ****   __m128i y = _mm_mullo_epi32(_mm256_extractf128_si256(bIn0, 1), _mm256_extractf128_si256(bIn1, 1))
 430:source/HvMath.h ****   *bOut = _mm256_insertf128_si256(_mm256_castsi128_si256(x), y, 1);
 431:source/HvMath.h **** #elif HV_SIMD_SSE
 432:source/HvMath.h ****   *bOut = _mm_mullo_epi32(bIn0, bIn1);
 433:source/HvMath.h **** #elif HV_SIMD_NEON
 434:source/HvMath.h ****   *bOut = vmulq_s32(bIn0, bIn1);
 435:source/HvMath.h **** #else // HV_SIMD_NONE
 436:source/HvMath.h ****   *bOut = bIn0 * bIn1;
 437:source/HvMath.h **** #endif
 438:source/HvMath.h **** }
 439:source/HvMath.h **** 
 440:source/HvMath.h **** // __cast~if
 441:source/HvMath.h **** static inline void __hv_cast_if(hv_bIni_t bIn, hv_bOutf_t bOut) {
 442:source/HvMath.h **** #if HV_SIMD_AVX
 443:source/HvMath.h ****   *bOut = _mm256_cvtepi32_ps(bIn);
 444:source/HvMath.h **** #elif HV_SIMD_SSE
 445:source/HvMath.h ****   *bOut = _mm_cvtepi32_ps(bIn);
 446:source/HvMath.h **** #elif HV_SIMD_NEON
 447:source/HvMath.h ****   *bOut = vcvtq_f32_s32(bIn);
 448:source/HvMath.h **** #else // HV_SIMD_NONE
 449:source/HvMath.h ****   *bOut = (float) bIn;
 450:source/HvMath.h **** #endif
 451:source/HvMath.h **** }
 452:source/HvMath.h **** 
 453:source/HvMath.h **** // __cast~fi
 454:source/HvMath.h **** static inline void __hv_cast_fi(hv_bInf_t bIn, hv_bOuti_t bOut) {
 455:source/HvMath.h **** #if HV_SIMD_AVX
 456:source/HvMath.h ****   *bOut = _mm256_cvtps_epi32(bIn);
 457:source/HvMath.h **** #elif HV_SIMD_SSE
 458:source/HvMath.h ****   *bOut = _mm_cvtps_epi32(bIn);
 459:source/HvMath.h **** #elif HV_SIMD_NEON
 460:source/HvMath.h ****   *bOut = vcvtq_s32_f32(bIn);
 461:source/HvMath.h **** #else // HV_SIMD_NONE
 462:source/HvMath.h ****   *bOut = (int) bIn;
 463:source/HvMath.h **** #endif
 464:source/HvMath.h **** }
 465:source/HvMath.h **** 
 466:source/HvMath.h **** static inline void __hv_div_f(hv_bInf_t bIn0, hv_bInf_t bIn1, hv_bOutf_t bOut) {
 467:source/HvMath.h **** #if HV_SIMD_AVX
 468:source/HvMath.h ****   __m256 a = _mm256_cmp_ps(bIn1, _mm256_setzero_ps(), _CMP_EQ_OQ);
 469:source/HvMath.h ****   __m256 b = _mm256_div_ps(bIn0, bIn1);
 470:source/HvMath.h ****   *bOut = _mm256_andnot_ps(a, b);
 471:source/HvMath.h **** #elif HV_SIMD_SSE
ARM GAS  /var/folders/fb/yfxt3z4538j6z0vjt03w70vc0000gn/T//ccW52HDD.s 			page 48


 472:source/HvMath.h ****   __m128 a = _mm_cmpeq_ps(bIn1, _mm_setzero_ps());
 473:source/HvMath.h ****   __m128 b = _mm_div_ps(bIn0, bIn1);
 474:source/HvMath.h ****   *bOut = _mm_andnot_ps(a, b);
 475:source/HvMath.h **** #elif HV_SIMD_NEON
 476:source/HvMath.h ****   uint32x4_t a = vceqq_f32(bIn1, vdupq_n_f32(0.0f));
 477:source/HvMath.h ****   float32x4_t b = vmulq_f32(bIn0, vrecpeq_f32(bIn1)); // NOTE(mhroth): numerical results may be ine
 478:source/HvMath.h ****   *bOut = vreinterpretq_f32_u32(vbicq_u32(vreinterpretq_u32_f32(b), a));
 479:source/HvMath.h **** #else // HV_SIMD_NONE
 480:source/HvMath.h ****   *bOut = (bIn1 != 0.0f) ? (bIn0 / bIn1) : 0.0f;
 481:source/HvMath.h **** #endif
 482:source/HvMath.h **** }
 483:source/HvMath.h **** 
 484:source/HvMath.h **** static inline void __hv_min_f(hv_bInf_t bIn0, hv_bInf_t bIn1, hv_bOutf_t bOut) {
 485:source/HvMath.h **** #if HV_SIMD_AVX
 486:source/HvMath.h ****   *bOut = _mm256_min_ps(bIn0, bIn1);
 487:source/HvMath.h **** #elif HV_SIMD_SSE
 488:source/HvMath.h ****   *bOut = _mm_min_ps(bIn0, bIn1);
 489:source/HvMath.h **** #elif HV_SIMD_NEON
 490:source/HvMath.h ****   *bOut = vminq_f32(bIn0, bIn1);
 491:source/HvMath.h **** #else // HV_SIMD_NONE
 492:source/HvMath.h ****   *bOut = hv_min_f(bIn0, bIn1);
 493:source/HvMath.h **** #endif
 494:source/HvMath.h **** }
 495:source/HvMath.h **** 
 496:source/HvMath.h **** static inline void __hv_min_i(hv_bIni_t bIn0, hv_bIni_t bIn1, hv_bOuti_t bOut) {
 497:source/HvMath.h **** #if HV_SIMD_AVX
 498:source/HvMath.h ****   __m128i x = _mm_min_epi32(_mm256_castsi256_si128(bIn0), _mm256_castsi256_si128(bIn1));
 499:source/HvMath.h ****   __m128i y = _mm_min_epi32(_mm256_extractf128_si256(bIn0, 1), _mm256_extractf128_si256(bIn1, 1));
 500:source/HvMath.h ****   *bOut = _mm256_insertf128_si256(_mm256_castsi128_si256(x), y, 1);
 501:source/HvMath.h **** #elif HV_SIMD_SSE
 502:source/HvMath.h ****   *bOut = _mm_min_epi32(bIn0, bIn1);
 503:source/HvMath.h **** #elif HV_SIMD_NEON
 504:source/HvMath.h ****   *bOut = vminq_s32(bIn0, bIn1);
 505:source/HvMath.h **** #else // HV_SIMD_NONE
 506:source/HvMath.h ****   *bOut = hv_min_i(bIn0, bIn1);
 507:source/HvMath.h **** #endif
 508:source/HvMath.h **** }
 509:source/HvMath.h **** 
 510:source/HvMath.h **** static inline void __hv_max_f(hv_bInf_t bIn0, hv_bInf_t bIn1, hv_bOutf_t bOut) {
 511:source/HvMath.h **** #if HV_SIMD_AVX
 512:source/HvMath.h ****   *bOut = _mm256_max_ps(bIn0, bIn1);
 513:source/HvMath.h **** #elif HV_SIMD_SSE
 514:source/HvMath.h ****   *bOut = _mm_max_ps(bIn0, bIn1);
 515:source/HvMath.h **** #elif HV_SIMD_NEON
 516:source/HvMath.h ****   *bOut = vmaxq_f32(bIn0, bIn1);
 517:source/HvMath.h **** #else // HV_SIMD_NONE
 518:source/HvMath.h ****   *bOut = hv_max_f(bIn0, bIn1);
 519:source/HvMath.h **** #endif
 520:source/HvMath.h **** }
 521:source/HvMath.h **** 
 522:source/HvMath.h **** static inline void __hv_max_i(hv_bIni_t bIn0, hv_bIni_t bIn1, hv_bOuti_t bOut) {
 523:source/HvMath.h **** #if HV_SIMD_AVX
 524:source/HvMath.h ****   __m128i x = _mm_max_epi32(_mm256_castsi256_si128(bIn0), _mm256_castsi256_si128(bIn1));
 525:source/HvMath.h ****   __m128i y = _mm_max_epi32(_mm256_extractf128_si256(bIn0, 1), _mm256_extractf128_si256(bIn1, 1));
 526:source/HvMath.h ****   *bOut = _mm256_insertf128_si256(_mm256_castsi128_si256(x), y, 1);
 527:source/HvMath.h **** #elif HV_SIMD_SSE
 528:source/HvMath.h ****   *bOut = _mm_max_epi32(bIn0, bIn1);
ARM GAS  /var/folders/fb/yfxt3z4538j6z0vjt03w70vc0000gn/T//ccW52HDD.s 			page 49


 529:source/HvMath.h **** #elif HV_SIMD_NEON
 530:source/HvMath.h ****   *bOut = vmaxq_s32(bIn0, bIn1);
 531:source/HvMath.h **** #else // HV_SIMD_NONE
 532:source/HvMath.h ****   *bOut = hv_max_i(bIn0, bIn1);
 533:source/HvMath.h **** #endif
 534:source/HvMath.h **** }
 535:source/HvMath.h **** 
 536:source/HvMath.h **** static inline void __hv_pow_f(hv_bInf_t bIn0, hv_bInf_t bIn1, hv_bOutf_t bOut) {
 537:source/HvMath.h **** #if HV_SIMD_AVX
 538:source/HvMath.h ****   float *b = (float *) hv_alloca(16*sizeof(float));
 539:source/HvMath.h ****   _mm256_store_ps(b, bIn0);
 540:source/HvMath.h ****   _mm256_store_ps(b+8, bIn1);
 541:source/HvMath.h ****   *bOut = _mm256_set_ps(
 542:source/HvMath.h ****       hv_pow_f(b[7], b[7]),
 543:source/HvMath.h ****       hv_pow_f(b[6], b[6]),
 544:source/HvMath.h ****       hv_pow_f(b[5], b[5]),
 545:source/HvMath.h ****       hv_pow_f(b[4], b[4]),
 546:source/HvMath.h ****       hv_pow_f(b[3], b[3]),
 547:source/HvMath.h ****       hv_pow_f(b[2], b[2]),
 548:source/HvMath.h ****       hv_pow_f(b[1], b[1]),
 549:source/HvMath.h ****       hv_pow_f(b[0], b[0]));
 550:source/HvMath.h **** #elif HV_SIMD_SSE
 551:source/HvMath.h ****   float *b = (float *) hv_alloca(8*sizeof(float));
 552:source/HvMath.h ****   _mm_store_ps(b, bIn0);
 553:source/HvMath.h ****   _mm_store_ps(b+4, bIn1);
 554:source/HvMath.h ****   *bOut = _mm_set_ps(
 555:source/HvMath.h ****       hv_pow_f(b[3], b[7]),
 556:source/HvMath.h ****       hv_pow_f(b[2], b[6]),
 557:source/HvMath.h ****       hv_pow_f(b[1], b[5]),
 558:source/HvMath.h ****       hv_pow_f(b[0], b[4]));
 559:source/HvMath.h **** #elif HV_SIMD_NEON
 560:source/HvMath.h ****   *bOut = (float32x4_t) {
 561:source/HvMath.h ****       hv_pow_f(bIn0[0], bIn1[0]),
 562:source/HvMath.h ****       hv_pow_f(bIn0[1], bIn1[1]),
 563:source/HvMath.h ****       hv_pow_f(bIn0[2], bIn1[2]),
 564:source/HvMath.h ****       hv_pow_f(bIn0[3], bIn1[3])};
 565:source/HvMath.h **** #else // HV_SIMD_NONE
 566:source/HvMath.h ****   *bOut = hv_pow_f(bIn0, bIn1);
 567:source/HvMath.h **** #endif
 568:source/HvMath.h **** }
 569:source/HvMath.h **** 
 570:source/HvMath.h **** static inline void __hv_gt_f(hv_bInf_t bIn0, hv_bInf_t bIn1, hv_bOutf_t bOut) {
 571:source/HvMath.h **** #if HV_SIMD_AVX
 572:source/HvMath.h ****   *bOut = _mm256_cmp_ps(bIn0, bIn1, _CMP_GT_OQ);
 573:source/HvMath.h **** #elif HV_SIMD_SSE
 574:source/HvMath.h ****   *bOut = _mm_cmpgt_ps(bIn0, bIn1);
 575:source/HvMath.h **** #elif HV_SIMD_NEON
 576:source/HvMath.h ****   *bOut = vreinterpretq_f32_u32(vcgtq_f32(bIn0, bIn1));
 577:source/HvMath.h **** #else // HV_SIMD_NONE
 578:source/HvMath.h ****   *bOut = (bIn0 > bIn1) ? 1.0f : 0.0f;
 579:source/HvMath.h **** #endif
 580:source/HvMath.h **** }
 581:source/HvMath.h **** 
 582:source/HvMath.h **** static inline void __hv_gte_f(hv_bInf_t bIn0, hv_bInf_t bIn1, hv_bOutf_t bOut) {
 583:source/HvMath.h **** #if HV_SIMD_AVX
 584:source/HvMath.h ****   *bOut = _mm256_cmp_ps(bIn0, bIn1, _CMP_GE_OQ);
 585:source/HvMath.h **** #elif HV_SIMD_SSE
ARM GAS  /var/folders/fb/yfxt3z4538j6z0vjt03w70vc0000gn/T//ccW52HDD.s 			page 50


 586:source/HvMath.h ****   *bOut = _mm_cmpge_ps(bIn0, bIn1);
 587:source/HvMath.h **** #elif HV_SIMD_NEON
 588:source/HvMath.h ****   *bOut = vreinterpretq_f32_u32(vcgeq_f32(bIn0, bIn1));
 589:source/HvMath.h **** #else // HV_SIMD_NONE
 590:source/HvMath.h ****   *bOut = (bIn0 >= bIn1) ? 1.0f : 0.0f;
 591:source/HvMath.h **** #endif
 592:source/HvMath.h **** }
 593:source/HvMath.h **** 
 594:source/HvMath.h **** static inline void __hv_lt_f(hv_bInf_t bIn0, hv_bInf_t bIn1, hv_bOutf_t bOut) {
 595:source/HvMath.h **** #if HV_SIMD_AVX
 596:source/HvMath.h ****   *bOut = _mm256_cmp_ps(bIn0, bIn1, _CMP_LT_OQ);
 597:source/HvMath.h **** #elif HV_SIMD_SSE
 598:source/HvMath.h ****   *bOut = _mm_cmplt_ps(bIn0, bIn1);
 599:source/HvMath.h **** #elif HV_SIMD_NEON
 600:source/HvMath.h ****   *bOut = vreinterpretq_f32_u32(vcltq_f32(bIn0, bIn1));
 601:source/HvMath.h **** #else // HV_SIMD_NONE
 602:source/HvMath.h ****   *bOut = (bIn0 < bIn1) ? 1.0f : 0.0f;
 603:source/HvMath.h **** #endif
 604:source/HvMath.h **** }
 605:source/HvMath.h **** 
 606:source/HvMath.h **** static inline void __hv_lte_f(hv_bInf_t bIn0, hv_bInf_t bIn1, hv_bOutf_t bOut) {
 607:source/HvMath.h **** #if HV_SIMD_AVX
 608:source/HvMath.h ****   *bOut = _mm256_cmp_ps(bIn0, bIn1, _CMP_LE_OQ);
 609:source/HvMath.h **** #elif HV_SIMD_SSE
 610:source/HvMath.h ****   *bOut = _mm_cmple_ps(bIn0, bIn1);
 611:source/HvMath.h **** #elif HV_SIMD_NEON
 612:source/HvMath.h ****   *bOut = vreinterpretq_f32_u32(vcleq_f32(bIn0, bIn1));
 613:source/HvMath.h **** #else // HV_SIMD_NONE
 614:source/HvMath.h ****   *bOut = (bIn0 <= bIn1) ? 1.0f : 0.0f;
 615:source/HvMath.h **** #endif
 616:source/HvMath.h **** }
 617:source/HvMath.h **** 
 618:source/HvMath.h **** static inline void __hv_neq_f(hv_bInf_t bIn0, hv_bInf_t bIn1, hv_bOutf_t bOut) {
 619:source/HvMath.h **** #if HV_SIMD_AVX
 620:source/HvMath.h ****   *bOut = _mm256_cmp_ps(bIn0, bIn1, _CMP_NEQ_OQ);
 621:source/HvMath.h **** #elif HV_SIMD_SSE
 622:source/HvMath.h ****   *bOut = _mm_cmpneq_ps(bIn0, bIn1);
 623:source/HvMath.h **** #elif HV_SIMD_NEON
 624:source/HvMath.h ****   *bOut = vreinterpretq_f32_u32(vmvnq_u32(vceqq_f32(bIn0, bIn1)));
 625:source/HvMath.h **** #else // HV_SIMD_NONE
 626:source/HvMath.h ****   *bOut = (bIn0 != bIn1) ? 1.0f : 0.0f;
 627:source/HvMath.h **** #endif
 628:source/HvMath.h **** }
 629:source/HvMath.h **** 
 630:source/HvMath.h **** static inline void __hv_or_f(hv_bInf_t bIn0, hv_bInf_t bIn1, hv_bOutf_t bOut) {
 631:source/HvMath.h **** #if HV_SIMD_AVX
 632:source/HvMath.h ****   *bOut = _mm256_or_ps(bIn1, bIn0);
 633:source/HvMath.h **** #elif HV_SIMD_SSE
 634:source/HvMath.h ****   *bOut = _mm_or_ps(bIn1, bIn0);
 635:source/HvMath.h **** #elif HV_SIMD_NEON
 636:source/HvMath.h ****   *bOut = vreinterpretq_f32_u32(vorrq_u32(vreinterpretq_u32_f32(bIn1), vreinterpretq_u32_f32(bIn0))
 637:source/HvMath.h **** #else // HV_SIMD_NONE
 638:source/HvMath.h ****   if (bIn0 == 0.0f && bIn1 == 0.0f) *bOut = 0.0f;
 639:source/HvMath.h ****   else if (bIn0 == 0.0f) *bOut = bIn1;
 640:source/HvMath.h ****   else if (bIn1 == 0.0f) *bOut = bIn0;
 641:source/HvMath.h ****   else hv_assert(0);
 642:source/HvMath.h **** #endif
ARM GAS  /var/folders/fb/yfxt3z4538j6z0vjt03w70vc0000gn/T//ccW52HDD.s 			page 51


 643:source/HvMath.h **** }
 644:source/HvMath.h **** 
 645:source/HvMath.h **** static inline void __hv_and_f(hv_bInf_t bIn0, hv_bInf_t bIn1, hv_bOutf_t bOut) {
 646:source/HvMath.h **** #if HV_SIMD_AVX
 647:source/HvMath.h ****   *bOut = _mm256_and_ps(bIn1, bIn0);
 648:source/HvMath.h **** #elif HV_SIMD_SSE
 649:source/HvMath.h ****   *bOut = _mm_and_ps(bIn1, bIn0);
 650:source/HvMath.h **** #elif HV_SIMD_NEON
 651:source/HvMath.h ****   *bOut = vreinterpretq_f32_u32(vandq_u32(vreinterpretq_u32_f32(bIn1), vreinterpretq_u32_f32(bIn0))
 652:source/HvMath.h **** #else // HV_SIMD_NONE
 653:source/HvMath.h ****   if (bIn0 == 0.0f || bIn1 == 0.0f) *bOut = 0.0f;
 654:source/HvMath.h ****   else if (bIn0 == 1.0f) *bOut = bIn1;
 655:source/HvMath.h ****   else if (bIn1 == 1.0f) *bOut = bIn0;
 656:source/HvMath.h ****   else hv_assert(0);
 657:source/HvMath.h **** #endif
 658:source/HvMath.h **** }
 659:source/HvMath.h **** 
 660:source/HvMath.h **** static inline void __hv_andnot_f(hv_bInf_t bIn0_mask, hv_bInf_t bIn1, hv_bOutf_t bOut) {
 661:source/HvMath.h **** #if HV_SIMD_AVX
 662:source/HvMath.h ****   *bOut = _mm256_andnot_ps(bIn0_mask, bIn1);
 663:source/HvMath.h **** #elif HV_SIMD_SSE
 664:source/HvMath.h ****   *bOut = _mm_andnot_ps(bIn0_mask, bIn1);
 665:source/HvMath.h **** #elif HV_SIMD_NEON
 666:source/HvMath.h ****   *bOut = vreinterpretq_f32_s32(vbicq_s32(vreinterpretq_s32_f32(bIn1), vreinterpretq_s32_f32(bIn0_m
 667:source/HvMath.h **** #else // HV_SIMD_NONE
 668:source/HvMath.h ****   *bOut = (bIn0_mask == 0.0f) ? bIn1 : 0.0f;
 669:source/HvMath.h **** #endif
 670:source/HvMath.h **** }
 671:source/HvMath.h **** 
 672:source/HvMath.h **** // bOut = (bIn0 * bIn1) + bIn2
 673:source/HvMath.h **** static inline void __hv_fma_f(hv_bInf_t bIn0, hv_bInf_t bIn1, hv_bInf_t bIn2, hv_bOutf_t bOut) {
 674:source/HvMath.h **** #if HV_SIMD_AVX
 675:source/HvMath.h **** #if HV_SIMD_FMA
 676:source/HvMath.h ****   *bOut = _mm256_fmadd_ps(bIn0, bIn1, bIn2);
 677:source/HvMath.h **** #else
 678:source/HvMath.h ****   *bOut = _mm256_add_ps(_mm256_mul_ps(bIn0, bIn1), bIn2);
 679:source/HvMath.h **** #endif // HV_SIMD_FMA
 680:source/HvMath.h **** #elif HV_SIMD_SSE
 681:source/HvMath.h **** #if HV_SIMD_FMA
 682:source/HvMath.h ****   *bOut = _mm_fmadd_ps(bIn0, bIn1, bIn2);
 683:source/HvMath.h **** #else
 684:source/HvMath.h ****   *bOut = _mm_add_ps(_mm_mul_ps(bIn0, bIn1), bIn2);
 685:source/HvMath.h **** #endif // HV_SIMD_FMA
 686:source/HvMath.h **** #elif HV_SIMD_NEON
 687:source/HvMath.h **** #if __ARM_ARCH >= 8
 688:source/HvMath.h ****   *bOut = vfmaq_f32(bIn2, bIn0, bIn1);
 689:source/HvMath.h **** #else
 690:source/HvMath.h ****   // NOTE(mhroth): it turns out, fma SUUUUCKS on lesser ARM architectures
 691:source/HvMath.h ****   *bOut = vaddq_f32(vmulq_f32(bIn0, bIn1), bIn2);
 692:source/HvMath.h **** #endif
 693:source/HvMath.h **** #else // HV_SIMD_NONE
 694:source/HvMath.h ****   *bOut = hv_fma_f(bIn0, bIn1, bIn2);
 1288              		.loc 4 694 11 view .LVU322
 1289 009c DFED2F5A 		vldr.32	s11, .L82+4
 1290              	.LBE139:
 1291              	.LBE138:
 1292              	.LBB141:
ARM GAS  /var/folders/fb/yfxt3z4538j6z0vjt03w70vc0000gn/T//ccW52HDD.s 			page 52


 1293              	.LBB119:
 103:source/HvSignalPhasor.h ****   *bOut = *((float *) (&p)) - 1.0f;
 1294              		.loc 8 103 41 view .LVU323
 1295 00a0 07EE902A 		vmov	s15, r2	@ int
 1296              		.loc 8 105 27 view .LVU324
 1297 00a4 27EE067A 		vmul.f32	s14, s14, s12
 1298              	.LBE119:
 1299              	.LBE141:
 1300              	.LBB142:
 1301              	.LBB143:
 1302              		.file 9 "source/HvSignalLine.h"
   1:source/HvSignalLine.h **** /**
   2:source/HvSignalLine.h ****  * Copyright (c) 2014-2018 Enzien Audio Ltd.
   3:source/HvSignalLine.h ****  *
   4:source/HvSignalLine.h ****  * Permission to use, copy, modify, and/or distribute this software for any
   5:source/HvSignalLine.h ****  * purpose with or without fee is hereby granted, provided that the above
   6:source/HvSignalLine.h ****  * copyright notice and this permission notice appear in all copies.
   7:source/HvSignalLine.h ****  *
   8:source/HvSignalLine.h ****  * THE SOFTWARE IS PROVIDED "AS IS" AND THE AUTHOR DISCLAIMS ALL WARRANTIES WITH
   9:source/HvSignalLine.h ****  * REGARD TO THIS SOFTWARE INCLUDING ALL IMPLIED WARRANTIES OF MERCHANTABILITY
  10:source/HvSignalLine.h ****  * AND FITNESS. IN NO EVENT SHALL THE AUTHOR BE LIABLE FOR ANY SPECIAL, DIRECT,
  11:source/HvSignalLine.h ****  * INDIRECT, OR CONSEQUENTIAL DAMAGES OR ANY DAMAGES WHATSOEVER RESULTING FROM
  12:source/HvSignalLine.h ****  * LOSS OF USE, DATA OR PROFITS, WHETHER IN AN ACTION OF CONTRACT, NEGLIGENCE OR
  13:source/HvSignalLine.h ****  * OTHER TORTIOUS ACTION, ARISING OUT OF OR IN CONNECTION WITH THE USE OR
  14:source/HvSignalLine.h ****  * PERFORMANCE OF THIS SOFTWARE.
  15:source/HvSignalLine.h ****  */
  16:source/HvSignalLine.h **** 
  17:source/HvSignalLine.h **** #ifndef _SIGNAL_LINE_H_
  18:source/HvSignalLine.h **** #define _SIGNAL_LINE_H_
  19:source/HvSignalLine.h **** 
  20:source/HvSignalLine.h **** #include "HvHeavyInternal.h"
  21:source/HvSignalLine.h **** 
  22:source/HvSignalLine.h **** #ifdef __cplusplus
  23:source/HvSignalLine.h **** extern "C" {
  24:source/HvSignalLine.h **** #endif
  25:source/HvSignalLine.h **** 
  26:source/HvSignalLine.h **** typedef struct SignalLine {
  27:source/HvSignalLine.h **** #if HV_SIMD_AVX
  28:source/HvSignalLine.h ****   __m128i n; // remaining samples to target
  29:source/HvSignalLine.h **** #else
  30:source/HvSignalLine.h ****   hv_bufferi_t n; // remaining samples to target
  31:source/HvSignalLine.h **** #endif
  32:source/HvSignalLine.h ****   hv_bufferf_t x; // current output
  33:source/HvSignalLine.h ****   hv_bufferf_t m; // increment
  34:source/HvSignalLine.h ****   hv_bufferf_t t; // target value
  35:source/HvSignalLine.h **** } SignalLine;
  36:source/HvSignalLine.h **** 
  37:source/HvSignalLine.h **** hv_size_t sLine_init(SignalLine *o);
  38:source/HvSignalLine.h **** 
  39:source/HvSignalLine.h **** static inline void __hv_line_f(SignalLine *o, hv_bOutf_t bOut) {
  40:source/HvSignalLine.h **** #if HV_SIMD_AVX
  41:source/HvSignalLine.h ****   __m128i n = o->n;
  42:source/HvSignalLine.h ****   __m128i masklo = _mm_cmplt_epi32(n, _mm_setzero_si128()); // n < 0
  43:source/HvSignalLine.h ****   n = _mm_sub_epi32(n, _mm_set1_epi32(4)); // subtract HV_N_SIMD from remaining samples
  44:source/HvSignalLine.h ****   __m128i maskhi = _mm_cmplt_epi32(n, _mm_setzero_si128());
  45:source/HvSignalLine.h ****   o->n = _mm_sub_epi32(n, _mm_set1_epi32(4));
  46:source/HvSignalLine.h ****   __m256 mask = _mm256_insertf128_ps(_mm256_castps128_ps256(_mm_castsi128_ps(masklo)), _mm_castsi12
ARM GAS  /var/folders/fb/yfxt3z4538j6z0vjt03w70vc0000gn/T//ccW52HDD.s 			page 53


  47:source/HvSignalLine.h **** 
  48:source/HvSignalLine.h ****   __m256 x = o->x;
  49:source/HvSignalLine.h ****   *bOut = _mm256_or_ps(_mm256_and_ps(mask, o->t), _mm256_andnot_ps(mask, x));
  50:source/HvSignalLine.h **** 
  51:source/HvSignalLine.h ****   // add slope from sloped samples
  52:source/HvSignalLine.h ****   o->x = _mm256_add_ps(x, o->m);
  53:source/HvSignalLine.h **** #elif HV_SIMD_SSE
  54:source/HvSignalLine.h ****   __m128i n = o->n;
  55:source/HvSignalLine.h ****   __m128 mask = _mm_castsi128_ps(_mm_cmplt_epi32(n, _mm_setzero_si128())); // n < 0
  56:source/HvSignalLine.h **** 
  57:source/HvSignalLine.h ****   __m128 x = o->x;
  58:source/HvSignalLine.h ****   *bOut = _mm_or_ps(_mm_and_ps(mask, o->t), _mm_andnot_ps(mask, x));
  59:source/HvSignalLine.h **** 
  60:source/HvSignalLine.h ****   // subtract HV_N_SIMD from remaining samples
  61:source/HvSignalLine.h ****   o->n = _mm_sub_epi32(n, _mm_set1_epi32(HV_N_SIMD));
  62:source/HvSignalLine.h **** 
  63:source/HvSignalLine.h ****   // add slope from sloped samples
  64:source/HvSignalLine.h ****   o->x = _mm_add_ps(x, o->m);
  65:source/HvSignalLine.h **** #elif HV_SIMD_NEON
  66:source/HvSignalLine.h ****   int32x4_t n = o->n;
  67:source/HvSignalLine.h ****   int32x4_t mask = vreinterpretq_s32_u32(vcltq_s32(n, vdupq_n_s32(0)));
  68:source/HvSignalLine.h ****   float32x4_t x = o->x;
  69:source/HvSignalLine.h ****   *bOut = vreinterpretq_f32_s32(vorrq_s32(
  70:source/HvSignalLine.h ****       vandq_s32(mask, vreinterpretq_s32_f32(o->t)),
  71:source/HvSignalLine.h ****       vbicq_s32(vreinterpretq_s32_f32(x), mask)));
  72:source/HvSignalLine.h ****   o->n = vsubq_s32(n, vdupq_n_s32(HV_N_SIMD));
  73:source/HvSignalLine.h ****   o->x = vaddq_f32(x, o->m);
  74:source/HvSignalLine.h **** #else // HV_SIMD_NONE
  75:source/HvSignalLine.h ****   *bOut = (o->n < 0) ? o->t : o->x;
 1303              		.loc 9 75 15 view .LVU325
 1304 00a8 D4F89410 		ldr	r1, [r4, #148]
 1305              	.LBE143:
 1306              	.LBE142:
 1307              	.LBB151:
 1308              	.LBB120:
 104:source/HvSignalPhasor.h ****   o->phase += ((int) (bIn * o->step.f2sc));
 1309              		.loc 8 104 29 view .LVU326
 1310 00ac 77EEC47A 		vsub.f32	s15, s15, s8
 1311              	.LBE120:
 1312              	.LBE151:
 1313              	.LBB152:
 1314              	.LBB153:
 1315              		.loc 4 694 11 view .LVU327
 1316 00b0 9FED2B6A 		vldr.32	s12, .L82+8
 1317              	.LBE153:
 1318              	.LBE152:
 1319              	.LBB156:
 1320              	.LBB121:
 1321              		.loc 8 105 16 view .LVU328
 1322 00b4 BDEEC77A 		vcvt.s32.f32	s14, s14
 1323              	.LBE121:
 1324              	.LBE156:
 1325              	.LBB157:
 1326              	.LBB144:
 1327              		.loc 9 75 22 view .LVU329
 1328 00b8 0029     		cmp	r1, #0
 1329              	.LBE144:
ARM GAS  /var/folders/fb/yfxt3z4538j6z0vjt03w70vc0000gn/T//ccW52HDD.s 			page 54


 1330              	.LBE157:
 1331              	.LBB158:
 1332              	.LBB126:
 408:source/HvMath.h **** #endif
 1333              		.loc 4 408 16 view .LVU330
 1334 00ba 77EEE47A 		vsub.f32	s15, s15, s9
 1335              	.LBE126:
 1336              	.LBE158:
 1337              	.LBB159:
 1338              	.LBB122:
 1339              		.loc 8 105 12 view .LVU331
 1340 00be 17EE102A 		vmov	r2, s14	@ int
 1341              	.LVL98:
 1342              		.loc 8 105 12 view .LVU332
 1343              	.LBE122:
 1344              	.LBE159:
 1345              	.LBB160:
 1346              	.LBB161:
 297:source/HvMath.h **** #endif
 1347              		.loc 4 297 11 view .LVU333
 1348 00c2 F0EEE77A 		vabs.f32	s15, s15
 1349              	.LBE161:
 1350              	.LBE160:
 1351              	.LBB163:
 1352              	.LBB123:
 1353              		.loc 8 105 12 view .LVU334
 1354 00c6 1A44     		add	r2, r2, r3
 1355 00c8 C4F88820 		str	r2, [r4, #136]
 1356              	.LVL99:
 1357              		.loc 8 105 12 view .LVU335
 1358              	.LBE123:
 1359              	.LBE163:
 253:source/Heavy_daisy_control.cpp ****     __hv_sub_f(VIf(Bf0), VIf(Bf1), VOf(Bf1));
 1360              		.loc 3 253 5 is_stmt 1 view .LVU336
 254:source/Heavy_daisy_control.cpp ****     __hv_abs_f(VIf(Bf1), VOf(Bf1));
 1361              		.loc 3 254 5 view .LVU337
 1362              	.LBB164:
 1363              	.LBI124:
 400:source/HvMath.h **** #if HV_SIMD_AVX
 1364              		.loc 4 400 20 view .LVU338
 1365              	.LBB127:
 408:source/HvMath.h **** #endif
 1366              		.loc 4 408 3 view .LVU339
 408:source/HvMath.h **** #endif
 1367              		.loc 4 408 3 is_stmt 0 view .LVU340
 1368              	.LBE127:
 1369              	.LBE164:
 255:source/Heavy_daisy_control.cpp ****     __hv_var_k_f(VOf(Bf0), 0.25f, 0.25f, 0.25f, 0.25f, 0.25f, 0.25f, 0.25f, 0.25f);
 1370              		.loc 3 255 5 is_stmt 1 view .LVU341
 1371              	.LBB165:
 1372              	.LBI160:
 289:source/HvMath.h **** #if HV_SIMD_AVX
 1373              		.loc 4 289 20 view .LVU342
 1374              	.LBB162:
 297:source/HvMath.h **** #endif
 1375              		.loc 4 297 3 view .LVU343
 297:source/HvMath.h **** #endif
ARM GAS  /var/folders/fb/yfxt3z4538j6z0vjt03w70vc0000gn/T//ccW52HDD.s 			page 55


 1376              		.loc 4 297 3 is_stmt 0 view .LVU344
 1377              	.LBE162:
 1378              	.LBE165:
 256:source/Heavy_daisy_control.cpp ****     __hv_sub_f(VIf(Bf1), VIf(Bf0), VOf(Bf0));
 1379              		.loc 3 256 5 is_stmt 1 view .LVU345
 257:source/Heavy_daisy_control.cpp ****     __hv_var_k_f(VOf(Bf1), 6.283185307179586f, 6.283185307179586f, 6.283185307179586f, 6.2831853071
 1380              		.loc 3 257 5 view .LVU346
 1381              	.LBB166:
 1382              	.LBI133:
 400:source/HvMath.h **** #if HV_SIMD_AVX
 1383              		.loc 4 400 20 view .LVU347
 1384              	.LBB135:
 408:source/HvMath.h **** #endif
 1385              		.loc 4 408 3 view .LVU348
 408:source/HvMath.h **** #endif
 1386              		.loc 4 408 3 is_stmt 0 view .LVU349
 1387              	.LBE135:
 1388              	.LBE166:
 258:source/Heavy_daisy_control.cpp ****     __hv_mul_f(VIf(Bf0), VIf(Bf1), VOf(Bf1));
 1389              		.loc 3 258 5 is_stmt 1 view .LVU350
 259:source/Heavy_daisy_control.cpp ****     __hv_mul_f(VIf(Bf1), VIf(Bf1), VOf(Bf0));
 1390              		.loc 3 259 5 view .LVU351
 1391              	.LBB167:
 1392              	.LBI128:
 413:source/HvMath.h **** #if HV_SIMD_AVX
 1393              		.loc 4 413 20 view .LVU352
 1394              	.LBB130:
 421:source/HvMath.h **** #endif
 1395              		.loc 4 421 3 view .LVU353
 1396              	.LBE130:
 1397              	.LBE167:
 1398              	.LBB168:
 1399              	.LBB136:
 408:source/HvMath.h **** #endif
 1400              		.loc 4 408 16 is_stmt 0 view .LVU354
 1401 00cc 77EEC57A 		vsub.f32	s15, s15, s10
 1402              	.LBE136:
 1403              	.LBE168:
 1404              	.LBB169:
 1405              	.LBB131:
 421:source/HvMath.h **** #endif
 1406              		.loc 4 421 16 view .LVU355
 1407 00d0 67EEA67A 		vmul.f32	s15, s15, s13
 1408              	.LVL100:
 421:source/HvMath.h **** #endif
 1409              		.loc 4 421 16 view .LVU356
 1410              	.LBE131:
 1411              	.LBE169:
 260:source/Heavy_daisy_control.cpp ****     __hv_mul_f(VIf(Bf1), VIf(Bf0), VOf(Bf2));
 1412              		.loc 3 260 5 is_stmt 1 view .LVU357
 1413              	.LBB170:
 1414              	.LBI170:
 413:source/HvMath.h **** #if HV_SIMD_AVX
 1415              		.loc 4 413 20 view .LVU358
 1416              	.LBB171:
 421:source/HvMath.h **** #endif
 1417              		.loc 4 421 3 view .LVU359
ARM GAS  /var/folders/fb/yfxt3z4538j6z0vjt03w70vc0000gn/T//ccW52HDD.s 			page 56


 421:source/HvMath.h **** #endif
 1418              		.loc 4 421 16 is_stmt 0 view .LVU360
 1419 00d4 67EEA76A 		vmul.f32	s13, s15, s15
 1420              	.LVL101:
 421:source/HvMath.h **** #endif
 1421              		.loc 4 421 16 view .LVU361
 1422              	.LBE171:
 1423              	.LBE170:
 261:source/Heavy_daisy_control.cpp ****     __hv_mul_f(VIf(Bf2), VIf(Bf0), VOf(Bf0));
 1424              		.loc 3 261 5 is_stmt 1 view .LVU362
 1425              	.LBB172:
 1426              	.LBI172:
 413:source/HvMath.h **** #if HV_SIMD_AVX
 1427              		.loc 4 413 20 view .LVU363
 1428              	.LBB173:
 421:source/HvMath.h **** #endif
 1429              		.loc 4 421 3 view .LVU364
 421:source/HvMath.h **** #endif
 1430              		.loc 4 421 16 is_stmt 0 view .LVU365
 1431 00d8 26EEA77A 		vmul.f32	s14, s13, s15
 1432              	.LVL102:
 421:source/HvMath.h **** #endif
 1433              		.loc 4 421 16 view .LVU366
 1434              	.LBE173:
 1435              	.LBE172:
 262:source/Heavy_daisy_control.cpp ****     __hv_var_k_f(VOf(Bf3), 0.007833333333333f, 0.007833333333333f, 0.007833333333333f, 0.0078333333
 1436              		.loc 3 262 5 is_stmt 1 view .LVU367
 1437              	.LBB174:
 1438              	.LBI174:
 413:source/HvMath.h **** #if HV_SIMD_AVX
 1439              		.loc 4 413 20 view .LVU368
 1440              	.LBB175:
 421:source/HvMath.h **** #endif
 1441              		.loc 4 421 3 view .LVU369
 421:source/HvMath.h **** #endif
 1442              		.loc 4 421 3 is_stmt 0 view .LVU370
 1443              	.LBE175:
 1444              	.LBE174:
 263:source/Heavy_daisy_control.cpp ****     __hv_var_k_f(VOf(Bf4), -0.166666666666667f, -0.166666666666667f, -0.166666666666667f, -0.166666
 1445              		.loc 3 263 5 is_stmt 1 view .LVU371
 264:source/Heavy_daisy_control.cpp ****     __hv_fma_f(VIf(Bf2), VIf(Bf4), VIf(Bf1), VOf(Bf1));
 1446              		.loc 3 264 5 view .LVU372
 265:source/Heavy_daisy_control.cpp ****     __hv_fma_f(VIf(Bf0), VIf(Bf3), VIf(Bf1), VOf(Bf1));
 1447              		.loc 3 265 5 view .LVU373
 1448              	.LBB177:
 1449              	.LBI138:
 673:source/HvMath.h **** #if HV_SIMD_AVX
 1450              		.loc 4 673 20 view .LVU374
 1451              	.LBB140:
 1452              		.loc 4 694 3 view .LVU375
 1453              		.loc 4 694 11 is_stmt 0 view .LVU376
 1454 00dc E7EE257A 		vfma.f32	s15, s14, s11
 1455              	.LVL103:
 1456              		.loc 4 694 11 view .LVU377
 1457              	.LBE140:
 1458              	.LBE177:
 266:source/Heavy_daisy_control.cpp ****     __hv_line_f(&sLine_vmZdgXXU, VOf(Bf3));
ARM GAS  /var/folders/fb/yfxt3z4538j6z0vjt03w70vc0000gn/T//ccW52HDD.s 			page 57


 1459              		.loc 3 266 5 is_stmt 1 view .LVU378
 1460              	.LBB178:
 1461              	.LBI152:
 673:source/HvMath.h **** #if HV_SIMD_AVX
 1462              		.loc 4 673 20 view .LVU379
 1463              	.LBB154:
 1464              		.loc 4 694 3 view .LVU380
 1465              	.LBE154:
 1466              	.LBE178:
 1467              	.LBB179:
 1468              	.LBB176:
 421:source/HvMath.h **** #endif
 1469              		.loc 4 421 16 is_stmt 0 view .LVU381
 1470 00e0 27EE267A 		vmul.f32	s14, s14, s13
 1471              	.LVL104:
 421:source/HvMath.h **** #endif
 1472              		.loc 4 421 16 view .LVU382
 1473              	.LBE176:
 1474              	.LBE179:
 1475              	.LBB180:
 1476              	.LBB155:
 1477              		.loc 4 694 11 view .LVU383
 1478 00e4 E7EE067A 		vfma.f32	s15, s14, s12
 1479              	.LVL105:
 1480              		.loc 4 694 11 view .LVU384
 1481              	.LBE155:
 1482              	.LBE180:
 267:source/Heavy_daisy_control.cpp ****     __hv_mul_f(VIf(Bf1), VIf(Bf3), VOf(Bf3));
 1483              		.loc 3 267 5 is_stmt 1 view .LVU385
 1484              	.LBB181:
 1485              	.LBI142:
  39:source/HvSignalLine.h **** #if HV_SIMD_AVX
 1486              		.loc 9 39 20 view .LVU386
 1487              	.LBB145:
 1488              		.loc 9 75 3 view .LVU387
 1489              		.loc 9 75 22 is_stmt 0 view .LVU388
 1490 00e8 24DB     		blt	.L81
 1491 00ea 94ED266A 		vldr.32	s12, [r4, #152]
 1492 00ee B0EE465A 		vmov.f32	s10, s12
 1493              	.L71:
 1494              	.LVL106:
  76:source/HvSignalLine.h ****   o->n -= HV_N_SIMD;
 1495              		.loc 9 76 3 is_stmt 1 view .LVU389
 1496              	.LBE145:
 1497              	.LBE181:
 1498              	.LBB182:
 1499              	.LBB183:
 380:source/HvMath.h **** #endif
 1500              		.loc 4 380 16 is_stmt 0 view .LVU390
 1501 00f2 DFED1C6A 		vldr.32	s13, .L82+12
 380:source/HvMath.h **** #endif
 1502              		.loc 4 380 16 view .LVU391
 1503              	.LBE183:
 1504              	.LBE182:
 1505              	.LBB187:
 1506              	.LBB146:
 1507              		.loc 9 76 8 view .LVU392
ARM GAS  /var/folders/fb/yfxt3z4538j6z0vjt03w70vc0000gn/T//ccW52HDD.s 			page 58


 1508 00f6 0139     		subs	r1, r1, #1
  77:source/HvSignalLine.h ****   o->x += o->m;
 1509              		.loc 9 77 8 view .LVU393
 1510 00f8 94ED277A 		vldr.32	s14, [r4, #156]
 1511              	.LVL107:
 1512              		.loc 9 77 8 view .LVU394
 1513              	.LBE146:
 1514              	.LBE187:
 1515              	.LBE211:
 234:source/Heavy_daisy_control.cpp **** 
 1516              		.loc 3 234 21 view .LVU395
 1517 00fc C845     		cmp	r8, r9
 1518              	.LBB212:
 1519              	.LBB188:
 1520              	.LBB184:
 380:source/HvMath.h **** #endif
 1521              		.loc 4 380 16 view .LVU396
 1522 00fe F0EE665A 		vmov.f32	s11, s13
 1523              	.LBE184:
 1524              	.LBE188:
 1525              	.LBB189:
 1526              	.LBB190:
  70:source/HvMath.h **** #endif
 1527              		.loc 4 70 9 view .LVU397
 1528 0102 D5E90023 		ldrd	r2, r3, [r5]
 1529              	.LBE190:
 1530              	.LBE189:
 1531              	.LBB194:
 1532              	.LBB185:
 380:source/HvMath.h **** #endif
 1533              		.loc 4 380 16 view .LVU398
 1534 0106 E6EE275A 		vfma.f32	s11, s12, s15
 1535              	.LBE185:
 1536              	.LBE194:
 1537              	.LBB195:
 1538              	.LBB147:
  76:source/HvSignalLine.h ****   o->x += o->m;
 1539              		.loc 9 76 8 view .LVU399
 1540 010a C4F89410 		str	r1, [r4, #148]
 1541              		.loc 9 77 3 is_stmt 1 view .LVU400
 1542              	.LVL108:
 1543              		.loc 9 77 3 is_stmt 0 view .LVU401
 1544              	.LBE147:
 1545              	.LBE195:
 268:source/Heavy_daisy_control.cpp ****     __hv_add_f(VIf(Bf3), VIf(O0), VOf(O0));
 1546              		.loc 3 268 5 is_stmt 1 view .LVU402
 268:source/Heavy_daisy_control.cpp ****     __hv_add_f(VIf(Bf3), VIf(O0), VOf(O0));
 1547              		.loc 3 268 5 is_stmt 0 view .LVU403
 1548              	.LBE212:
 1549              	.LBE219:
 421:source/HvMath.h **** #endif
 1550              		.loc 4 421 3 is_stmt 1 view .LVU404
 1551              	.LBB220:
 1552              	.LBB213:
 269:source/Heavy_daisy_control.cpp **** 
 1553              		.loc 3 269 5 view .LVU405
 1554              	.LBB196:
ARM GAS  /var/folders/fb/yfxt3z4538j6z0vjt03w70vc0000gn/T//ccW52HDD.s 			page 59


 1555              	.LBI182:
 372:source/HvMath.h **** #if HV_SIMD_AVX
 1556              		.loc 4 372 20 view .LVU406
 1557              	.LBB186:
 380:source/HvMath.h **** #endif
 1558              		.loc 4 380 3 view .LVU407
 380:source/HvMath.h **** #endif
 1559              		.loc 4 380 3 is_stmt 0 view .LVU408
 1560              	.LBE186:
 1561              	.LBE196:
 272:source/Heavy_daisy_control.cpp ****     __hv_store_f(outputBuffers[1]+n, VIf(O1));
 1562              		.loc 3 272 5 is_stmt 1 view .LVU409
 1563              	.LBB197:
 1564              	.LBI197:
  62:source/HvMath.h **** #if HV_SIMD_AVX
 1565              		.loc 4 62 20 view .LVU410
 1566              	.LBB198:
  70:source/HvMath.h **** #endif
 1567              		.loc 4 70 3 view .LVU411
  70:source/HvMath.h **** #endif
 1568              		.loc 4 70 3 is_stmt 0 view .LVU412
 1569              	.LBE198:
 1570              	.LBE197:
 273:source/Heavy_daisy_control.cpp ****   }
 1571              		.loc 3 273 5 is_stmt 1 view .LVU413
 1572              	.LBB201:
 1573              	.LBI189:
  62:source/HvMath.h **** #if HV_SIMD_AVX
 1574              		.loc 4 62 20 view .LVU414
 1575              	.LBB191:
  70:source/HvMath.h **** #endif
 1576              		.loc 4 70 3 view .LVU415
 1577              	.LBE191:
 1578              	.LBE201:
 1579              	.LBB202:
 1580              	.LBB148:
 1581              		.loc 9 77 8 is_stmt 0 view .LVU416
 1582 010e 77EE057A 		vadd.f32	s15, s14, s10
 1583              	.LVL109:
 1584              		.loc 9 77 8 view .LVU417
 1585              	.LBE148:
 1586              	.LBE202:
 1587              	.LBB203:
 1588              	.LBB199:
  70:source/HvMath.h **** #endif
 1589              		.loc 4 70 9 view .LVU418
 1590 0112 3A44     		add	r2, r2, r7
 1591              	.LBE199:
 1592              	.LBE203:
 1593              	.LBB204:
 1594              	.LBB192:
 1595 0114 3B44     		add	r3, r3, r7
 1596 0116 07F10407 		add	r7, r7, #4
 1597              	.LVL110:
  70:source/HvMath.h **** #endif
 1598              		.loc 4 70 9 view .LVU419
 1599              	.LBE192:
ARM GAS  /var/folders/fb/yfxt3z4538j6z0vjt03w70vc0000gn/T//ccW52HDD.s 			page 60


 1600              	.LBE204:
 1601              	.LBE213:
 234:source/Heavy_daisy_control.cpp **** 
 1602              		.loc 3 234 3 is_stmt 1 view .LVU420
 234:source/Heavy_daisy_control.cpp **** 
 1603              		.loc 3 234 21 view .LVU421
 1604              	.LBB214:
 1605              	.LBB205:
 1606              	.LBB149:
 1607              		.loc 9 77 8 is_stmt 0 view .LVU422
 1608 011a C4ED267A 		vstr.32	s15, [r4, #152]
 1609              	.LBE149:
 1610              	.LBE205:
 1611              	.LBB206:
 1612              	.LBB200:
  70:source/HvMath.h **** #endif
 1613              		.loc 4 70 9 view .LVU423
 1614 011e C2ED005A 		vstr.32	s11, [r2]
 1615              	.LBE200:
 1616              	.LBE206:
 1617              	.LBB207:
 1618              	.LBB193:
 1619 0122 C3ED006A 		vstr.32	s13, [r3]
 1620              	.LBE193:
 1621              	.LBE207:
 1622              	.LBE214:
 234:source/Heavy_daisy_control.cpp **** 
 1623              		.loc 3 234 21 view .LVU424
 1624 0126 96D1     		bne	.L72
 1625              	.LBE220:
 276:source/Heavy_daisy_control.cpp **** 
 1626              		.loc 3 276 3 is_stmt 1 view .LVU425
 279:source/Heavy_daisy_control.cpp **** 
 1627              		.loc 3 279 1 is_stmt 0 view .LVU426
 1628 0128 3046     		mov	r0, r6
 276:source/Heavy_daisy_control.cpp **** 
 1629              		.loc 3 276 23 view .LVU427
 1630 012a C4F81090 		str	r9, [r4, #16]
 278:source/Heavy_daisy_control.cpp **** }
 1631              		.loc 3 278 3 is_stmt 1 view .LVU428
 1632              	.LVL111:
 279:source/Heavy_daisy_control.cpp **** 
 1633              		.loc 3 279 1 is_stmt 0 view .LVU429
 1634 012e 03B0     		add	sp, sp, #12
 1635              		.cfi_remember_state
 1636              		.cfi_def_cfa_offset 28
 1637              		@ sp needed
 1638 0130 BDE8F083 		pop	{r4, r5, r6, r7, r8, r9, pc}
 1639              	.LVL112:
 1640              	.L81:
 1641              		.cfi_restore_state
 1642              	.LBB221:
 1643              	.LBB215:
 1644              	.LBB208:
 1645              	.LBB150:
  75:source/HvSignalLine.h ****   o->n -= HV_N_SIMD;
 1646              		.loc 9 75 22 view .LVU430
ARM GAS  /var/folders/fb/yfxt3z4538j6z0vjt03w70vc0000gn/T//ccW52HDD.s 			page 61


 1647 0134 94ED286A 		vldr.32	s12, [r4, #160]
 1648 0138 94ED265A 		vldr.32	s10, [r4, #152]
 1649 013c D9E7     		b	.L71
 1650              	.LVL113:
 1651              	.L73:
  75:source/HvSignalLine.h ****   o->n -= HV_N_SIMD;
 1652              		.loc 9 75 22 view .LVU431
 1653              	.LBE150:
 1654              	.LBE208:
 1655              	.LBE215:
 1656              	.LBE221:
 233:source/Heavy_daisy_control.cpp ****   for (int n = 0; n < n4; n += HV_N_SIMD) {
 1657              		.loc 3 233 15 view .LVU432
 1658 013e C146     		mov	r9, r8
 276:source/Heavy_daisy_control.cpp **** 
 1659              		.loc 3 276 3 is_stmt 1 view .LVU433
 279:source/Heavy_daisy_control.cpp **** 
 1660              		.loc 3 279 1 is_stmt 0 view .LVU434
 1661 0140 3046     		mov	r0, r6
 276:source/Heavy_daisy_control.cpp **** 
 1662              		.loc 3 276 23 view .LVU435
 1663 0142 C4F81090 		str	r9, [r4, #16]
 278:source/Heavy_daisy_control.cpp **** }
 1664              		.loc 3 278 3 is_stmt 1 view .LVU436
 1665              	.LVL114:
 279:source/Heavy_daisy_control.cpp **** 
 1666              		.loc 3 279 1 is_stmt 0 view .LVU437
 1667 0146 03B0     		add	sp, sp, #12
 1668              		.cfi_remember_state
 1669              		.cfi_def_cfa_offset 28
 1670              		@ sp needed
 1671 0148 BDE8F083 		pop	{r4, r5, r6, r7, r8, r9, pc}
 1672              	.LVL115:
 1673              	.L79:
 1674              		.cfi_restore_state
 1675              	.LBB222:
 218:source/Heavy_daisy_control.cpp ****     scheduleMessageForReceiver(p->receiverHash, &p->msg);
 1676              		.loc 3 218 5 discriminator 1 view .LVU438
 1677 014c 064B     		ldr	r3, .L82+16
 1678 014e DA21     		movs	r1, #218
 1679 0150 064A     		ldr	r2, .L82+20
 1680 0152 0748     		ldr	r0, .L82+24
 1681              	.LVL116:
 218:source/Heavy_daisy_control.cpp ****     scheduleMessageForReceiver(p->receiverHash, &p->msg);
 1682              		.loc 3 218 5 discriminator 1 view .LVU439
 1683 0154 FFF7FEFF 		bl	__assert_func
 1684              	.LVL117:
 1685              	.L83:
 1686              		.align	2
 1687              	.L82:
 1688 0158 DB0FC940 		.word	1086918619
 1689 015c ABAA2ABE 		.word	-1104500053
 1690 0160 6257003C 		.word	1006655330
 1691 0164 00000000 		.word	0
 1692 0168 00000000 		.word	.LC9
 1693 016c 28000000 		.word	.LC10
 1694 0170 5C000000 		.word	.LC7
ARM GAS  /var/folders/fb/yfxt3z4538j6z0vjt03w70vc0000gn/T//ccW52HDD.s 			page 62


 1695              	.LBE222:
 1696              		.cfi_endproc
 1697              	.LFE1015:
 1699              		.section	.text._ZN12HeavyContext21millisecondsToSamplesEf,"axG",%progbits,_ZN12HeavyContext21milli
 1700              		.align	1
 1701              		.p2align 2,,3
 1702              		.weak	_ZN12HeavyContext21millisecondsToSamplesEf
 1703              		.syntax unified
 1704              		.thumb
 1705              		.thumb_func
 1707              	_ZN12HeavyContext21millisecondsToSamplesEf:
 1708              	.LVL118:
 1709              	.LFB969:
  39:source/HeavyContext.hpp **** 
 1710              		.loc 1 39 15 is_stmt 1 view -0
 1711              		.cfi_startproc
 1712              		@ args = 0, pretend = 0, frame = 0
 1713              		@ frame_needed = 0, uses_anonymous_args = 0
 1714              		@ link register save eliminated.
  39:source/HeavyContext.hpp **** 
 1715              		.loc 1 39 58 view .LVU441
  39:source/HeavyContext.hpp **** 
 1716              		.loc 1 39 80 is_stmt 0 view .LVU442
 1717 0000 DFED0B7A 		vldr.32	s15, .L85+8
  39:source/HeavyContext.hpp **** 
 1718              		.loc 1 39 97 view .LVU443
 1719 0004 90ED025B 		vldr.64	d5, [r0, #8]
  39:source/HeavyContext.hpp **** 
 1720              		.loc 1 39 80 view .LVU444
 1721 0008 87FE800A 		vmaxnm.f32	s0, s15, s0
 1722              	.LVL119:
  39:source/HeavyContext.hpp **** 
 1723              		.loc 1 39 80 view .LVU445
 1724 000c B7EEC00A 		vcvt.f64.f32	d0, s0
  39:source/HeavyContext.hpp **** 
 1725              		.loc 1 39 108 view .LVU446
 1726 0010 9FED056B 		vldr.64	d6, .L85
  39:source/HeavyContext.hpp **** 
 1727              		.loc 1 39 97 view .LVU447
 1728 0014 20EE050B 		vmul.f64	d0, d0, d5
  39:source/HeavyContext.hpp **** 
 1729              		.loc 1 39 108 view .LVU448
 1730 0018 80EE067B 		vdiv.f64	d7, d0, d6
  39:source/HeavyContext.hpp **** 
 1731              		.loc 1 39 118 view .LVU449
 1732 001c FCEEC77B 		vcvt.u32.f64	s15, d7
 1733 0020 17EE900A 		vmov	r0, s15	@ int
 1734              	.LVL120:
  39:source/HeavyContext.hpp **** 
 1735              		.loc 1 39 118 view .LVU450
 1736 0024 7047     		bx	lr
 1737              	.L86:
 1738 0026 00BF     		.align	3
 1739              	.L85:
 1740 0028 00000000 		.word	0
 1741 002c 00408F40 		.word	1083129856
 1742 0030 00000000 		.word	0
ARM GAS  /var/folders/fb/yfxt3z4538j6z0vjt03w70vc0000gn/T//ccW52HDD.s 			page 63


 1743              		.cfi_endproc
 1744              	.LFE969:
 1746              		.section	.text._ZN19Heavy_daisy_control26scheduleMessageForReceiverEmP9HvMessage,"ax",%progbits
 1747              		.align	1
 1748              		.p2align 2,,3
 1749              		.global	_ZN19Heavy_daisy_control26scheduleMessageForReceiverEmP9HvMessage
 1750              		.syntax unified
 1751              		.thumb
 1752              		.thumb_func
 1754              	_ZN19Heavy_daisy_control26scheduleMessageForReceiverEmP9HvMessage:
 1755              	.LVL121:
 1756              	.LFB1002:
  81:source/Heavy_daisy_control.cpp ****   switch (receiverHash) {
 1757              		.loc 3 81 94 is_stmt 1 view -0
 1758              		.cfi_startproc
 1759              		@ args = 0, pretend = 0, frame = 0
 1760              		@ frame_needed = 0, uses_anonymous_args = 0
 1761              		@ link register save eliminated.
  82:source/Heavy_daisy_control.cpp ****     case 0xFB2DC5B6: { // button1
 1762              		.loc 3 82 3 view .LVU452
 1763 0000 0E4B     		ldr	r3, .L94
  81:source/Heavy_daisy_control.cpp ****   switch (receiverHash) {
 1764              		.loc 3 81 94 is_stmt 0 view .LVU453
 1765 0002 9446     		mov	ip, r2
  82:source/Heavy_daisy_control.cpp ****     case 0xFB2DC5B6: { // button1
 1766              		.loc 3 82 3 view .LVU454
 1767 0004 9942     		cmp	r1, r3
 1768 0006 06D0     		beq	.L88
 1769 0008 0D4B     		ldr	r3, .L94+4
 1770 000a 9942     		cmp	r1, r3
 1771 000c 0FD0     		beq	.L89
 1772 000e 0D4B     		ldr	r3, .L94+8
 1773 0010 9942     		cmp	r1, r3
 1774 0012 06D0     		beq	.L93
  97:source/Heavy_daisy_control.cpp **** 
 1775              		.loc 3 97 1 view .LVU455
 1776 0014 7047     		bx	lr
 1777              	.L88:
  87:source/Heavy_daisy_control.cpp ****       mq_addMessageByTimestamp(&mq, m, 0, &cReceive_Qe1xe8gU_sendMessage);
 1778              		.loc 3 87 5 is_stmt 1 view .LVU456
  87:source/Heavy_daisy_control.cpp ****       mq_addMessageByTimestamp(&mq, m, 0, &cReceive_Qe1xe8gU_sendMessage);
 1779              		.loc 3 87 22 view .LVU457
  88:source/Heavy_daisy_control.cpp ****       break;
 1780              		.loc 3 88 7 view .LVU458
  88:source/Heavy_daisy_control.cpp ****       break;
 1781              		.loc 3 88 31 is_stmt 0 view .LVU459
 1782 0016 0C4B     		ldr	r3, .L94+12
 1783 0018 0022     		movs	r2, #0
 1784              	.LVL122:
  88:source/Heavy_daisy_control.cpp ****       break;
 1785              		.loc 3 88 31 view .LVU460
 1786 001a 6146     		mov	r1, ip
 1787              	.LVL123:
  88:source/Heavy_daisy_control.cpp ****       break;
 1788              		.loc 3 88 31 view .LVU461
 1789 001c 1830     		adds	r0, r0, #24
 1790              	.LVL124:
ARM GAS  /var/folders/fb/yfxt3z4538j6z0vjt03w70vc0000gn/T//ccW52HDD.s 			page 64


  88:source/Heavy_daisy_control.cpp ****       break;
 1791              		.loc 3 88 31 view .LVU462
 1792 001e FFF7FEBF 		b	mq_addMessageByTimestamp
 1793              	.LVL125:
 1794              	.L93:
 1795              	.LBB225:
 1796              	.LBI225:
  81:source/Heavy_daisy_control.cpp ****   switch (receiverHash) {
 1797              		.loc 3 81 6 is_stmt 1 view .LVU463
 1798              	.LBB226:
  91:source/Heavy_daisy_control.cpp ****       mq_addMessageByTimestamp(&mq, m, 0, &cReceive_gJQ9EXSU_sendMessage);
 1799              		.loc 3 91 5 view .LVU464
  91:source/Heavy_daisy_control.cpp ****       mq_addMessageByTimestamp(&mq, m, 0, &cReceive_gJQ9EXSU_sendMessage);
 1800              		.loc 3 91 22 view .LVU465
  92:source/Heavy_daisy_control.cpp ****       break;
 1801              		.loc 3 92 7 view .LVU466
  92:source/Heavy_daisy_control.cpp ****       break;
 1802              		.loc 3 92 31 is_stmt 0 view .LVU467
 1803 0022 0A4B     		ldr	r3, .L94+16
 1804 0024 0022     		movs	r2, #0
 1805              	.LVL126:
  92:source/Heavy_daisy_control.cpp ****       break;
 1806              		.loc 3 92 31 view .LVU468
 1807 0026 6146     		mov	r1, ip
 1808              	.LVL127:
  92:source/Heavy_daisy_control.cpp ****       break;
 1809              		.loc 3 92 31 view .LVU469
 1810 0028 1830     		adds	r0, r0, #24
 1811              	.LVL128:
  92:source/Heavy_daisy_control.cpp ****       break;
 1812              		.loc 3 92 31 view .LVU470
 1813 002a FFF7FEBF 		b	mq_addMessageByTimestamp
 1814              	.LVL129:
 1815              	.L89:
  92:source/Heavy_daisy_control.cpp ****       break;
 1816              		.loc 3 92 31 view .LVU471
 1817              	.LBE226:
 1818              	.LBE225:
  83:source/Heavy_daisy_control.cpp ****       mq_addMessageByTimestamp(&mq, m, 0, &cReceive_axElndMB_sendMessage);
 1819              		.loc 3 83 5 is_stmt 1 view .LVU472
  83:source/Heavy_daisy_control.cpp ****       mq_addMessageByTimestamp(&mq, m, 0, &cReceive_axElndMB_sendMessage);
 1820              		.loc 3 83 22 view .LVU473
  84:source/Heavy_daisy_control.cpp ****       break;
 1821              		.loc 3 84 7 view .LVU474
  84:source/Heavy_daisy_control.cpp ****       break;
 1822              		.loc 3 84 31 is_stmt 0 view .LVU475
 1823 002e 084B     		ldr	r3, .L94+20
 1824 0030 0022     		movs	r2, #0
 1825              	.LVL130:
  84:source/Heavy_daisy_control.cpp ****       break;
 1826              		.loc 3 84 31 view .LVU476
 1827 0032 6146     		mov	r1, ip
 1828              	.LVL131:
  84:source/Heavy_daisy_control.cpp ****       break;
 1829              		.loc 3 84 31 view .LVU477
 1830 0034 1830     		adds	r0, r0, #24
 1831              	.LVL132:
ARM GAS  /var/folders/fb/yfxt3z4538j6z0vjt03w70vc0000gn/T//ccW52HDD.s 			page 65


  84:source/Heavy_daisy_control.cpp ****       break;
 1832              		.loc 3 84 31 view .LVU478
 1833 0036 FFF7FEBF 		b	mq_addMessageByTimestamp
 1834              	.LVL133:
 1835              	.L95:
  84:source/Heavy_daisy_control.cpp ****       break;
 1836              		.loc 3 84 31 view .LVU479
 1837 003a 00BF     		.align	2
 1838              	.L94:
 1839 003c D9F81CDF 		.word	-551749415
 1840 0040 B6C52DFB 		.word	-80886346
 1841 0044 9D7DBF44 		.word	1153400221
 1842 0048 00000000 		.word	_ZN19Heavy_daisy_control29cReceive_Qe1xe8gU_sendMessageEP21HeavyContextInterfaceiPK9HvMessag
 1843 004c 00000000 		.word	_ZN19Heavy_daisy_control29cReceive_gJQ9EXSU_sendMessageEP21HeavyContextInterfaceiPK9HvMessag
 1844 0050 00000000 		.word	_ZN19Heavy_daisy_control29cReceive_axElndMB_sendMessageEP21HeavyContextInterfaceiPK9HvMessag
 1845              		.cfi_endproc
 1846              	.LFE1002:
 1848              		.section	.rodata.msg_setFloat.part.0.str1.4,"aMS",%progbits,1
 1849              		.align	2
 1850              	.LC11:
 1851 0000 696E6465 		.ascii	"index < msg_getNumElements(m)\000"
 1851      78203C20 
 1851      6D73675F 
 1851      6765744E 
 1851      756D456C 
 1852 001e 0000     		.align	2
 1853              	.LC12:
 1854 0020 766F6964 		.ascii	"void msg_setFloat(HvMessage*, int, float)\000"
 1854      206D7367 
 1854      5F736574 
 1854      466C6F61 
 1854      74284876 
 1855 004a 0000     		.align	2
 1856              	.LC13:
 1857 004c 736F7572 		.ascii	"source/HvMessage.h\000"
 1857      63652F48 
 1857      764D6573 
 1857      73616765 
 1857      2E6800
 1858              		.section	.text.msg_setFloat.part.0,"ax",%progbits
 1859              		.align	1
 1860              		.p2align 2,,3
 1861              		.syntax unified
 1862              		.thumb
 1863              		.thumb_func
 1865              	msg_setFloat.part.0:
 1866              	.LFB1038:
  84:source/HvMessage.h **** }
  85:source/HvMessage.h **** 
  86:source/HvMessage.h **** static inline void msg_setTimestamp(HvMessage *m, hv_uint32_t timestamp) {
  87:source/HvMessage.h ****   m->timestamp = timestamp;
  88:source/HvMessage.h **** }
  89:source/HvMessage.h **** 
  90:source/HvMessage.h **** static inline int msg_getNumElements(const HvMessage *m) {
  91:source/HvMessage.h ****   return (int) m->numElements;
  92:source/HvMessage.h **** }
  93:source/HvMessage.h **** 
ARM GAS  /var/folders/fb/yfxt3z4538j6z0vjt03w70vc0000gn/T//ccW52HDD.s 			page 66


  94:source/HvMessage.h **** /** Returns the total number of bytes this message consumes in memory. */
  95:source/HvMessage.h **** static inline hv_uint32_t msg_getSize(const HvMessage *m) {
  96:source/HvMessage.h ****   return m->numBytes;
  97:source/HvMessage.h **** }
  98:source/HvMessage.h **** 
  99:source/HvMessage.h **** static inline ElementType msg_getType(const HvMessage *m, int index) {
 100:source/HvMessage.h ****   hv_assert(index < msg_getNumElements(m)); // invalid index
 101:source/HvMessage.h ****   return (&(m->elem)+index)->type;
 102:source/HvMessage.h **** }
 103:source/HvMessage.h **** 
 104:source/HvMessage.h **** static inline void msg_setBang(HvMessage *m, int index) {
 105:source/HvMessage.h ****   hv_assert(index < msg_getNumElements(m)); // invalid index
 106:source/HvMessage.h ****   (&(m->elem)+index)->type = HV_MSG_BANG;
 107:source/HvMessage.h ****   (&(m->elem)+index)->data.s = NULL;
 108:source/HvMessage.h **** }
 109:source/HvMessage.h **** 
 110:source/HvMessage.h **** static inline bool msg_isBang(const HvMessage *m, int index) {
 111:source/HvMessage.h ****   return (index < msg_getNumElements(m)) ? (msg_getType(m,index) == HV_MSG_BANG) : false;
 112:source/HvMessage.h **** }
 113:source/HvMessage.h **** 
 114:source/HvMessage.h **** static inline void msg_setFloat(HvMessage *m, int index, float f) {
 1867              		.loc 6 114 20 is_stmt 1 view -0
 1868              		.cfi_startproc
 1869              		@ Volatile: function does not return.
 1870              		@ args = 0, pretend = 0, frame = 0
 1871              		@ frame_needed = 0, uses_anonymous_args = 0
 1872              	.LVL134:
 1873              		.loc 6 114 20 is_stmt 0 view .LVU481
 1874 0000 08B5     		push	{r3, lr}
 1875              		.cfi_def_cfa_offset 8
 1876              		.cfi_offset 3, -8
 1877              		.cfi_offset 14, -4
 115:source/HvMessage.h ****   hv_assert(index < msg_getNumElements(m)); // invalid index
 1878              		.loc 6 115 3 view .LVU482
 1879 0002 034A     		ldr	r2, .L98
 1880 0004 7321     		movs	r1, #115
 1881 0006 034B     		ldr	r3, .L98+4
 1882 0008 0348     		ldr	r0, .L98+8
 1883 000a FFF7FEFF 		bl	__assert_func
 1884              	.LVL135:
 1885              	.L99:
 1886 000e 00BF     		.align	2
 1887              	.L98:
 1888 0010 20000000 		.word	.LC12
 1889 0014 00000000 		.word	.LC11
 1890 0018 4C000000 		.word	.LC13
 1891              		.cfi_endproc
 1892              	.LFE1038:
 1894              		.section	.text._ZN19Heavy_daisy_control29cReceive_axElndMB_sendMessageEP21HeavyContextInterfaceiPK
 1895              		.align	1
 1896              		.p2align 2,,3
 1897              		.global	_ZN19Heavy_daisy_control29cReceive_axElndMB_sendMessageEP21HeavyContextInterfaceiPK9HvMess
 1898              		.syntax unified
 1899              		.thumb
 1900              		.thumb_func
 1902              	_ZN19Heavy_daisy_control29cReceive_axElndMB_sendMessageEP21HeavyContextInterfaceiPK9HvMessage:
 1903              	.LFB1040:
ARM GAS  /var/folders/fb/yfxt3z4538j6z0vjt03w70vc0000gn/T//ccW52HDD.s 			page 67


 1904              		.cfi_startproc
 1905              		@ args = 0, pretend = 0, frame = 8
 1906              		@ frame_needed = 0, uses_anonymous_args = 0
 1907 0000 10B5     		push	{r4, lr}
 1908              		.cfi_def_cfa_offset 8
 1909              		.cfi_offset 4, -8
 1910              		.cfi_offset 14, -4
 1911 0002 1346     		mov	r3, r2
 1912 0004 84B0     		sub	sp, sp, #16
 1913              		.cfi_def_cfa_offset 24
 1914 0006 0022     		movs	r2, #0
 1915 0008 0849     		ldr	r1, .L102
 1916 000a 0446     		mov	r4, r0
 1917 000c 0393     		str	r3, [sp, #12]
 1918 000e 0091     		str	r1, [sp]
 1919 0010 1146     		mov	r1, r2
 1920 0012 FFF7FEFF 		bl	cCast_onMessage
 1921 0016 0022     		movs	r2, #0
 1922 0018 0549     		ldr	r1, .L102+4
 1923 001a 2046     		mov	r0, r4
 1924 001c 039B     		ldr	r3, [sp, #12]
 1925 001e 0091     		str	r1, [sp]
 1926 0020 1146     		mov	r1, r2
 1927 0022 FFF7FEFF 		bl	cCast_onMessage
 1928 0026 04B0     		add	sp, sp, #16
 1929              		.cfi_def_cfa_offset 8
 1930              		@ sp needed
 1931 0028 10BD     		pop	{r4, pc}
 1932              	.L103:
 1933 002a 00BF     		.align	2
 1934              	.L102:
 1935 002c 00000000 		.word	_ZN19Heavy_daisy_control26cCast_jy66met6_sendMessageEP21HeavyContextInterfaceiPK9HvMessage
 1936 0030 00000000 		.word	_ZN19Heavy_daisy_control26cCast_Nt5hgoBa_sendMessageEP21HeavyContextInterfaceiPK9HvMessage
 1937              		.cfi_endproc
 1938              	.LFE1040:
 1940              		.section	.text._ZN19Heavy_daisy_controlC2Ediii,"ax",%progbits
 1941              		.align	1
 1942              		.p2align 2,,3
 1943              		.global	_ZN19Heavy_daisy_controlC2Ediii
 1944              		.syntax unified
 1945              		.thumb
 1946              		.thumb_func
 1948              	_ZN19Heavy_daisy_controlC2Ediii:
 1949              	.LVL136:
 1950              	.LFB995:
  64:source/Heavy_daisy_control.cpp ****     : HeavyContext(sampleRate, poolKb, inQueueKb, outQueueKb) {
 1951              		.loc 3 64 1 is_stmt 1 view -0
 1952              		.cfi_startproc
 1953              		@ args = 0, pretend = 0, frame = 0
 1954              		@ frame_needed = 0, uses_anonymous_args = 0
  64:source/Heavy_daisy_control.cpp ****     : HeavyContext(sampleRate, poolKb, inQueueKb, outQueueKb) {
 1955              		.loc 3 64 1 is_stmt 0 view .LVU484
 1956 0000 10B5     		push	{r4, lr}
 1957              		.cfi_def_cfa_offset 8
 1958              		.cfi_offset 4, -8
 1959              		.cfi_offset 14, -4
 1960 0002 0446     		mov	r4, r0
ARM GAS  /var/folders/fb/yfxt3z4538j6z0vjt03w70vc0000gn/T//ccW52HDD.s 			page 68


 1961 0004 2DED048B 		vpush.64	{d8, d9}
 1962              		.cfi_def_cfa_offset 24
 1963              		.cfi_offset 80, -24
 1964              		.cfi_offset 81, -20
 1965              		.cfi_offset 82, -16
 1966              		.cfi_offset 83, -12
  64:source/Heavy_daisy_control.cpp ****     : HeavyContext(sampleRate, poolKb, inQueueKb, outQueueKb) {
 1967              		.loc 3 64 1 view .LVU485
 1968 0008 B0EE408B 		vmov.f64	d8, d0
 1969              	.LBB227:
  65:source/Heavy_daisy_control.cpp ****   numBytes += sPhasor_init(&sPhasor_WIqHwY1c, sampleRate);
 1970              		.loc 3 65 61 view .LVU486
 1971 000c FFF7FEFF 		bl	_ZN12HeavyContextC2Ediii
 1972              	.LVL137:
  65:source/Heavy_daisy_control.cpp ****   numBytes += sPhasor_init(&sPhasor_WIqHwY1c, sampleRate);
 1973              		.loc 3 65 61 view .LVU487
 1974 0010 174B     		ldr	r3, .L106
 1975 0012 2046     		mov	r0, r4
  68:source/Heavy_daisy_control.cpp ****   numBytes += sVarf_init(&sVarf_axfsxrnT, 0.0f, 0.0f, false);
 1976              		.loc 3 68 26 view .LVU488
 1977 0014 9FED179A 		vldr.32	s18, .L106+4
  66:source/Heavy_daisy_control.cpp ****   numBytes += sLine_init(&sLine_vmZdgXXU);
 1978              		.loc 3 66 27 view .LVU489
 1979 0018 B0EE480B 		vmov.f64	d0, d8
  65:source/Heavy_daisy_control.cpp ****   numBytes += sPhasor_init(&sPhasor_WIqHwY1c, sampleRate);
 1980              		.loc 3 65 61 view .LVU490
 1981 001c 40F8883B 		str	r3, [r0], #136
  66:source/Heavy_daisy_control.cpp ****   numBytes += sLine_init(&sLine_vmZdgXXU);
 1982              		.loc 3 66 3 is_stmt 1 view .LVU491
  66:source/Heavy_daisy_control.cpp ****   numBytes += sLine_init(&sLine_vmZdgXXU);
 1983              		.loc 3 66 27 is_stmt 0 view .LVU492
 1984 0020 FFF7FEFF 		bl	sPhasor_init
 1985              	.LVL138:
  66:source/Heavy_daisy_control.cpp ****   numBytes += sLine_init(&sLine_vmZdgXXU);
 1986              		.loc 3 66 12 view .LVU493
 1987 0024 6369     		ldr	r3, [r4, #20]
  66:source/Heavy_daisy_control.cpp ****   numBytes += sLine_init(&sLine_vmZdgXXU);
 1988              		.loc 3 66 27 view .LVU494
 1989 0026 0246     		mov	r2, r0
  67:source/Heavy_daisy_control.cpp ****   numBytes += cVar_init_f(&cVar_AW77KVCO, 0.0f);
 1990              		.loc 3 67 25 view .LVU495
 1991 0028 04F19400 		add	r0, r4, #148
  66:source/Heavy_daisy_control.cpp ****   numBytes += sLine_init(&sLine_vmZdgXXU);
 1992              		.loc 3 66 12 view .LVU496
 1993 002c 1344     		add	r3, r3, r2
 1994 002e 6361     		str	r3, [r4, #20]
  67:source/Heavy_daisy_control.cpp ****   numBytes += cVar_init_f(&cVar_AW77KVCO, 0.0f);
 1995              		.loc 3 67 3 is_stmt 1 view .LVU497
  67:source/Heavy_daisy_control.cpp ****   numBytes += cVar_init_f(&cVar_AW77KVCO, 0.0f);
 1996              		.loc 3 67 25 is_stmt 0 view .LVU498
 1997 0030 FFF7FEFF 		bl	sLine_init
 1998              	.LVL139:
  67:source/Heavy_daisy_control.cpp ****   numBytes += cVar_init_f(&cVar_AW77KVCO, 0.0f);
 1999              		.loc 3 67 12 view .LVU499
 2000 0034 6369     		ldr	r3, [r4, #20]
  67:source/Heavy_daisy_control.cpp ****   numBytes += cVar_init_f(&cVar_AW77KVCO, 0.0f);
 2001              		.loc 3 67 25 view .LVU500
ARM GAS  /var/folders/fb/yfxt3z4538j6z0vjt03w70vc0000gn/T//ccW52HDD.s 			page 69


 2002 0036 0246     		mov	r2, r0
  68:source/Heavy_daisy_control.cpp ****   numBytes += sVarf_init(&sVarf_axfsxrnT, 0.0f, 0.0f, false);
 2003              		.loc 3 68 26 view .LVU501
 2004 0038 B0EE490A 		vmov.f32	s0, s18
 2005 003c 04F1A400 		add	r0, r4, #164
  67:source/Heavy_daisy_control.cpp ****   numBytes += cVar_init_f(&cVar_AW77KVCO, 0.0f);
 2006              		.loc 3 67 12 view .LVU502
 2007 0040 1344     		add	r3, r3, r2
 2008 0042 6361     		str	r3, [r4, #20]
  68:source/Heavy_daisy_control.cpp ****   numBytes += sVarf_init(&sVarf_axfsxrnT, 0.0f, 0.0f, false);
 2009              		.loc 3 68 3 is_stmt 1 view .LVU503
  68:source/Heavy_daisy_control.cpp ****   numBytes += sVarf_init(&sVarf_axfsxrnT, 0.0f, 0.0f, false);
 2010              		.loc 3 68 26 is_stmt 0 view .LVU504
 2011 0044 FFF7FEFF 		bl	cVar_init_f
 2012              	.LVL140:
  68:source/Heavy_daisy_control.cpp ****   numBytes += sVarf_init(&sVarf_axfsxrnT, 0.0f, 0.0f, false);
 2013              		.loc 3 68 12 view .LVU505
 2014 0048 6369     		ldr	r3, [r4, #20]
  69:source/Heavy_daisy_control.cpp ****   
 2015              		.loc 3 69 25 view .LVU506
 2016 004a F0EE490A 		vmov.f32	s1, s18
 2017 004e 0021     		movs	r1, #0
  68:source/Heavy_daisy_control.cpp ****   numBytes += sVarf_init(&sVarf_axfsxrnT, 0.0f, 0.0f, false);
 2018              		.loc 3 68 12 view .LVU507
 2019 0050 0344     		add	r3, r3, r0
  69:source/Heavy_daisy_control.cpp ****   
 2020              		.loc 3 69 25 view .LVU508
 2021 0052 B0EE490A 		vmov.f32	s0, s18
 2022 0056 04F1B000 		add	r0, r4, #176
  68:source/Heavy_daisy_control.cpp ****   numBytes += sVarf_init(&sVarf_axfsxrnT, 0.0f, 0.0f, false);
 2023              		.loc 3 68 12 view .LVU509
 2024 005a 6361     		str	r3, [r4, #20]
  69:source/Heavy_daisy_control.cpp ****   
 2025              		.loc 3 69 3 is_stmt 1 view .LVU510
  69:source/Heavy_daisy_control.cpp ****   
 2026              		.loc 3 69 25 is_stmt 0 view .LVU511
 2027 005c FFF7FEFF 		bl	sVarf_init
 2028              	.LVL141:
  69:source/Heavy_daisy_control.cpp ****   
 2029              		.loc 3 69 12 view .LVU512
 2030 0060 6369     		ldr	r3, [r4, #20]
  69:source/Heavy_daisy_control.cpp ****   
 2031              		.loc 3 69 25 view .LVU513
 2032 0062 0246     		mov	r2, r0
 2033              	.LBE227:
  71:source/Heavy_daisy_control.cpp **** 
 2034              		.loc 3 71 1 view .LVU514
 2035 0064 2046     		mov	r0, r4
 2036              	.LBB228:
  69:source/Heavy_daisy_control.cpp ****   
 2037              		.loc 3 69 12 view .LVU515
 2038 0066 1344     		add	r3, r3, r2
 2039              	.LBE228:
  71:source/Heavy_daisy_control.cpp **** 
 2040              		.loc 3 71 1 view .LVU516
 2041 0068 BDEC048B 		vldm	sp!, {d8-d9}
 2042              		.cfi_restore 82
ARM GAS  /var/folders/fb/yfxt3z4538j6z0vjt03w70vc0000gn/T//ccW52HDD.s 			page 70


 2043              		.cfi_restore 83
 2044              		.cfi_restore 80
 2045              		.cfi_restore 81
 2046              		.cfi_def_cfa_offset 8
 2047              	.LVL142:
 2048              	.LBB229:
  69:source/Heavy_daisy_control.cpp ****   
 2049              		.loc 3 69 12 view .LVU517
 2050 006c 6361     		str	r3, [r4, #20]
 2051              	.LBE229:
  71:source/Heavy_daisy_control.cpp **** 
 2052              		.loc 3 71 1 view .LVU518
 2053 006e 10BD     		pop	{r4, pc}
 2054              	.LVL143:
 2055              	.L107:
  71:source/Heavy_daisy_control.cpp **** 
 2056              		.loc 3 71 1 view .LVU519
 2057              		.align	2
 2058              	.L106:
 2059 0070 08000000 		.word	.LANCHOR0+8
 2060 0074 00000000 		.word	0
 2061              		.cfi_endproc
 2062              	.LFE995:
 2064              		.global	_ZN19Heavy_daisy_controlC1Ediii
 2065              		.thumb_set _ZN19Heavy_daisy_controlC1Ediii,_ZN19Heavy_daisy_controlC2Ediii
 2066              		.section	.text.hv_daisy_control_new,"ax",%progbits
 2067              		.align	1
 2068              		.p2align 2,,3
 2069              		.global	hv_daisy_control_new
 2070              		.syntax unified
 2071              		.thumb
 2072              		.thumb_func
 2074              	hv_daisy_control_new:
 2075              	.LVL144:
 2076              	.LFB992:
  44:source/Heavy_daisy_control.cpp ****     return new Heavy_daisy_control(sampleRate);
 2077              		.loc 3 44 76 is_stmt 1 view -0
 2078              		.cfi_startproc
 2079              		@ args = 0, pretend = 0, frame = 8
 2080              		@ frame_needed = 0, uses_anonymous_args = 0
  45:source/Heavy_daisy_control.cpp ****   }
 2081              		.loc 3 45 5 view .LVU521
  44:source/Heavy_daisy_control.cpp ****     return new Heavy_daisy_control(sampleRate);
 2082              		.loc 3 44 76 is_stmt 0 view .LVU522
 2083 0000 10B5     		push	{r4, lr}
 2084              		.cfi_def_cfa_offset 8
 2085              		.cfi_offset 4, -8
 2086              		.cfi_offset 14, -4
 2087 0002 82B0     		sub	sp, sp, #8
 2088              		.cfi_def_cfa_offset 16
  45:source/Heavy_daisy_control.cpp ****   }
 2089              		.loc 3 45 46 view .LVU523
 2090 0004 B820     		movs	r0, #184
  44:source/Heavy_daisy_control.cpp ****     return new Heavy_daisy_control(sampleRate);
 2091              		.loc 3 44 76 view .LVU524
 2092 0006 8DED000B 		vstr.64	d0, [sp]	@ int
  45:source/Heavy_daisy_control.cpp ****   }
ARM GAS  /var/folders/fb/yfxt3z4538j6z0vjt03w70vc0000gn/T//ccW52HDD.s 			page 71


 2093              		.loc 3 45 46 view .LVU525
 2094 000a FFF7FEFF 		bl	_Znwj
 2095              	.LVL145:
  45:source/Heavy_daisy_control.cpp ****   }
 2096              		.loc 3 45 46 view .LVU526
 2097 000e 0446     		mov	r4, r0
 2098 0010 0023     		movs	r3, #0
 2099 0012 0222     		movs	r2, #2
 2100 0014 0A21     		movs	r1, #10
 2101 0016 9DED000B 		vldr.64	d0, [sp]	@ int
 2102 001a FFF7FEFF 		bl	_ZN19Heavy_daisy_controlC1Ediii
 2103              	.LVL146:
  46:source/Heavy_daisy_control.cpp **** 
 2104              		.loc 3 46 3 view .LVU527
 2105 001e 2046     		mov	r0, r4
 2106 0020 02B0     		add	sp, sp, #8
 2107              		.cfi_def_cfa_offset 8
 2108              		@ sp needed
 2109 0022 10BD     		pop	{r4, pc}
 2110              		.cfi_endproc
 2111              	.LFE992:
 2113              		.section	.text.hv_daisy_control_new_with_options,"ax",%progbits
 2114              		.align	1
 2115              		.p2align 2,,3
 2116              		.global	hv_daisy_control_new_with_options
 2117              		.syntax unified
 2118              		.thumb
 2119              		.thumb_func
 2121              	hv_daisy_control_new_with_options:
 2122              	.LVL147:
 2123              	.LFB993:
  49:source/Heavy_daisy_control.cpp ****     return new Heavy_daisy_control(sampleRate, poolKb, inQueueKb, outQueueKb);
 2124              		.loc 3 49 50 is_stmt 1 view -0
 2125              		.cfi_startproc
 2126              		@ args = 0, pretend = 0, frame = 16
 2127              		@ frame_needed = 0, uses_anonymous_args = 0
  50:source/Heavy_daisy_control.cpp ****   }
 2128              		.loc 3 50 5 view .LVU529
  49:source/Heavy_daisy_control.cpp ****     return new Heavy_daisy_control(sampleRate, poolKb, inQueueKb, outQueueKb);
 2129              		.loc 3 49 50 is_stmt 0 view .LVU530
 2130 0000 30B5     		push	{r4, r5, lr}
 2131              		.cfi_def_cfa_offset 12
 2132              		.cfi_offset 4, -12
 2133              		.cfi_offset 5, -8
 2134              		.cfi_offset 14, -4
 2135 0002 85B0     		sub	sp, sp, #20
 2136              		.cfi_def_cfa_offset 32
  49:source/Heavy_daisy_control.cpp ****     return new Heavy_daisy_control(sampleRate, poolKb, inQueueKb, outQueueKb);
 2137              		.loc 3 49 50 view .LVU531
 2138 0004 0D46     		mov	r5, r1
 2139 0006 0290     		str	r0, [sp, #8]
  50:source/Heavy_daisy_control.cpp ****   }
 2140              		.loc 3 50 77 view .LVU532
 2141 0008 B820     		movs	r0, #184
 2142              	.LVL148:
  49:source/Heavy_daisy_control.cpp ****     return new Heavy_daisy_control(sampleRate, poolKb, inQueueKb, outQueueKb);
 2143              		.loc 3 49 50 view .LVU533
ARM GAS  /var/folders/fb/yfxt3z4538j6z0vjt03w70vc0000gn/T//ccW52HDD.s 			page 72


 2144 000a 0392     		str	r2, [sp, #12]
 2145 000c 8DED000B 		vstr.64	d0, [sp]	@ int
  50:source/Heavy_daisy_control.cpp ****   }
 2146              		.loc 3 50 77 view .LVU534
 2147 0010 FFF7FEFF 		bl	_Znwj
 2148              	.LVL149:
  50:source/Heavy_daisy_control.cpp ****   }
 2149              		.loc 3 50 77 view .LVU535
 2150 0014 0446     		mov	r4, r0
 2151 0016 039B     		ldr	r3, [sp, #12]
 2152 0018 2A46     		mov	r2, r5
 2153 001a 0299     		ldr	r1, [sp, #8]
 2154 001c 9DED000B 		vldr.64	d0, [sp]	@ int
 2155 0020 FFF7FEFF 		bl	_ZN19Heavy_daisy_controlC1Ediii
 2156              	.LVL150:
  51:source/Heavy_daisy_control.cpp **** } // extern "C"
 2157              		.loc 3 51 3 view .LVU536
 2158 0024 2046     		mov	r0, r4
 2159 0026 05B0     		add	sp, sp, #20
 2160              		.cfi_def_cfa_offset 12
 2161              		@ sp needed
 2162 0028 30BD     		pop	{r4, r5, pc}
  51:source/Heavy_daisy_control.cpp **** } // extern "C"
 2163              		.loc 3 51 3 view .LVU537
 2164              		.cfi_endproc
 2165              	.LFE993:
 2167 002a 00BF     		.section	.text._ZN19Heavy_daisy_control25cVar_AW77KVCO_sendMessageEP21HeavyContextInterfaceiPK9HvM
 2168              		.align	1
 2169              		.p2align 2,,3
 2170              		.global	_ZN19Heavy_daisy_control25cVar_AW77KVCO_sendMessageEP21HeavyContextInterfaceiPK9HvMessage
 2171              		.syntax unified
 2172              		.thumb
 2173              		.thumb_func
 2175              	_ZN19Heavy_daisy_control25cVar_AW77KVCO_sendMessageEP21HeavyContextInterfaceiPK9HvMessage:
 2176              	.LVL151:
 2177              	.LFB1004:
 150:source/Heavy_daisy_control.cpp ****   cBinop_k_onMessage(_c, NULL, HV_BINOP_MULTIPLY, 2000.0f, 0, m, &cBinop_4tVV6Rnh_sendMessage);
 2178              		.loc 3 150 111 is_stmt 1 view -0
 2179              		.cfi_startproc
 2180              		@ args = 0, pretend = 0, frame = 0
 2181              		@ frame_needed = 0, uses_anonymous_args = 0
 151:source/Heavy_daisy_control.cpp **** }
 2182              		.loc 3 151 3 view .LVU539
 150:source/Heavy_daisy_control.cpp ****   cBinop_k_onMessage(_c, NULL, HV_BINOP_MULTIPLY, 2000.0f, 0, m, &cBinop_4tVV6Rnh_sendMessage);
 2183              		.loc 3 150 111 is_stmt 0 view .LVU540
 2184 0000 10B5     		push	{r4, lr}
 2185              		.cfi_def_cfa_offset 8
 2186              		.cfi_offset 4, -8
 2187              		.cfi_offset 14, -4
 2188 0002 1146     		mov	r1, r2
 2189              	.LVL152:
 150:source/Heavy_daisy_control.cpp ****   cBinop_k_onMessage(_c, NULL, HV_BINOP_MULTIPLY, 2000.0f, 0, m, &cBinop_4tVV6Rnh_sendMessage);
 2190              		.loc 3 150 111 view .LVU541
 2191 0004 82B0     		sub	sp, sp, #8
 2192              		.cfi_def_cfa_offset 16
 151:source/Heavy_daisy_control.cpp **** }
 2193              		.loc 3 151 21 view .LVU542
ARM GAS  /var/folders/fb/yfxt3z4538j6z0vjt03w70vc0000gn/T//ccW52HDD.s 			page 73


 2194 0006 0023     		movs	r3, #0
 2195 0008 054C     		ldr	r4, .L114
 2196 000a 9FED060A 		vldr.32	s0, .L114+4
 2197 000e 0222     		movs	r2, #2
 2198              	.LVL153:
 151:source/Heavy_daisy_control.cpp **** }
 2199              		.loc 3 151 21 view .LVU543
 2200 0010 CDE90014 		strd	r1, r4, [sp]
 2201 0014 1946     		mov	r1, r3
 2202              	.LVL154:
 151:source/Heavy_daisy_control.cpp **** }
 2203              		.loc 3 151 21 view .LVU544
 2204 0016 FFF7FEFF 		bl	cBinop_k_onMessage
 2205              	.LVL155:
 152:source/Heavy_daisy_control.cpp **** 
 2206              		.loc 3 152 1 view .LVU545
 2207 001a 02B0     		add	sp, sp, #8
 2208              		.cfi_def_cfa_offset 8
 2209              		@ sp needed
 2210 001c 10BD     		pop	{r4, pc}
 2211              	.L115:
 2212 001e 00BF     		.align	2
 2213              	.L114:
 2214 0020 00000000 		.word	_ZN19Heavy_daisy_control27cBinop_4tVV6Rnh_sendMessageEP21HeavyContextInterfaceiPK9HvMessage
 2215 0024 0000FA44 		.word	1157234688
 2216              		.cfi_endproc
 2217              	.LFE1004:
 2219              		.section	.text._ZN19Heavy_daisy_control26cCast_8ZVuQ8Zq_sendMessageEP21HeavyContextInterfaceiPK9Hv
 2220              		.align	1
 2221              		.p2align 2,,3
 2222              		.global	_ZN19Heavy_daisy_control26cCast_8ZVuQ8Zq_sendMessageEP21HeavyContextInterfaceiPK9HvMessage
 2223              		.syntax unified
 2224              		.thumb
 2225              		.thumb_func
 2227              	_ZN19Heavy_daisy_control26cCast_8ZVuQ8Zq_sendMessageEP21HeavyContextInterfaceiPK9HvMessage:
 2228              	.LVL156:
 2229              	.LFB1005:
 154:source/Heavy_daisy_control.cpp ****   cCast_onMessage(_c, HV_CAST_BANG, 0, m, &cCast_jy66met6_sendMessage);
 2230              		.loc 3 154 112 is_stmt 1 view -0
 2231              		.cfi_startproc
 2232              		@ args = 0, pretend = 0, frame = 8
 2233              		@ frame_needed = 0, uses_anonymous_args = 0
 155:source/Heavy_daisy_control.cpp ****   cCast_onMessage(_c, HV_CAST_BANG, 0, m, &cCast_Nt5hgoBa_sendMessage);
 2234              		.loc 3 155 3 view .LVU547
 154:source/Heavy_daisy_control.cpp ****   cCast_onMessage(_c, HV_CAST_BANG, 0, m, &cCast_jy66met6_sendMessage);
 2235              		.loc 3 154 112 is_stmt 0 view .LVU548
 2236 0000 10B5     		push	{r4, lr}
 2237              		.cfi_def_cfa_offset 8
 2238              		.cfi_offset 4, -8
 2239              		.cfi_offset 14, -4
 2240 0002 1346     		mov	r3, r2
 2241 0004 84B0     		sub	sp, sp, #16
 2242              		.cfi_def_cfa_offset 24
 155:source/Heavy_daisy_control.cpp ****   cCast_onMessage(_c, HV_CAST_BANG, 0, m, &cCast_Nt5hgoBa_sendMessage);
 2243              		.loc 3 155 18 view .LVU549
 2244 0006 0022     		movs	r2, #0
 2245              	.LVL157:
ARM GAS  /var/folders/fb/yfxt3z4538j6z0vjt03w70vc0000gn/T//ccW52HDD.s 			page 74


 155:source/Heavy_daisy_control.cpp ****   cCast_onMessage(_c, HV_CAST_BANG, 0, m, &cCast_Nt5hgoBa_sendMessage);
 2246              		.loc 3 155 18 view .LVU550
 2247 0008 0849     		ldr	r1, .L118
 2248              	.LVL158:
 154:source/Heavy_daisy_control.cpp ****   cCast_onMessage(_c, HV_CAST_BANG, 0, m, &cCast_jy66met6_sendMessage);
 2249              		.loc 3 154 112 view .LVU551
 2250 000a 0446     		mov	r4, r0
 155:source/Heavy_daisy_control.cpp ****   cCast_onMessage(_c, HV_CAST_BANG, 0, m, &cCast_Nt5hgoBa_sendMessage);
 2251              		.loc 3 155 18 view .LVU552
 2252 000c 0393     		str	r3, [sp, #12]
 2253 000e 0091     		str	r1, [sp]
 2254 0010 1146     		mov	r1, r2
 2255 0012 FFF7FEFF 		bl	cCast_onMessage
 2256              	.LVL159:
 156:source/Heavy_daisy_control.cpp **** }
 2257              		.loc 3 156 3 is_stmt 1 view .LVU553
 156:source/Heavy_daisy_control.cpp **** }
 2258              		.loc 3 156 18 is_stmt 0 view .LVU554
 2259 0016 0022     		movs	r2, #0
 2260 0018 0549     		ldr	r1, .L118+4
 2261 001a 2046     		mov	r0, r4
 2262 001c 039B     		ldr	r3, [sp, #12]
 2263 001e 0091     		str	r1, [sp]
 2264 0020 1146     		mov	r1, r2
 2265 0022 FFF7FEFF 		bl	cCast_onMessage
 2266              	.LVL160:
 157:source/Heavy_daisy_control.cpp **** 
 2267              		.loc 3 157 1 view .LVU555
 2268 0026 04B0     		add	sp, sp, #16
 2269              		.cfi_def_cfa_offset 8
 2270              		@ sp needed
 2271 0028 10BD     		pop	{r4, pc}
 2272              	.LVL161:
 2273              	.L119:
 157:source/Heavy_daisy_control.cpp **** 
 2274              		.loc 3 157 1 view .LVU556
 2275 002a 00BF     		.align	2
 2276              	.L118:
 2277 002c 00000000 		.word	_ZN19Heavy_daisy_control26cCast_jy66met6_sendMessageEP21HeavyContextInterfaceiPK9HvMessage
 2278 0030 00000000 		.word	_ZN19Heavy_daisy_control26cCast_Nt5hgoBa_sendMessageEP21HeavyContextInterfaceiPK9HvMessage
 2279              		.cfi_endproc
 2280              	.LFE1005:
 2282              		.section	.text._ZN19Heavy_daisy_control25cMsg_VLKH4ctf_sendMessageEP21HeavyContextInterfaceiPK9HvM
 2283              		.align	1
 2284              		.p2align 2,,3
 2285              		.global	_ZN19Heavy_daisy_control25cMsg_VLKH4ctf_sendMessageEP21HeavyContextInterfaceiPK9HvMessage
 2286              		.syntax unified
 2287              		.thumb
 2288              		.thumb_func
 2290              	_ZN19Heavy_daisy_control25cMsg_VLKH4ctf_sendMessageEP21HeavyContextInterfaceiPK9HvMessage:
 2291              	.LVL162:
 2292              	.LFB1008:
 167:source/Heavy_daisy_control.cpp ****   HvMessage *m = nullptr;
 2293              		.loc 3 167 117 is_stmt 1 view -0
 2294              		.cfi_startproc
 2295              		@ args = 0, pretend = 0, frame = 0
 2296              		@ frame_needed = 1, uses_anonymous_args = 0
ARM GAS  /var/folders/fb/yfxt3z4538j6z0vjt03w70vc0000gn/T//ccW52HDD.s 			page 75


 168:source/Heavy_daisy_control.cpp ****   m = HV_MESSAGE_ON_STACK(1);
 2297              		.loc 3 168 3 view .LVU558
 169:source/Heavy_daisy_control.cpp ****   msg_init(m, 1, msg_getTimestamp(n));
 2298              		.loc 3 169 3 view .LVU559
  58:source/HvMessage.h ****   return sizeof(HvMessage) + ((numElements-1) * sizeof(Element));
 2299              		.loc 6 58 3 view .LVU560
  59:source/HvMessage.h **** }
 2300              		.loc 6 59 3 view .LVU561
 167:source/Heavy_daisy_control.cpp ****   HvMessage *m = nullptr;
 2301              		.loc 3 167 117 is_stmt 0 view .LVU562
 2302 0000 B0B5     		push	{r4, r5, r7, lr}
 2303              		.cfi_def_cfa_offset 16
 2304              		.cfi_offset 4, -16
 2305              		.cfi_offset 5, -12
 2306              		.cfi_offset 7, -8
 2307              		.cfi_offset 14, -4
 2308 0002 82B0     		sub	sp, sp, #8
 2309              		.cfi_def_cfa_offset 24
 170:source/Heavy_daisy_control.cpp ****   msg_setFloat(m, 0, 1.0f);
 2310              		.loc 3 170 11 view .LVU563
 2311 0004 0121     		movs	r1, #1
 2312              	.LVL163:
 167:source/Heavy_daisy_control.cpp ****   HvMessage *m = nullptr;
 2313              		.loc 3 167 117 view .LVU564
 2314 0006 0546     		mov	r5, r0
 2315 0008 02AF     		add	r7, sp, #8
 2316              		.cfi_def_cfa 7, 16
 169:source/Heavy_daisy_control.cpp ****   msg_init(m, 1, msg_getTimestamp(n));
 2317              		.loc 3 169 7 view .LVU565
 2318 000a 84B0     		sub	sp, sp, #16
 170:source/Heavy_daisy_control.cpp ****   msg_setFloat(m, 0, 1.0f);
 2319              		.loc 3 170 11 view .LVU566
 2320 000c 1268     		ldr	r2, [r2]
 2321              	.LVL164:
 169:source/Heavy_daisy_control.cpp ****   msg_init(m, 1, msg_getTimestamp(n));
 2322              		.loc 3 169 7 view .LVU567
 2323 000e 02AC     		add	r4, sp, #8
 2324              	.LVL165:
 170:source/Heavy_daisy_control.cpp ****   msg_setFloat(m, 0, 1.0f);
 2325              		.loc 3 170 3 is_stmt 1 view .LVU568
 2326              	.LBB230:
 2327              	.LBI230:
  82:source/HvMessage.h ****   return m->timestamp;
 2328              		.loc 6 82 27 view .LVU569
 2329              	.LBB231:
  83:source/HvMessage.h **** }
 2330              		.loc 6 83 3 view .LVU570
 2331              	.LBE231:
 2332              	.LBE230:
 170:source/Heavy_daisy_control.cpp ****   msg_setFloat(m, 0, 1.0f);
 2333              		.loc 3 170 11 is_stmt 0 view .LVU571
 2334 0010 2046     		mov	r0, r4
 2335              	.LVL166:
 170:source/Heavy_daisy_control.cpp ****   msg_setFloat(m, 0, 1.0f);
 2336              		.loc 3 170 11 view .LVU572
 2337 0012 FFF7FEFF 		bl	msg_init
 2338              	.LVL167:
ARM GAS  /var/folders/fb/yfxt3z4538j6z0vjt03w70vc0000gn/T//ccW52HDD.s 			page 76


 171:source/Heavy_daisy_control.cpp ****   sLine_onMessage(_c, &Context(_c)->sLine_vmZdgXXU, 0, m, NULL);
 2339              		.loc 3 171 3 is_stmt 1 view .LVU573
 2340              	.LBB232:
 2341              	.LBI232:
 114:source/HvMessage.h ****   hv_assert(index < msg_getNumElements(m)); // invalid index
 2342              		.loc 6 114 20 view .LVU574
 2343              	.LBB233:
 2344              		.loc 6 115 3 view .LVU575
 2345              	.LBB234:
 2346              	.LBI234:
  90:source/HvMessage.h ****   return (int) m->numElements;
 2347              		.loc 6 90 19 view .LVU576
 2348              	.LBB235:
  91:source/HvMessage.h **** }
 2349              		.loc 6 91 3 view .LVU577
  91:source/HvMessage.h **** }
 2350              		.loc 6 91 3 is_stmt 0 view .LVU578
 2351              	.LBE235:
 2352              	.LBE234:
 2353              		.loc 6 115 3 view .LVU579
 2354 0016 A388     		ldrh	r3, [r4, #4]
 2355 0018 73B1     		cbz	r3, .L123
 116:source/HvMessage.h ****   (&(m->elem)+index)->type = HV_MSG_FLOAT;
 2356              		.loc 6 116 3 is_stmt 1 view .LVU580
 117:source/HvMessage.h ****   (&(m->elem)+index)->data.f = f;
 2357              		.loc 6 117 30 is_stmt 0 view .LVU581
 2358 001a 4FF07E51 		mov	r1, #1065353216
 116:source/HvMessage.h ****   (&(m->elem)+index)->type = HV_MSG_FLOAT;
 2359              		.loc 6 116 28 view .LVU582
 2360 001e 0120     		movs	r0, #1
 2361              	.LBE233:
 2362              	.LBE232:
 172:source/Heavy_daisy_control.cpp **** }
 2363              		.loc 3 172 18 view .LVU583
 2364 0020 0022     		movs	r2, #0
 2365 0022 2346     		mov	r3, r4
 2366              	.LBB239:
 2367              	.LBB236:
 116:source/HvMessage.h ****   (&(m->elem)+index)->type = HV_MSG_FLOAT;
 2368              		.loc 6 116 28 view .LVU584
 2369 0024 2072     		strb	r0, [r4, #8]
 2370              		.loc 6 117 3 is_stmt 1 view .LVU585
 2371              	.LBE236:
 2372              	.LBE239:
 172:source/Heavy_daisy_control.cpp **** }
 2373              		.loc 3 172 18 is_stmt 0 view .LVU586
 2374 0026 2846     		mov	r0, r5
 2375              	.LBB240:
 2376              	.LBB237:
 2377              		.loc 6 117 30 view .LVU587
 2378 0028 E160     		str	r1, [r4, #12]	@ float
 2379              	.LVL168:
 2380              		.loc 6 117 30 view .LVU588
 2381              	.LBE237:
 2382              	.LBE240:
 172:source/Heavy_daisy_control.cpp **** }
 2383              		.loc 3 172 3 is_stmt 1 view .LVU589
ARM GAS  /var/folders/fb/yfxt3z4538j6z0vjt03w70vc0000gn/T//ccW52HDD.s 			page 77


 172:source/Heavy_daisy_control.cpp **** }
 2384              		.loc 3 172 18 is_stmt 0 view .LVU590
 2385 002a 05F19401 		add	r1, r5, #148
 2386 002e 0092     		str	r2, [sp]
 2387 0030 FFF7FEFF 		bl	sLine_onMessage
 2388              	.LVL169:
 173:source/Heavy_daisy_control.cpp **** 
 2389              		.loc 3 173 1 view .LVU591
 2390 0034 BD46     		mov	sp, r7
 2391              		.cfi_remember_state
 2392              		.cfi_def_cfa_register 13
 2393              		@ sp needed
 2394 0036 B0BD     		pop	{r4, r5, r7, pc}
 2395              	.LVL170:
 2396              	.L123:
 2397              		.cfi_restore_state
 2398              	.LBB241:
 2399              	.LBB238:
 173:source/Heavy_daisy_control.cpp **** 
 2400              		.loc 3 173 1 view .LVU592
 2401 0038 FFF7FEFF 		bl	msg_setFloat.part.0
 2402              	.LVL171:
 2403              	.LBE238:
 2404              	.LBE241:
 2405              		.cfi_endproc
 2406              	.LFE1008:
 2408              		.section	.text._ZN19Heavy_daisy_control26cCast_jy66met6_sendMessageEP21HeavyContextInterfaceiPK9Hv
 2409              		.align	1
 2410              		.p2align 2,,3
 2411              		.global	_ZN19Heavy_daisy_control26cCast_jy66met6_sendMessageEP21HeavyContextInterfaceiPK9HvMessage
 2412              		.syntax unified
 2413              		.thumb
 2414              		.thumb_func
 2416              	_ZN19Heavy_daisy_control26cCast_jy66met6_sendMessageEP21HeavyContextInterfaceiPK9HvMessage:
 2417              	.LVL172:
 2418              	.LFB1007:
 163:source/Heavy_daisy_control.cpp ****   cMsg_VLKH4ctf_sendMessage(_c, 0, m);
 2419              		.loc 3 163 112 is_stmt 1 view -0
 2420              		.cfi_startproc
 2421              		@ args = 0, pretend = 0, frame = 0
 2422              		@ frame_needed = 0, uses_anonymous_args = 0
 2423              		@ link register save eliminated.
 164:source/Heavy_daisy_control.cpp **** }
 2424              		.loc 3 164 3 view .LVU594
 164:source/Heavy_daisy_control.cpp **** }
 2425              		.loc 3 164 28 is_stmt 0 view .LVU595
 2426 0000 0021     		movs	r1, #0
 2427              	.LVL173:
 164:source/Heavy_daisy_control.cpp **** }
 2428              		.loc 3 164 28 view .LVU596
 2429 0002 FFF7FEBF 		b	_ZN19Heavy_daisy_control25cMsg_VLKH4ctf_sendMessageEP21HeavyContextInterfaceiPK9HvMessage
 2430              	.LVL174:
 164:source/Heavy_daisy_control.cpp **** }
 2431              		.loc 3 164 28 view .LVU597
 2432              		.cfi_endproc
 2433              	.LFE1007:
 2435 0006 00BF     		.section	.text._ZN19Heavy_daisy_control25cMsg_n6Kq10ds_sendMessageEP21HeavyContextInterfaceiPK9HvM
ARM GAS  /var/folders/fb/yfxt3z4538j6z0vjt03w70vc0000gn/T//ccW52HDD.s 			page 78


 2436              		.align	1
 2437              		.p2align 2,,3
 2438              		.global	_ZN19Heavy_daisy_control25cMsg_n6Kq10ds_sendMessageEP21HeavyContextInterfaceiPK9HvMessage
 2439              		.syntax unified
 2440              		.thumb
 2441              		.thumb_func
 2443              	_ZN19Heavy_daisy_control25cMsg_n6Kq10ds_sendMessageEP21HeavyContextInterfaceiPK9HvMessage:
 2444              	.LVL175:
 2445              	.LFB1009:
 175:source/Heavy_daisy_control.cpp ****   HvMessage *m = nullptr;
 2446              		.loc 3 175 117 is_stmt 1 view -0
 2447              		.cfi_startproc
 2448              		@ args = 0, pretend = 0, frame = 0
 2449              		@ frame_needed = 1, uses_anonymous_args = 0
 176:source/Heavy_daisy_control.cpp ****   m = HV_MESSAGE_ON_STACK(2);
 2450              		.loc 3 176 3 view .LVU599
 177:source/Heavy_daisy_control.cpp ****   msg_init(m, 2, msg_getTimestamp(n));
 2451              		.loc 3 177 3 view .LVU600
  58:source/HvMessage.h ****   return sizeof(HvMessage) + ((numElements-1) * sizeof(Element));
 2452              		.loc 6 58 3 view .LVU601
  59:source/HvMessage.h **** }
 2453              		.loc 6 59 3 view .LVU602
 175:source/Heavy_daisy_control.cpp ****   HvMessage *m = nullptr;
 2454              		.loc 3 175 117 is_stmt 0 view .LVU603
 2455 0000 B0B5     		push	{r4, r5, r7, lr}
 2456              		.cfi_def_cfa_offset 16
 2457              		.cfi_offset 4, -16
 2458              		.cfi_offset 5, -12
 2459              		.cfi_offset 7, -8
 2460              		.cfi_offset 14, -4
 2461 0002 82B0     		sub	sp, sp, #8
 2462              		.cfi_def_cfa_offset 24
 178:source/Heavy_daisy_control.cpp ****   msg_setFloat(m, 0, 0.0f);
 2463              		.loc 3 178 11 view .LVU604
 2464 0004 0221     		movs	r1, #2
 2465              	.LVL176:
 175:source/Heavy_daisy_control.cpp ****   HvMessage *m = nullptr;
 2466              		.loc 3 175 117 view .LVU605
 2467 0006 0546     		mov	r5, r0
 2468 0008 02AF     		add	r7, sp, #8
 2469              		.cfi_def_cfa 7, 16
 177:source/Heavy_daisy_control.cpp ****   msg_init(m, 2, msg_getTimestamp(n));
 2470              		.loc 3 177 7 view .LVU606
 2471 000a 86B0     		sub	sp, sp, #24
 178:source/Heavy_daisy_control.cpp ****   msg_setFloat(m, 0, 0.0f);
 2472              		.loc 3 178 11 view .LVU607
 2473 000c 1268     		ldr	r2, [r2]
 2474              	.LVL177:
 177:source/Heavy_daisy_control.cpp ****   msg_init(m, 2, msg_getTimestamp(n));
 2475              		.loc 3 177 7 view .LVU608
 2476 000e 02AC     		add	r4, sp, #8
 2477              	.LVL178:
 178:source/Heavy_daisy_control.cpp ****   msg_setFloat(m, 0, 0.0f);
 2478              		.loc 3 178 3 is_stmt 1 view .LVU609
 2479              	.LBB242:
 2480              	.LBI242:
  82:source/HvMessage.h ****   return m->timestamp;
ARM GAS  /var/folders/fb/yfxt3z4538j6z0vjt03w70vc0000gn/T//ccW52HDD.s 			page 79


 2481              		.loc 6 82 27 view .LVU610
 2482              	.LBB243:
  83:source/HvMessage.h **** }
 2483              		.loc 6 83 3 view .LVU611
 2484              	.LBE243:
 2485              	.LBE242:
 178:source/Heavy_daisy_control.cpp ****   msg_setFloat(m, 0, 0.0f);
 2486              		.loc 3 178 11 is_stmt 0 view .LVU612
 2487 0010 2046     		mov	r0, r4
 2488              	.LVL179:
 178:source/Heavy_daisy_control.cpp ****   msg_setFloat(m, 0, 0.0f);
 2489              		.loc 3 178 11 view .LVU613
 2490 0012 FFF7FEFF 		bl	msg_init
 2491              	.LVL180:
 179:source/Heavy_daisy_control.cpp ****   msg_setFloat(m, 1, 500.0f);
 2492              		.loc 3 179 3 is_stmt 1 view .LVU614
 2493              	.LBB244:
 2494              	.LBI244:
 114:source/HvMessage.h ****   hv_assert(index < msg_getNumElements(m)); // invalid index
 2495              		.loc 6 114 20 view .LVU615
 2496              	.LBB245:
 115:source/HvMessage.h ****   (&(m->elem)+index)->type = HV_MSG_FLOAT;
 2497              		.loc 6 115 3 view .LVU616
 2498              	.LBB246:
 2499              	.LBI246:
  90:source/HvMessage.h ****   return (int) m->numElements;
 2500              		.loc 6 90 19 view .LVU617
 2501              	.LBB247:
  91:source/HvMessage.h **** }
 2502              		.loc 6 91 3 view .LVU618
  91:source/HvMessage.h **** }
 2503              		.loc 6 91 19 is_stmt 0 view .LVU619
 2504 0016 A388     		ldrh	r3, [r4, #4]
 2505              	.LVL181:
  91:source/HvMessage.h **** }
 2506              		.loc 6 91 19 view .LVU620
 2507              	.LBE247:
 2508              	.LBE246:
 115:source/HvMessage.h ****   (&(m->elem)+index)->type = HV_MSG_FLOAT;
 2509              		.loc 6 115 3 view .LVU621
 2510 0018 93B1     		cbz	r3, .L127
 116:source/HvMessage.h ****   (&(m->elem)+index)->data.f = f;
 2511              		.loc 6 116 3 is_stmt 1 view .LVU622
 116:source/HvMessage.h ****   (&(m->elem)+index)->data.f = f;
 2512              		.loc 6 116 28 is_stmt 0 view .LVU623
 2513 001a 0121     		movs	r1, #1
 2514              		.loc 6 117 30 view .LVU624
 2515 001c 0022     		movs	r2, #0
 2516              	.LBE245:
 2517              	.LBE244:
 2518              	.LBB250:
 2519              	.LBB251:
 115:source/HvMessage.h ****   (&(m->elem)+index)->type = HV_MSG_FLOAT;
 2520              		.loc 6 115 3 view .LVU625
 2521 001e 8B42     		cmp	r3, r1
 2522              	.LBE251:
 2523              	.LBE250:
ARM GAS  /var/folders/fb/yfxt3z4538j6z0vjt03w70vc0000gn/T//ccW52HDD.s 			page 80


 2524              	.LBB256:
 2525              	.LBB248:
 116:source/HvMessage.h ****   (&(m->elem)+index)->data.f = f;
 2526              		.loc 6 116 28 view .LVU626
 2527 0020 2172     		strb	r1, [r4, #8]
 2528              		.loc 6 117 3 is_stmt 1 view .LVU627
 2529              		.loc 6 117 30 is_stmt 0 view .LVU628
 2530 0022 E260     		str	r2, [r4, #12]	@ float
 2531              	.LVL182:
 2532              		.loc 6 117 30 view .LVU629
 2533              	.LBE248:
 2534              	.LBE256:
 180:source/Heavy_daisy_control.cpp ****   sLine_onMessage(_c, &Context(_c)->sLine_vmZdgXXU, 0, m, NULL);
 2535              		.loc 3 180 3 is_stmt 1 view .LVU630
 2536              	.LBB257:
 2537              	.LBI250:
 114:source/HvMessage.h ****   hv_assert(index < msg_getNumElements(m)); // invalid index
 2538              		.loc 6 114 20 view .LVU631
 2539              	.LBB252:
 115:source/HvMessage.h ****   (&(m->elem)+index)->type = HV_MSG_FLOAT;
 2540              		.loc 6 115 3 view .LVU632
 115:source/HvMessage.h ****   (&(m->elem)+index)->type = HV_MSG_FLOAT;
 2541              		.loc 6 115 3 is_stmt 0 view .LVU633
 2542              	.LBE252:
 2543              	.LBE257:
  91:source/HvMessage.h **** }
 2544              		.loc 6 91 3 is_stmt 1 view .LVU634
 2545              	.LBB258:
 2546              	.LBB253:
 115:source/HvMessage.h ****   (&(m->elem)+index)->type = HV_MSG_FLOAT;
 2547              		.loc 6 115 3 is_stmt 0 view .LVU635
 2548 0024 0CD0     		beq	.L127
 116:source/HvMessage.h ****   (&(m->elem)+index)->data.f = f;
 2549              		.loc 6 116 3 is_stmt 1 view .LVU636
 2550              		.loc 6 117 30 is_stmt 0 view .LVU637
 2551 0026 0748     		ldr	r0, .L132
 2552              	.LBE253:
 2553              	.LBE258:
 181:source/Heavy_daisy_control.cpp **** }
 2554              		.loc 3 181 18 view .LVU638
 2555 0028 0022     		movs	r2, #0
 2556              	.LBB259:
 2557              	.LBB254:
 116:source/HvMessage.h ****   (&(m->elem)+index)->data.f = f;
 2558              		.loc 6 116 28 view .LVU639
 2559 002a 2174     		strb	r1, [r4, #16]
 2560              		.loc 6 117 3 is_stmt 1 view .LVU640
 2561              	.LBE254:
 2562              	.LBE259:
 181:source/Heavy_daisy_control.cpp **** }
 2563              		.loc 3 181 18 is_stmt 0 view .LVU641
 2564 002c 2346     		mov	r3, r4
 2565              	.LBB260:
 2566              	.LBB255:
 2567              		.loc 6 117 30 view .LVU642
 2568 002e 6061     		str	r0, [r4, #20]	@ float
 2569              	.LVL183:
ARM GAS  /var/folders/fb/yfxt3z4538j6z0vjt03w70vc0000gn/T//ccW52HDD.s 			page 81


 2570              		.loc 6 117 30 view .LVU643
 2571              	.LBE255:
 2572              	.LBE260:
 181:source/Heavy_daisy_control.cpp **** }
 2573              		.loc 3 181 3 is_stmt 1 view .LVU644
 181:source/Heavy_daisy_control.cpp **** }
 2574              		.loc 3 181 18 is_stmt 0 view .LVU645
 2575 0030 05F19401 		add	r1, r5, #148
 2576 0034 2846     		mov	r0, r5
 2577 0036 0092     		str	r2, [sp]
 2578 0038 FFF7FEFF 		bl	sLine_onMessage
 2579              	.LVL184:
 182:source/Heavy_daisy_control.cpp **** 
 2580              		.loc 3 182 1 view .LVU646
 2581 003c BD46     		mov	sp, r7
 2582              		.cfi_remember_state
 2583              		.cfi_def_cfa_register 13
 2584              		@ sp needed
 2585 003e B0BD     		pop	{r4, r5, r7, pc}
 2586              	.LVL185:
 2587              	.L127:
 2588              		.cfi_restore_state
 2589              	.LBB261:
 2590              	.LBB249:
 182:source/Heavy_daisy_control.cpp **** 
 2591              		.loc 3 182 1 view .LVU647
 2592 0040 FFF7FEFF 		bl	msg_setFloat.part.0
 2593              	.LVL186:
 2594              	.L133:
 2595              		.align	2
 2596              	.L132:
 2597 0044 0000FA43 		.word	1140457472
 2598              	.LBE249:
 2599              	.LBE261:
 2600              		.cfi_endproc
 2601              	.LFE1009:
 2603              		.section	.text._ZN19Heavy_daisy_control26cCast_Nt5hgoBa_sendMessageEP21HeavyContextInterfaceiPK9Hv
 2604              		.align	1
 2605              		.p2align 2,,3
 2606              		.global	_ZN19Heavy_daisy_control26cCast_Nt5hgoBa_sendMessageEP21HeavyContextInterfaceiPK9HvMessage
 2607              		.syntax unified
 2608              		.thumb
 2609              		.thumb_func
 2611              	_ZN19Heavy_daisy_control26cCast_Nt5hgoBa_sendMessageEP21HeavyContextInterfaceiPK9HvMessage:
 2612              	.LVL187:
 2613              	.LFB1006:
 159:source/Heavy_daisy_control.cpp ****   cMsg_n6Kq10ds_sendMessage(_c, 0, m);
 2614              		.loc 3 159 112 is_stmt 1 view -0
 2615              		.cfi_startproc
 2616              		@ args = 0, pretend = 0, frame = 0
 2617              		@ frame_needed = 0, uses_anonymous_args = 0
 2618              		@ link register save eliminated.
 160:source/Heavy_daisy_control.cpp **** }
 2619              		.loc 3 160 3 view .LVU649
 160:source/Heavy_daisy_control.cpp **** }
 2620              		.loc 3 160 28 is_stmt 0 view .LVU650
 2621 0000 0021     		movs	r1, #0
ARM GAS  /var/folders/fb/yfxt3z4538j6z0vjt03w70vc0000gn/T//ccW52HDD.s 			page 82


 2622              	.LVL188:
 160:source/Heavy_daisy_control.cpp **** }
 2623              		.loc 3 160 28 view .LVU651
 2624 0002 FFF7FEBF 		b	_ZN19Heavy_daisy_control25cMsg_n6Kq10ds_sendMessageEP21HeavyContextInterfaceiPK9HvMessage
 2625              	.LVL189:
 160:source/Heavy_daisy_control.cpp **** }
 2626              		.loc 3 160 28 view .LVU652
 2627              		.cfi_endproc
 2628              	.LFE1006:
 2630 0006 00BF     		.section	.rodata._ZN19Heavy_daisy_control26cSend_bF0tWjeW_sendMessageEP21HeavyContextInterfaceiPK9
 2631              		.align	2
 2632              	.LC14:
 2633 0000 6C656431 		.ascii	"led1\000"
 2633      00
 2634              		.section	.text._ZN19Heavy_daisy_control26cSend_bF0tWjeW_sendMessageEP21HeavyContextInterfaceiPK9Hv
 2635              		.align	1
 2636              		.p2align 2,,3
 2637              		.global	_ZN19Heavy_daisy_control26cSend_bF0tWjeW_sendMessageEP21HeavyContextInterfaceiPK9HvMessage
 2638              		.syntax unified
 2639              		.thumb
 2640              		.thumb_func
 2642              	_ZN19Heavy_daisy_control26cSend_bF0tWjeW_sendMessageEP21HeavyContextInterfaceiPK9HvMessage:
 2643              	.LVL190:
 2644              	.LFB1011:
 188:source/Heavy_daisy_control.cpp ****   if (_c->getSendHook() != nullptr) _c->getSendHook()(_c, "led1", 0xE817C68D, m);
 2645              		.loc 3 188 112 is_stmt 1 view -0
 2646              		.cfi_startproc
 2647              		@ args = 0, pretend = 0, frame = 0
 2648              		@ frame_needed = 0, uses_anonymous_args = 0
 189:source/Heavy_daisy_control.cpp **** }
 2649              		.loc 3 189 3 view .LVU654
 189:source/Heavy_daisy_control.cpp **** }
 2650              		.loc 3 189 23 is_stmt 0 view .LVU655
 2651 0000 0368     		ldr	r3, [r0]
 188:source/Heavy_daisy_control.cpp ****   if (_c->getSendHook() != nullptr) _c->getSendHook()(_c, "led1", 0xE817C68D, m);
 2652              		.loc 3 188 112 view .LVU656
 2653 0002 70B5     		push	{r4, r5, r6, lr}
 2654              		.cfi_def_cfa_offset 16
 2655              		.cfi_offset 4, -16
 2656              		.cfi_offset 5, -12
 2657              		.cfi_offset 6, -8
 2658              		.cfi_offset 14, -4
 189:source/Heavy_daisy_control.cpp **** }
 2659              		.loc 3 189 23 view .LVU657
 2660 0004 5B6B     		ldr	r3, [r3, #52]
 188:source/Heavy_daisy_control.cpp ****   if (_c->getSendHook() != nullptr) _c->getSendHook()(_c, "led1", 0xE817C68D, m);
 2661              		.loc 3 188 112 view .LVU658
 2662 0006 0446     		mov	r4, r0
 2663 0008 0C4E     		ldr	r6, .L142
 2664 000a 1546     		mov	r5, r2
 2665 000c B342     		cmp	r3, r6
 2666 000e 0FD1     		bne	.L136
 2667              	.LVL191:
 2668              	.LBB266:
 2669              	.LBI266:
  46:source/HeavyContext.hpp **** 
 2670              		.loc 1 46 17 is_stmt 1 view .LVU659
ARM GAS  /var/folders/fb/yfxt3z4538j6z0vjt03w70vc0000gn/T//ccW52HDD.s 			page 83


 2671              	.LBB267:
  46:source/HeavyContext.hpp **** 
 2672              		.loc 1 46 42 view .LVU660
  46:source/HeavyContext.hpp **** 
 2673              		.loc 1 46 49 is_stmt 0 view .LVU661
 2674 0010 006D     		ldr	r0, [r0, #80]
 2675              	.LVL192:
 2676              	.L137:
  46:source/HeavyContext.hpp **** 
 2677              		.loc 1 46 49 view .LVU662
 2678              	.LBE267:
 2679              	.LBE266:
 189:source/Heavy_daisy_control.cpp **** }
 2680              		.loc 3 189 3 view .LVU663
 2681 0012 60B1     		cbz	r0, .L135
 189:source/Heavy_daisy_control.cpp **** }
 2682              		.loc 3 189 37 is_stmt 1 discriminator 1 view .LVU664
 189:source/Heavy_daisy_control.cpp **** }
 2683              		.loc 3 189 53 is_stmt 0 discriminator 1 view .LVU665
 2684 0014 2368     		ldr	r3, [r4]
 2685 0016 5B6B     		ldr	r3, [r3, #52]
 2686 0018 B342     		cmp	r3, r6
 2687 001a 0BD1     		bne	.L139
 2688              	.LVL193:
 2689              	.LBB268:
 2690              	.LBI268:
  46:source/HeavyContext.hpp **** 
 2691              		.loc 1 46 17 is_stmt 1 view .LVU666
 2692              	.LBB269:
  46:source/HeavyContext.hpp **** 
 2693              		.loc 1 46 42 view .LVU667
  46:source/HeavyContext.hpp **** 
 2694              		.loc 1 46 49 is_stmt 0 view .LVU668
 2695 001c 266D     		ldr	r6, [r4, #80]
 2696              	.LVL194:
 2697              	.L140:
  46:source/HeavyContext.hpp **** 
 2698              		.loc 1 46 49 view .LVU669
 2699              	.LBE269:
 2700              	.LBE268:
 189:source/Heavy_daisy_control.cpp **** }
 2701              		.loc 3 189 54 discriminator 1 view .LVU670
 2702 001e 2B46     		mov	r3, r5
 2703 0020 2046     		mov	r0, r4
 2704 0022 B446     		mov	ip, r6
 2705 0024 064A     		ldr	r2, .L142+4
 2706 0026 0749     		ldr	r1, .L142+8
 190:source/Heavy_daisy_control.cpp **** 
 2707              		.loc 3 190 1 discriminator 1 view .LVU671
 2708 0028 BDE87040 		pop	{r4, r5, r6, lr}
 2709              		.cfi_remember_state
 2710              		.cfi_restore 14
 2711              		.cfi_restore 6
 2712              		.cfi_restore 5
 2713              		.cfi_restore 4
 2714              		.cfi_def_cfa_offset 0
 2715              	.LVL195:
ARM GAS  /var/folders/fb/yfxt3z4538j6z0vjt03w70vc0000gn/T//ccW52HDD.s 			page 84


 189:source/Heavy_daisy_control.cpp **** }
 2716              		.loc 3 189 54 discriminator 1 view .LVU672
 2717 002c 6047     		bx	ip	@ indirect register sibling call
 2718              	.LVL196:
 2719              	.L135:
 2720              		.cfi_restore_state
 190:source/Heavy_daisy_control.cpp **** 
 2721              		.loc 3 190 1 view .LVU673
 2722 002e 70BD     		pop	{r4, r5, r6, pc}
 2723              	.LVL197:
 2724              	.L136:
 189:source/Heavy_daisy_control.cpp **** }
 2725              		.loc 3 189 22 view .LVU674
 2726 0030 9847     		blx	r3
 2727              	.LVL198:
 189:source/Heavy_daisy_control.cpp **** }
