ARM GAS  /var/folders/fb/yfxt3z4538j6z0vjt03w70vc0000gn/T//ccfrU3iz.s 			page 1


   1              		.cpu cortex-m7
   2              		.arch armv7e-m
   3              		.fpu fpv5-d16
   4              		.eabi_attribute 28, 1
   5              		.eabi_attribute 20, 1
   6              		.eabi_attribute 21, 1
   7              		.eabi_attribute 23, 3
   8              		.eabi_attribute 24, 1
   9              		.eabi_attribute 25, 1
  10              		.eabi_attribute 26, 1
  11              		.eabi_attribute 30, 2
  12              		.eabi_attribute 34, 1
  13              		.eabi_attribute 18, 4
  14              		.file	"HeavyContext.cpp"
  15              		.text
  16              	.Ltext0:
  17              		.cfi_sections	.debug_frame
  18              		.section	.text._ZN12HeavyContext7getSizeEv,"axG",%progbits,_ZN12HeavyContext7getSizeEv,comdat
  19              		.align	1
  20              		.p2align 2,,3
  21              		.weak	_ZN12HeavyContext7getSizeEv
  22              		.syntax unified
  23              		.thumb
  24              		.thumb_func
  26              	_ZN12HeavyContext7getSizeEv:
  27              	.LVL0:
  28              	.LFB965:
  29              		.file 1 "source/HeavyContext.hpp"
   1:source/HeavyContext.hpp **** /**
   2:source/HeavyContext.hpp ****  * Copyright (c) 2014-2018 Enzien Audio Ltd.
   3:source/HeavyContext.hpp ****  *
   4:source/HeavyContext.hpp ****  * Permission to use, copy, modify, and/or distribute this software for any
   5:source/HeavyContext.hpp ****  * purpose with or without fee is hereby granted, provided that the above
   6:source/HeavyContext.hpp ****  * copyright notice and this permission notice appear in all copies.
   7:source/HeavyContext.hpp ****  *
   8:source/HeavyContext.hpp ****  * THE SOFTWARE IS PROVIDED "AS IS" AND THE AUTHOR DISCLAIMS ALL WARRANTIES WITH
   9:source/HeavyContext.hpp ****  * REGARD TO THIS SOFTWARE INCLUDING ALL IMPLIED WARRANTIES OF MERCHANTABILITY
  10:source/HeavyContext.hpp ****  * AND FITNESS. IN NO EVENT SHALL THE AUTHOR BE LIABLE FOR ANY SPECIAL, DIRECT,
  11:source/HeavyContext.hpp ****  * INDIRECT, OR CONSEQUENTIAL DAMAGES OR ANY DAMAGES WHATSOEVER RESULTING FROM
  12:source/HeavyContext.hpp ****  * LOSS OF USE, DATA OR PROFITS, WHETHER IN AN ACTION OF CONTRACT, NEGLIGENCE OR
  13:source/HeavyContext.hpp ****  * OTHER TORTIOUS ACTION, ARISING OUT OF OR IN CONNECTION WITH THE USE OR
  14:source/HeavyContext.hpp ****  * PERFORMANCE OF THIS SOFTWARE.
  15:source/HeavyContext.hpp ****  */
  16:source/HeavyContext.hpp **** 
  17:source/HeavyContext.hpp **** #ifndef _HEAVY_CONTEXT_H_
  18:source/HeavyContext.hpp **** #define _HEAVY_CONTEXT_H_
  19:source/HeavyContext.hpp **** 
  20:source/HeavyContext.hpp **** #include "HeavyContextInterface.hpp"
  21:source/HeavyContext.hpp **** #include "HvLightPipe.h"
  22:source/HeavyContext.hpp **** #include "HvMessageQueue.h"
  23:source/HeavyContext.hpp **** #include "HvMath.h"
  24:source/HeavyContext.hpp **** 
  25:source/HeavyContext.hpp **** struct HvTable;
  26:source/HeavyContext.hpp **** 
  27:source/HeavyContext.hpp **** class HeavyContext : public HeavyContextInterface {
  28:source/HeavyContext.hpp **** 
  29:source/HeavyContext.hpp ****  public:
ARM GAS  /var/folders/fb/yfxt3z4538j6z0vjt03w70vc0000gn/T//ccfrU3iz.s 			page 2


  30:source/HeavyContext.hpp ****   HeavyContext(double sampleRate, int poolKb=10, int inQueueKb=2, int outQueueKb=0);
  31:source/HeavyContext.hpp ****   virtual ~HeavyContext();
  32:source/HeavyContext.hpp **** 
  33:source/HeavyContext.hpp ****   int getSize() override { return (int) numBytes; }
  30              		.loc 1 33 7 view -0
  31              		.cfi_startproc
  32              		@ args = 0, pretend = 0, frame = 0
  33              		@ frame_needed = 0, uses_anonymous_args = 0
  34              		@ link register save eliminated.
  35              		.loc 1 33 28 view .LVU1
  36              		.loc 1 33 51 is_stmt 0 view .LVU2
  37 0000 4069     		ldr	r0, [r0, #20]
  38              	.LVL1:
  39              		.loc 1 33 51 view .LVU3
  40 0002 7047     		bx	lr
  41              		.cfi_endproc
  42              	.LFE965:
  44              		.section	.text._ZN12HeavyContext13getSampleRateEv,"axG",%progbits,_ZN12HeavyContext13getSampleRate
  45              		.align	1
  46              		.p2align 2,,3
  47              		.weak	_ZN12HeavyContext13getSampleRateEv
  48              		.syntax unified
  49              		.thumb
  50              		.thumb_func
  52              	_ZN12HeavyContext13getSampleRateEv:
  53              	.LVL2:
  54              	.LFB966:
  34:source/HeavyContext.hpp **** 
  35:source/HeavyContext.hpp ****   double getSampleRate() override { return sampleRate; }
  55              		.loc 1 35 10 is_stmt 1 view -0
  56              		.cfi_startproc
  57              		@ args = 0, pretend = 0, frame = 0
  58              		@ frame_needed = 0, uses_anonymous_args = 0
  59              		@ link register save eliminated.
  60              		.loc 1 35 37 view .LVU5
  61              		.loc 1 35 56 is_stmt 0 view .LVU6
  62 0000 90ED020B 		vldr.64	d0, [r0, #8]
  63 0004 7047     		bx	lr
  64              		.cfi_endproc
  65              	.LFE966:
  67 0006 00BF     		.section	.text._ZN12HeavyContext16getCurrentSampleEv,"axG",%progbits,_ZN12HeavyContext16getCurrent
  68              		.align	1
  69              		.p2align 2,,3
  70              		.weak	_ZN12HeavyContext16getCurrentSampleEv
  71              		.syntax unified
  72              		.thumb
  73              		.thumb_func
  75              	_ZN12HeavyContext16getCurrentSampleEv:
  76              	.LVL3:
  77              	.LFB967:
  36:source/HeavyContext.hpp **** 
  37:source/HeavyContext.hpp ****   hv_uint32_t getCurrentSample() override { return blockStartTimestamp; }
  78              		.loc 1 37 15 is_stmt 1 view -0
  79              		.cfi_startproc
  80              		@ args = 0, pretend = 0, frame = 0
  81              		@ frame_needed = 0, uses_anonymous_args = 0
  82              		@ link register save eliminated.
ARM GAS  /var/folders/fb/yfxt3z4538j6z0vjt03w70vc0000gn/T//ccfrU3iz.s 			page 3


  83              		.loc 1 37 45 view .LVU8
  84              		.loc 1 37 73 is_stmt 0 view .LVU9
  85 0000 0069     		ldr	r0, [r0, #16]
  86              	.LVL4:
  87              		.loc 1 37 73 view .LVU10
  88 0002 7047     		bx	lr
  89              		.cfi_endproc
  90              	.LFE967:
  92              		.section	.text._ZN12HeavyContext21samplesToMillisecondsEm,"axG",%progbits,_ZN12HeavyContext21sampl
  93              		.align	1
  94              		.p2align 2,,3
  95              		.weak	_ZN12HeavyContext21samplesToMillisecondsEm
  96              		.syntax unified
  97              		.thumb
  98              		.thumb_func
 100              	_ZN12HeavyContext21samplesToMillisecondsEm:
 101              	.LVL5:
 102              	.LFB968:
  38:source/HeavyContext.hpp ****   float samplesToMilliseconds(hv_uint32_t numSamples) override { return (float) (1000.0*numSamples/
 103              		.loc 1 38 9 is_stmt 1 view -0
 104              		.cfi_startproc
 105              		@ args = 0, pretend = 0, frame = 0
 106              		@ frame_needed = 0, uses_anonymous_args = 0
 107              		@ link register save eliminated.
 108              		.loc 1 38 66 view .LVU12
 109              		.loc 1 38 88 is_stmt 0 view .LVU13
 110 0000 07EE901A 		vmov	s15, r1	@ int
 111 0004 9FED065B 		vldr.64	d5, .L6
 112 0008 B8EE677B 		vcvt.f64.u32	d7, s15
 113              		.loc 1 38 99 view .LVU14
 114 000c 90ED026B 		vldr.64	d6, [r0, #8]
 115              		.loc 1 38 88 view .LVU15
 116 0010 27EE057B 		vmul.f64	d7, d7, d5
 117              		.loc 1 38 99 view .LVU16
 118 0014 87EE060B 		vdiv.f64	d0, d7, d6
 119              		.loc 1 38 113 view .LVU17
 120 0018 B7EEC00B 		vcvt.f32.f64	s0, d0
 121 001c 7047     		bx	lr
 122              	.L7:
 123 001e 00BF     		.align	3
 124              	.L6:
 125 0020 00000000 		.word	0
 126 0024 00408F40 		.word	1083129856
 127              		.cfi_endproc
 128              	.LFE968:
 130              		.section	.text._ZN12HeavyContext11setUserDataEPv,"axG",%progbits,_ZN12HeavyContext11setUserDataEPv
 131              		.align	1
 132              		.p2align 2,,3
 133              		.weak	_ZN12HeavyContext11setUserDataEPv
 134              		.syntax unified
 135              		.thumb
 136              		.thumb_func
 138              	_ZN12HeavyContext11setUserDataEPv:
 139              	.LVL6:
 140              	.LFB970:
  39:source/HeavyContext.hpp ****   hv_uint32_t millisecondsToSamples(float ms) override { return (hv_uint32_t) (hv_max_f(0.0f,ms)*sa
  40:source/HeavyContext.hpp **** 
ARM GAS  /var/folders/fb/yfxt3z4538j6z0vjt03w70vc0000gn/T//ccfrU3iz.s 			page 4


  41:source/HeavyContext.hpp ****   void setUserData(void *x) override { userData = x; }
 141              		.loc 1 41 8 is_stmt 1 view -0
 142              		.cfi_startproc
 143              		@ args = 0, pretend = 0, frame = 0
 144              		@ frame_needed = 0, uses_anonymous_args = 0
 145              		@ link register save eliminated.
 146              		.loc 1 41 40 view .LVU19
 147              		.loc 1 41 49 is_stmt 0 view .LVU20
 148 0000 8165     		str	r1, [r0, #88]
 149              		.loc 1 41 54 view .LVU21
 150 0002 7047     		bx	lr
 151              		.cfi_endproc
 152              	.LFE970:
 154              		.section	.text._ZN12HeavyContext11getUserDataEv,"axG",%progbits,_ZN12HeavyContext11getUserDataEv,c
 155              		.align	1
 156              		.p2align 2,,3
 157              		.weak	_ZN12HeavyContext11getUserDataEv
 158              		.syntax unified
 159              		.thumb
 160              		.thumb_func
 162              	_ZN12HeavyContext11getUserDataEv:
 163              	.LVL7:
 164              	.LFB971:
  42:source/HeavyContext.hpp ****   void *getUserData() override { return userData; }
 165              		.loc 1 42 9 is_stmt 1 view -0
 166              		.cfi_startproc
 167              		@ args = 0, pretend = 0, frame = 0
 168              		@ frame_needed = 0, uses_anonymous_args = 0
 169              		@ link register save eliminated.
 170              		.loc 1 42 34 view .LVU23
 171              		.loc 1 42 51 is_stmt 0 view .LVU24
 172 0000 806D     		ldr	r0, [r0, #88]
 173              	.LVL8:
 174              		.loc 1 42 51 view .LVU25
 175 0002 7047     		bx	lr
 176              		.cfi_endproc
 177              	.LFE971:
 179              		.section	.text._ZN12HeavyContext11setSendHookEPFvP21HeavyContextInterfacePKcmPK9HvMessageE,"axG",%
 180              		.align	1
 181              		.p2align 2,,3
 182              		.weak	_ZN12HeavyContext11setSendHookEPFvP21HeavyContextInterfacePKcmPK9HvMessageE
 183              		.syntax unified
 184              		.thumb
 185              		.thumb_func
 187              	_ZN12HeavyContext11setSendHookEPFvP21HeavyContextInterfacePKcmPK9HvMessageE:
 188              	.LVL9:
 189              	.LFB972:
  43:source/HeavyContext.hpp **** 
  44:source/HeavyContext.hpp ****   // hook management
  45:source/HeavyContext.hpp ****   void setSendHook(HvSendHook_t *f) override { sendHook = f; }
 190              		.loc 1 45 8 is_stmt 1 view -0
 191              		.cfi_startproc
 192              		@ args = 0, pretend = 0, frame = 0
 193              		@ frame_needed = 0, uses_anonymous_args = 0
 194              		@ link register save eliminated.
 195              		.loc 1 45 48 view .LVU27
 196              		.loc 1 45 57 is_stmt 0 view .LVU28
ARM GAS  /var/folders/fb/yfxt3z4538j6z0vjt03w70vc0000gn/T//ccfrU3iz.s 			page 5


 197 0000 0165     		str	r1, [r0, #80]
 198              		.loc 1 45 62 view .LVU29
 199 0002 7047     		bx	lr
 200              		.cfi_endproc
 201              	.LFE972:
 203              		.section	.text._ZN12HeavyContext11getSendHookEv,"axG",%progbits,_ZN12HeavyContext11getSendHookEv,c
 204              		.align	1
 205              		.p2align 2,,3
 206              		.weak	_ZN12HeavyContext11getSendHookEv
 207              		.syntax unified
 208              		.thumb
 209              		.thumb_func
 211              	_ZN12HeavyContext11getSendHookEv:
 212              	.LVL10:
 213              	.LFB973:
  46:source/HeavyContext.hpp ****   HvSendHook_t *getSendHook() override { return sendHook; }
 214              		.loc 1 46 17 is_stmt 1 view -0
 215              		.cfi_startproc
 216              		@ args = 0, pretend = 0, frame = 0
 217              		@ frame_needed = 0, uses_anonymous_args = 0
 218              		@ link register save eliminated.
 219              		.loc 1 46 42 view .LVU31
 220              		.loc 1 46 59 is_stmt 0 view .LVU32
 221 0000 006D     		ldr	r0, [r0, #80]
 222              	.LVL11:
 223              		.loc 1 46 59 view .LVU33
 224 0002 7047     		bx	lr
 225              		.cfi_endproc
 226              	.LFE973:
 228              		.section	.text._ZN12HeavyContext12setPrintHookEPFvP21HeavyContextInterfacePKcS3_PK9HvMessageE,"axG
 229              		.align	1
 230              		.p2align 2,,3
 231              		.weak	_ZN12HeavyContext12setPrintHookEPFvP21HeavyContextInterfacePKcS3_PK9HvMessageE
 232              		.syntax unified
 233              		.thumb
 234              		.thumb_func
 236              	_ZN12HeavyContext12setPrintHookEPFvP21HeavyContextInterfacePKcS3_PK9HvMessageE:
 237              	.LVL12:
 238              	.LFB974:
  47:source/HeavyContext.hpp **** 
  48:source/HeavyContext.hpp ****   void setPrintHook(HvPrintHook_t *f) override { printHook = f; }
 239              		.loc 1 48 8 is_stmt 1 view -0
 240              		.cfi_startproc
 241              		@ args = 0, pretend = 0, frame = 0
 242              		@ frame_needed = 0, uses_anonymous_args = 0
 243              		@ link register save eliminated.
 244              		.loc 1 48 50 view .LVU35
 245              		.loc 1 48 60 is_stmt 0 view .LVU36
 246 0000 4165     		str	r1, [r0, #84]
 247              		.loc 1 48 65 view .LVU37
 248 0002 7047     		bx	lr
 249              		.cfi_endproc
 250              	.LFE974:
 252              		.section	.text._ZN12HeavyContext12getPrintHookEv,"axG",%progbits,_ZN12HeavyContext12getPrintHookEv
 253              		.align	1
 254              		.p2align 2,,3
 255              		.weak	_ZN12HeavyContext12getPrintHookEv
ARM GAS  /var/folders/fb/yfxt3z4538j6z0vjt03w70vc0000gn/T//ccfrU3iz.s 			page 6


 256              		.syntax unified
 257              		.thumb
 258              		.thumb_func
 260              	_ZN12HeavyContext12getPrintHookEv:
 261              	.LVL13:
 262              	.LFB975:
  49:source/HeavyContext.hpp ****   HvPrintHook_t *getPrintHook() override { return printHook; }
 263              		.loc 1 49 18 is_stmt 1 view -0
 264              		.cfi_startproc
 265              		@ args = 0, pretend = 0, frame = 0
 266              		@ frame_needed = 0, uses_anonymous_args = 0
 267              		@ link register save eliminated.
 268              		.loc 1 49 44 view .LVU39
 269              		.loc 1 49 62 is_stmt 0 view .LVU40
 270 0000 406D     		ldr	r0, [r0, #84]
 271              	.LVL14:
 272              		.loc 1 49 62 view .LVU41
 273 0002 7047     		bx	lr
 274              		.cfi_endproc
 275              	.LFE975:
 277              		.section	.text._ZN12HeavyContext17getBufferForTableEm,"ax",%progbits
 278              		.align	1
 279              		.p2align 2,,3
 280              		.global	_ZN12HeavyContext17getBufferForTableEm
 281              		.syntax unified
 282              		.thumb
 283              		.thumb_func
 285              	_ZN12HeavyContext17getBufferForTableEm:
 286              	.LVL15:
 287              	.LFB997:
 288              		.file 2 "source/HeavyContext.cpp"
   1:source/HeavyContext.cpp **** /**
   2:source/HeavyContext.cpp ****  * Copyright (c) 2014-2018 Enzien Audio Ltd.
   3:source/HeavyContext.cpp ****  *
   4:source/HeavyContext.cpp ****  * Permission to use, copy, modify, and/or distribute this software for any
   5:source/HeavyContext.cpp ****  * purpose with or without fee is hereby granted, provided that the above
   6:source/HeavyContext.cpp ****  * copyright notice and this permission notice appear in all copies.
   7:source/HeavyContext.cpp ****  *
   8:source/HeavyContext.cpp ****  * THE SOFTWARE IS PROVIDED "AS IS" AND THE AUTHOR DISCLAIMS ALL WARRANTIES WITH
   9:source/HeavyContext.cpp ****  * REGARD TO THIS SOFTWARE INCLUDING ALL IMPLIED WARRANTIES OF MERCHANTABILITY
  10:source/HeavyContext.cpp ****  * AND FITNESS. IN NO EVENT SHALL THE AUTHOR BE LIABLE FOR ANY SPECIAL, DIRECT,
  11:source/HeavyContext.cpp ****  * INDIRECT, OR CONSEQUENTIAL DAMAGES OR ANY DAMAGES WHATSOEVER RESULTING FROM
  12:source/HeavyContext.cpp ****  * LOSS OF USE, DATA OR PROFITS, WHETHER IN AN ACTION OF CONTRACT, NEGLIGENCE OR
  13:source/HeavyContext.cpp ****  * OTHER TORTIOUS ACTION, ARISING OUT OF OR IN CONNECTION WITH THE USE OR
  14:source/HeavyContext.cpp ****  * PERFORMANCE OF THIS SOFTWARE.
  15:source/HeavyContext.cpp ****  */
  16:source/HeavyContext.cpp **** 
  17:source/HeavyContext.cpp **** #include "HeavyContext.hpp"
  18:source/HeavyContext.cpp **** #include "HvTable.h"
  19:source/HeavyContext.cpp **** 
  20:source/HeavyContext.cpp **** void defaultSendHook(HeavyContextInterface *context,
  21:source/HeavyContext.cpp ****     const char *sendName, hv_uint32_t sendHash, const HvMessage *msg) {
  22:source/HeavyContext.cpp ****   HeavyContext *thisContext = reinterpret_cast<HeavyContext *>(context);
  23:source/HeavyContext.cpp ****   const hv_uint32_t numBytes = sizeof(ReceiverMessagePair) + msg_getSize(msg) - sizeof(HvMessage);
  24:source/HeavyContext.cpp ****   ReceiverMessagePair *p = reinterpret_cast<ReceiverMessagePair *>(hLp_getWriteBuffer(&thisContext-
  25:source/HeavyContext.cpp ****   if (p != nullptr) {
  26:source/HeavyContext.cpp ****     p->receiverHash = sendHash;
ARM GAS  /var/folders/fb/yfxt3z4538j6z0vjt03w70vc0000gn/T//ccfrU3iz.s 			page 7


  27:source/HeavyContext.cpp ****     msg_copyToBuffer(msg, (char *) &p->msg, msg_getSize(msg));
  28:source/HeavyContext.cpp ****     hLp_produce(&thisContext->outQueue, numBytes);
  29:source/HeavyContext.cpp ****   } else {
  30:source/HeavyContext.cpp ****     hv_assert(false &&
  31:source/HeavyContext.cpp ****         "::defaultSendHook - The out message queue is full and cannot accept more messages until th
  32:source/HeavyContext.cpp ****         "have been processed. Try increasing the outQueueKb size in the new_with_options() construc
  33:source/HeavyContext.cpp ****   }
  34:source/HeavyContext.cpp **** }
  35:source/HeavyContext.cpp **** 
  36:source/HeavyContext.cpp **** HeavyContext::HeavyContext(double sampleRate, int poolKb, int inQueueKb, int outQueueKb) :
  37:source/HeavyContext.cpp ****     sampleRate(sampleRate) {
  38:source/HeavyContext.cpp **** 
  39:source/HeavyContext.cpp ****   hv_assert(sampleRate > 0.0); // sample rate must be positive
  40:source/HeavyContext.cpp ****   hv_assert(poolKb > 0);
  41:source/HeavyContext.cpp ****   hv_assert(inQueueKb > 0);
  42:source/HeavyContext.cpp ****   hv_assert(outQueueKb >= 0);
  43:source/HeavyContext.cpp **** 
  44:source/HeavyContext.cpp ****   blockStartTimestamp = 0;
  45:source/HeavyContext.cpp ****   printHook = nullptr;
  46:source/HeavyContext.cpp ****   userData = nullptr;
  47:source/HeavyContext.cpp **** 
  48:source/HeavyContext.cpp ****   // if outQueueKb is positive, then the outQueue is allocated and the default sendhook is set.
  49:source/HeavyContext.cpp ****   // Otherwise outQueue and the sendhook are set to NULL.
  50:source/HeavyContext.cpp ****   sendHook = (outQueueKb > 0) ? &defaultSendHook : nullptr;
  51:source/HeavyContext.cpp **** 
  52:source/HeavyContext.cpp ****   HV_SPINLOCK_RELEASE(inQueueLock);
  53:source/HeavyContext.cpp ****   HV_SPINLOCK_RELEASE(outQueueLock);
  54:source/HeavyContext.cpp **** 
  55:source/HeavyContext.cpp ****   numBytes = sizeof(HeavyContext);
  56:source/HeavyContext.cpp **** 
  57:source/HeavyContext.cpp ****   numBytes += mq_initWithPoolSize(&mq, poolKb);
  58:source/HeavyContext.cpp ****   numBytes += hLp_init(&inQueue, inQueueKb * 1024);
  59:source/HeavyContext.cpp ****   numBytes += hLp_init(&outQueue, outQueueKb * 1024); // outQueueKb value of 0 sets everything to N
  60:source/HeavyContext.cpp **** }
  61:source/HeavyContext.cpp **** 
  62:source/HeavyContext.cpp **** HeavyContext::~HeavyContext() {
  63:source/HeavyContext.cpp ****   mq_free(&mq);
  64:source/HeavyContext.cpp ****   hLp_free(&inQueue);
  65:source/HeavyContext.cpp ****   hLp_free(&outQueue);
  66:source/HeavyContext.cpp **** }
  67:source/HeavyContext.cpp **** 
  68:source/HeavyContext.cpp **** bool HeavyContext::sendBangToReceiver(hv_uint32_t receiverHash) {
  69:source/HeavyContext.cpp ****   HvMessage *m = HV_MESSAGE_ON_STACK(1);
  70:source/HeavyContext.cpp ****   msg_initWithBang(m, 0);
  71:source/HeavyContext.cpp ****   bool success = sendMessageToReceiver(receiverHash, 0.0, m);
  72:source/HeavyContext.cpp ****   return success;
  73:source/HeavyContext.cpp **** }
  74:source/HeavyContext.cpp **** 
  75:source/HeavyContext.cpp **** bool HeavyContext::sendFloatToReceiver(hv_uint32_t receiverHash, float f) {
  76:source/HeavyContext.cpp ****   HvMessage *m = HV_MESSAGE_ON_STACK(1);
  77:source/HeavyContext.cpp ****   msg_initWithFloat(m, 0, f);
  78:source/HeavyContext.cpp ****   bool success = sendMessageToReceiver(receiverHash, 0.0, m);
  79:source/HeavyContext.cpp ****   return success;
  80:source/HeavyContext.cpp **** }
  81:source/HeavyContext.cpp **** 
  82:source/HeavyContext.cpp **** bool HeavyContext::sendSymbolToReceiver(hv_uint32_t receiverHash, const char *s) {
  83:source/HeavyContext.cpp ****   hv_assert(s != nullptr);
ARM GAS  /var/folders/fb/yfxt3z4538j6z0vjt03w70vc0000gn/T//ccfrU3iz.s 			page 8


  84:source/HeavyContext.cpp ****   HvMessage *m = HV_MESSAGE_ON_STACK(1);
  85:source/HeavyContext.cpp ****   msg_initWithSymbol(m, 0, (char *) s);
  86:source/HeavyContext.cpp ****   bool success = sendMessageToReceiver(receiverHash, 0.0, m);
  87:source/HeavyContext.cpp ****   return success;
  88:source/HeavyContext.cpp **** }
  89:source/HeavyContext.cpp **** 
  90:source/HeavyContext.cpp **** bool HeavyContext::sendMessageToReceiverV(hv_uint32_t receiverHash, double delayMs, const char *for
  91:source/HeavyContext.cpp ****   hv_assert(delayMs >= 0.0);
  92:source/HeavyContext.cpp ****   hv_assert(format != nullptr);
  93:source/HeavyContext.cpp **** 
  94:source/HeavyContext.cpp ****   va_list ap;
  95:source/HeavyContext.cpp ****   va_start(ap, format);
  96:source/HeavyContext.cpp ****   const int numElem = (int) hv_strlen(format);
  97:source/HeavyContext.cpp ****   HvMessage *m = HV_MESSAGE_ON_STACK(numElem);
  98:source/HeavyContext.cpp ****   msg_init(m, numElem, blockStartTimestamp + (hv_uint32_t) (hv_max_d(0.0, delayMs)*getSampleRate()/
  99:source/HeavyContext.cpp ****   for (int i = 0; i < numElem; i++) {
 100:source/HeavyContext.cpp ****     switch (format[i]) {
 101:source/HeavyContext.cpp ****       case 'b': msg_setBang(m, i); break;
 102:source/HeavyContext.cpp ****       case 'f': msg_setFloat(m, i, (float) va_arg(ap, double)); break;
 103:source/HeavyContext.cpp ****       case 'h': msg_setHash(m, i, (int) va_arg(ap, int)); break;
 104:source/HeavyContext.cpp ****       case 's': msg_setSymbol(m, i, (char *) va_arg(ap, char *)); break;
 105:source/HeavyContext.cpp ****       default: break;
 106:source/HeavyContext.cpp ****     }
 107:source/HeavyContext.cpp ****   }
 108:source/HeavyContext.cpp ****   va_end(ap);
 109:source/HeavyContext.cpp **** 
 110:source/HeavyContext.cpp ****   bool success = sendMessageToReceiver(receiverHash, delayMs, m);
 111:source/HeavyContext.cpp ****   return success;
 112:source/HeavyContext.cpp **** }
 113:source/HeavyContext.cpp **** 
 114:source/HeavyContext.cpp **** bool HeavyContext::sendMessageToReceiver(hv_uint32_t receiverHash, double delayMs, HvMessage *m) {
 115:source/HeavyContext.cpp ****   hv_assert(delayMs >= 0.0);
 116:source/HeavyContext.cpp ****   hv_assert(m != nullptr);
 117:source/HeavyContext.cpp **** 
 118:source/HeavyContext.cpp ****   const hv_uint32_t timestamp = blockStartTimestamp +
 119:source/HeavyContext.cpp ****       (hv_uint32_t) (hv_max_d(0.0, delayMs)*(getSampleRate()/1000.0));
 120:source/HeavyContext.cpp **** 
 121:source/HeavyContext.cpp ****   ReceiverMessagePair *p = nullptr;
 122:source/HeavyContext.cpp ****   HV_SPINLOCK_ACQUIRE(inQueueLock);
 123:source/HeavyContext.cpp ****   const hv_uint32_t numBytes = sizeof(ReceiverMessagePair) + msg_getSize(m) - sizeof(HvMessage);
 124:source/HeavyContext.cpp ****   p = (ReceiverMessagePair *) hLp_getWriteBuffer(&inQueue, numBytes);
 125:source/HeavyContext.cpp ****   if (p != nullptr) {
 126:source/HeavyContext.cpp ****     p->receiverHash = receiverHash;
 127:source/HeavyContext.cpp ****     msg_copyToBuffer(m, (char *) &p->msg, msg_getSize(m));
 128:source/HeavyContext.cpp ****     msg_setTimestamp(&p->msg, timestamp);
 129:source/HeavyContext.cpp ****     hLp_produce(&inQueue, numBytes);
 130:source/HeavyContext.cpp ****   } else {
 131:source/HeavyContext.cpp ****     hv_assert(false &&
 132:source/HeavyContext.cpp ****         "::sendMessageToReceiver - The input message queue is full and cannot accept more messages 
 133:source/HeavyContext.cpp ****         "have been processed. Try increasing the inQueueKb size in the new_with_options() construct
 134:source/HeavyContext.cpp ****   }
 135:source/HeavyContext.cpp ****   HV_SPINLOCK_RELEASE(inQueueLock);
 136:source/HeavyContext.cpp ****   return (p != nullptr);
 137:source/HeavyContext.cpp **** }
 138:source/HeavyContext.cpp **** 
 139:source/HeavyContext.cpp **** bool HeavyContext::cancelMessage(HvMessage *m, void (*sendMessage)(HeavyContextInterface *, int, co
 140:source/HeavyContext.cpp ****   return mq_removeMessage(&mq, m, sendMessage);
ARM GAS  /var/folders/fb/yfxt3z4538j6z0vjt03w70vc0000gn/T//ccfrU3iz.s 			page 9


 141:source/HeavyContext.cpp **** }
 142:source/HeavyContext.cpp **** 
 143:source/HeavyContext.cpp **** HvMessage *HeavyContext::scheduleMessageForObject(const HvMessage *m,
 144:source/HeavyContext.cpp ****     void (*sendMessage)(HeavyContextInterface *, int, const HvMessage *),
 145:source/HeavyContext.cpp ****     int letIndex) {
 146:source/HeavyContext.cpp ****   HvMessage *n = mq_addMessageByTimestamp(&mq, m, letIndex, sendMessage);
 147:source/HeavyContext.cpp ****   return n;
 148:source/HeavyContext.cpp **** }
 149:source/HeavyContext.cpp **** 
 150:source/HeavyContext.cpp **** float *HeavyContext::getBufferForTable(hv_uint32_t tableHash) {
 289              		.loc 2 150 63 is_stmt 1 view -0
 290              		.cfi_startproc
 291              		@ args = 0, pretend = 0, frame = 0
 292              		@ frame_needed = 0, uses_anonymous_args = 0
 151:source/HeavyContext.cpp ****   HvTable *t = getTableForHash(tableHash);
 293              		.loc 2 151 3 view .LVU43
 150:source/HeavyContext.cpp ****   HvTable *t = getTableForHash(tableHash);
 294              		.loc 2 150 63 is_stmt 0 view .LVU44
 295 0000 08B5     		push	{r3, lr}
 296              		.cfi_def_cfa_offset 8
 297              		.cfi_offset 3, -8
 298              		.cfi_offset 14, -4
 299              		.loc 2 151 41 view .LVU45
 300 0002 0368     		ldr	r3, [r0]
 301              		.loc 2 151 31 view .LVU46
 302 0004 D3F88C30 		ldr	r3, [r3, #140]
 303 0008 9847     		blx	r3
 304              	.LVL16:
 152:source/HeavyContext.cpp ****   if (t != nullptr) {
 305              		.loc 2 152 3 is_stmt 1 view .LVU47
 306 000a 00B1     		cbz	r0, .L14
 153:source/HeavyContext.cpp ****     return hTable_getBuffer(t);
 307              		.loc 2 153 5 view .LVU48
 308              	.LVL17:
 309              	.LBB91:
 310              	.LBI91:
 311              		.file 3 "source/HvTable.h"
   1:source/HvTable.h **** /**
   2:source/HvTable.h ****  * Copyright (c) 2014-2018 Enzien Audio Ltd.
   3:source/HvTable.h ****  *
   4:source/HvTable.h ****  * Permission to use, copy, modify, and/or distribute this software for any
   5:source/HvTable.h ****  * purpose with or without fee is hereby granted, provided that the above
   6:source/HvTable.h ****  * copyright notice and this permission notice appear in all copies.
   7:source/HvTable.h ****  *
   8:source/HvTable.h ****  * THE SOFTWARE IS PROVIDED "AS IS" AND THE AUTHOR DISCLAIMS ALL WARRANTIES WITH
   9:source/HvTable.h ****  * REGARD TO THIS SOFTWARE INCLUDING ALL IMPLIED WARRANTIES OF MERCHANTABILITY
  10:source/HvTable.h ****  * AND FITNESS. IN NO EVENT SHALL THE AUTHOR BE LIABLE FOR ANY SPECIAL, DIRECT,
  11:source/HvTable.h ****  * INDIRECT, OR CONSEQUENTIAL DAMAGES OR ANY DAMAGES WHATSOEVER RESULTING FROM
  12:source/HvTable.h ****  * LOSS OF USE, DATA OR PROFITS, WHETHER IN AN ACTION OF CONTRACT, NEGLIGENCE OR
  13:source/HvTable.h ****  * OTHER TORTIOUS ACTION, ARISING OUT OF OR IN CONNECTION WITH THE USE OR
  14:source/HvTable.h ****  * PERFORMANCE OF THIS SOFTWARE.
  15:source/HvTable.h ****  */
  16:source/HvTable.h **** 
  17:source/HvTable.h **** #ifndef _HEAVY_TABLE_H_
  18:source/HvTable.h **** #define _HEAVY_TABLE_H_
  19:source/HvTable.h **** 
  20:source/HvTable.h **** #include "HvHeavy.h"
ARM GAS  /var/folders/fb/yfxt3z4538j6z0vjt03w70vc0000gn/T//ccfrU3iz.s 			page 10


  21:source/HvTable.h **** #include "HvUtils.h"
  22:source/HvTable.h **** 
  23:source/HvTable.h **** #ifdef __cplusplus
  24:source/HvTable.h **** extern "C" {
  25:source/HvTable.h **** #endif
  26:source/HvTable.h **** 
  27:source/HvTable.h **** typedef struct HvTable {
  28:source/HvTable.h ****   float *buffer;
  29:source/HvTable.h ****   // the number of values that the table is requested to have
  30:source/HvTable.h ****   hv_uint32_t length;
  31:source/HvTable.h **** 
  32:source/HvTable.h ****   // the number of usable values that the table actually has
  33:source/HvTable.h ****   // this is always an even multiple of HV_N_SIMD
  34:source/HvTable.h ****   hv_uint32_t size;
  35:source/HvTable.h **** 
  36:source/HvTable.h ****   // Note that the true size of the table is (size + HV_N_SIMD),
  37:source/HvTable.h ****   // with the trailing values used by the system, e.g. to create a circular
  38:source/HvTable.h ****   // buffer
  39:source/HvTable.h ****   hv_uint32_t allocated;
  40:source/HvTable.h **** 
  41:source/HvTable.h ****   hv_uint32_t head; // the most recently written point
  42:source/HvTable.h **** } HvTable;
  43:source/HvTable.h **** 
  44:source/HvTable.h **** hv_size_t hTable_init(HvTable *o, int length);
  45:source/HvTable.h **** 
  46:source/HvTable.h **** hv_size_t hTable_initWithData(HvTable *o, int length, const float *data);
  47:source/HvTable.h **** 
  48:source/HvTable.h **** hv_size_t hTable_initWithFinalData(HvTable *o, int length, float *data);
  49:source/HvTable.h **** 
  50:source/HvTable.h **** void hTable_free(HvTable *o);
  51:source/HvTable.h **** 
  52:source/HvTable.h **** int hTable_resize(HvTable *o, hv_uint32_t newLength);
  53:source/HvTable.h **** 
  54:source/HvTable.h **** void hTable_onMessage(HeavyContextInterface *_c, HvTable *o, int letIn, const HvMessage *m,
  55:source/HvTable.h ****     void (*sendMessage)(HeavyContextInterface *, int, const HvMessage *));
  56:source/HvTable.h **** 
  57:source/HvTable.h **** static inline float *hTable_getBuffer(HvTable *o) {
 312              		.loc 3 57 22 view .LVU49
 313              	.LBB92:
  58:source/HvTable.h ****   return o->buffer;
 314              		.loc 3 58 3 view .LVU50
 315              		.loc 3 58 13 is_stmt 0 view .LVU51
 316 000c 0068     		ldr	r0, [r0]
 317              	.LVL18:
 318              	.L14:
 319              		.loc 3 58 13 view .LVU52
 320              	.LBE92:
 321              	.LBE91:
 154:source/HeavyContext.cpp ****   } else return nullptr;
 155:source/HeavyContext.cpp **** }
 322              		.loc 2 155 1 view .LVU53
 323 000e 08BD     		pop	{r3, pc}
 324              		.cfi_endproc
 325              	.LFE997:
 327              		.section	.text._ZN12HeavyContext17getLengthForTableEm,"ax",%progbits
 328              		.align	1
 329              		.p2align 2,,3
ARM GAS  /var/folders/fb/yfxt3z4538j6z0vjt03w70vc0000gn/T//ccfrU3iz.s 			page 11


 330              		.global	_ZN12HeavyContext17getLengthForTableEm
 331              		.syntax unified
 332              		.thumb
 333              		.thumb_func
 335              	_ZN12HeavyContext17getLengthForTableEm:
 336              	.LVL19:
 337              	.LFB998:
 156:source/HeavyContext.cpp **** 
 157:source/HeavyContext.cpp **** int HeavyContext::getLengthForTable(hv_uint32_t tableHash) {
 338              		.loc 2 157 60 is_stmt 1 view -0
 339              		.cfi_startproc
 340              		@ args = 0, pretend = 0, frame = 0
 341              		@ frame_needed = 0, uses_anonymous_args = 0
 158:source/HeavyContext.cpp ****   HvTable *t = getTableForHash(tableHash);
 342              		.loc 2 158 3 view .LVU55
 157:source/HeavyContext.cpp ****   HvTable *t = getTableForHash(tableHash);
 343              		.loc 2 157 60 is_stmt 0 view .LVU56
 344 0000 08B5     		push	{r3, lr}
 345              		.cfi_def_cfa_offset 8
 346              		.cfi_offset 3, -8
 347              		.cfi_offset 14, -4
 348              		.loc 2 158 41 view .LVU57
 349 0002 0368     		ldr	r3, [r0]
 350              		.loc 2 158 31 view .LVU58
 351 0004 D3F88C30 		ldr	r3, [r3, #140]
 352 0008 9847     		blx	r3
 353              	.LVL20:
 159:source/HeavyContext.cpp ****   if (t != nullptr) {
 354              		.loc 2 159 3 is_stmt 1 view .LVU59
 355 000a 00B1     		cbz	r0, .L20
 160:source/HeavyContext.cpp ****     return hTable_getLength(t);
 356              		.loc 2 160 5 view .LVU60
 357              	.LVL21:
 358              	.LBB93:
 359              	.LBI93:
  59:source/HvTable.h **** }
  60:source/HvTable.h **** 
  61:source/HvTable.h **** // the user-requested length of the table (number of floats)
  62:source/HvTable.h **** static inline hv_uint32_t hTable_getLength(HvTable *o) {
 360              		.loc 3 62 27 view .LVU61
 361              	.LBB94:
  63:source/HvTable.h ****   return o->length;
 362              		.loc 3 63 3 view .LVU62
 363              		.loc 3 63 3 is_stmt 0 view .LVU63
 364              	.LBE94:
 365              	.LBE93:
 366              		.loc 2 160 30 view .LVU64
 367 000c 4068     		ldr	r0, [r0, #4]
 368              	.LVL22:
 369              	.L20:
 161:source/HeavyContext.cpp ****   } else return 0;
 162:source/HeavyContext.cpp **** }
 370              		.loc 2 162 1 view .LVU65
 371 000e 08BD     		pop	{r3, pc}
 372              		.cfi_endproc
 373              	.LFE998:
 375              		.section	.text._ZN12HeavyContext11lockReleaseEv,"ax",%progbits
ARM GAS  /var/folders/fb/yfxt3z4538j6z0vjt03w70vc0000gn/T//ccfrU3iz.s 			page 12


 376              		.align	1
 377              		.p2align 2,,3
 378              		.global	_ZN12HeavyContext11lockReleaseEv
 379              		.syntax unified
 380              		.thumb
 381              		.thumb_func
 383              	_ZN12HeavyContext11lockReleaseEv:
 384              	.LVL23:
 385              	.LFB1002:
 163:source/HeavyContext.cpp **** 
 164:source/HeavyContext.cpp **** bool HeavyContext::setLengthForTable(hv_uint32_t tableHash, hv_uint32_t newSampleLength) {
 165:source/HeavyContext.cpp ****   HvTable *t = getTableForHash(tableHash);
 166:source/HeavyContext.cpp ****   if (t != nullptr) {
 167:source/HeavyContext.cpp ****     hTable_resize(t, newSampleLength);
 168:source/HeavyContext.cpp ****     return true;
 169:source/HeavyContext.cpp ****   } else return false;
 170:source/HeavyContext.cpp **** }
 171:source/HeavyContext.cpp **** 
 172:source/HeavyContext.cpp **** void HeavyContext::lockAcquire() {
 173:source/HeavyContext.cpp ****   HV_SPINLOCK_ACQUIRE(inQueueLock);
 174:source/HeavyContext.cpp **** }
 175:source/HeavyContext.cpp **** 
 176:source/HeavyContext.cpp **** bool HeavyContext::lockTry() {
 177:source/HeavyContext.cpp ****   HV_SPINLOCK_TRY(inQueueLock);
 178:source/HeavyContext.cpp **** }
 179:source/HeavyContext.cpp **** 
 180:source/HeavyContext.cpp **** void HeavyContext::lockRelease() {
 386              		.loc 2 180 34 is_stmt 1 view -0
 387              		.cfi_startproc
 388              		@ args = 0, pretend = 0, frame = 0
 389              		@ frame_needed = 0, uses_anonymous_args = 0
 390              		@ link register save eliminated.
 181:source/HeavyContext.cpp ****   HV_SPINLOCK_RELEASE(inQueueLock);
 391              		.loc 2 181 3 view .LVU67
 392              	.LBB95:
 393              	.LBB96:
 394              		.file 4 "/Library/DaisyToolchain/0.2.0/arm/arm-none-eabi/include/c++/10.3.1/bits/atomic_base.h"
   1:/Library/DaisyToolchain/0.2.0/arm/arm-none-eabi/include/c++/10.3.1/bits/atomic_base.h **** // -*- C++ -*- header.
   2:/Library/DaisyToolchain/0.2.0/arm/arm-none-eabi/include/c++/10.3.1/bits/atomic_base.h **** 
   3:/Library/DaisyToolchain/0.2.0/arm/arm-none-eabi/include/c++/10.3.1/bits/atomic_base.h **** // Copyright (C) 2008-2020 Free Software Foundation, Inc.
   4:/Library/DaisyToolchain/0.2.0/arm/arm-none-eabi/include/c++/10.3.1/bits/atomic_base.h **** //
   5:/Library/DaisyToolchain/0.2.0/arm/arm-none-eabi/include/c++/10.3.1/bits/atomic_base.h **** // This file is part of the GNU ISO C++ Library.  This library is free
   6:/Library/DaisyToolchain/0.2.0/arm/arm-none-eabi/include/c++/10.3.1/bits/atomic_base.h **** // software; you can redistribute it and/or modify it under the
   7:/Library/DaisyToolchain/0.2.0/arm/arm-none-eabi/include/c++/10.3.1/bits/atomic_base.h **** // terms of the GNU General Public License as published by the
   8:/Library/DaisyToolchain/0.2.0/arm/arm-none-eabi/include/c++/10.3.1/bits/atomic_base.h **** // Free Software Foundation; either version 3, or (at your option)
   9:/Library/DaisyToolchain/0.2.0/arm/arm-none-eabi/include/c++/10.3.1/bits/atomic_base.h **** // any later version.
  10:/Library/DaisyToolchain/0.2.0/arm/arm-none-eabi/include/c++/10.3.1/bits/atomic_base.h **** 
  11:/Library/DaisyToolchain/0.2.0/arm/arm-none-eabi/include/c++/10.3.1/bits/atomic_base.h **** // This library is distributed in the hope that it will be useful,
  12:/Library/DaisyToolchain/0.2.0/arm/arm-none-eabi/include/c++/10.3.1/bits/atomic_base.h **** // but WITHOUT ANY WARRANTY; without even the implied warranty of
  13:/Library/DaisyToolchain/0.2.0/arm/arm-none-eabi/include/c++/10.3.1/bits/atomic_base.h **** // MERCHANTABILITY or FITNESS FOR A PARTICULAR PURPOSE.  See the
  14:/Library/DaisyToolchain/0.2.0/arm/arm-none-eabi/include/c++/10.3.1/bits/atomic_base.h **** // GNU General Public License for more details.
  15:/Library/DaisyToolchain/0.2.0/arm/arm-none-eabi/include/c++/10.3.1/bits/atomic_base.h **** 
  16:/Library/DaisyToolchain/0.2.0/arm/arm-none-eabi/include/c++/10.3.1/bits/atomic_base.h **** // Under Section 7 of GPL version 3, you are granted additional
  17:/Library/DaisyToolchain/0.2.0/arm/arm-none-eabi/include/c++/10.3.1/bits/atomic_base.h **** // permissions described in the GCC Runtime Library Exception, version
  18:/Library/DaisyToolchain/0.2.0/arm/arm-none-eabi/include/c++/10.3.1/bits/atomic_base.h **** // 3.1, as published by the Free Software Foundation.
  19:/Library/DaisyToolchain/0.2.0/arm/arm-none-eabi/include/c++/10.3.1/bits/atomic_base.h **** 
  20:/Library/DaisyToolchain/0.2.0/arm/arm-none-eabi/include/c++/10.3.1/bits/atomic_base.h **** // You should have received a copy of the GNU General Public License and
ARM GAS  /var/folders/fb/yfxt3z4538j6z0vjt03w70vc0000gn/T//ccfrU3iz.s 			page 13


  21:/Library/DaisyToolchain/0.2.0/arm/arm-none-eabi/include/c++/10.3.1/bits/atomic_base.h **** // a copy of the GCC Runtime Library Exception along with this program;
  22:/Library/DaisyToolchain/0.2.0/arm/arm-none-eabi/include/c++/10.3.1/bits/atomic_base.h **** // see the files COPYING3 and COPYING.RUNTIME respectively.  If not, see
  23:/Library/DaisyToolchain/0.2.0/arm/arm-none-eabi/include/c++/10.3.1/bits/atomic_base.h **** // <http://www.gnu.org/licenses/>.
  24:/Library/DaisyToolchain/0.2.0/arm/arm-none-eabi/include/c++/10.3.1/bits/atomic_base.h **** 
  25:/Library/DaisyToolchain/0.2.0/arm/arm-none-eabi/include/c++/10.3.1/bits/atomic_base.h **** /** @file bits/atomic_base.h
  26:/Library/DaisyToolchain/0.2.0/arm/arm-none-eabi/include/c++/10.3.1/bits/atomic_base.h ****  *  This is an internal header file, included by other library headers.
  27:/Library/DaisyToolchain/0.2.0/arm/arm-none-eabi/include/c++/10.3.1/bits/atomic_base.h ****  *  Do not attempt to use it directly. @headername{atomic}
  28:/Library/DaisyToolchain/0.2.0/arm/arm-none-eabi/include/c++/10.3.1/bits/atomic_base.h ****  */
  29:/Library/DaisyToolchain/0.2.0/arm/arm-none-eabi/include/c++/10.3.1/bits/atomic_base.h **** 
  30:/Library/DaisyToolchain/0.2.0/arm/arm-none-eabi/include/c++/10.3.1/bits/atomic_base.h **** #ifndef _GLIBCXX_ATOMIC_BASE_H
  31:/Library/DaisyToolchain/0.2.0/arm/arm-none-eabi/include/c++/10.3.1/bits/atomic_base.h **** #define _GLIBCXX_ATOMIC_BASE_H 1
  32:/Library/DaisyToolchain/0.2.0/arm/arm-none-eabi/include/c++/10.3.1/bits/atomic_base.h **** 
  33:/Library/DaisyToolchain/0.2.0/arm/arm-none-eabi/include/c++/10.3.1/bits/atomic_base.h **** #pragma GCC system_header
  34:/Library/DaisyToolchain/0.2.0/arm/arm-none-eabi/include/c++/10.3.1/bits/atomic_base.h **** 
  35:/Library/DaisyToolchain/0.2.0/arm/arm-none-eabi/include/c++/10.3.1/bits/atomic_base.h **** #include <bits/c++config.h>
  36:/Library/DaisyToolchain/0.2.0/arm/arm-none-eabi/include/c++/10.3.1/bits/atomic_base.h **** #include <stdint.h>
  37:/Library/DaisyToolchain/0.2.0/arm/arm-none-eabi/include/c++/10.3.1/bits/atomic_base.h **** #include <bits/atomic_lockfree_defines.h>
  38:/Library/DaisyToolchain/0.2.0/arm/arm-none-eabi/include/c++/10.3.1/bits/atomic_base.h **** #include <bits/move.h>
  39:/Library/DaisyToolchain/0.2.0/arm/arm-none-eabi/include/c++/10.3.1/bits/atomic_base.h **** 
  40:/Library/DaisyToolchain/0.2.0/arm/arm-none-eabi/include/c++/10.3.1/bits/atomic_base.h **** #ifndef _GLIBCXX_ALWAYS_INLINE
  41:/Library/DaisyToolchain/0.2.0/arm/arm-none-eabi/include/c++/10.3.1/bits/atomic_base.h **** #define _GLIBCXX_ALWAYS_INLINE inline __attribute__((__always_inline__))
  42:/Library/DaisyToolchain/0.2.0/arm/arm-none-eabi/include/c++/10.3.1/bits/atomic_base.h **** #endif
  43:/Library/DaisyToolchain/0.2.0/arm/arm-none-eabi/include/c++/10.3.1/bits/atomic_base.h **** 
  44:/Library/DaisyToolchain/0.2.0/arm/arm-none-eabi/include/c++/10.3.1/bits/atomic_base.h **** namespace std _GLIBCXX_VISIBILITY(default)
  45:/Library/DaisyToolchain/0.2.0/arm/arm-none-eabi/include/c++/10.3.1/bits/atomic_base.h **** {
  46:/Library/DaisyToolchain/0.2.0/arm/arm-none-eabi/include/c++/10.3.1/bits/atomic_base.h **** _GLIBCXX_BEGIN_NAMESPACE_VERSION
  47:/Library/DaisyToolchain/0.2.0/arm/arm-none-eabi/include/c++/10.3.1/bits/atomic_base.h **** 
  48:/Library/DaisyToolchain/0.2.0/arm/arm-none-eabi/include/c++/10.3.1/bits/atomic_base.h ****   /**
  49:/Library/DaisyToolchain/0.2.0/arm/arm-none-eabi/include/c++/10.3.1/bits/atomic_base.h ****    * @defgroup atomics Atomics
  50:/Library/DaisyToolchain/0.2.0/arm/arm-none-eabi/include/c++/10.3.1/bits/atomic_base.h ****    *
  51:/Library/DaisyToolchain/0.2.0/arm/arm-none-eabi/include/c++/10.3.1/bits/atomic_base.h ****    * Components for performing atomic operations.
  52:/Library/DaisyToolchain/0.2.0/arm/arm-none-eabi/include/c++/10.3.1/bits/atomic_base.h ****    * @{
  53:/Library/DaisyToolchain/0.2.0/arm/arm-none-eabi/include/c++/10.3.1/bits/atomic_base.h ****    */
  54:/Library/DaisyToolchain/0.2.0/arm/arm-none-eabi/include/c++/10.3.1/bits/atomic_base.h **** 
  55:/Library/DaisyToolchain/0.2.0/arm/arm-none-eabi/include/c++/10.3.1/bits/atomic_base.h ****   /// Enumeration for memory_order
  56:/Library/DaisyToolchain/0.2.0/arm/arm-none-eabi/include/c++/10.3.1/bits/atomic_base.h **** #if __cplusplus > 201703L
  57:/Library/DaisyToolchain/0.2.0/arm/arm-none-eabi/include/c++/10.3.1/bits/atomic_base.h ****   enum class memory_order : int
  58:/Library/DaisyToolchain/0.2.0/arm/arm-none-eabi/include/c++/10.3.1/bits/atomic_base.h ****     {
  59:/Library/DaisyToolchain/0.2.0/arm/arm-none-eabi/include/c++/10.3.1/bits/atomic_base.h ****       relaxed,
  60:/Library/DaisyToolchain/0.2.0/arm/arm-none-eabi/include/c++/10.3.1/bits/atomic_base.h ****       consume,
  61:/Library/DaisyToolchain/0.2.0/arm/arm-none-eabi/include/c++/10.3.1/bits/atomic_base.h ****       acquire,
  62:/Library/DaisyToolchain/0.2.0/arm/arm-none-eabi/include/c++/10.3.1/bits/atomic_base.h ****       release,
  63:/Library/DaisyToolchain/0.2.0/arm/arm-none-eabi/include/c++/10.3.1/bits/atomic_base.h ****       acq_rel,
  64:/Library/DaisyToolchain/0.2.0/arm/arm-none-eabi/include/c++/10.3.1/bits/atomic_base.h ****       seq_cst
  65:/Library/DaisyToolchain/0.2.0/arm/arm-none-eabi/include/c++/10.3.1/bits/atomic_base.h ****     };
  66:/Library/DaisyToolchain/0.2.0/arm/arm-none-eabi/include/c++/10.3.1/bits/atomic_base.h **** 
  67:/Library/DaisyToolchain/0.2.0/arm/arm-none-eabi/include/c++/10.3.1/bits/atomic_base.h ****   inline constexpr memory_order memory_order_relaxed = memory_order::relaxed;
  68:/Library/DaisyToolchain/0.2.0/arm/arm-none-eabi/include/c++/10.3.1/bits/atomic_base.h ****   inline constexpr memory_order memory_order_consume = memory_order::consume;
  69:/Library/DaisyToolchain/0.2.0/arm/arm-none-eabi/include/c++/10.3.1/bits/atomic_base.h ****   inline constexpr memory_order memory_order_acquire = memory_order::acquire;
  70:/Library/DaisyToolchain/0.2.0/arm/arm-none-eabi/include/c++/10.3.1/bits/atomic_base.h ****   inline constexpr memory_order memory_order_release = memory_order::release;
  71:/Library/DaisyToolchain/0.2.0/arm/arm-none-eabi/include/c++/10.3.1/bits/atomic_base.h ****   inline constexpr memory_order memory_order_acq_rel = memory_order::acq_rel;
  72:/Library/DaisyToolchain/0.2.0/arm/arm-none-eabi/include/c++/10.3.1/bits/atomic_base.h ****   inline constexpr memory_order memory_order_seq_cst = memory_order::seq_cst;
  73:/Library/DaisyToolchain/0.2.0/arm/arm-none-eabi/include/c++/10.3.1/bits/atomic_base.h **** #else
  74:/Library/DaisyToolchain/0.2.0/arm/arm-none-eabi/include/c++/10.3.1/bits/atomic_base.h ****   typedef enum memory_order
  75:/Library/DaisyToolchain/0.2.0/arm/arm-none-eabi/include/c++/10.3.1/bits/atomic_base.h ****     {
  76:/Library/DaisyToolchain/0.2.0/arm/arm-none-eabi/include/c++/10.3.1/bits/atomic_base.h ****       memory_order_relaxed,
  77:/Library/DaisyToolchain/0.2.0/arm/arm-none-eabi/include/c++/10.3.1/bits/atomic_base.h ****       memory_order_consume,
ARM GAS  /var/folders/fb/yfxt3z4538j6z0vjt03w70vc0000gn/T//ccfrU3iz.s 			page 14


  78:/Library/DaisyToolchain/0.2.0/arm/arm-none-eabi/include/c++/10.3.1/bits/atomic_base.h ****       memory_order_acquire,
  79:/Library/DaisyToolchain/0.2.0/arm/arm-none-eabi/include/c++/10.3.1/bits/atomic_base.h ****       memory_order_release,
  80:/Library/DaisyToolchain/0.2.0/arm/arm-none-eabi/include/c++/10.3.1/bits/atomic_base.h ****       memory_order_acq_rel,
  81:/Library/DaisyToolchain/0.2.0/arm/arm-none-eabi/include/c++/10.3.1/bits/atomic_base.h ****       memory_order_seq_cst
  82:/Library/DaisyToolchain/0.2.0/arm/arm-none-eabi/include/c++/10.3.1/bits/atomic_base.h ****     } memory_order;
  83:/Library/DaisyToolchain/0.2.0/arm/arm-none-eabi/include/c++/10.3.1/bits/atomic_base.h **** #endif
  84:/Library/DaisyToolchain/0.2.0/arm/arm-none-eabi/include/c++/10.3.1/bits/atomic_base.h **** 
  85:/Library/DaisyToolchain/0.2.0/arm/arm-none-eabi/include/c++/10.3.1/bits/atomic_base.h ****   enum __memory_order_modifier
  86:/Library/DaisyToolchain/0.2.0/arm/arm-none-eabi/include/c++/10.3.1/bits/atomic_base.h ****     {
  87:/Library/DaisyToolchain/0.2.0/arm/arm-none-eabi/include/c++/10.3.1/bits/atomic_base.h ****       __memory_order_mask          = 0x0ffff,
  88:/Library/DaisyToolchain/0.2.0/arm/arm-none-eabi/include/c++/10.3.1/bits/atomic_base.h ****       __memory_order_modifier_mask = 0xffff0000,
  89:/Library/DaisyToolchain/0.2.0/arm/arm-none-eabi/include/c++/10.3.1/bits/atomic_base.h ****       __memory_order_hle_acquire   = 0x10000,
  90:/Library/DaisyToolchain/0.2.0/arm/arm-none-eabi/include/c++/10.3.1/bits/atomic_base.h ****       __memory_order_hle_release   = 0x20000
  91:/Library/DaisyToolchain/0.2.0/arm/arm-none-eabi/include/c++/10.3.1/bits/atomic_base.h ****     };
  92:/Library/DaisyToolchain/0.2.0/arm/arm-none-eabi/include/c++/10.3.1/bits/atomic_base.h **** 
  93:/Library/DaisyToolchain/0.2.0/arm/arm-none-eabi/include/c++/10.3.1/bits/atomic_base.h ****   constexpr memory_order
  94:/Library/DaisyToolchain/0.2.0/arm/arm-none-eabi/include/c++/10.3.1/bits/atomic_base.h ****   operator|(memory_order __m, __memory_order_modifier __mod)
  95:/Library/DaisyToolchain/0.2.0/arm/arm-none-eabi/include/c++/10.3.1/bits/atomic_base.h ****   {
  96:/Library/DaisyToolchain/0.2.0/arm/arm-none-eabi/include/c++/10.3.1/bits/atomic_base.h ****     return memory_order(int(__m) | int(__mod));
  97:/Library/DaisyToolchain/0.2.0/arm/arm-none-eabi/include/c++/10.3.1/bits/atomic_base.h ****   }
  98:/Library/DaisyToolchain/0.2.0/arm/arm-none-eabi/include/c++/10.3.1/bits/atomic_base.h **** 
  99:/Library/DaisyToolchain/0.2.0/arm/arm-none-eabi/include/c++/10.3.1/bits/atomic_base.h ****   constexpr memory_order
 100:/Library/DaisyToolchain/0.2.0/arm/arm-none-eabi/include/c++/10.3.1/bits/atomic_base.h ****   operator&(memory_order __m, __memory_order_modifier __mod)
 101:/Library/DaisyToolchain/0.2.0/arm/arm-none-eabi/include/c++/10.3.1/bits/atomic_base.h ****   {
 102:/Library/DaisyToolchain/0.2.0/arm/arm-none-eabi/include/c++/10.3.1/bits/atomic_base.h ****     return memory_order(int(__m) & int(__mod));
 103:/Library/DaisyToolchain/0.2.0/arm/arm-none-eabi/include/c++/10.3.1/bits/atomic_base.h ****   }
 104:/Library/DaisyToolchain/0.2.0/arm/arm-none-eabi/include/c++/10.3.1/bits/atomic_base.h **** 
 105:/Library/DaisyToolchain/0.2.0/arm/arm-none-eabi/include/c++/10.3.1/bits/atomic_base.h ****   // Drop release ordering as per [atomics.types.operations.req]/21
 106:/Library/DaisyToolchain/0.2.0/arm/arm-none-eabi/include/c++/10.3.1/bits/atomic_base.h ****   constexpr memory_order
 107:/Library/DaisyToolchain/0.2.0/arm/arm-none-eabi/include/c++/10.3.1/bits/atomic_base.h ****   __cmpexch_failure_order2(memory_order __m) noexcept
 108:/Library/DaisyToolchain/0.2.0/arm/arm-none-eabi/include/c++/10.3.1/bits/atomic_base.h ****   {
 109:/Library/DaisyToolchain/0.2.0/arm/arm-none-eabi/include/c++/10.3.1/bits/atomic_base.h ****     return __m == memory_order_acq_rel ? memory_order_acquire
 110:/Library/DaisyToolchain/0.2.0/arm/arm-none-eabi/include/c++/10.3.1/bits/atomic_base.h ****       : __m == memory_order_release ? memory_order_relaxed : __m;
 111:/Library/DaisyToolchain/0.2.0/arm/arm-none-eabi/include/c++/10.3.1/bits/atomic_base.h ****   }
 112:/Library/DaisyToolchain/0.2.0/arm/arm-none-eabi/include/c++/10.3.1/bits/atomic_base.h **** 
 113:/Library/DaisyToolchain/0.2.0/arm/arm-none-eabi/include/c++/10.3.1/bits/atomic_base.h ****   constexpr memory_order
 114:/Library/DaisyToolchain/0.2.0/arm/arm-none-eabi/include/c++/10.3.1/bits/atomic_base.h ****   __cmpexch_failure_order(memory_order __m) noexcept
 115:/Library/DaisyToolchain/0.2.0/arm/arm-none-eabi/include/c++/10.3.1/bits/atomic_base.h ****   {
 116:/Library/DaisyToolchain/0.2.0/arm/arm-none-eabi/include/c++/10.3.1/bits/atomic_base.h ****     return memory_order(__cmpexch_failure_order2(__m & __memory_order_mask)
 117:/Library/DaisyToolchain/0.2.0/arm/arm-none-eabi/include/c++/10.3.1/bits/atomic_base.h ****       | __memory_order_modifier(__m & __memory_order_modifier_mask));
 118:/Library/DaisyToolchain/0.2.0/arm/arm-none-eabi/include/c++/10.3.1/bits/atomic_base.h ****   }
 119:/Library/DaisyToolchain/0.2.0/arm/arm-none-eabi/include/c++/10.3.1/bits/atomic_base.h **** 
 120:/Library/DaisyToolchain/0.2.0/arm/arm-none-eabi/include/c++/10.3.1/bits/atomic_base.h ****   _GLIBCXX_ALWAYS_INLINE void
 121:/Library/DaisyToolchain/0.2.0/arm/arm-none-eabi/include/c++/10.3.1/bits/atomic_base.h ****   atomic_thread_fence(memory_order __m) noexcept
 122:/Library/DaisyToolchain/0.2.0/arm/arm-none-eabi/include/c++/10.3.1/bits/atomic_base.h ****   { __atomic_thread_fence(int(__m)); }
 123:/Library/DaisyToolchain/0.2.0/arm/arm-none-eabi/include/c++/10.3.1/bits/atomic_base.h **** 
 124:/Library/DaisyToolchain/0.2.0/arm/arm-none-eabi/include/c++/10.3.1/bits/atomic_base.h ****   _GLIBCXX_ALWAYS_INLINE void
 125:/Library/DaisyToolchain/0.2.0/arm/arm-none-eabi/include/c++/10.3.1/bits/atomic_base.h ****   atomic_signal_fence(memory_order __m) noexcept
 126:/Library/DaisyToolchain/0.2.0/arm/arm-none-eabi/include/c++/10.3.1/bits/atomic_base.h ****   { __atomic_signal_fence(int(__m)); }
 127:/Library/DaisyToolchain/0.2.0/arm/arm-none-eabi/include/c++/10.3.1/bits/atomic_base.h **** 
 128:/Library/DaisyToolchain/0.2.0/arm/arm-none-eabi/include/c++/10.3.1/bits/atomic_base.h ****   /// kill_dependency
 129:/Library/DaisyToolchain/0.2.0/arm/arm-none-eabi/include/c++/10.3.1/bits/atomic_base.h ****   template<typename _Tp>
 130:/Library/DaisyToolchain/0.2.0/arm/arm-none-eabi/include/c++/10.3.1/bits/atomic_base.h ****     inline _Tp
 131:/Library/DaisyToolchain/0.2.0/arm/arm-none-eabi/include/c++/10.3.1/bits/atomic_base.h ****     kill_dependency(_Tp __y) noexcept
 132:/Library/DaisyToolchain/0.2.0/arm/arm-none-eabi/include/c++/10.3.1/bits/atomic_base.h ****     {
 133:/Library/DaisyToolchain/0.2.0/arm/arm-none-eabi/include/c++/10.3.1/bits/atomic_base.h ****       _Tp __ret(__y);
 134:/Library/DaisyToolchain/0.2.0/arm/arm-none-eabi/include/c++/10.3.1/bits/atomic_base.h ****       return __ret;
ARM GAS  /var/folders/fb/yfxt3z4538j6z0vjt03w70vc0000gn/T//ccfrU3iz.s 			page 15


 135:/Library/DaisyToolchain/0.2.0/arm/arm-none-eabi/include/c++/10.3.1/bits/atomic_base.h ****     }
 136:/Library/DaisyToolchain/0.2.0/arm/arm-none-eabi/include/c++/10.3.1/bits/atomic_base.h **** 
 137:/Library/DaisyToolchain/0.2.0/arm/arm-none-eabi/include/c++/10.3.1/bits/atomic_base.h **** 
 138:/Library/DaisyToolchain/0.2.0/arm/arm-none-eabi/include/c++/10.3.1/bits/atomic_base.h ****   // Base types for atomics.
 139:/Library/DaisyToolchain/0.2.0/arm/arm-none-eabi/include/c++/10.3.1/bits/atomic_base.h ****   template<typename _IntTp>
 140:/Library/DaisyToolchain/0.2.0/arm/arm-none-eabi/include/c++/10.3.1/bits/atomic_base.h ****     struct __atomic_base;
 141:/Library/DaisyToolchain/0.2.0/arm/arm-none-eabi/include/c++/10.3.1/bits/atomic_base.h **** 
 142:/Library/DaisyToolchain/0.2.0/arm/arm-none-eabi/include/c++/10.3.1/bits/atomic_base.h **** #if __cplusplus <= 201703L
 143:/Library/DaisyToolchain/0.2.0/arm/arm-none-eabi/include/c++/10.3.1/bits/atomic_base.h **** # define _GLIBCXX20_INIT(I)
 144:/Library/DaisyToolchain/0.2.0/arm/arm-none-eabi/include/c++/10.3.1/bits/atomic_base.h **** #else
 145:/Library/DaisyToolchain/0.2.0/arm/arm-none-eabi/include/c++/10.3.1/bits/atomic_base.h **** # define __cpp_lib_atomic_value_initialization 201911L
 146:/Library/DaisyToolchain/0.2.0/arm/arm-none-eabi/include/c++/10.3.1/bits/atomic_base.h **** # define _GLIBCXX20_INIT(I) = I
 147:/Library/DaisyToolchain/0.2.0/arm/arm-none-eabi/include/c++/10.3.1/bits/atomic_base.h **** #endif
 148:/Library/DaisyToolchain/0.2.0/arm/arm-none-eabi/include/c++/10.3.1/bits/atomic_base.h **** 
 149:/Library/DaisyToolchain/0.2.0/arm/arm-none-eabi/include/c++/10.3.1/bits/atomic_base.h **** #define ATOMIC_VAR_INIT(_VI) { _VI }
 150:/Library/DaisyToolchain/0.2.0/arm/arm-none-eabi/include/c++/10.3.1/bits/atomic_base.h **** 
 151:/Library/DaisyToolchain/0.2.0/arm/arm-none-eabi/include/c++/10.3.1/bits/atomic_base.h ****   template<typename _Tp>
 152:/Library/DaisyToolchain/0.2.0/arm/arm-none-eabi/include/c++/10.3.1/bits/atomic_base.h ****     struct atomic;
 153:/Library/DaisyToolchain/0.2.0/arm/arm-none-eabi/include/c++/10.3.1/bits/atomic_base.h **** 
 154:/Library/DaisyToolchain/0.2.0/arm/arm-none-eabi/include/c++/10.3.1/bits/atomic_base.h ****   template<typename _Tp>
 155:/Library/DaisyToolchain/0.2.0/arm/arm-none-eabi/include/c++/10.3.1/bits/atomic_base.h ****     struct atomic<_Tp*>;
 156:/Library/DaisyToolchain/0.2.0/arm/arm-none-eabi/include/c++/10.3.1/bits/atomic_base.h **** 
 157:/Library/DaisyToolchain/0.2.0/arm/arm-none-eabi/include/c++/10.3.1/bits/atomic_base.h ****     /* The target's "set" value for test-and-set may not be exactly 1.  */
 158:/Library/DaisyToolchain/0.2.0/arm/arm-none-eabi/include/c++/10.3.1/bits/atomic_base.h **** #if __GCC_ATOMIC_TEST_AND_SET_TRUEVAL == 1
 159:/Library/DaisyToolchain/0.2.0/arm/arm-none-eabi/include/c++/10.3.1/bits/atomic_base.h ****     typedef bool __atomic_flag_data_type;
 160:/Library/DaisyToolchain/0.2.0/arm/arm-none-eabi/include/c++/10.3.1/bits/atomic_base.h **** #else
 161:/Library/DaisyToolchain/0.2.0/arm/arm-none-eabi/include/c++/10.3.1/bits/atomic_base.h ****     typedef unsigned char __atomic_flag_data_type;
 162:/Library/DaisyToolchain/0.2.0/arm/arm-none-eabi/include/c++/10.3.1/bits/atomic_base.h **** #endif
 163:/Library/DaisyToolchain/0.2.0/arm/arm-none-eabi/include/c++/10.3.1/bits/atomic_base.h **** 
 164:/Library/DaisyToolchain/0.2.0/arm/arm-none-eabi/include/c++/10.3.1/bits/atomic_base.h ****   /**
 165:/Library/DaisyToolchain/0.2.0/arm/arm-none-eabi/include/c++/10.3.1/bits/atomic_base.h ****    *  @brief Base type for atomic_flag.
 166:/Library/DaisyToolchain/0.2.0/arm/arm-none-eabi/include/c++/10.3.1/bits/atomic_base.h ****    *
 167:/Library/DaisyToolchain/0.2.0/arm/arm-none-eabi/include/c++/10.3.1/bits/atomic_base.h ****    *  Base type is POD with data, allowing atomic_flag to derive from
 168:/Library/DaisyToolchain/0.2.0/arm/arm-none-eabi/include/c++/10.3.1/bits/atomic_base.h ****    *  it and meet the standard layout type requirement. In addition to
 169:/Library/DaisyToolchain/0.2.0/arm/arm-none-eabi/include/c++/10.3.1/bits/atomic_base.h ****    *  compatibility with a C interface, this allows different
 170:/Library/DaisyToolchain/0.2.0/arm/arm-none-eabi/include/c++/10.3.1/bits/atomic_base.h ****    *  implementations of atomic_flag to use the same atomic operation
 171:/Library/DaisyToolchain/0.2.0/arm/arm-none-eabi/include/c++/10.3.1/bits/atomic_base.h ****    *  functions, via a standard conversion to the __atomic_flag_base
 172:/Library/DaisyToolchain/0.2.0/arm/arm-none-eabi/include/c++/10.3.1/bits/atomic_base.h ****    *  argument.
 173:/Library/DaisyToolchain/0.2.0/arm/arm-none-eabi/include/c++/10.3.1/bits/atomic_base.h ****   */
 174:/Library/DaisyToolchain/0.2.0/arm/arm-none-eabi/include/c++/10.3.1/bits/atomic_base.h ****   _GLIBCXX_BEGIN_EXTERN_C
 175:/Library/DaisyToolchain/0.2.0/arm/arm-none-eabi/include/c++/10.3.1/bits/atomic_base.h **** 
 176:/Library/DaisyToolchain/0.2.0/arm/arm-none-eabi/include/c++/10.3.1/bits/atomic_base.h ****   struct __atomic_flag_base
 177:/Library/DaisyToolchain/0.2.0/arm/arm-none-eabi/include/c++/10.3.1/bits/atomic_base.h ****   {
 178:/Library/DaisyToolchain/0.2.0/arm/arm-none-eabi/include/c++/10.3.1/bits/atomic_base.h ****     __atomic_flag_data_type _M_i _GLIBCXX20_INIT({});
 179:/Library/DaisyToolchain/0.2.0/arm/arm-none-eabi/include/c++/10.3.1/bits/atomic_base.h ****   };
 180:/Library/DaisyToolchain/0.2.0/arm/arm-none-eabi/include/c++/10.3.1/bits/atomic_base.h **** 
 181:/Library/DaisyToolchain/0.2.0/arm/arm-none-eabi/include/c++/10.3.1/bits/atomic_base.h ****   _GLIBCXX_END_EXTERN_C
 182:/Library/DaisyToolchain/0.2.0/arm/arm-none-eabi/include/c++/10.3.1/bits/atomic_base.h **** 
 183:/Library/DaisyToolchain/0.2.0/arm/arm-none-eabi/include/c++/10.3.1/bits/atomic_base.h **** #define ATOMIC_FLAG_INIT { 0 }
 184:/Library/DaisyToolchain/0.2.0/arm/arm-none-eabi/include/c++/10.3.1/bits/atomic_base.h **** 
 185:/Library/DaisyToolchain/0.2.0/arm/arm-none-eabi/include/c++/10.3.1/bits/atomic_base.h ****   /// atomic_flag
 186:/Library/DaisyToolchain/0.2.0/arm/arm-none-eabi/include/c++/10.3.1/bits/atomic_base.h ****   struct atomic_flag : public __atomic_flag_base
 187:/Library/DaisyToolchain/0.2.0/arm/arm-none-eabi/include/c++/10.3.1/bits/atomic_base.h ****   {
 188:/Library/DaisyToolchain/0.2.0/arm/arm-none-eabi/include/c++/10.3.1/bits/atomic_base.h ****     atomic_flag() noexcept = default;
 189:/Library/DaisyToolchain/0.2.0/arm/arm-none-eabi/include/c++/10.3.1/bits/atomic_base.h ****     ~atomic_flag() noexcept = default;
 190:/Library/DaisyToolchain/0.2.0/arm/arm-none-eabi/include/c++/10.3.1/bits/atomic_base.h ****     atomic_flag(const atomic_flag&) = delete;
 191:/Library/DaisyToolchain/0.2.0/arm/arm-none-eabi/include/c++/10.3.1/bits/atomic_base.h ****     atomic_flag& operator=(const atomic_flag&) = delete;
ARM GAS  /var/folders/fb/yfxt3z4538j6z0vjt03w70vc0000gn/T//ccfrU3iz.s 			page 16


 192:/Library/DaisyToolchain/0.2.0/arm/arm-none-eabi/include/c++/10.3.1/bits/atomic_base.h ****     atomic_flag& operator=(const atomic_flag&) volatile = delete;
 193:/Library/DaisyToolchain/0.2.0/arm/arm-none-eabi/include/c++/10.3.1/bits/atomic_base.h **** 
 194:/Library/DaisyToolchain/0.2.0/arm/arm-none-eabi/include/c++/10.3.1/bits/atomic_base.h ****     // Conversion to ATOMIC_FLAG_INIT.
 195:/Library/DaisyToolchain/0.2.0/arm/arm-none-eabi/include/c++/10.3.1/bits/atomic_base.h ****     constexpr atomic_flag(bool __i) noexcept
 196:/Library/DaisyToolchain/0.2.0/arm/arm-none-eabi/include/c++/10.3.1/bits/atomic_base.h ****       : __atomic_flag_base{ _S_init(__i) }
 197:/Library/DaisyToolchain/0.2.0/arm/arm-none-eabi/include/c++/10.3.1/bits/atomic_base.h ****     { }
 198:/Library/DaisyToolchain/0.2.0/arm/arm-none-eabi/include/c++/10.3.1/bits/atomic_base.h **** 
 199:/Library/DaisyToolchain/0.2.0/arm/arm-none-eabi/include/c++/10.3.1/bits/atomic_base.h ****     _GLIBCXX_ALWAYS_INLINE bool
 200:/Library/DaisyToolchain/0.2.0/arm/arm-none-eabi/include/c++/10.3.1/bits/atomic_base.h ****     test_and_set(memory_order __m = memory_order_seq_cst) noexcept
 201:/Library/DaisyToolchain/0.2.0/arm/arm-none-eabi/include/c++/10.3.1/bits/atomic_base.h ****     {
 202:/Library/DaisyToolchain/0.2.0/arm/arm-none-eabi/include/c++/10.3.1/bits/atomic_base.h ****       return __atomic_test_and_set (&_M_i, int(__m));
 203:/Library/DaisyToolchain/0.2.0/arm/arm-none-eabi/include/c++/10.3.1/bits/atomic_base.h ****     }
 204:/Library/DaisyToolchain/0.2.0/arm/arm-none-eabi/include/c++/10.3.1/bits/atomic_base.h **** 
 205:/Library/DaisyToolchain/0.2.0/arm/arm-none-eabi/include/c++/10.3.1/bits/atomic_base.h ****     _GLIBCXX_ALWAYS_INLINE bool
 206:/Library/DaisyToolchain/0.2.0/arm/arm-none-eabi/include/c++/10.3.1/bits/atomic_base.h ****     test_and_set(memory_order __m = memory_order_seq_cst) volatile noexcept
 207:/Library/DaisyToolchain/0.2.0/arm/arm-none-eabi/include/c++/10.3.1/bits/atomic_base.h ****     {
 208:/Library/DaisyToolchain/0.2.0/arm/arm-none-eabi/include/c++/10.3.1/bits/atomic_base.h ****       return __atomic_test_and_set (&_M_i, int(__m));
 209:/Library/DaisyToolchain/0.2.0/arm/arm-none-eabi/include/c++/10.3.1/bits/atomic_base.h ****     }
 210:/Library/DaisyToolchain/0.2.0/arm/arm-none-eabi/include/c++/10.3.1/bits/atomic_base.h **** 
 211:/Library/DaisyToolchain/0.2.0/arm/arm-none-eabi/include/c++/10.3.1/bits/atomic_base.h ****     _GLIBCXX_ALWAYS_INLINE void
 212:/Library/DaisyToolchain/0.2.0/arm/arm-none-eabi/include/c++/10.3.1/bits/atomic_base.h ****     clear(memory_order __m = memory_order_seq_cst) noexcept
 213:/Library/DaisyToolchain/0.2.0/arm/arm-none-eabi/include/c++/10.3.1/bits/atomic_base.h ****     {
 214:/Library/DaisyToolchain/0.2.0/arm/arm-none-eabi/include/c++/10.3.1/bits/atomic_base.h ****       memory_order __b = __m & __memory_order_mask;
 215:/Library/DaisyToolchain/0.2.0/arm/arm-none-eabi/include/c++/10.3.1/bits/atomic_base.h ****       __glibcxx_assert(__b != memory_order_consume);
 216:/Library/DaisyToolchain/0.2.0/arm/arm-none-eabi/include/c++/10.3.1/bits/atomic_base.h ****       __glibcxx_assert(__b != memory_order_acquire);
 217:/Library/DaisyToolchain/0.2.0/arm/arm-none-eabi/include/c++/10.3.1/bits/atomic_base.h ****       __glibcxx_assert(__b != memory_order_acq_rel);
 218:/Library/DaisyToolchain/0.2.0/arm/arm-none-eabi/include/c++/10.3.1/bits/atomic_base.h **** 
 219:/Library/DaisyToolchain/0.2.0/arm/arm-none-eabi/include/c++/10.3.1/bits/atomic_base.h ****       __atomic_clear (&_M_i, int(__m));
 395              		.loc 4 219 22 is_stmt 0 view .LVU68
 396 0000 0023     		movs	r3, #0
 397 0002 BFF35B8F 		dmb	ish
 398              	.LVL24:
 399              		.loc 4 219 22 view .LVU69
 400              	.LBE96:
 401              	.LBI95:
 212:/Library/DaisyToolchain/0.2.0/arm/arm-none-eabi/include/c++/10.3.1/bits/atomic_base.h ****     {
 402              		.loc 4 212 5 is_stmt 1 view .LVU70
 403              	.LBB97:
 214:/Library/DaisyToolchain/0.2.0/arm/arm-none-eabi/include/c++/10.3.1/bits/atomic_base.h ****       __glibcxx_assert(__b != memory_order_consume);
 404              		.loc 4 214 7 view .LVU71
 215:/Library/DaisyToolchain/0.2.0/arm/arm-none-eabi/include/c++/10.3.1/bits/atomic_base.h ****       __glibcxx_assert(__b != memory_order_acquire);
 405              		.loc 4 215 52 view .LVU72
 216:/Library/DaisyToolchain/0.2.0/arm/arm-none-eabi/include/c++/10.3.1/bits/atomic_base.h ****       __glibcxx_assert(__b != memory_order_acq_rel);
 406              		.loc 4 216 52 view .LVU73
 217:/Library/DaisyToolchain/0.2.0/arm/arm-none-eabi/include/c++/10.3.1/bits/atomic_base.h **** 
 407              		.loc 4 217 52 view .LVU74
 408              		.loc 4 219 7 view .LVU75
 409              		.loc 4 219 22 is_stmt 0 view .LVU76
 410 0006 80F88430 		strb	r3, [r0, #132]
 411              	.LVL25:
 412              		.loc 4 219 22 view .LVU77
 413              	.LBE97:
 414              	.LBE95:
 182:source/HeavyContext.cpp **** }
 415              		.loc 2 182 1 view .LVU78
 416 000a 7047     		bx	lr
 417              		.cfi_endproc
ARM GAS  /var/folders/fb/yfxt3z4538j6z0vjt03w70vc0000gn/T//ccfrU3iz.s 			page 17


 418              	.LFE1002:
 420              		.section	.text._ZN12HeavyContext18sendBangToReceiverEm,"ax",%progbits
 421              		.align	1
 422              		.p2align 2,,3
 423              		.global	_ZN12HeavyContext18sendBangToReceiverEm
 424              		.syntax unified
 425              		.thumb
 426              		.thumb_func
 428              	_ZN12HeavyContext18sendBangToReceiverEm:
 429              	.LVL26:
 430              	.LFB990:
  68:source/HeavyContext.cpp ****   HvMessage *m = HV_MESSAGE_ON_STACK(1);
 431              		.loc 2 68 65 is_stmt 1 view -0
 432              		.cfi_startproc
 433              		@ args = 0, pretend = 0, frame = 8
 434              		@ frame_needed = 1, uses_anonymous_args = 0
  69:source/HeavyContext.cpp ****   msg_initWithBang(m, 0);
 435              		.loc 2 69 3 view .LVU80
 436              		.file 5 "source/HvMessage.h"
   1:source/HvMessage.h **** /**
   2:source/HvMessage.h ****  * Copyright (c) 2014-2018 Enzien Audio Ltd.
   3:source/HvMessage.h ****  *
   4:source/HvMessage.h ****  * Permission to use, copy, modify, and/or distribute this software for any
   5:source/HvMessage.h ****  * purpose with or without fee is hereby granted, provided that the above
   6:source/HvMessage.h ****  * copyright notice and this permission notice appear in all copies.
   7:source/HvMessage.h ****  *
   8:source/HvMessage.h ****  * THE SOFTWARE IS PROVIDED "AS IS" AND THE AUTHOR DISCLAIMS ALL WARRANTIES WITH
   9:source/HvMessage.h ****  * REGARD TO THIS SOFTWARE INCLUDING ALL IMPLIED WARRANTIES OF MERCHANTABILITY
  10:source/HvMessage.h ****  * AND FITNESS. IN NO EVENT SHALL THE AUTHOR BE LIABLE FOR ANY SPECIAL, DIRECT,
  11:source/HvMessage.h ****  * INDIRECT, OR CONSEQUENTIAL DAMAGES OR ANY DAMAGES WHATSOEVER RESULTING FROM
  12:source/HvMessage.h ****  * LOSS OF USE, DATA OR PROFITS, WHETHER IN AN ACTION OF CONTRACT, NEGLIGENCE OR
  13:source/HvMessage.h ****  * OTHER TORTIOUS ACTION, ARISING OUT OF OR IN CONNECTION WITH THE USE OR
  14:source/HvMessage.h ****  * PERFORMANCE OF THIS SOFTWARE.
  15:source/HvMessage.h ****  */
  16:source/HvMessage.h **** 
  17:source/HvMessage.h **** #ifndef _HEAVY_MESSAGE_H_
  18:source/HvMessage.h **** #define _HEAVY_MESSAGE_H_
  19:source/HvMessage.h **** 
  20:source/HvMessage.h **** #include "HvUtils.h"
  21:source/HvMessage.h **** 
  22:source/HvMessage.h **** #ifdef __cplusplus
  23:source/HvMessage.h **** extern "C" {
  24:source/HvMessage.h **** #endif
  25:source/HvMessage.h **** 
  26:source/HvMessage.h **** typedef enum ElementType {
  27:source/HvMessage.h ****   HV_MSG_BANG = 0,
  28:source/HvMessage.h ****   HV_MSG_FLOAT = 1,
  29:source/HvMessage.h ****   HV_MSG_SYMBOL = 2,
  30:source/HvMessage.h ****   HV_MSG_HASH = 3
  31:source/HvMessage.h **** } ElementType;
  32:source/HvMessage.h **** 
  33:source/HvMessage.h **** typedef struct Element {
  34:source/HvMessage.h ****   ElementType type;
  35:source/HvMessage.h ****   union {
  36:source/HvMessage.h ****     float f; // float
  37:source/HvMessage.h ****     const char *s; // symbol
  38:source/HvMessage.h ****     hv_uint32_t h; // hash
ARM GAS  /var/folders/fb/yfxt3z4538j6z0vjt03w70vc0000gn/T//ccfrU3iz.s 			page 18


  39:source/HvMessage.h ****   } data;
  40:source/HvMessage.h **** } Element;
  41:source/HvMessage.h **** 
  42:source/HvMessage.h **** typedef struct HvMessage {
  43:source/HvMessage.h ****   hv_uint32_t timestamp; // the sample at which this message should be processed
  44:source/HvMessage.h ****   hv_uint16_t numElements;
  45:source/HvMessage.h ****   hv_uint16_t numBytes; // the total number of bytes that this message occupies in memory, includin
  46:source/HvMessage.h ****   Element elem;
  47:source/HvMessage.h **** } HvMessage;
  48:source/HvMessage.h **** 
  49:source/HvMessage.h **** typedef struct ReceiverMessagePair {
  50:source/HvMessage.h ****   hv_uint32_t receiverHash;
  51:source/HvMessage.h ****   HvMessage msg;
  52:source/HvMessage.h **** } ReceiverMessagePair;
  53:source/HvMessage.h **** 
  54:source/HvMessage.h **** #define HV_MESSAGE_ON_STACK(_x) (HvMessage *) hv_alloca(msg_getCoreSize(_x))
  55:source/HvMessage.h **** 
  56:source/HvMessage.h **** /** Returns the number of bytes that this message consumes in memory, not including strings. */
  57:source/HvMessage.h **** static inline hv_size_t msg_getCoreSize(hv_size_t numElements) {
  58:source/HvMessage.h ****   hv_assert(numElements > 0);
 437              		.loc 5 58 3 view .LVU81
  59:source/HvMessage.h ****   return sizeof(HvMessage) + ((numElements-1) * sizeof(Element));
 438              		.loc 5 59 3 view .LVU82
  68:source/HeavyContext.cpp ****   HvMessage *m = HV_MESSAGE_ON_STACK(1);
 439              		.loc 2 68 65 is_stmt 0 view .LVU83
 440 0000 B0B5     		push	{r4, r5, r7, lr}
 441              		.cfi_def_cfa_offset 16
 442              		.cfi_offset 4, -16
 443              		.cfi_offset 5, -12
 444              		.cfi_offset 7, -8
 445              		.cfi_offset 14, -4
 446 0002 82B0     		sub	sp, sp, #8
 447              		.cfi_def_cfa_offset 24
 448 0004 0446     		mov	r4, r0
 449 0006 0D46     		mov	r5, r1
  70:source/HeavyContext.cpp ****   bool success = sendMessageToReceiver(receiverHash, 0.0, m);
 450              		.loc 2 70 19 view .LVU84
 451 0008 0021     		movs	r1, #0
 452              	.LVL27:
  68:source/HeavyContext.cpp ****   HvMessage *m = HV_MESSAGE_ON_STACK(1);
 453              		.loc 2 68 65 view .LVU85
 454 000a 00AF     		add	r7, sp, #0
 455              		.cfi_def_cfa_register 7
  69:source/HeavyContext.cpp ****   msg_initWithBang(m, 0);
 456              		.loc 2 69 18 view .LVU86
 457 000c 84B0     		sub	sp, sp, #16
 458 000e 6A46     		mov	r2, sp
 459              	.LVL28:
  70:source/HeavyContext.cpp ****   bool success = sendMessageToReceiver(receiverHash, 0.0, m);
 460              		.loc 2 70 3 is_stmt 1 view .LVU87
  70:source/HeavyContext.cpp ****   bool success = sendMessageToReceiver(receiverHash, 0.0, m);
 461              		.loc 2 70 19 is_stmt 0 view .LVU88
 462 0010 1046     		mov	r0, r2
 463              	.LVL29:
  70:source/HeavyContext.cpp ****   bool success = sendMessageToReceiver(receiverHash, 0.0, m);
 464              		.loc 2 70 19 view .LVU89
 465 0012 7A60     		str	r2, [r7, #4]
ARM GAS  /var/folders/fb/yfxt3z4538j6z0vjt03w70vc0000gn/T//ccfrU3iz.s 			page 19


 466 0014 FFF7FEFF 		bl	msg_initWithBang
 467              	.LVL30:
  71:source/HeavyContext.cpp ****   return success;
 468              		.loc 2 71 3 is_stmt 1 view .LVU90
  71:source/HeavyContext.cpp ****   return success;
 469              		.loc 2 71 60 is_stmt 0 view .LVU91
 470 0018 2368     		ldr	r3, [r4]
  71:source/HeavyContext.cpp ****   return success;
 471              		.loc 2 71 39 view .LVU92
 472 001a 7A68     		ldr	r2, [r7, #4]
 473 001c 2946     		mov	r1, r5
 474 001e DB6C     		ldr	r3, [r3, #76]
 475 0020 2046     		mov	r0, r4
 476 0022 9FED030B 		vldr.64	d0, .L27
 477 0026 9847     		blx	r3
 478              	.LVL31:
  72:source/HeavyContext.cpp **** }
 479              		.loc 2 72 3 is_stmt 1 view .LVU93
  73:source/HeavyContext.cpp **** 
 480              		.loc 2 73 1 is_stmt 0 view .LVU94
 481 0028 0837     		adds	r7, r7, #8
 482              		.cfi_def_cfa_offset 16
 483 002a BD46     		mov	sp, r7
 484              		.cfi_def_cfa_register 13
 485              	.LVL32:
  73:source/HeavyContext.cpp **** 
 486              		.loc 2 73 1 view .LVU95
 487              		@ sp needed
 488 002c B0BD     		pop	{r4, r5, r7, pc}
 489              	.LVL33:
 490              	.L28:
  73:source/HeavyContext.cpp **** 
 491              		.loc 2 73 1 view .LVU96
 492 002e 00BF     		.align	3
 493              	.L27:
 494 0030 00000000 		.word	0
 495 0034 00000000 		.word	0
 496              		.cfi_endproc
 497              	.LFE990:
 499              		.section	.text._ZN12HeavyContext19sendFloatToReceiverEmf,"ax",%progbits
 500              		.align	1
 501              		.p2align 2,,3
 502              		.global	_ZN12HeavyContext19sendFloatToReceiverEmf
 503              		.syntax unified
 504              		.thumb
 505              		.thumb_func
 507              	_ZN12HeavyContext19sendFloatToReceiverEmf:
 508              	.LVL34:
 509              	.LFB991:
  75:source/HeavyContext.cpp ****   HvMessage *m = HV_MESSAGE_ON_STACK(1);
 510              		.loc 2 75 75 is_stmt 1 view -0
 511              		.cfi_startproc
 512              		@ args = 0, pretend = 0, frame = 8
 513              		@ frame_needed = 1, uses_anonymous_args = 0
  76:source/HeavyContext.cpp ****   msg_initWithFloat(m, 0, f);
 514              		.loc 2 76 3 view .LVU98
  58:source/HvMessage.h ****   return sizeof(HvMessage) + ((numElements-1) * sizeof(Element));
ARM GAS  /var/folders/fb/yfxt3z4538j6z0vjt03w70vc0000gn/T//ccfrU3iz.s 			page 20


 515              		.loc 5 58 3 view .LVU99
 516              		.loc 5 59 3 view .LVU100
  75:source/HeavyContext.cpp ****   HvMessage *m = HV_MESSAGE_ON_STACK(1);
 517              		.loc 2 75 75 is_stmt 0 view .LVU101
 518 0000 B0B5     		push	{r4, r5, r7, lr}
 519              		.cfi_def_cfa_offset 16
 520              		.cfi_offset 4, -16
 521              		.cfi_offset 5, -12
 522              		.cfi_offset 7, -8
 523              		.cfi_offset 14, -4
 524 0002 82B0     		sub	sp, sp, #8
 525              		.cfi_def_cfa_offset 24
 526 0004 0446     		mov	r4, r0
 527 0006 0D46     		mov	r5, r1
  77:source/HeavyContext.cpp ****   bool success = sendMessageToReceiver(receiverHash, 0.0, m);
 528              		.loc 2 77 20 view .LVU102
 529 0008 0021     		movs	r1, #0
 530              	.LVL35:
  75:source/HeavyContext.cpp ****   HvMessage *m = HV_MESSAGE_ON_STACK(1);
 531              		.loc 2 75 75 view .LVU103
 532 000a 00AF     		add	r7, sp, #0
 533              		.cfi_def_cfa_register 7
  76:source/HeavyContext.cpp ****   msg_initWithFloat(m, 0, f);
 534              		.loc 2 76 18 view .LVU104
 535 000c 84B0     		sub	sp, sp, #16
 536 000e 6A46     		mov	r2, sp
 537              	.LVL36:
  77:source/HeavyContext.cpp ****   bool success = sendMessageToReceiver(receiverHash, 0.0, m);
 538              		.loc 2 77 3 is_stmt 1 view .LVU105
  77:source/HeavyContext.cpp ****   bool success = sendMessageToReceiver(receiverHash, 0.0, m);
 539              		.loc 2 77 20 is_stmt 0 view .LVU106
 540 0010 1046     		mov	r0, r2
 541              	.LVL37:
  77:source/HeavyContext.cpp ****   bool success = sendMessageToReceiver(receiverHash, 0.0, m);
 542              		.loc 2 77 20 view .LVU107
 543 0012 7A60     		str	r2, [r7, #4]
 544 0014 FFF7FEFF 		bl	msg_initWithFloat
 545              	.LVL38:
  78:source/HeavyContext.cpp ****   return success;
 546              		.loc 2 78 3 is_stmt 1 view .LVU108
  78:source/HeavyContext.cpp ****   return success;
 547              		.loc 2 78 60 is_stmt 0 view .LVU109
 548 0018 2368     		ldr	r3, [r4]
  78:source/HeavyContext.cpp ****   return success;
 549              		.loc 2 78 39 view .LVU110
 550 001a 7A68     		ldr	r2, [r7, #4]
 551 001c 2946     		mov	r1, r5
 552 001e DB6C     		ldr	r3, [r3, #76]
 553 0020 2046     		mov	r0, r4
 554 0022 9FED030B 		vldr.64	d0, .L31
 555 0026 9847     		blx	r3
 556              	.LVL39:
  79:source/HeavyContext.cpp **** }
 557              		.loc 2 79 3 is_stmt 1 view .LVU111
  80:source/HeavyContext.cpp **** 
 558              		.loc 2 80 1 is_stmt 0 view .LVU112
 559 0028 0837     		adds	r7, r7, #8
ARM GAS  /var/folders/fb/yfxt3z4538j6z0vjt03w70vc0000gn/T//ccfrU3iz.s 			page 21


 560              		.cfi_def_cfa_offset 16
 561 002a BD46     		mov	sp, r7
 562              		.cfi_def_cfa_register 13
 563              	.LVL40:
  80:source/HeavyContext.cpp **** 
 564              		.loc 2 80 1 view .LVU113
 565              		@ sp needed
 566 002c B0BD     		pop	{r4, r5, r7, pc}
 567              	.LVL41:
 568              	.L32:
  80:source/HeavyContext.cpp **** 
 569              		.loc 2 80 1 view .LVU114
 570 002e 00BF     		.align	3
 571              	.L31:
 572 0030 00000000 		.word	0
 573 0034 00000000 		.word	0
 574              		.cfi_endproc
 575              	.LFE991:
 577              		.section	.rodata._ZN12HeavyContext20sendSymbolToReceiverEmPKc.str1.4,"aMS",%progbits,1
 578              		.align	2
 579              	.LC0:
 580 0000 7320213D 		.ascii	"s != nullptr\000"
 580      206E756C 
 580      6C707472 
 580      00
 581 000d 000000   		.align	2
 582              	.LC1:
 583 0010 76697274 		.ascii	"virtual bool HeavyContext::sendSymbolToReceiver(uin"
 583      75616C20 
 583      626F6F6C 
 583      20486561 
 583      7679436F 
 584 0043 7433325F 		.ascii	"t32_t, const char*)\000"
 584      742C2063 
 584      6F6E7374 
 584      20636861 
 584      722A2900 
 585 0057 00       		.align	2
 586              	.LC2:
 587 0058 736F7572 		.ascii	"source/HeavyContext.cpp\000"
 587      63652F48 
 587      65617679 
 587      436F6E74 
 587      6578742E 
 588              		.section	.text._ZN12HeavyContext20sendSymbolToReceiverEmPKc,"ax",%progbits
 589              		.align	1
 590              		.p2align 2,,3
 591              		.global	_ZN12HeavyContext20sendSymbolToReceiverEmPKc
 592              		.syntax unified
 593              		.thumb
 594              		.thumb_func
 596              	_ZN12HeavyContext20sendSymbolToReceiverEmPKc:
 597              	.LVL42:
 598              	.LFB992:
  82:source/HeavyContext.cpp ****   hv_assert(s != nullptr);
 599              		.loc 2 82 82 is_stmt 1 view -0
 600              		.cfi_startproc
ARM GAS  /var/folders/fb/yfxt3z4538j6z0vjt03w70vc0000gn/T//ccfrU3iz.s 			page 22


 601              		@ args = 0, pretend = 0, frame = 0
 602              		@ frame_needed = 1, uses_anonymous_args = 0
  83:source/HeavyContext.cpp ****   HvMessage *m = HV_MESSAGE_ON_STACK(1);
 603              		.loc 2 83 3 view .LVU116
  82:source/HeavyContext.cpp ****   hv_assert(s != nullptr);
 604              		.loc 2 82 82 is_stmt 0 view .LVU117
 605 0000 F8B5     		push	{r3, r4, r5, r6, r7, lr}
 606              		.cfi_def_cfa_offset 24
 607              		.cfi_offset 3, -24
 608              		.cfi_offset 4, -20
 609              		.cfi_offset 5, -16
 610              		.cfi_offset 6, -12
 611              		.cfi_offset 7, -8
 612              		.cfi_offset 14, -4
 613 0002 00AF     		add	r7, sp, #0
 614              		.cfi_def_cfa_register 7
  83:source/HeavyContext.cpp ****   HvMessage *m = HV_MESSAGE_ON_STACK(1);
 615              		.loc 2 83 3 view .LVU118
 616 0004 8AB1     		cbz	r2, .L36
  84:source/HeavyContext.cpp ****   msg_initWithSymbol(m, 0, (char *) s);
 617              		.loc 2 84 3 is_stmt 1 view .LVU119
 618              	.LVL43:
  58:source/HvMessage.h ****   return sizeof(HvMessage) + ((numElements-1) * sizeof(Element));
 619              		.loc 5 58 3 view .LVU120
 620              		.loc 5 59 3 view .LVU121
  84:source/HeavyContext.cpp ****   msg_initWithSymbol(m, 0, (char *) s);
 621              		.loc 2 84 18 is_stmt 0 view .LVU122
 622 0006 84B0     		sub	sp, sp, #16
 623 0008 0446     		mov	r4, r0
 624 000a 0D46     		mov	r5, r1
  85:source/HeavyContext.cpp ****   bool success = sendMessageToReceiver(receiverHash, 0.0, m);
 625              		.loc 2 85 21 view .LVU123
 626 000c 0021     		movs	r1, #0
 627              	.LVL44:
  84:source/HeavyContext.cpp ****   msg_initWithSymbol(m, 0, (char *) s);
 628              		.loc 2 84 18 view .LVU124
 629 000e 6E46     		mov	r6, sp
 630              	.LVL45:
  85:source/HeavyContext.cpp ****   bool success = sendMessageToReceiver(receiverHash, 0.0, m);
 631              		.loc 2 85 3 is_stmt 1 view .LVU125
  85:source/HeavyContext.cpp ****   bool success = sendMessageToReceiver(receiverHash, 0.0, m);
 632              		.loc 2 85 21 is_stmt 0 view .LVU126
 633 0010 3046     		mov	r0, r6
 634              	.LVL46:
  85:source/HeavyContext.cpp ****   bool success = sendMessageToReceiver(receiverHash, 0.0, m);
 635              		.loc 2 85 21 view .LVU127
 636 0012 FFF7FEFF 		bl	msg_initWithSymbol
 637              	.LVL47:
  86:source/HeavyContext.cpp ****   return success;
 638              		.loc 2 86 3 is_stmt 1 view .LVU128
  86:source/HeavyContext.cpp ****   return success;
 639              		.loc 2 86 60 is_stmt 0 view .LVU129
 640 0016 2368     		ldr	r3, [r4]
  86:source/HeavyContext.cpp ****   return success;
 641              		.loc 2 86 39 view .LVU130
 642 0018 3246     		mov	r2, r6
 643 001a 2946     		mov	r1, r5
ARM GAS  /var/folders/fb/yfxt3z4538j6z0vjt03w70vc0000gn/T//ccfrU3iz.s 			page 23


 644 001c DB6C     		ldr	r3, [r3, #76]
 645 001e 2046     		mov	r0, r4
 646 0020 9FED050B 		vldr.64	d0, .L37
 647 0024 9847     		blx	r3
 648              	.LVL48:
  87:source/HeavyContext.cpp **** }
 649              		.loc 2 87 3 is_stmt 1 view .LVU131
  88:source/HeavyContext.cpp **** 
 650              		.loc 2 88 1 is_stmt 0 view .LVU132
 651 0026 BD46     		mov	sp, r7
 652              		.cfi_remember_state
 653              		.cfi_def_cfa_register 13
 654              		@ sp needed
 655 0028 F8BD     		pop	{r3, r4, r5, r6, r7, pc}
 656              	.LVL49:
 657              	.L36:
 658              		.cfi_restore_state
  83:source/HeavyContext.cpp ****   HvMessage *m = HV_MESSAGE_ON_STACK(1);
 659              		.loc 2 83 3 discriminator 1 view .LVU133
 660 002a 054B     		ldr	r3, .L37+8
 661 002c 5321     		movs	r1, #83
 662              	.LVL50:
  83:source/HeavyContext.cpp ****   HvMessage *m = HV_MESSAGE_ON_STACK(1);
 663              		.loc 2 83 3 discriminator 1 view .LVU134
 664 002e 054A     		ldr	r2, .L37+12
 665              	.LVL51:
  83:source/HeavyContext.cpp ****   HvMessage *m = HV_MESSAGE_ON_STACK(1);
 666              		.loc 2 83 3 discriminator 1 view .LVU135
 667 0030 0548     		ldr	r0, .L37+16
 668              	.LVL52:
  83:source/HeavyContext.cpp ****   HvMessage *m = HV_MESSAGE_ON_STACK(1);
 669              		.loc 2 83 3 discriminator 1 view .LVU136
 670 0032 FFF7FEFF 		bl	__assert_func
 671              	.LVL53:
 672              	.L38:
 673 0036 00BF     		.align	3
 674              	.L37:
 675 0038 00000000 		.word	0
 676 003c 00000000 		.word	0
 677 0040 00000000 		.word	.LC0
 678 0044 10000000 		.word	.LC1
 679 0048 58000000 		.word	.LC2
 680              		.cfi_endproc
 681              	.LFE992:
 683              		.section	.text._ZN12HeavyContext11lockAcquireEv,"ax",%progbits
 684              		.align	1
 685              		.p2align 2,,3
 686              		.global	_ZN12HeavyContext11lockAcquireEv
 687              		.syntax unified
 688              		.thumb
 689              		.thumb_func
 691              	_ZN12HeavyContext11lockAcquireEv:
 692              	.LVL54:
 693              	.LFB1000:
 172:source/HeavyContext.cpp ****   HV_SPINLOCK_ACQUIRE(inQueueLock);
 694              		.loc 2 172 34 is_stmt 1 view -0
 695              		.cfi_startproc
ARM GAS  /var/folders/fb/yfxt3z4538j6z0vjt03w70vc0000gn/T//ccfrU3iz.s 			page 24


 696              		@ args = 0, pretend = 0, frame = 0
 697              		@ frame_needed = 0, uses_anonymous_args = 0
 698              		@ link register save eliminated.
 699              	.LBB98:
 700              	.LBB99:
 202:/Library/DaisyToolchain/0.2.0/arm/arm-none-eabi/include/c++/10.3.1/bits/atomic_base.h ****     }
 701              		.loc 4 202 37 is_stmt 0 view .LVU138
 702 0000 8430     		adds	r0, r0, #132
 703              	.LVL55:
 704              	.L40:
 202:/Library/DaisyToolchain/0.2.0/arm/arm-none-eabi/include/c++/10.3.1/bits/atomic_base.h ****     }
 705              		.loc 4 202 37 view .LVU139
 706              	.LBE99:
 707              	.LBE98:
 173:source/HeavyContext.cpp **** }
 708              		.loc 2 173 3 is_stmt 1 view .LVU140
 173:source/HeavyContext.cpp **** }
 709              		.loc 2 173 3 view .LVU141
 710              	.LBB101:
 711              	.LBI98:
 200:/Library/DaisyToolchain/0.2.0/arm/arm-none-eabi/include/c++/10.3.1/bits/atomic_base.h ****     {
 712              		.loc 4 200 5 view .LVU142
 713              	.LBB100:
 202:/Library/DaisyToolchain/0.2.0/arm/arm-none-eabi/include/c++/10.3.1/bits/atomic_base.h ****     }
 714              		.loc 4 202 7 view .LVU143
 202:/Library/DaisyToolchain/0.2.0/arm/arm-none-eabi/include/c++/10.3.1/bits/atomic_base.h ****     }
 715              		.loc 4 202 36 is_stmt 0 view .LVU144
 716 0002 4FF00102 		mov	r2, #1
 717              	.L42:
 718 0006 D0E84F3F 		ldrexb	r3, [r0]
 719 000a C0E8412F 		strexb	r1, r2, [r0]
 720 000e 0029     		cmp	r1, #0
 721 0010 F9D1     		bne	.L42
 722 0012 DBB2     		uxtb	r3, r3
 723              	.LVL56:
 202:/Library/DaisyToolchain/0.2.0/arm/arm-none-eabi/include/c++/10.3.1/bits/atomic_base.h ****     }
 724              		.loc 4 202 36 view .LVU145
 725 0014 BFF35B8F 		dmb	ish
 726              	.LBE100:
 727              	.LBE101:
 173:source/HeavyContext.cpp **** }
 728              		.loc 2 173 3 view .LVU146
 729 0018 002B     		cmp	r3, #0
 730 001a F2D1     		bne	.L40
 174:source/HeavyContext.cpp **** 
 731              		.loc 2 174 1 view .LVU147
 732 001c 7047     		bx	lr
 733              		.cfi_endproc
 734              	.LFE1000:
 736 001e 00BF     		.section	.text._ZN12HeavyContext7lockTryEv,"ax",%progbits
 737              		.align	1
 738              		.p2align 2,,3
 739              		.global	_ZN12HeavyContext7lockTryEv
 740              		.syntax unified
 741              		.thumb
 742              		.thumb_func
 744              	_ZN12HeavyContext7lockTryEv:
ARM GAS  /var/folders/fb/yfxt3z4538j6z0vjt03w70vc0000gn/T//ccfrU3iz.s 			page 25


 745              	.LVL57:
 746              	.LFB1001:
 176:source/HeavyContext.cpp ****   HV_SPINLOCK_TRY(inQueueLock);
 747              		.loc 2 176 30 is_stmt 1 view -0
 748              		.cfi_startproc
 749              		@ args = 0, pretend = 0, frame = 0
 750              		@ frame_needed = 0, uses_anonymous_args = 0
 751              		@ link register save eliminated.
 177:source/HeavyContext.cpp **** }
 752              		.loc 2 177 3 view .LVU149
 753              	.LBB102:
 754              	.LBI102:
 200:/Library/DaisyToolchain/0.2.0/arm/arm-none-eabi/include/c++/10.3.1/bits/atomic_base.h ****     {
 755              		.loc 4 200 5 view .LVU150
 756              	.LBB103:
 202:/Library/DaisyToolchain/0.2.0/arm/arm-none-eabi/include/c++/10.3.1/bits/atomic_base.h ****     }
 757              		.loc 4 202 7 view .LVU151
 202:/Library/DaisyToolchain/0.2.0/arm/arm-none-eabi/include/c++/10.3.1/bits/atomic_base.h ****     }
 758              		.loc 4 202 36 is_stmt 0 view .LVU152
 759 0000 4FF00102 		mov	r2, #1
 760 0004 8430     		adds	r0, r0, #132
 761              	.LVL58:
 762              	.L44:
 202:/Library/DaisyToolchain/0.2.0/arm/arm-none-eabi/include/c++/10.3.1/bits/atomic_base.h ****     }
 763              		.loc 4 202 36 view .LVU153
 764 0006 D0E84F3F 		ldrexb	r3, [r0]
 765 000a C0E8412F 		strexb	r1, r2, [r0]
 766 000e 0029     		cmp	r1, #0
 767 0010 F9D1     		bne	.L44
 768 0012 D8B2     		uxtb	r0, r3
 769              	.LVL59:
 202:/Library/DaisyToolchain/0.2.0/arm/arm-none-eabi/include/c++/10.3.1/bits/atomic_base.h ****     }
 770              		.loc 4 202 36 view .LVU154
 771 0014 BFF35B8F 		dmb	ish
 772              	.LBE103:
 773              	.LBE102:
 178:source/HeavyContext.cpp **** 
 774              		.loc 2 178 1 view .LVU155
 775 0018 80F00100 		eor	r0, r0, #1
 776 001c 7047     		bx	lr
 777              		.cfi_endproc
 778              	.LFE1001:
 780 001e 00BF     		.section	.text._ZN12HeavyContext13cancelMessageEP9HvMessagePFvP21HeavyContextInterfaceiPKS0_E,"ax"
 781              		.align	1
 782              		.p2align 2,,3
 783              		.global	_ZN12HeavyContext13cancelMessageEP9HvMessagePFvP21HeavyContextInterfaceiPKS0_E
 784              		.syntax unified
 785              		.thumb
 786              		.thumb_func
 788              	_ZN12HeavyContext13cancelMessageEP9HvMessagePFvP21HeavyContextInterfaceiPKS0_E:
 789              	.LVL60:
 790              	.LFB995:
 139:source/HeavyContext.cpp ****   return mq_removeMessage(&mq, m, sendMessage);
 791              		.loc 2 139 118 is_stmt 1 view -0
 792              		.cfi_startproc
 793              		@ args = 0, pretend = 0, frame = 0
 794              		@ frame_needed = 0, uses_anonymous_args = 0
ARM GAS  /var/folders/fb/yfxt3z4538j6z0vjt03w70vc0000gn/T//ccfrU3iz.s 			page 26


 795              		@ link register save eliminated.
 140:source/HeavyContext.cpp **** }
 796              		.loc 2 140 3 view .LVU157
 140:source/HeavyContext.cpp **** }
 797              		.loc 2 140 26 is_stmt 0 view .LVU158
 798 0000 1830     		adds	r0, r0, #24
 799              	.LVL61:
 140:source/HeavyContext.cpp **** }
 800              		.loc 2 140 26 view .LVU159
 801 0002 FFF7FEBF 		b	mq_removeMessage
 802              	.LVL62:
 140:source/HeavyContext.cpp **** }
 803              		.loc 2 140 26 view .LVU160
 804              		.cfi_endproc
 805              	.LFE995:
 807 0006 00BF     		.section	.text._ZN12HeavyContext17setLengthForTableEmm,"ax",%progbits
 808              		.align	1
 809              		.p2align 2,,3
 810              		.global	_ZN12HeavyContext17setLengthForTableEmm
 811              		.syntax unified
 812              		.thumb
 813              		.thumb_func
 815              	_ZN12HeavyContext17setLengthForTableEmm:
 816              	.LVL63:
 817              	.LFB999:
 164:source/HeavyContext.cpp ****   HvTable *t = getTableForHash(tableHash);
 818              		.loc 2 164 90 is_stmt 1 view -0
 819              		.cfi_startproc
 820              		@ args = 0, pretend = 0, frame = 0
 821              		@ frame_needed = 0, uses_anonymous_args = 0
 165:source/HeavyContext.cpp ****   if (t != nullptr) {
 822              		.loc 2 165 3 view .LVU162
 165:source/HeavyContext.cpp ****   if (t != nullptr) {
 823              		.loc 2 165 41 is_stmt 0 view .LVU163
 824 0000 0368     		ldr	r3, [r0]
 164:source/HeavyContext.cpp ****   HvTable *t = getTableForHash(tableHash);
 825              		.loc 2 164 90 view .LVU164
 826 0002 10B5     		push	{r4, lr}
 827              		.cfi_def_cfa_offset 8
 828              		.cfi_offset 4, -8
 829              		.cfi_offset 14, -4
 165:source/HeavyContext.cpp ****   if (t != nullptr) {
 830              		.loc 2 165 31 view .LVU165
 831 0004 D3F88C30 		ldr	r3, [r3, #140]
 164:source/HeavyContext.cpp ****   HvTable *t = getTableForHash(tableHash);
 832              		.loc 2 164 90 view .LVU166
 833 0008 1446     		mov	r4, r2
 165:source/HeavyContext.cpp ****   if (t != nullptr) {
 834              		.loc 2 165 31 view .LVU167
 835 000a 9847     		blx	r3
 836              	.LVL64:
 166:source/HeavyContext.cpp ****     hTable_resize(t, newSampleLength);
 837              		.loc 2 166 3 is_stmt 1 view .LVU168
 838 000c 18B1     		cbz	r0, .L47
 167:source/HeavyContext.cpp ****     return true;
 839              		.loc 2 167 5 view .LVU169
 167:source/HeavyContext.cpp ****     return true;
ARM GAS  /var/folders/fb/yfxt3z4538j6z0vjt03w70vc0000gn/T//ccfrU3iz.s 			page 27


 840              		.loc 2 167 18 is_stmt 0 view .LVU170
 841 000e 2146     		mov	r1, r4
 842 0010 FFF7FEFF 		bl	hTable_resize
 843              	.LVL65:
 168:source/HeavyContext.cpp ****   } else return false;
 844              		.loc 2 168 5 is_stmt 1 view .LVU171
 168:source/HeavyContext.cpp ****   } else return false;
 845              		.loc 2 168 12 is_stmt 0 view .LVU172
 846 0014 0120     		movs	r0, #1
 847              	.L47:
 170:source/HeavyContext.cpp **** 
 848              		.loc 2 170 1 view .LVU173
 849 0016 10BD     		pop	{r4, pc}
 170:source/HeavyContext.cpp **** 
 850              		.loc 2 170 1 view .LVU174
 851              		.cfi_endproc
 852              	.LFE999:
 854              		.section	.text._ZN12HeavyContext21millisecondsToSamplesEf,"axG",%progbits,_ZN12HeavyContext21milli
 855              		.align	1
 856              		.p2align 2,,3
 857              		.weak	_ZN12HeavyContext21millisecondsToSamplesEf
 858              		.syntax unified
 859              		.thumb
 860              		.thumb_func
 862              	_ZN12HeavyContext21millisecondsToSamplesEf:
 863              	.LVL66:
 864              	.LFB969:
  39:source/HeavyContext.hpp **** 
 865              		.loc 1 39 15 is_stmt 1 view -0
 866              		.cfi_startproc
 867              		@ args = 0, pretend = 0, frame = 0
 868              		@ frame_needed = 0, uses_anonymous_args = 0
 869              		@ link register save eliminated.
  39:source/HeavyContext.hpp **** 
 870              		.loc 1 39 58 view .LVU176
  39:source/HeavyContext.hpp **** 
 871              		.loc 1 39 80 is_stmt 0 view .LVU177
 872 0000 DFED0B7A 		vldr.32	s15, .L51+8
  39:source/HeavyContext.hpp **** 
 873              		.loc 1 39 97 view .LVU178
 874 0004 90ED025B 		vldr.64	d5, [r0, #8]
  39:source/HeavyContext.hpp **** 
 875              		.loc 1 39 80 view .LVU179
 876 0008 87FE800A 		vmaxnm.f32	s0, s15, s0
 877              	.LVL67:
  39:source/HeavyContext.hpp **** 
 878              		.loc 1 39 80 view .LVU180
 879 000c B7EEC00A 		vcvt.f64.f32	d0, s0
  39:source/HeavyContext.hpp **** 
 880              		.loc 1 39 108 view .LVU181
 881 0010 9FED056B 		vldr.64	d6, .L51
  39:source/HeavyContext.hpp **** 
 882              		.loc 1 39 97 view .LVU182
 883 0014 20EE050B 		vmul.f64	d0, d0, d5
  39:source/HeavyContext.hpp **** 
 884              		.loc 1 39 108 view .LVU183
 885 0018 80EE067B 		vdiv.f64	d7, d0, d6
ARM GAS  /var/folders/fb/yfxt3z4538j6z0vjt03w70vc0000gn/T//ccfrU3iz.s 			page 28


  39:source/HeavyContext.hpp **** 
 886              		.loc 1 39 118 view .LVU184
 887 001c FCEEC77B 		vcvt.u32.f64	s15, d7
 888 0020 17EE900A 		vmov	r0, s15	@ int
 889              	.LVL68:
  39:source/HeavyContext.hpp **** 
 890              		.loc 1 39 118 view .LVU185
 891 0024 7047     		bx	lr
 892              	.L52:
 893 0026 00BF     		.align	3
 894              	.L51:
 895 0028 00000000 		.word	0
 896 002c 00408F40 		.word	1083129856
 897 0030 00000000 		.word	0
 898              		.cfi_endproc
 899              	.LFE969:
 901              		.section	.rodata._Z15defaultSendHookP21HeavyContextInterfacePKcmPK9HvMessage.str1.4,"aMS",%progbit
 902              		.align	2
 903              	.LC3:
 904 0000 66616C73 		.ascii	"false && \"::defaultSendHook - The out message queu"
 904      65202626 
 904      20223A3A 
 904      64656661 
 904      756C7453 
 905 0032 65206973 		.ascii	"e is full and cannot accept more messages until the"
 905      2066756C 
 905      6C20616E 
 905      64206361 
 905      6E6E6F74 
 906 0065 79202220 		.ascii	"y \" \"have been processed. Try increasing the outQ"
 906      22686176 
 906      65206265 
 906      656E2070 
 906      726F6365 
 907 0096 75657565 		.ascii	"ueueKb size in the new_with_options() constructor.\""
 907      4B622073 
 907      697A6520 
 907      696E2074 
 907      6865206E 
 908 00c9 00       		.ascii	"\000"
 909 00ca 0000     		.align	2
 910              	.LC4:
 911 00cc 766F6964 		.ascii	"void defaultSendHook(HeavyContextInterface*, const "
 911      20646566 
 911      61756C74 
 911      53656E64 
 911      486F6F6B 
 912 00ff 63686172 		.ascii	"char*, uint32_t, const HvMessage*)\000"
 912      2A2C2075 
 912      696E7433 
 912      325F742C 
 912      20636F6E 
 913              		.section	.text._Z15defaultSendHookP21HeavyContextInterfacePKcmPK9HvMessage,"ax",%progbits
 914              		.align	1
 915              		.p2align 2,,3
 916              		.global	_Z15defaultSendHookP21HeavyContextInterfacePKcmPK9HvMessage
 917              		.syntax unified
ARM GAS  /var/folders/fb/yfxt3z4538j6z0vjt03w70vc0000gn/T//ccfrU3iz.s 			page 29


 918              		.thumb
 919              		.thumb_func
 921              	_Z15defaultSendHookP21HeavyContextInterfacePKcmPK9HvMessage:
 922              	.LVL69:
 923              	.LFB982:
  21:source/HeavyContext.cpp ****   HeavyContext *thisContext = reinterpret_cast<HeavyContext *>(context);
 924              		.loc 2 21 71 is_stmt 1 view -0
 925              		.cfi_startproc
 926              		@ args = 0, pretend = 0, frame = 0
 927              		@ frame_needed = 0, uses_anonymous_args = 0
  21:source/HeavyContext.cpp ****   HeavyContext *thisContext = reinterpret_cast<HeavyContext *>(context);
 928              		.loc 2 21 71 is_stmt 0 view .LVU187
 929 0000 F8B5     		push	{r3, r4, r5, r6, r7, lr}
 930              		.cfi_def_cfa_offset 24
 931              		.cfi_offset 3, -24
 932              		.cfi_offset 4, -20
 933              		.cfi_offset 5, -16
 934              		.cfi_offset 6, -12
 935              		.cfi_offset 7, -8
 936              		.cfi_offset 14, -4
 937              	.LBB114:
 938              	.LBB115:
  60:source/HvMessage.h **** }
  61:source/HvMessage.h **** 
  62:source/HvMessage.h **** HvMessage *msg_copy(const HvMessage *m);
  63:source/HvMessage.h **** 
  64:source/HvMessage.h **** /** Copies the message into the given buffer. The buffer must be at least as large as msg_getNumHea
  65:source/HvMessage.h **** void msg_copyToBuffer(const HvMessage *m, char *buffer, hv_size_t len);
  66:source/HvMessage.h **** 
  67:source/HvMessage.h **** void msg_setElementToFrom(HvMessage *n, int indexN, const HvMessage *const m, int indexM);
  68:source/HvMessage.h **** 
  69:source/HvMessage.h **** /** Frees a message on the heap. Does nothing if argument is NULL. */
  70:source/HvMessage.h **** void msg_free(HvMessage *m);
  71:source/HvMessage.h **** 
  72:source/HvMessage.h **** HvMessage *msg_init(HvMessage *m, hv_size_t numElements, hv_uint32_t timestamp);
  73:source/HvMessage.h **** 
  74:source/HvMessage.h **** HvMessage *msg_initWithFloat(HvMessage *m, hv_uint32_t timestamp, float f);
  75:source/HvMessage.h **** 
  76:source/HvMessage.h **** HvMessage *msg_initWithBang(HvMessage *m, hv_uint32_t timestamp);
  77:source/HvMessage.h **** 
  78:source/HvMessage.h **** HvMessage *msg_initWithSymbol(HvMessage *m, hv_uint32_t timestamp, const char *s);
  79:source/HvMessage.h **** 
  80:source/HvMessage.h **** HvMessage *msg_initWithHash(HvMessage *m, hv_uint32_t timestamp, hv_uint32_t h);
  81:source/HvMessage.h **** 
  82:source/HvMessage.h **** static inline hv_uint32_t msg_getTimestamp(const HvMessage *m) {
  83:source/HvMessage.h ****   return m->timestamp;
  84:source/HvMessage.h **** }
  85:source/HvMessage.h **** 
  86:source/HvMessage.h **** static inline void msg_setTimestamp(HvMessage *m, hv_uint32_t timestamp) {
  87:source/HvMessage.h ****   m->timestamp = timestamp;
  88:source/HvMessage.h **** }
  89:source/HvMessage.h **** 
  90:source/HvMessage.h **** static inline int msg_getNumElements(const HvMessage *m) {
  91:source/HvMessage.h ****   return (int) m->numElements;
  92:source/HvMessage.h **** }
  93:source/HvMessage.h **** 
  94:source/HvMessage.h **** /** Returns the total number of bytes this message consumes in memory. */
ARM GAS  /var/folders/fb/yfxt3z4538j6z0vjt03w70vc0000gn/T//ccfrU3iz.s 			page 30


  95:source/HvMessage.h **** static inline hv_uint32_t msg_getSize(const HvMessage *m) {
  96:source/HvMessage.h ****   return m->numBytes;
 939              		.loc 5 96 13 view .LVU188
 940 0002 DE88     		ldrh	r6, [r3, #6]
 941              	.LBE115:
 942              	.LBE114:
  24:source/HeavyContext.cpp ****   if (p != nullptr) {
 943              		.loc 2 24 86 view .LVU189
 944 0004 00F17005 		add	r5, r0, #112
  21:source/HeavyContext.cpp ****   HeavyContext *thisContext = reinterpret_cast<HeavyContext *>(context);
 945              		.loc 2 21 71 view .LVU190
 946 0008 1C46     		mov	r4, r3
 947 000a 1746     		mov	r7, r2
  22:source/HeavyContext.cpp ****   const hv_uint32_t numBytes = sizeof(ReceiverMessagePair) + msg_getSize(msg) - sizeof(HvMessage);
 948              		.loc 2 22 3 is_stmt 1 view .LVU191
 949              	.LVL70:
  23:source/HeavyContext.cpp ****   ReceiverMessagePair *p = reinterpret_cast<ReceiverMessagePair *>(hLp_getWriteBuffer(&thisContext-
 950              		.loc 2 23 3 view .LVU192
 951              	.LBB117:
 952              	.LBI114:
  95:source/HvMessage.h ****   return m->numBytes;
 953              		.loc 5 95 27 view .LVU193
 954              	.LBB116:
 955              		.loc 5 96 3 view .LVU194
 956              		.loc 5 96 3 is_stmt 0 view .LVU195
 957              	.LBE116:
 958              	.LBE117:
  23:source/HeavyContext.cpp ****   ReceiverMessagePair *p = reinterpret_cast<ReceiverMessagePair *>(hLp_getWriteBuffer(&thisContext-
 959              		.loc 2 23 97 view .LVU196
 960 000c 0436     		adds	r6, r6, #4
 961              	.LVL71:
  24:source/HeavyContext.cpp ****   if (p != nullptr) {
 962              		.loc 2 24 3 is_stmt 1 view .LVU197
  24:source/HeavyContext.cpp ****   if (p != nullptr) {
 963              		.loc 2 24 86 is_stmt 0 view .LVU198
 964 000e 2846     		mov	r0, r5
 965              	.LVL72:
  24:source/HeavyContext.cpp ****   if (p != nullptr) {
 966              		.loc 2 24 86 view .LVU199
 967 0010 3146     		mov	r1, r6
 968              	.LVL73:
  24:source/HeavyContext.cpp ****   if (p != nullptr) {
 969              		.loc 2 24 86 view .LVU200
 970 0012 FFF7FEFF 		bl	hLp_getWriteBuffer
 971              	.LVL74:
  25:source/HeavyContext.cpp ****     p->receiverHash = sendHash;
 972              		.loc 2 25 3 is_stmt 1 view .LVU201
 973 0016 60B1     		cbz	r0, .L54
  26:source/HeavyContext.cpp ****     msg_copyToBuffer(msg, (char *) &p->msg, msg_getSize(msg));
 974              		.loc 2 26 5 view .LVU202
  26:source/HeavyContext.cpp ****     msg_copyToBuffer(msg, (char *) &p->msg, msg_getSize(msg));
 975              		.loc 2 26 21 is_stmt 0 view .LVU203
 976 0018 0146     		mov	r1, r0
  27:source/HeavyContext.cpp ****     hLp_produce(&thisContext->outQueue, numBytes);
 977              		.loc 2 27 21 view .LVU204
 978 001a E288     		ldrh	r2, [r4, #6]
 979 001c 2046     		mov	r0, r4
ARM GAS  /var/folders/fb/yfxt3z4538j6z0vjt03w70vc0000gn/T//ccfrU3iz.s 			page 31


 980              	.LVL75:
  26:source/HeavyContext.cpp ****     msg_copyToBuffer(msg, (char *) &p->msg, msg_getSize(msg));
 981              		.loc 2 26 21 view .LVU205
 982 001e 41F8047B 		str	r7, [r1], #4
 983              	.LVL76:
  27:source/HeavyContext.cpp ****     hLp_produce(&thisContext->outQueue, numBytes);
 984              		.loc 2 27 5 is_stmt 1 view .LVU206
 985              	.LBB118:
 986              	.LBI118:
  95:source/HvMessage.h ****   return m->numBytes;
 987              		.loc 5 95 27 view .LVU207
 988              	.LBB119:
 989              		.loc 5 96 3 view .LVU208
 990              		.loc 5 96 3 is_stmt 0 view .LVU209
 991              	.LBE119:
 992              	.LBE118:
  27:source/HeavyContext.cpp ****     hLp_produce(&thisContext->outQueue, numBytes);
 993              		.loc 2 27 21 view .LVU210
 994 0022 FFF7FEFF 		bl	msg_copyToBuffer
 995              	.LVL77:
  28:source/HeavyContext.cpp ****   } else {
 996              		.loc 2 28 5 is_stmt 1 view .LVU211
  28:source/HeavyContext.cpp ****   } else {
 997              		.loc 2 28 16 is_stmt 0 view .LVU212
 998 0026 3146     		mov	r1, r6
 999 0028 2846     		mov	r0, r5
  34:source/HeavyContext.cpp **** 
 1000              		.loc 2 34 1 view .LVU213
 1001 002a BDE8F840 		pop	{r3, r4, r5, r6, r7, lr}
 1002              		.cfi_remember_state
 1003              		.cfi_restore 14
 1004              		.cfi_restore 7
 1005              		.cfi_restore 6
 1006              		.cfi_restore 5
 1007              		.cfi_restore 4
 1008              		.cfi_restore 3
 1009              		.cfi_def_cfa_offset 0
 1010              	.LVL78:
  28:source/HeavyContext.cpp ****   } else {
 1011              		.loc 2 28 16 view .LVU214
 1012 002e FFF7FEBF 		b	hLp_produce
 1013              	.LVL79:
 1014              	.L54:
 1015              		.cfi_restore_state
 1016              	.LBB120:
 1017              	.LBI120:
  20:source/HeavyContext.cpp ****     const char *sendName, hv_uint32_t sendHash, const HvMessage *msg) {
 1018              		.loc 2 20 6 is_stmt 1 view .LVU215
 1019              	.LBB121:
  30:source/HeavyContext.cpp ****         "::defaultSendHook - The out message queue is full and cannot accept more messages until th
 1020              		.loc 2 30 5 view .LVU216
 1021 0032 034B     		ldr	r3, .L56
 1022 0034 1E21     		movs	r1, #30
 1023 0036 034A     		ldr	r2, .L56+4
 1024 0038 0348     		ldr	r0, .L56+8
 1025              	.LVL80:
  30:source/HeavyContext.cpp ****         "::defaultSendHook - The out message queue is full and cannot accept more messages until th
ARM GAS  /var/folders/fb/yfxt3z4538j6z0vjt03w70vc0000gn/T//ccfrU3iz.s 			page 32


 1026              		.loc 2 30 5 is_stmt 0 view .LVU217
 1027 003a FFF7FEFF 		bl	__assert_func
 1028              	.LVL81:
 1029              	.L57:
 1030 003e 00BF     		.align	2
 1031              	.L56:
 1032 0040 00000000 		.word	.LC3
 1033 0044 CC000000 		.word	.LC4
 1034 0048 58000000 		.word	.LC2
 1035              	.LBE121:
 1036              	.LBE120:
 1037              		.cfi_endproc
 1038              	.LFE982:
 1040              		.section	.rodata._ZN12HeavyContext24setInputMessageQueueSizeEi.str1.4,"aMS",%progbits,1
 1041              		.align	2
 1042              	.LC5:
 1043 0000 696E5175 		.ascii	"inQueueKb > 0\000"
 1043      6575654B 
 1043      62203E20 
 1043      3000
 1044 000e 0000     		.align	2
 1045              	.LC6:
 1046 0010 76697274 		.ascii	"virtual void HeavyContext::setInputMessageQueueSize"
 1046      75616C20 
 1046      766F6964 
 1046      20486561 
 1046      7679436F 
 1047 0043 28696E74 		.ascii	"(int)\000"
 1047      2900
 1048              		.section	.text._ZN12HeavyContext24setInputMessageQueueSizeEi,"ax",%progbits
 1049              		.align	1
 1050              		.p2align 2,,3
 1051              		.global	_ZN12HeavyContext24setInputMessageQueueSizeEi
 1052              		.syntax unified
 1053              		.thumb
 1054              		.thumb_func
 1056              	_ZN12HeavyContext24setInputMessageQueueSizeEi:
 1057              	.LVL82:
 1058              	.LFB1003:
 183:source/HeavyContext.cpp **** 
 184:source/HeavyContext.cpp **** void HeavyContext::setInputMessageQueueSize(int inQueueKb) {
 1059              		.loc 2 184 60 is_stmt 1 view -0
 1060              		.cfi_startproc
 1061              		@ args = 0, pretend = 0, frame = 8
 1062              		@ frame_needed = 0, uses_anonymous_args = 0
 185:source/HeavyContext.cpp ****   hv_assert(inQueueKb > 0);
 1063              		.loc 2 185 3 view .LVU219
 184:source/HeavyContext.cpp ****   hv_assert(inQueueKb > 0);
 1064              		.loc 2 184 60 is_stmt 0 view .LVU220
 1065 0000 10B5     		push	{r4, lr}
 1066              		.cfi_def_cfa_offset 8
 1067              		.cfi_offset 4, -8
 1068              		.cfi_offset 14, -4
 1069              		.loc 2 185 3 view .LVU221
 1070 0002 0C1E     		subs	r4, r1, #0
 184:source/HeavyContext.cpp ****   hv_assert(inQueueKb > 0);
 1071              		.loc 2 184 60 view .LVU222
ARM GAS  /var/folders/fb/yfxt3z4538j6z0vjt03w70vc0000gn/T//ccfrU3iz.s 			page 33


 1072 0004 82B0     		sub	sp, sp, #8
 1073              		.cfi_def_cfa_offset 16
 1074              		.loc 2 185 3 view .LVU223
 1075 0006 0ADD     		ble	.L61
 186:source/HeavyContext.cpp ****   hLp_free(&inQueue);
 1076              		.loc 2 186 3 is_stmt 1 view .LVU224
 1077              		.loc 2 186 11 is_stmt 0 view .LVU225
 1078 0008 5C30     		adds	r0, r0, #92
 1079              	.LVL83:
 1080              		.loc 2 186 11 view .LVU226
 1081 000a 0190     		str	r0, [sp, #4]
 1082 000c FFF7FEFF 		bl	hLp_free
 1083              	.LVL84:
 187:source/HeavyContext.cpp ****   hLp_init(&inQueue, inQueueKb*1024);
 1084              		.loc 2 187 3 is_stmt 1 view .LVU227
 1085              		.loc 2 187 11 is_stmt 0 view .LVU228
 1086 0010 A102     		lsls	r1, r4, #10
 1087 0012 0198     		ldr	r0, [sp, #4]
 188:source/HeavyContext.cpp **** }
 1088              		.loc 2 188 1 view .LVU229
 1089 0014 02B0     		add	sp, sp, #8
 1090              		.cfi_remember_state
 1091              		.cfi_def_cfa_offset 8
 1092              		@ sp needed
 1093 0016 BDE81040 		pop	{r4, lr}
 1094              		.cfi_restore 14
 1095              		.cfi_restore 4
 1096              		.cfi_def_cfa_offset 0
 1097              	.LVL85:
 187:source/HeavyContext.cpp ****   hLp_init(&inQueue, inQueueKb*1024);
 1098              		.loc 2 187 11 view .LVU230
 1099 001a FFF7FEBF 		b	hLp_init
 1100              	.LVL86:
 1101              	.L61:
 1102              		.cfi_restore_state
 1103              	.LBB124:
 1104              	.LBI124:
 184:source/HeavyContext.cpp ****   hv_assert(inQueueKb > 0);
 1105              		.loc 2 184 6 is_stmt 1 view .LVU231
 1106              	.LBB125:
 185:source/HeavyContext.cpp ****   hLp_free(&inQueue);
 1107              		.loc 2 185 3 is_stmt 0 view .LVU232
 1108 001e 034B     		ldr	r3, .L62
 1109 0020 B921     		movs	r1, #185
 1110              	.LVL87:
 185:source/HeavyContext.cpp ****   hLp_free(&inQueue);
 1111              		.loc 2 185 3 view .LVU233
 1112 0022 034A     		ldr	r2, .L62+4
 1113 0024 0348     		ldr	r0, .L62+8
 1114              	.LVL88:
 185:source/HeavyContext.cpp ****   hLp_free(&inQueue);
 1115              		.loc 2 185 3 view .LVU234
 1116 0026 FFF7FEFF 		bl	__assert_func
 1117              	.LVL89:
 1118              	.L63:
 1119 002a 00BF     		.align	2
 1120              	.L62:
ARM GAS  /var/folders/fb/yfxt3z4538j6z0vjt03w70vc0000gn/T//ccfrU3iz.s 			page 34


 1121 002c 00000000 		.word	.LC5
 1122 0030 10000000 		.word	.LC6
 1123 0034 58000000 		.word	.LC2
 1124              	.LBE125:
 1125              	.LBE124:
 1126              		.cfi_endproc
 1127              	.LFE1003:
 1129              		.section	.rodata._ZN12HeavyContext25setOutputMessageQueueSizeEi.str1.4,"aMS",%progbits,1
 1130              		.align	2
 1131              	.LC7:
 1132 0000 6F757451 		.ascii	"outQueueKb > 0\000"
 1132      75657565 
 1132      4B62203E 
 1132      203000
 1133 000f 00       		.align	2
 1134              	.LC8:
 1135 0010 76697274 		.ascii	"virtual void HeavyContext::setOutputMessageQueueSiz"
 1135      75616C20 
 1135      766F6964 
 1135      20486561 
 1135      7679436F 
 1136 0043 6528696E 		.ascii	"e(int)\000"
 1136      742900
 1137              		.section	.text._ZN12HeavyContext25setOutputMessageQueueSizeEi,"ax",%progbits
 1138              		.align	1
 1139              		.p2align 2,,3
 1140              		.global	_ZN12HeavyContext25setOutputMessageQueueSizeEi
 1141              		.syntax unified
 1142              		.thumb
 1143              		.thumb_func
 1145              	_ZN12HeavyContext25setOutputMessageQueueSizeEi:
 1146              	.LVL90:
 1147              	.LFB1004:
 189:source/HeavyContext.cpp **** 
 190:source/HeavyContext.cpp **** void HeavyContext::setOutputMessageQueueSize(int outQueueKb) {
 1148              		.loc 2 190 62 is_stmt 1 view -0
 1149              		.cfi_startproc
 1150              		@ args = 0, pretend = 0, frame = 8
 1151              		@ frame_needed = 0, uses_anonymous_args = 0
 191:source/HeavyContext.cpp ****   hv_assert(outQueueKb > 0);
 1152              		.loc 2 191 3 view .LVU236
 190:source/HeavyContext.cpp ****   hv_assert(outQueueKb > 0);
 1153              		.loc 2 190 62 is_stmt 0 view .LVU237
 1154 0000 10B5     		push	{r4, lr}
 1155              		.cfi_def_cfa_offset 8
 1156              		.cfi_offset 4, -8
 1157              		.cfi_offset 14, -4
 1158              		.loc 2 191 3 view .LVU238
 1159 0002 0C1E     		subs	r4, r1, #0
 190:source/HeavyContext.cpp ****   hv_assert(outQueueKb > 0);
 1160              		.loc 2 190 62 view .LVU239
 1161 0004 82B0     		sub	sp, sp, #8
 1162              		.cfi_def_cfa_offset 16
 1163              		.loc 2 191 3 view .LVU240
 1164 0006 0ADD     		ble	.L67
 192:source/HeavyContext.cpp ****   hLp_free(&outQueue);
 1165              		.loc 2 192 3 is_stmt 1 view .LVU241
ARM GAS  /var/folders/fb/yfxt3z4538j6z0vjt03w70vc0000gn/T//ccfrU3iz.s 			page 35


 1166              		.loc 2 192 11 is_stmt 0 view .LVU242
 1167 0008 7030     		adds	r0, r0, #112
 1168              	.LVL91:
 1169              		.loc 2 192 11 view .LVU243
 1170 000a 0190     		str	r0, [sp, #4]
 1171 000c FFF7FEFF 		bl	hLp_free
 1172              	.LVL92:
 193:source/HeavyContext.cpp ****   hLp_init(&outQueue, outQueueKb*1024);
 1173              		.loc 2 193 3 is_stmt 1 view .LVU244
 1174              		.loc 2 193 11 is_stmt 0 view .LVU245
 1175 0010 A102     		lsls	r1, r4, #10
 1176 0012 0198     		ldr	r0, [sp, #4]
 194:source/HeavyContext.cpp **** }
 1177              		.loc 2 194 1 view .LVU246
 1178 0014 02B0     		add	sp, sp, #8
 1179              		.cfi_remember_state
 1180              		.cfi_def_cfa_offset 8
 1181              		@ sp needed
 1182 0016 BDE81040 		pop	{r4, lr}
 1183              		.cfi_restore 14
 1184              		.cfi_restore 4
 1185              		.cfi_def_cfa_offset 0
 1186              	.LVL93:
 193:source/HeavyContext.cpp ****   hLp_init(&outQueue, outQueueKb*1024);
 1187              		.loc 2 193 11 view .LVU247
 1188 001a FFF7FEBF 		b	hLp_init
 1189              	.LVL94:
 1190              	.L67:
 1191              		.cfi_restore_state
 1192              	.LBB128:
 1193              	.LBI128:
 190:source/HeavyContext.cpp ****   hv_assert(outQueueKb > 0);
 1194              		.loc 2 190 6 is_stmt 1 view .LVU248
 1195              	.LBB129:
 191:source/HeavyContext.cpp ****   hLp_free(&outQueue);
 1196              		.loc 2 191 3 is_stmt 0 view .LVU249
 1197 001e 034B     		ldr	r3, .L68
 1198 0020 BF21     		movs	r1, #191
 1199              	.LVL95:
 191:source/HeavyContext.cpp ****   hLp_free(&outQueue);
 1200              		.loc 2 191 3 view .LVU250
 1201 0022 034A     		ldr	r2, .L68+4
 1202 0024 0348     		ldr	r0, .L68+8
 1203              	.LVL96:
 191:source/HeavyContext.cpp ****   hLp_free(&outQueue);
 1204              		.loc 2 191 3 view .LVU251
 1205 0026 FFF7FEFF 		bl	__assert_func
 1206              	.LVL97:
 1207              	.L69:
 1208 002a 00BF     		.align	2
 1209              	.L68:
 1210 002c 00000000 		.word	.LC7
 1211 0030 10000000 		.word	.LC8
 1212 0034 58000000 		.word	.LC2
 1213              	.LBE129:
 1214              	.LBE128:
 1215              		.cfi_endproc
ARM GAS  /var/folders/fb/yfxt3z4538j6z0vjt03w70vc0000gn/T//ccfrU3iz.s 			page 36


 1216              	.LFE1004:
 1218              		.section	.rodata._ZN12HeavyContext18getNextSentMessageEPmP9HvMessagej.str1.4,"aMS",%progbits,1
 1219              		.align	2
 1220              	.LC9:
 1221 0000 2873656E 		.ascii	"(sendHook == &defaultSendHook) && \"::getNextSentMe"
 1221      64486F6F 
 1221      6B203D3D 
 1221      20266465 
 1221      6661756C 
 1222 0032 73736167 		.ascii	"ssage - this function won't do anything if the msg "
 1222      65202D20 
 1222      74686973 
 1222      2066756E 
 1222      6374696F 
 1223 0065 6F757451 		.ascii	"outQueue \" \"size is 0, or you've overriden the de"
 1223      75657565 
 1223      20222022 
 1223      73697A65 
 1223      20697320 
 1224 0096 6661756C 		.ascii	"fault sendhook.\"\000"
 1224      74207365 
 1224      6E64686F 
 1224      6F6B2E22 
 1224      00
 1225 00a7 00       		.align	2
 1226              	.LC10:
 1227 00a8 76697274 		.ascii	"virtual bool HeavyContext::getNextSentMessage(uint3"
 1227      75616C20 
 1227      626F6F6C 
 1227      20486561 
 1227      7679436F 
 1228 00db 325F742A 		.ascii	"2_t*, HvMessage*, size_t)\000"
 1228      2C204876 
 1228      4D657373 
 1228      6167652A 
 1228      2C207369 
 1229 00f5 000000   		.align	2
 1230              	.LC11:
 1231 00f8 28702021 		.ascii	"(p != nullptr) && \"::getNextSentMessage - somethin"
 1231      3D206E75 
 1231      6C6C7074 
 1231      72292026 
 1231      2620223A 
 1232 012a 67206261 		.ascii	"g bad happened.\"\000"
 1232      64206861 
 1232      7070656E 
 1232      65642E22 
 1232      00
 1233 013b 00       		.align	2
 1234              	.LC12:
 1235 013c 6E756D42 		.ascii	"numBytes >= sizeof(ReceiverMessagePair)\000"
 1235      79746573 
 1235      203E3D20 
 1235      73697A65 
 1235      6F662852 
 1236              		.align	2
 1237              	.LC13:
ARM GAS  /var/folders/fb/yfxt3z4538j6z0vjt03w70vc0000gn/T//ccfrU3iz.s 			page 37


 1238 0164 286E756D 		.ascii	"(numBytes <= msgLengthBytes) && \"::getNextSentMess"
 1238      42797465 
 1238      73203C3D 
 1238      206D7367 
 1238      4C656E67 
 1239 0196 61676520 		.ascii	"age - the sent message is bigger than the message \""
 1239      2D207468 
 1239      65207365 
 1239      6E74206D 
 1239      65737361 
 1240 01c9 20227061 		.ascii	" \"passed to handle it.\"\000"
 1240      73736564 
 1240      20746F20 
 1240      68616E64 
 1240      6C652069 
 1241              		.section	.text._ZN12HeavyContext18getNextSentMessageEPmP9HvMessagej,"ax",%progbits
 1242              		.align	1
 1243              		.p2align 2,,3
 1244              		.global	_ZN12HeavyContext18getNextSentMessageEPmP9HvMessagej
 1245              		.syntax unified
 1246              		.thumb
 1247              		.thumb_func
 1249              	_ZN12HeavyContext18getNextSentMessageEPmP9HvMessagej:
 1250              	.LVL98:
 1251              	.LFB1005:
 195:source/HeavyContext.cpp **** 
 196:source/HeavyContext.cpp **** bool HeavyContext::getNextSentMessage(hv_uint32_t *destinationHash, HvMessage *outMsg, hv_size_t ms
 1252              		.loc 2 196 114 is_stmt 1 view -0
 1253              		.cfi_startproc
 1254              		@ args = 0, pretend = 0, frame = 8
 1255              		@ frame_needed = 0, uses_anonymous_args = 0
 197:source/HeavyContext.cpp ****   *destinationHash = 0;
 1256              		.loc 2 197 3 view .LVU253
 196:source/HeavyContext.cpp ****   *destinationHash = 0;
 1257              		.loc 2 196 114 is_stmt 0 view .LVU254
 1258 0000 2DE9F043 		push	{r4, r5, r6, r7, r8, r9, lr}
 1259              		.cfi_def_cfa_offset 28
 1260              		.cfi_offset 4, -28
 1261              		.cfi_offset 5, -24
 1262              		.cfi_offset 6, -20
 1263              		.cfi_offset 7, -16
 1264              		.cfi_offset 8, -12
 1265              		.cfi_offset 9, -8
 1266              		.cfi_offset 14, -4
 1267 0004 1746     		mov	r7, r2
 1268 0006 9846     		mov	r8, r3
 198:source/HeavyContext.cpp ****   ReceiverMessagePair *p = nullptr;
 199:source/HeavyContext.cpp ****   hv_assert((sendHook == &defaultSendHook) &&
 1269              		.loc 2 199 3 view .LVU255
 1270 0008 026D     		ldr	r2, [r0, #80]
 1271              	.LVL99:
 196:source/HeavyContext.cpp ****   *destinationHash = 0;
 1272              		.loc 2 196 114 view .LVU256
 1273 000a 0E46     		mov	r6, r1
 1274              		.loc 2 199 3 view .LVU257
 1275 000c 294B     		ldr	r3, .L87
 1276              	.LVL100:
ARM GAS  /var/folders/fb/yfxt3z4538j6z0vjt03w70vc0000gn/T//ccfrU3iz.s 			page 38


 197:source/HeavyContext.cpp ****   ReceiverMessagePair *p = nullptr;
 1277              		.loc 2 197 20 view .LVU258
 1278 000e 0021     		movs	r1, #0
 1279              	.LVL101:
 196:source/HeavyContext.cpp ****   *destinationHash = 0;
 1280              		.loc 2 196 114 view .LVU259
 1281 0010 83B0     		sub	sp, sp, #12
 1282              		.cfi_def_cfa_offset 40
 1283              		.loc 2 199 3 view .LVU260
 1284 0012 9A42     		cmp	r2, r3
 197:source/HeavyContext.cpp ****   ReceiverMessagePair *p = nullptr;
 1285              		.loc 2 197 20 view .LVU261
 1286 0014 3160     		str	r1, [r6]
 198:source/HeavyContext.cpp ****   ReceiverMessagePair *p = nullptr;
 1287              		.loc 2 198 3 is_stmt 1 view .LVU262
 1288              	.LVL102:
 1289              		.loc 2 199 3 view .LVU263
 1290 0016 46D1     		bne	.L83
 1291 0018 0546     		mov	r5, r0
 1292              	.LBB140:
 1293              	.LBB141:
 1294              	.LBB142:
 1295              	.LBB143:
 1296              	.LBB144:
 202:/Library/DaisyToolchain/0.2.0/arm/arm-none-eabi/include/c++/10.3.1/bits/atomic_base.h ****     }
 1297              		.loc 4 202 37 is_stmt 0 view .LVU264
 1298 001a 00F1850C 		add	ip, r0, #133
 1299              	.L72:
 1300              	.LBE144:
 1301              	.LBE143:
 200:source/HeavyContext.cpp ****       "::getNextSentMessage - this function won't do anything if the msg outQueue "
 201:source/HeavyContext.cpp ****       "size is 0, or you've overriden the default sendhook.");
 202:source/HeavyContext.cpp ****   if (sendHook == &defaultSendHook) {
 203:source/HeavyContext.cpp ****     HV_SPINLOCK_ACQUIRE(outQueueLock);
 1302              		.loc 2 203 5 is_stmt 1 view .LVU265
 1303              		.loc 2 203 5 view .LVU266
 1304              	.LVL103:
 1305              	.LBB146:
 1306              	.LBI143:
 200:/Library/DaisyToolchain/0.2.0/arm/arm-none-eabi/include/c++/10.3.1/bits/atomic_base.h ****     {
 1307              		.loc 4 200 5 view .LVU267
 1308              	.LBB145:
 202:/Library/DaisyToolchain/0.2.0/arm/arm-none-eabi/include/c++/10.3.1/bits/atomic_base.h ****     }
 1309              		.loc 4 202 7 view .LVU268
 202:/Library/DaisyToolchain/0.2.0/arm/arm-none-eabi/include/c++/10.3.1/bits/atomic_base.h ****     }
 1310              		.loc 4 202 36 is_stmt 0 view .LVU269
 1311 001e 4FF0010E 		mov	lr, #1
 1312              	.L81:
 1313 0022 DCE84F4F 		ldrexb	r4, [ip]
 1314 0026 CCE843EF 		strexb	r3, lr, [ip]
 1315 002a 002B     		cmp	r3, #0
 1316 002c F9D1     		bne	.L81
 1317 002e E4B2     		uxtb	r4, r4
 1318              	.LVL104:
 202:/Library/DaisyToolchain/0.2.0/arm/arm-none-eabi/include/c++/10.3.1/bits/atomic_base.h ****     }
 1319              		.loc 4 202 36 view .LVU270
 1320 0030 BFF35B8F 		dmb	ish
ARM GAS  /var/folders/fb/yfxt3z4538j6z0vjt03w70vc0000gn/T//ccfrU3iz.s 			page 39


 1321              	.LBE145:
 1322              	.LBE146:
 1323              		.loc 2 203 5 view .LVU271
 1324 0034 002C     		cmp	r4, #0
 1325 0036 F2D1     		bne	.L72
 204:source/HeavyContext.cpp ****     if (hLp_hasData(&outQueue)) {
 1326              		.loc 2 204 5 is_stmt 1 view .LVU272
 1327              	.LBB147:
 1328              		.loc 2 204 20 is_stmt 0 view .LVU273
 1329 0038 05F17009 		add	r9, r5, #112
 1330 003c 4846     		mov	r0, r9
 1331              	.LVL105:
 1332              		.loc 2 204 20 view .LVU274
 1333 003e FFF7FEFF 		bl	hLp_hasData
 1334              	.LVL106:
 1335              		.loc 2 204 5 view .LVU275
 1336 0042 A8B1     		cbz	r0, .L73
 1337              	.LBB148:
 205:source/HeavyContext.cpp ****       hv_uint32_t numBytes = 0;
 1338              		.loc 2 205 7 is_stmt 1 view .LVU276
 206:source/HeavyContext.cpp ****       p = reinterpret_cast<ReceiverMessagePair *>(hLp_getReadBuffer(&outQueue, &numBytes));
 1339              		.loc 2 206 68 is_stmt 0 view .LVU277
 1340 0044 01A9     		add	r1, sp, #4
 1341 0046 4846     		mov	r0, r9
 205:source/HeavyContext.cpp ****       hv_uint32_t numBytes = 0;
 1342              		.loc 2 205 19 view .LVU278
 1343 0048 0194     		str	r4, [sp, #4]
 1344              		.loc 2 206 7 is_stmt 1 view .LVU279
 1345              		.loc 2 206 68 is_stmt 0 view .LVU280
 1346 004a FFF7FEFF 		bl	hLp_getReadBuffer
 1347              	.LVL107:
 207:source/HeavyContext.cpp ****       hv_assert((p != nullptr) && "::getNextSentMessage - something bad happened.");
 1348              		.loc 2 207 7 is_stmt 1 view .LVU281
 1349 004e C0B1     		cbz	r0, .L84
 208:source/HeavyContext.cpp ****       hv_assert(numBytes >= sizeof(ReceiverMessagePair));
 1350              		.loc 2 208 7 view .LVU282
 1351 0050 019A     		ldr	r2, [sp, #4]
 1352 0052 132A     		cmp	r2, #19
 1353 0054 1BD9     		bls	.L85
 209:source/HeavyContext.cpp ****       hv_assert((numBytes <= msgLengthBytes) &&
 1354              		.loc 2 209 7 view .LVU283
 1355 0056 9045     		cmp	r8, r2
 1356 0058 1FD3     		bcc	.L86
 210:source/HeavyContext.cpp ****           "::getNextSentMessage - the sent message is bigger than the message "
 211:source/HeavyContext.cpp ****           "passed to handle it.");
 212:source/HeavyContext.cpp ****       *destinationHash = p->receiverHash;
 1357              		.loc 2 212 7 view .LVU284
 1358              		.loc 2 212 29 is_stmt 0 view .LVU285
 1359 005a 0146     		mov	r1, r0
 213:source/HeavyContext.cpp ****       hv_memcpy(outMsg, &p->msg, numBytes);
 1360              		.loc 2 213 7 view .LVU286
 1361 005c 3846     		mov	r0, r7
 1362              	.LVL108:
 1363              		.loc 2 213 7 view .LVU287
 1364              	.LBE148:
 1365 005e 0124     		movs	r4, #1
 1366              	.LBB149:
ARM GAS  /var/folders/fb/yfxt3z4538j6z0vjt03w70vc0000gn/T//ccfrU3iz.s 			page 40


 212:source/HeavyContext.cpp ****       hv_memcpy(outMsg, &p->msg, numBytes);
 1367              		.loc 2 212 29 view .LVU288
 1368 0060 51F8043B 		ldr	r3, [r1], #4
 1369              	.LVL109:
 212:source/HeavyContext.cpp ****       hv_memcpy(outMsg, &p->msg, numBytes);
 1370              		.loc 2 212 24 view .LVU289
 1371 0064 3360     		str	r3, [r6]
 1372              		.loc 2 213 7 is_stmt 1 view .LVU290
 1373 0066 FFF7FEFF 		bl	memcpy
 1374              	.LVL110:
 214:source/HeavyContext.cpp ****       hLp_consume(&outQueue);
 1375              		.loc 2 214 7 view .LVU291
 1376              		.loc 2 214 18 is_stmt 0 view .LVU292
 1377 006a 4846     		mov	r0, r9
 1378 006c FFF7FEFF 		bl	hLp_consume
 1379              	.LVL111:
 1380              	.L73:
 1381              		.loc 2 214 18 view .LVU293
 1382              	.LBE149:
 1383              	.LBE147:
 215:source/HeavyContext.cpp ****     }
 216:source/HeavyContext.cpp ****     HV_SPINLOCK_RELEASE(outQueueLock);
 1384              		.loc 2 216 5 is_stmt 1 view .LVU294
 1385              	.LBB151:
 1386              	.LBI151:
 212:/Library/DaisyToolchain/0.2.0/arm/arm-none-eabi/include/c++/10.3.1/bits/atomic_base.h ****     {
 1387              		.loc 4 212 5 view .LVU295
 1388              	.LBB152:
 214:/Library/DaisyToolchain/0.2.0/arm/arm-none-eabi/include/c++/10.3.1/bits/atomic_base.h ****       __glibcxx_assert(__b != memory_order_consume);
 1389              		.loc 4 214 7 view .LVU296
 215:/Library/DaisyToolchain/0.2.0/arm/arm-none-eabi/include/c++/10.3.1/bits/atomic_base.h ****       __glibcxx_assert(__b != memory_order_acquire);
 1390              		.loc 4 215 52 view .LVU297
 216:/Library/DaisyToolchain/0.2.0/arm/arm-none-eabi/include/c++/10.3.1/bits/atomic_base.h ****       __glibcxx_assert(__b != memory_order_acq_rel);
 1391              		.loc 4 216 52 view .LVU298
 217:/Library/DaisyToolchain/0.2.0/arm/arm-none-eabi/include/c++/10.3.1/bits/atomic_base.h **** 
 1392              		.loc 4 217 52 view .LVU299
 1393              		.loc 4 219 7 view .LVU300
 1394              		.loc 4 219 22 is_stmt 0 view .LVU301
 1395 0070 0023     		movs	r3, #0
 1396              	.LBE152:
 1397              	.LBE151:
 1398              	.LBE142:
 1399              	.LBE141:
 1400              	.LBE140:
 217:source/HeavyContext.cpp ****   }
 218:source/HeavyContext.cpp ****   return (p != nullptr);
 219:source/HeavyContext.cpp **** }
 1401              		.loc 2 219 1 view .LVU302
 1402 0072 2046     		mov	r0, r4
 1403              	.LBB160:
 1404              	.LBB158:
 1405              	.LBB156:
 1406              	.LBB154:
 1407              	.LBB153:
 1408              		.loc 4 219 22 view .LVU303
 1409 0074 BFF35B8F 		dmb	ish
 1410 0078 85F88530 		strb	r3, [r5, #133]
ARM GAS  /var/folders/fb/yfxt3z4538j6z0vjt03w70vc0000gn/T//ccfrU3iz.s 			page 41


 1411              	.LVL112:
 1412              		.loc 4 219 22 view .LVU304
 1413              	.LBE153:
 1414              	.LBE154:
 1415              	.LBE156:
 218:source/HeavyContext.cpp **** }
 1416              		.loc 2 218 3 is_stmt 1 view .LVU305
 1417              	.LBE158:
 1418              	.LBE160:
 1419              		.loc 2 219 1 is_stmt 0 view .LVU306
 1420 007c 03B0     		add	sp, sp, #12
 1421              		.cfi_remember_state
 1422              		.cfi_def_cfa_offset 28
 1423              		@ sp needed
 1424 007e BDE8F083 		pop	{r4, r5, r6, r7, r8, r9, pc}
 1425              	.LVL113:
 1426              	.L84:
 1427              		.cfi_restore_state
 1428              	.LBB161:
 1429              	.LBB159:
 1430              	.LBB157:
 1431              	.LBB155:
 1432              	.LBB150:
 207:source/HeavyContext.cpp ****       hv_assert(numBytes >= sizeof(ReceiverMessagePair));
 1433              		.loc 2 207 7 view .LVU307
 1434 0082 0D4B     		ldr	r3, .L87+4
 1435 0084 CF21     		movs	r1, #207
 1436 0086 0D4A     		ldr	r2, .L87+8
 1437 0088 0D48     		ldr	r0, .L87+12
 1438              	.LVL114:
 207:source/HeavyContext.cpp ****       hv_assert(numBytes >= sizeof(ReceiverMessagePair));
 1439              		.loc 2 207 7 view .LVU308
 1440 008a FFF7FEFF 		bl	__assert_func
 1441              	.LVL115:
 1442              	.L85:
 208:source/HeavyContext.cpp ****       hv_assert((numBytes <= msgLengthBytes) &&
 1443              		.loc 2 208 7 view .LVU309
 1444 008e 0D4B     		ldr	r3, .L87+16
 1445 0090 D021     		movs	r1, #208
 1446 0092 0A4A     		ldr	r2, .L87+8
 1447 0094 0A48     		ldr	r0, .L87+12
 1448              	.LVL116:
 208:source/HeavyContext.cpp ****       hv_assert((numBytes <= msgLengthBytes) &&
 1449              		.loc 2 208 7 view .LVU310
 1450 0096 FFF7FEFF 		bl	__assert_func
 1451              	.LVL117:
 1452              	.L86:
 209:source/HeavyContext.cpp ****           "::getNextSentMessage - the sent message is bigger than the message "
 1453              		.loc 2 209 7 view .LVU311
 1454 009a 0B4B     		ldr	r3, .L87+20
 1455 009c D121     		movs	r1, #209
 1456 009e 074A     		ldr	r2, .L87+8
 1457 00a0 0748     		ldr	r0, .L87+12
 1458              	.LVL118:
 209:source/HeavyContext.cpp ****           "::getNextSentMessage - the sent message is bigger than the message "
 1459              		.loc 2 209 7 view .LVU312
 1460 00a2 FFF7FEFF 		bl	__assert_func
ARM GAS  /var/folders/fb/yfxt3z4538j6z0vjt03w70vc0000gn/T//ccfrU3iz.s 			page 42


 1461              	.LVL119:
 1462              	.L83:
 209:source/HeavyContext.cpp ****           "::getNextSentMessage - the sent message is bigger than the message "
 1463              		.loc 2 209 7 view .LVU313
 1464              	.LBE150:
 1465              	.LBE155:
 1466              	.LBE157:
 1467              	.LBE159:
 1468              	.LBE161:
 199:source/HeavyContext.cpp ****       "::getNextSentMessage - this function won't do anything if the msg outQueue "
 1469              		.loc 2 199 3 discriminator 1 view .LVU314
 1470 00a6 094B     		ldr	r3, .L87+24
 1471 00a8 C721     		movs	r1, #199
 1472 00aa 044A     		ldr	r2, .L87+8
 1473 00ac 0448     		ldr	r0, .L87+12
 1474              	.LVL120:
 199:source/HeavyContext.cpp ****       "::getNextSentMessage - this function won't do anything if the msg outQueue "
 1475              		.loc 2 199 3 discriminator 1 view .LVU315
 1476 00ae FFF7FEFF 		bl	__assert_func
 1477              	.LVL121:
 1478              	.L88:
 1479 00b2 00BF     		.align	2
 1480              	.L87:
 1481 00b4 00000000 		.word	_Z15defaultSendHookP21HeavyContextInterfacePKcmPK9HvMessage
 1482 00b8 F8000000 		.word	.LC11
 1483 00bc A8000000 		.word	.LC10
 1484 00c0 58000000 		.word	.LC2
 1485 00c4 3C010000 		.word	.LC12
 1486 00c8 64010000 		.word	.LC13
 1487 00cc 00000000 		.word	.LC9
 1488              		.cfi_endproc
 1489              	.LFE1005:
 1491              		.section	.rodata._Z13_hv_table_getP21HeavyContextInterfacem.part.0.str1.4,"aMS",%progbits,1
 1492              		.align	2
 1493              	.LC14:
 1494 0000 6320213D 		.ascii	"c != nullptr\000"
 1494      206E756C 
 1494      6C707472 
 1494      00
 1495 000d 000000   		.align	2
 1496              	.LC15:
 1497 0010 48765461 		.ascii	"HvTable* _hv_table_get(HeavyContextInterface*, uint"
 1497      626C652A 
 1497      205F6876 
 1497      5F746162 
 1497      6C655F67 
 1498 0043 33325F74 		.ascii	"32_t)\000"
 1498      2900
 1499              		.section	.text._Z13_hv_table_getP21HeavyContextInterfacem.part.0,"ax",%progbits
 1500              		.align	1
 1501              		.p2align 2,,3
 1502              		.syntax unified
 1503              		.thumb
 1504              		.thumb_func
 1506              	_Z13_hv_table_getP21HeavyContextInterfacem.part.0:
 1507              	.LFB1036:
 220:source/HeavyContext.cpp **** 
ARM GAS  /var/folders/fb/yfxt3z4538j6z0vjt03w70vc0000gn/T//ccfrU3iz.s 			page 43


 221:source/HeavyContext.cpp **** hv_uint32_t HeavyContext::getHashForString(const char *str) {
 222:source/HeavyContext.cpp ****   return hv_string_to_hash(str);
 223:source/HeavyContext.cpp **** }
 224:source/HeavyContext.cpp **** 
 225:source/HeavyContext.cpp **** HvTable *_hv_table_get(HeavyContextInterface *c, hv_uint32_t tableHash) {
 1508              		.loc 2 225 10 is_stmt 1 view -0
 1509              		.cfi_startproc
 1510              		@ Volatile: function does not return.
 1511              		@ args = 0, pretend = 0, frame = 0
 1512              		@ frame_needed = 0, uses_anonymous_args = 0
 1513              	.LVL122:
 1514              		.loc 2 225 10 is_stmt 0 view .LVU317
 1515 0000 08B5     		push	{r3, lr}
 1516              		.cfi_def_cfa_offset 8
 1517              		.cfi_offset 3, -8
 1518              		.cfi_offset 14, -4
 226:source/HeavyContext.cpp ****   hv_assert(c != nullptr);
 1519              		.loc 2 226 3 view .LVU318
 1520 0002 034A     		ldr	r2, .L91
 1521 0004 E221     		movs	r1, #226
 1522 0006 034B     		ldr	r3, .L91+4
 1523 0008 0348     		ldr	r0, .L91+8
 1524 000a FFF7FEFF 		bl	__assert_func
 1525              	.LVL123:
 1526              	.L92:
 1527 000e 00BF     		.align	2
 1528              	.L91:
 1529 0010 10000000 		.word	.LC15
 1530 0014 00000000 		.word	.LC14
 1531 0018 58000000 		.word	.LC2
 1532              		.cfi_endproc
 1533              	.LFE1036:
 1535              		.section	.rodata._Z30_hv_scheduleMessageForReceiverP21HeavyContextInterfacemP9HvMessage.part.0.str
 1536              		.align	2
 1537              	.LC16:
 1538 0000 766F6964 		.ascii	"void _hv_scheduleMessageForReceiver(HeavyContextInt"
 1538      205F6876 
 1538      5F736368 
 1538      6564756C 
 1538      654D6573 
 1539 0033 65726661 		.ascii	"erface*, uint32_t, HvMessage*)\000"
 1539      63652A2C 
 1539      2075696E 
 1539      7433325F 
 1539      742C2048 
 1540              		.section	.text._Z30_hv_scheduleMessageForReceiverP21HeavyContextInterfacemP9HvMessage.part.0,"ax",
 1541              		.align	1
 1542              		.p2align 2,,3
 1543              		.syntax unified
 1544              		.thumb
 1545              		.thumb_func
 1547              	_Z30_hv_scheduleMessageForReceiverP21HeavyContextInterfacemP9HvMessage.part.0:
 1548              	.LFB1037:
 227:source/HeavyContext.cpp ****   return reinterpret_cast<HeavyContext *>(c)->getTableForHash(tableHash);
 228:source/HeavyContext.cpp **** }
 229:source/HeavyContext.cpp **** 
 230:source/HeavyContext.cpp **** void _hv_scheduleMessageForReceiver(HeavyContextInterface *c, hv_uint32_t receiverHash, HvMessage *
ARM GAS  /var/folders/fb/yfxt3z4538j6z0vjt03w70vc0000gn/T//ccfrU3iz.s 			page 44


 1549              		.loc 2 230 6 is_stmt 1 view -0
 1550              		.cfi_startproc
 1551              		@ Volatile: function does not return.
 1552              		@ args = 0, pretend = 0, frame = 0
 1553              		@ frame_needed = 0, uses_anonymous_args = 0
 1554              	.LVL124:
 1555              		.loc 2 230 6 is_stmt 0 view .LVU320
 1556 0000 08B5     		push	{r3, lr}
 1557              		.cfi_def_cfa_offset 8
 1558              		.cfi_offset 3, -8
 1559              		.cfi_offset 14, -4
 231:source/HeavyContext.cpp ****   hv_assert(c != nullptr);
 1560              		.loc 2 231 3 view .LVU321
 1561 0002 034A     		ldr	r2, .L95
 1562 0004 E721     		movs	r1, #231
 1563 0006 034B     		ldr	r3, .L95+4
 1564 0008 0348     		ldr	r0, .L95+8
 1565 000a FFF7FEFF 		bl	__assert_func
 1566              	.LVL125:
 1567              	.L96:
 1568 000e 00BF     		.align	2
 1569              	.L95:
 1570 0010 00000000 		.word	.LC16
 1571 0014 00000000 		.word	.LC14
 1572 0018 58000000 		.word	.LC2
 1573              		.cfi_endproc
 1574              	.LFE1037:
 1576              		.section	.rodata._Z28_hv_scheduleMessageForObjectP21HeavyContextInterfacePK9HvMessagePFvS0_iS3_Ei.
 1577              		.align	2
 1578              	.LC17:
 1579 0000 48764D65 		.ascii	"HvMessage* _hv_scheduleMessageForObject(HeavyContex"
 1579      73736167 
 1579      652A205F 
 1579      68765F73 
 1579      63686564 
 1580 0033 74496E74 		.ascii	"tInterface*, const HvMessage*, void (*)(HeavyContex"
 1580      65726661 
 1580      63652A2C 
 1580      20636F6E 
 1580      73742048 
 1581 0066 74496E74 		.ascii	"tInterface*, int, const HvMessage*), int)\000"
 1581      65726661 
 1581      63652A2C 
 1581      20696E74 
 1581      2C20636F 
 1582              		.section	.text._Z28_hv_scheduleMessageForObjectP21HeavyContextInterfacePK9HvMessagePFvS0_iS3_Ei.pa
 1583              		.align	1
 1584              		.p2align 2,,3
 1585              		.syntax unified
 1586              		.thumb
 1587              		.thumb_func
 1589              	_Z28_hv_scheduleMessageForObjectP21HeavyContextInterfacePK9HvMessagePFvS0_iS3_Ei.part.0:
 1590              	.LFB1038:
 232:source/HeavyContext.cpp ****   reinterpret_cast<HeavyContext *>(c)->scheduleMessageForReceiver(receiverHash, m);
 233:source/HeavyContext.cpp **** }
 234:source/HeavyContext.cpp **** 
 235:source/HeavyContext.cpp **** HvMessage *_hv_scheduleMessageForObject(HeavyContextInterface *c, const HvMessage *m,
ARM GAS  /var/folders/fb/yfxt3z4538j6z0vjt03w70vc0000gn/T//ccfrU3iz.s 			page 45


 1591              		.loc 2 235 12 is_stmt 1 view -0
 1592              		.cfi_startproc
 1593              		@ Volatile: function does not return.
 1594              		@ args = 0, pretend = 0, frame = 0
 1595              		@ frame_needed = 0, uses_anonymous_args = 0
 1596              	.LVL126:
 1597              		.loc 2 235 12 is_stmt 0 view .LVU323
 1598 0000 08B5     		push	{r3, lr}
 1599              		.cfi_def_cfa_offset 8
 1600              		.cfi_offset 3, -8
 1601              		.cfi_offset 14, -4
 236:source/HeavyContext.cpp ****     void (*sendMessage)(HeavyContextInterface *, int, const HvMessage *),
 237:source/HeavyContext.cpp ****     int letIndex) {
 238:source/HeavyContext.cpp ****   hv_assert(c != nullptr);
 1602              		.loc 2 238 3 view .LVU324
 1603 0002 034A     		ldr	r2, .L99
 1604 0004 EE21     		movs	r1, #238
 1605 0006 034B     		ldr	r3, .L99+4
 1606 0008 0348     		ldr	r0, .L99+8
 1607 000a FFF7FEFF 		bl	__assert_func
 1608              	.LVL127:
 1609              	.L100:
 1610 000e 00BF     		.align	2
 1611              	.L99:
 1612 0010 00000000 		.word	.LC17
 1613 0014 00000000 		.word	.LC14
 1614 0018 58000000 		.word	.LC2
 1615              		.cfi_endproc
 1616              	.LFE1038:
 1618              		.section	.rodata._ZN12HeavyContext21sendMessageToReceiverEmdP9HvMessage.str1.4,"aMS",%progbits,1
 1619              		.align	2
 1620              	.LC18:
 1621 0000 64656C61 		.ascii	"delayMs >= 0.0\000"
 1621      794D7320 
 1621      3E3D2030 
 1621      2E3000
 1622 000f 00       		.align	2
 1623              	.LC19:
 1624 0010 76697274 		.ascii	"virtual bool HeavyContext::sendMessageToReceiver(ui"
 1624      75616C20 
 1624      626F6F6C 
 1624      20486561 
 1624      7679436F 
 1625 0043 6E743332 		.ascii	"nt32_t, double, HvMessage*)\000"
 1625      5F742C20 
 1625      646F7562 
 1625      6C652C20 
 1625      48764D65 
 1626 005f 00       		.align	2
 1627              	.LC20:
 1628 0060 6D20213D 		.ascii	"m != nullptr\000"
 1628      206E756C 
 1628      6C707472 
 1628      00
 1629 006d 000000   		.align	2
 1630              	.LC21:
 1631 0070 66616C73 		.ascii	"false && \"::sendMessageToReceiver - The input mess"
ARM GAS  /var/folders/fb/yfxt3z4538j6z0vjt03w70vc0000gn/T//ccfrU3iz.s 			page 46


 1631      65202626 
 1631      20223A3A 
 1631      73656E64 
 1631      4D657373 
 1632 00a2 61676520 		.ascii	"age queue is full and cannot accept more messages u"
 1632      71756575 
 1632      65206973 
 1632      2066756C 
 1632      6C20616E 
 1633 00d5 6E74696C 		.ascii	"ntil they \" \"have been processed. Try increasing "
 1633      20746865 
 1633      79202220 
 1633      22686176 
 1633      65206265 
 1634 0106 74686520 		.ascii	"the inQueueKb size in the new_with_options() constr"
 1634      696E5175 
 1634      6575654B 
 1634      62207369 
 1634      7A652069 
 1635 0139 7563746F 		.ascii	"uctor.\"\000"
 1635      722E2200 
 1636              		.section	.text._ZN12HeavyContext21sendMessageToReceiverEmdP9HvMessage,"ax",%progbits
 1637              		.align	1
 1638              		.p2align 2,,3
 1639              		.global	_ZN12HeavyContext21sendMessageToReceiverEmdP9HvMessage
 1640              		.syntax unified
 1641              		.thumb
 1642              		.thumb_func
 1644              	_ZN12HeavyContext21sendMessageToReceiverEmdP9HvMessage:
 1645              	.LVL128:
 1646              	.LFB994:
 114:source/HeavyContext.cpp ****   hv_assert(delayMs >= 0.0);
 1647              		.loc 2 114 98 is_stmt 1 view -0
 1648              		.cfi_startproc
 1649              		@ args = 0, pretend = 0, frame = 0
 1650              		@ frame_needed = 0, uses_anonymous_args = 0
 115:source/HeavyContext.cpp ****   hv_assert(m != nullptr);
 1651              		.loc 2 115 3 view .LVU326
 114:source/HeavyContext.cpp ****   hv_assert(delayMs >= 0.0);
 1652              		.loc 2 114 98 is_stmt 0 view .LVU327
 1653 0000 2DE9F84F 		push	{r3, r4, r5, r6, r7, r8, r9, r10, fp, lr}
 1654              		.cfi_def_cfa_offset 40
 1655              		.cfi_offset 3, -40
 1656              		.cfi_offset 4, -36
 1657              		.cfi_offset 5, -32
 1658              		.cfi_offset 6, -28
 1659              		.cfi_offset 7, -24
 1660              		.cfi_offset 8, -20
 1661              		.cfi_offset 9, -16
 1662              		.cfi_offset 10, -12
 1663              		.cfi_offset 11, -8
 1664              		.cfi_offset 14, -4
 1665 0004 2DED028B 		vpush.64	{d8}
 1666              		.cfi_def_cfa_offset 48
 1667              		.cfi_offset 80, -48
 1668              		.cfi_offset 81, -44
 115:source/HeavyContext.cpp ****   hv_assert(m != nullptr);
ARM GAS  /var/folders/fb/yfxt3z4538j6z0vjt03w70vc0000gn/T//ccfrU3iz.s 			page 47


 1669              		.loc 2 115 3 view .LVU328
 1670 0008 9FED338B 		vldr.64	d8, .L116
 1671 000c B4EEC80B 		vcmpe.f64	d0, d8
 1672 0010 F1EE10FA 		vmrs	APSR_nzcv, FPSCR
 1673 0014 59DB     		blt	.L113
 116:source/HeavyContext.cpp **** 
 1674              		.loc 2 116 3 is_stmt 1 view .LVU329
 1675 0016 1746     		mov	r7, r2
 1676 0018 002A     		cmp	r2, #0
 1677 001a 50D0     		beq	.L114
 119:source/HeavyContext.cpp **** 
 1678              		.loc 2 119 60 is_stmt 0 view .LVU330
 1679 001c 0368     		ldr	r3, [r0]
 1680 001e 0546     		mov	r5, r0
 1681 0020 314A     		ldr	r2, .L116+16
 1682              	.LVL129:
 119:source/HeavyContext.cpp **** 
 1683              		.loc 2 119 60 view .LVU331
 1684 0022 8846     		mov	r8, r1
 118:source/HeavyContext.cpp ****       (hv_uint32_t) (hv_max_d(0.0, delayMs)*(getSampleRate()/1000.0));
 1685              		.loc 2 118 3 is_stmt 1 view .LVU332
 119:source/HeavyContext.cpp **** 
 1686              		.loc 2 119 60 is_stmt 0 view .LVU333
 1687 0024 9B69     		ldr	r3, [r3, #24]
 119:source/HeavyContext.cpp **** 
 1688              		.loc 2 119 22 view .LVU334
 1689 0026 88FE008B 		vmaxnm.f64	d8, d8, d0
 118:source/HeavyContext.cpp ****       (hv_uint32_t) (hv_max_d(0.0, delayMs)*(getSampleRate()/1000.0));
 1690              		.loc 2 118 33 view .LVU335
 1691 002a 0669     		ldr	r6, [r0, #16]
 1692 002c 9342     		cmp	r3, r2
 1693 002e 3ED1     		bne	.L104
 1694              	.LVL130:
 1695              	.LBB174:
 1696              	.LBI174:
  35:source/HeavyContext.hpp **** 
 1697              		.loc 1 35 10 is_stmt 1 view .LVU336
 1698              	.LBB175:
  35:source/HeavyContext.hpp **** 
 1699              		.loc 1 35 37 view .LVU337
  35:source/HeavyContext.hpp **** 
 1700              		.loc 1 35 44 is_stmt 0 view .LVU338
 1701 0030 90ED020B 		vldr.64	d0, [r0, #8]
 1702              	.LVL131:
 1703              	.L105:
  35:source/HeavyContext.hpp **** 
 1704              		.loc 1 35 44 view .LVU339
 1705              	.LBE175:
 1706              	.LBE174:
 119:source/HeavyContext.cpp **** 
 1707              		.loc 2 119 61 view .LVU340
 1708 0034 9FED2A6B 		vldr.64	d6, .L116+8
 1709              	.LBB176:
 1710              	.LBB177:
 202:/Library/DaisyToolchain/0.2.0/arm/arm-none-eabi/include/c++/10.3.1/bits/atomic_base.h ****     }
 1711              		.loc 4 202 37 view .LVU341
 1712 0038 05F18403 		add	r3, r5, #132
ARM GAS  /var/folders/fb/yfxt3z4538j6z0vjt03w70vc0000gn/T//ccfrU3iz.s 			page 48


 1713              	.LBE177:
 1714              	.LBE176:
 119:source/HeavyContext.cpp **** 
 1715              		.loc 2 119 61 view .LVU342
 1716 003c 80EE067B 		vdiv.f64	d7, d0, d6
 119:source/HeavyContext.cpp **** 
 1717              		.loc 2 119 44 view .LVU343
 1718 0040 27EE087B 		vmul.f64	d7, d7, d8
 119:source/HeavyContext.cpp **** 
 1719              		.loc 2 119 7 view .LVU344
 1720 0044 BCEEC77B 		vcvt.u32.f64	s14, d7
 119:source/HeavyContext.cpp **** 
 1721              		.loc 2 119 69 view .LVU345
 1722 0048 17EE102A 		vmov	r2, s14	@ int
 1723 004c 3244     		add	r2, r2, r6
 1724 004e 1646     		mov	r6, r2
 1725              	.LVL132:
 121:source/HeavyContext.cpp ****   HV_SPINLOCK_ACQUIRE(inQueueLock);
 1726              		.loc 2 121 3 is_stmt 1 view .LVU346
 1727              	.L106:
 122:source/HeavyContext.cpp ****   const hv_uint32_t numBytes = sizeof(ReceiverMessagePair) + msg_getSize(m) - sizeof(HvMessage);
 1728              		.loc 2 122 3 view .LVU347
 122:source/HeavyContext.cpp ****   const hv_uint32_t numBytes = sizeof(ReceiverMessagePair) + msg_getSize(m) - sizeof(HvMessage);
 1729              		.loc 2 122 3 view .LVU348
 1730              	.LBB179:
 1731              	.LBI176:
 200:/Library/DaisyToolchain/0.2.0/arm/arm-none-eabi/include/c++/10.3.1/bits/atomic_base.h ****     {
 1732              		.loc 4 200 5 view .LVU349
 1733              	.LBB178:
 202:/Library/DaisyToolchain/0.2.0/arm/arm-none-eabi/include/c++/10.3.1/bits/atomic_base.h ****     }
 1734              		.loc 4 202 7 view .LVU350
 202:/Library/DaisyToolchain/0.2.0/arm/arm-none-eabi/include/c++/10.3.1/bits/atomic_base.h ****     }
 1735              		.loc 4 202 36 is_stmt 0 view .LVU351
 1736 0050 4FF0010C 		mov	ip, #1
 1737              	.L111:
 1738 0054 D3E84F4F 		ldrexb	r4, [r3]
 1739 0058 C3E842CF 		strexb	r2, ip, [r3]
 1740 005c 002A     		cmp	r2, #0
 1741 005e F9D1     		bne	.L111
 1742 0060 E4B2     		uxtb	r4, r4
 1743              	.LVL133:
 202:/Library/DaisyToolchain/0.2.0/arm/arm-none-eabi/include/c++/10.3.1/bits/atomic_base.h ****     }
 1744              		.loc 4 202 36 view .LVU352
 1745 0062 BFF35B8F 		dmb	ish
 1746              	.LBE178:
 1747              	.LBE179:
 122:source/HeavyContext.cpp ****   const hv_uint32_t numBytes = sizeof(ReceiverMessagePair) + msg_getSize(m) - sizeof(HvMessage);
 1748              		.loc 2 122 3 view .LVU353
 1749 0066 002C     		cmp	r4, #0
 1750 0068 F2D1     		bne	.L106
 123:source/HeavyContext.cpp ****   p = (ReceiverMessagePair *) hLp_getWriteBuffer(&inQueue, numBytes);
 1751              		.loc 2 123 3 is_stmt 1 view .LVU354
 1752              	.LVL134:
 1753              	.LBB180:
 1754              	.LBI180:
  95:source/HvMessage.h ****   return m->numBytes;
 1755              		.loc 5 95 27 view .LVU355
ARM GAS  /var/folders/fb/yfxt3z4538j6z0vjt03w70vc0000gn/T//ccfrU3iz.s 			page 49


 1756              	.LBB181:
 1757              		.loc 5 96 3 view .LVU356
 1758              		.loc 5 96 13 is_stmt 0 view .LVU357
 1759 006a B7F806A0 		ldrh	r10, [r7, #6]
 1760              	.LBE181:
 1761              	.LBE180:
 124:source/HeavyContext.cpp ****   if (p != nullptr) {
 1762              		.loc 2 124 49 view .LVU358
 1763 006e 05F15C0B 		add	fp, r5, #92
 123:source/HeavyContext.cpp ****   p = (ReceiverMessagePair *) hLp_getWriteBuffer(&inQueue, numBytes);
 1764              		.loc 2 123 95 view .LVU359
 1765 0072 0AF1040A 		add	r10, r10, #4
 1766              	.LVL135:
 124:source/HeavyContext.cpp ****   if (p != nullptr) {
 1767              		.loc 2 124 3 is_stmt 1 view .LVU360
 124:source/HeavyContext.cpp ****   if (p != nullptr) {
 1768              		.loc 2 124 49 is_stmt 0 view .LVU361
 1769 0076 5846     		mov	r0, fp
 1770 0078 5146     		mov	r1, r10
 1771 007a FFF7FEFF 		bl	hLp_getWriteBuffer
 1772              	.LVL136:
 125:source/HeavyContext.cpp ****     p->receiverHash = receiverHash;
 1773              		.loc 2 125 3 is_stmt 1 view .LVU362
 1774 007e 8146     		mov	r9, r0
 1775 0080 B8B1     		cbz	r0, .L115
 126:source/HeavyContext.cpp ****     msg_copyToBuffer(m, (char *) &p->msg, msg_getSize(m));
 1776              		.loc 2 126 5 view .LVU363
 126:source/HeavyContext.cpp ****     msg_copyToBuffer(m, (char *) &p->msg, msg_getSize(m));
 1777              		.loc 2 126 21 is_stmt 0 view .LVU364
 1778 0082 0146     		mov	r1, r0
 127:source/HeavyContext.cpp ****     msg_setTimestamp(&p->msg, timestamp);
 1779              		.loc 2 127 21 view .LVU365
 1780 0084 FA88     		ldrh	r2, [r7, #6]
 1781 0086 3846     		mov	r0, r7
 1782              	.LVL137:
 126:source/HeavyContext.cpp ****     msg_copyToBuffer(m, (char *) &p->msg, msg_getSize(m));
 1783              		.loc 2 126 21 view .LVU366
 1784 0088 41F8048B 		str	r8, [r1], #4
 1785              	.LVL138:
 127:source/HeavyContext.cpp ****     msg_setTimestamp(&p->msg, timestamp);
 1786              		.loc 2 127 5 is_stmt 1 view .LVU367
 1787              	.LBB182:
 1788              	.LBI182:
  95:source/HvMessage.h ****   return m->numBytes;
 1789              		.loc 5 95 27 view .LVU368
 1790              	.LBB183:
 1791              		.loc 5 96 3 view .LVU369
 1792              		.loc 5 96 3 is_stmt 0 view .LVU370
 1793              	.LBE183:
 1794              	.LBE182:
 127:source/HeavyContext.cpp ****     msg_setTimestamp(&p->msg, timestamp);
 1795              		.loc 2 127 21 view .LVU371
 1796 008c FFF7FEFF 		bl	msg_copyToBuffer
 1797              	.LVL139:
 128:source/HeavyContext.cpp ****     hLp_produce(&inQueue, numBytes);
 1798              		.loc 2 128 5 is_stmt 1 view .LVU372
 1799              	.LBB184:
ARM GAS  /var/folders/fb/yfxt3z4538j6z0vjt03w70vc0000gn/T//ccfrU3iz.s 			page 50


 1800              	.LBI184:
  86:source/HvMessage.h ****   m->timestamp = timestamp;
 1801              		.loc 5 86 20 view .LVU373
 1802              	.LBB185:
  87:source/HvMessage.h **** }
 1803              		.loc 5 87 3 view .LVU374
 1804              	.LBE185:
 1805              	.LBE184:
 129:source/HeavyContext.cpp ****   } else {
 1806              		.loc 2 129 16 is_stmt 0 view .LVU375
 1807 0090 5846     		mov	r0, fp
 1808 0092 5146     		mov	r1, r10
 1809              	.LBB187:
 1810              	.LBB186:
  87:source/HvMessage.h **** }
 1811              		.loc 5 87 16 view .LVU376
 1812 0094 C9F80460 		str	r6, [r9, #4]
 1813              	.LVL140:
  87:source/HvMessage.h **** }
 1814              		.loc 5 87 16 view .LVU377
 1815              	.LBE186:
 1816              	.LBE187:
 129:source/HeavyContext.cpp ****   } else {
 1817              		.loc 2 129 5 is_stmt 1 view .LVU378
 129:source/HeavyContext.cpp ****   } else {
 1818              		.loc 2 129 16 is_stmt 0 view .LVU379
 1819 0098 FFF7FEFF 		bl	hLp_produce
 1820              	.LVL141:
 135:source/HeavyContext.cpp ****   return (p != nullptr);
 1821              		.loc 2 135 3 is_stmt 1 view .LVU380
 1822              	.LBB188:
 1823              	.LBI188:
 212:/Library/DaisyToolchain/0.2.0/arm/arm-none-eabi/include/c++/10.3.1/bits/atomic_base.h ****     {
 1824              		.loc 4 212 5 view .LVU381
 1825              	.LBB189:
 214:/Library/DaisyToolchain/0.2.0/arm/arm-none-eabi/include/c++/10.3.1/bits/atomic_base.h ****       __glibcxx_assert(__b != memory_order_consume);
 1826              		.loc 4 214 7 view .LVU382
 215:/Library/DaisyToolchain/0.2.0/arm/arm-none-eabi/include/c++/10.3.1/bits/atomic_base.h ****       __glibcxx_assert(__b != memory_order_acquire);
 1827              		.loc 4 215 52 view .LVU383
 216:/Library/DaisyToolchain/0.2.0/arm/arm-none-eabi/include/c++/10.3.1/bits/atomic_base.h ****       __glibcxx_assert(__b != memory_order_acq_rel);
 1828              		.loc 4 216 52 view .LVU384
 217:/Library/DaisyToolchain/0.2.0/arm/arm-none-eabi/include/c++/10.3.1/bits/atomic_base.h **** 
 1829              		.loc 4 217 52 view .LVU385
 1830              		.loc 4 219 7 view .LVU386
 1831              		.loc 4 219 22 is_stmt 0 view .LVU387
 1832 009c BFF35B8F 		dmb	ish
 1833 00a0 85F88440 		strb	r4, [r5, #132]
 1834              	.LVL142:
 1835              		.loc 4 219 22 view .LVU388
 1836              	.LBE189:
 1837              	.LBE188:
 136:source/HeavyContext.cpp **** }
 1838              		.loc 2 136 3 is_stmt 1 view .LVU389
 137:source/HeavyContext.cpp **** 
 1839              		.loc 2 137 1 is_stmt 0 view .LVU390
 1840 00a4 0120     		movs	r0, #1
 1841 00a6 BDEC028B 		vldm	sp!, {d8}
ARM GAS  /var/folders/fb/yfxt3z4538j6z0vjt03w70vc0000gn/T//ccfrU3iz.s 			page 51


 1842              		.cfi_remember_state
 1843              		.cfi_restore 80
 1844              		.cfi_restore 81
 1845              		.cfi_def_cfa_offset 40
 1846 00aa BDE8F88F 		pop	{r3, r4, r5, r6, r7, r8, r9, r10, fp, pc}
 1847              	.LVL143:
 1848              	.L104:
 1849              		.cfi_restore_state
 119:source/HeavyContext.cpp **** 
 1850              		.loc 2 119 59 view .LVU391
 1851 00ae 9847     		blx	r3
 1852              	.LVL144:
 119:source/HeavyContext.cpp **** 
 1853              		.loc 2 119 59 view .LVU392
 1854 00b0 C0E7     		b	.L105
 1855              	.LVL145:
 1856              	.L115:
 131:source/HeavyContext.cpp ****         "::sendMessageToReceiver - The input message queue is full and cannot accept more messages 
 1857              		.loc 2 131 5 is_stmt 1 view .LVU393
 1858 00b2 0E4B     		ldr	r3, .L116+20
 1859 00b4 8321     		movs	r1, #131
 1860 00b6 0E4A     		ldr	r2, .L116+24
 1861 00b8 0E48     		ldr	r0, .L116+28
 1862              	.LVL146:
 131:source/HeavyContext.cpp ****         "::sendMessageToReceiver - The input message queue is full and cannot accept more messages 
 1863              		.loc 2 131 5 is_stmt 0 view .LVU394
 1864 00ba FFF7FEFF 		bl	__assert_func
 1865              	.LVL147:
 1866              	.L114:
 116:source/HeavyContext.cpp **** 
 1867              		.loc 2 116 3 discriminator 1 view .LVU395
 1868 00be 0E4B     		ldr	r3, .L116+32
 1869 00c0 7421     		movs	r1, #116
 1870              	.LVL148:
 116:source/HeavyContext.cpp **** 
 1871              		.loc 2 116 3 discriminator 1 view .LVU396
 1872 00c2 0B4A     		ldr	r2, .L116+24
 1873              	.LVL149:
 116:source/HeavyContext.cpp **** 
 1874              		.loc 2 116 3 discriminator 1 view .LVU397
 1875 00c4 0B48     		ldr	r0, .L116+28
 1876              	.LVL150:
 116:source/HeavyContext.cpp **** 
 1877              		.loc 2 116 3 discriminator 1 view .LVU398
 1878 00c6 FFF7FEFF 		bl	__assert_func
 1879              	.LVL151:
 1880              	.L113:
 115:source/HeavyContext.cpp ****   hv_assert(m != nullptr);
 1881              		.loc 2 115 3 discriminator 1 view .LVU399
 1882 00ca 0C4B     		ldr	r3, .L116+36
 1883 00cc 7321     		movs	r1, #115
 1884              	.LVL152:
 115:source/HeavyContext.cpp ****   hv_assert(m != nullptr);
 1885              		.loc 2 115 3 discriminator 1 view .LVU400
 1886 00ce 084A     		ldr	r2, .L116+24
 1887              	.LVL153:
 115:source/HeavyContext.cpp ****   hv_assert(m != nullptr);
ARM GAS  /var/folders/fb/yfxt3z4538j6z0vjt03w70vc0000gn/T//ccfrU3iz.s 			page 52


 1888              		.loc 2 115 3 discriminator 1 view .LVU401
 1889 00d0 0848     		ldr	r0, .L116+28
 1890              	.LVL154:
 115:source/HeavyContext.cpp ****   hv_assert(m != nullptr);
 1891              		.loc 2 115 3 discriminator 1 view .LVU402
 1892 00d2 FFF7FEFF 		bl	__assert_func
 1893              	.LVL155:
 1894              	.L117:
 115:source/HeavyContext.cpp ****   hv_assert(m != nullptr);
 1895              		.loc 2 115 3 discriminator 1 view .LVU403
 1896 00d6 00BF     		.align	3
 1897              	.L116:
 1898 00d8 00000000 		.word	0
 1899 00dc 00000000 		.word	0
 1900 00e0 00000000 		.word	0
 1901 00e4 00408F40 		.word	1083129856
 1902 00e8 00000000 		.word	_ZN12HeavyContext13getSampleRateEv
 1903 00ec 70000000 		.word	.LC21
 1904 00f0 10000000 		.word	.LC19
 1905 00f4 58000000 		.word	.LC2
 1906 00f8 60000000 		.word	.LC20
 1907 00fc 00000000 		.word	.LC18
 1908              		.cfi_endproc
 1909              	.LFE994:
 1911              		.section	.rodata._ZN12HeavyContext22sendMessageToReceiverVEmdPKcz.str1.4,"aMS",%progbits,1
 1912              		.align	2
 1913              	.LC22:
 1914 0000 76697274 		.ascii	"virtual bool HeavyContext::sendMessageToReceiverV(u"
 1914      75616C20 
 1914      626F6F6C 
 1914      20486561 
 1914      7679436F 
 1915 0033 696E7433 		.ascii	"int32_t, double, const char*, ...)\000"
 1915      325F742C 
 1915      20646F75 
 1915      626C652C 
 1915      20636F6E 
 1916 0056 0000     		.align	2
 1917              	.LC23:
 1918 0058 666F726D 		.ascii	"format != nullptr\000"
 1918      61742021 
 1918      3D206E75 
 1918      6C6C7074 
 1918      7200
 1919 006a 0000     		.align	2
 1920              	.LC24:
 1921 006c 6E756D45 		.ascii	"numElements > 0\000"
 1921      6C656D65 
 1921      6E747320 
 1921      3E203000 
 1922              		.align	2
 1923              	.LC25:
 1924 007c 73697A65 		.ascii	"size_t msg_getCoreSize(size_t)\000"
 1924      5F74206D 
 1924      73675F67 
 1924      6574436F 
 1924      72655369 
ARM GAS  /var/folders/fb/yfxt3z4538j6z0vjt03w70vc0000gn/T//ccfrU3iz.s 			page 53


 1925 009b 00       		.align	2
 1926              	.LC26:
 1927 009c 736F7572 		.ascii	"source/HvMessage.h\000"
 1927      63652F48 
 1927      764D6573 
 1927      73616765 
 1927      2E6800
 1928 00af 00       		.align	2
 1929              	.LC27:
 1930 00b0 696E6465 		.ascii	"index < msg_getNumElements(m)\000"
 1930      78203C20 
 1930      6D73675F 
 1930      6765744E 
 1930      756D456C 
 1931 00ce 0000     		.align	2
 1932              	.LC28:
 1933 00d0 766F6964 		.ascii	"void msg_setBang(HvMessage*, int)\000"
 1933      206D7367 
 1933      5F736574 
 1933      42616E67 
 1933      2848764D 
 1934 00f2 0000     		.align	2
 1935              	.LC29:
 1936 00f4 766F6964 		.ascii	"void msg_setFloat(HvMessage*, int, float)\000"
 1936      206D7367 
 1936      5F736574 
 1936      466C6F61 
 1936      74284876 
 1937 011e 0000     		.align	2
 1938              	.LC30:
 1939 0120 766F6964 		.ascii	"void msg_setHash(HvMessage*, int, uint32_t)\000"
 1939      206D7367 
 1939      5F736574 
 1939      48617368 
 1939      2848764D 
 1940              		.align	2
 1941              	.LC31:
 1942 014c 766F6964 		.ascii	"void msg_setSymbol(HvMessage*, int, const char*)\000"
 1942      206D7367 
 1942      5F736574 
 1942      53796D62 
 1942      6F6C2848 
 1943 017d 000000   		.align	2
 1944              	.LC32:
 1945 0180 7320213D 		.ascii	"s != __null\000"
 1945      205F5F6E 
 1945      756C6C00 
 1946              		.section	.text._ZN12HeavyContext22sendMessageToReceiverVEmdPKcz,"ax",%progbits
 1947              		.align	1
 1948              		.p2align 2,,3
 1949              		.global	_ZN12HeavyContext22sendMessageToReceiverVEmdPKcz
 1950              		.syntax unified
 1951              		.thumb
 1952              		.thumb_func
 1954              	_ZN12HeavyContext22sendMessageToReceiverVEmdPKcz:
 1955              	.LVL156:
 1956              	.LFB993:
ARM GAS  /var/folders/fb/yfxt3z4538j6z0vjt03w70vc0000gn/T//ccfrU3iz.s 			page 54


  90:source/HeavyContext.cpp ****   hv_assert(delayMs >= 0.0);
 1957              		.loc 2 90 110 is_stmt 1 view -0
 1958              		.cfi_startproc
 1959              		@ args = 4, pretend = 0, frame = 16
 1960              		@ frame_needed = 1, uses_anonymous_args = 1
  91:source/HeavyContext.cpp ****   hv_assert(format != nullptr);
 1961              		.loc 2 91 3 view .LVU405
  90:source/HeavyContext.cpp ****   hv_assert(delayMs >= 0.0);
 1962              		.loc 2 90 110 is_stmt 0 view .LVU406
 1963 0000 2DE9F04F 		push	{r4, r5, r6, r7, r8, r9, r10, fp, lr}
 1964              		.cfi_def_cfa_offset 36
 1965              		.cfi_offset 4, -36
 1966              		.cfi_offset 5, -32
 1967              		.cfi_offset 6, -28
 1968              		.cfi_offset 7, -24
 1969              		.cfi_offset 8, -20
 1970              		.cfi_offset 9, -16
 1971              		.cfi_offset 10, -12
 1972              		.cfi_offset 11, -8
 1973              		.cfi_offset 14, -4
 1974 0004 2DED048B 		vpush.64	{d8, d9}
 1975              		.cfi_def_cfa_offset 52
 1976              		.cfi_offset 80, -52
 1977              		.cfi_offset 81, -48
 1978              		.cfi_offset 82, -44
 1979              		.cfi_offset 83, -40
  91:source/HeavyContext.cpp ****   hv_assert(format != nullptr);
 1980              		.loc 2 91 3 view .LVU407
 1981 0008 9FED719B 		vldr.64	d9, .L147
  90:source/HeavyContext.cpp ****   hv_assert(delayMs >= 0.0);
 1982              		.loc 2 90 110 view .LVU408
 1983 000c 43EC182B 		vmov	d8, r2, r3
 1984 0010 85B0     		sub	sp, sp, #20
 1985              		.cfi_def_cfa_offset 72
  91:source/HeavyContext.cpp ****   hv_assert(format != nullptr);
 1986              		.loc 2 91 3 view .LVU409
 1987 0012 B4EEC98B 		vcmpe.f64	d8, d9
  90:source/HeavyContext.cpp ****   hv_assert(delayMs >= 0.0);
 1988              		.loc 2 90 110 view .LVU410
 1989 0016 00AF     		add	r7, sp, #0
 1990              		.cfi_def_cfa_register 7
  91:source/HeavyContext.cpp ****   hv_assert(format != nullptr);
 1991              		.loc 2 91 3 view .LVU411
 1992 0018 F1EE10FA 		vmrs	APSR_nzcv, FPSCR
  90:source/HeavyContext.cpp ****   hv_assert(delayMs >= 0.0);
 1993              		.loc 2 90 110 view .LVU412
 1994 001c BE6C     		ldr	r6, [r7, #72]
  91:source/HeavyContext.cpp ****   hv_assert(format != nullptr);
 1995              		.loc 2 91 3 view .LVU413
 1996 001e C0F2D080 		blt	.L138
  92:source/HeavyContext.cpp **** 
 1997              		.loc 2 92 3 is_stmt 1 view .LVU414
 1998 0022 002E     		cmp	r6, #0
 1999 0024 00F0C780 		beq	.L139
  94:source/HeavyContext.cpp ****   va_start(ap, format);
 2000              		.loc 2 94 3 view .LVU415
  95:source/HeavyContext.cpp ****   const int numElem = (int) hv_strlen(format);
ARM GAS  /var/folders/fb/yfxt3z4538j6z0vjt03w70vc0000gn/T//ccfrU3iz.s 			page 55


 2001              		.loc 2 95 3 view .LVU416
 2002 0028 07F14C03 		add	r3, r7, #76
 2003 002c 8246     		mov	r10, r0
  96:source/HeavyContext.cpp ****   HvMessage *m = HV_MESSAGE_ON_STACK(numElem);
 2004              		.loc 2 96 29 is_stmt 0 view .LVU417
 2005 002e 3046     		mov	r0, r6
 2006              	.LVL157:
  96:source/HeavyContext.cpp ****   HvMessage *m = HV_MESSAGE_ON_STACK(numElem);
 2007              		.loc 2 96 29 view .LVU418
 2008 0030 8946     		mov	r9, r1
  95:source/HeavyContext.cpp ****   const int numElem = (int) hv_strlen(format);
 2009              		.loc 2 95 3 view .LVU419
 2010 0032 FB60     		str	r3, [r7, #12]
  96:source/HeavyContext.cpp ****   HvMessage *m = HV_MESSAGE_ON_STACK(numElem);
 2011              		.loc 2 96 3 is_stmt 1 view .LVU420
  96:source/HeavyContext.cpp ****   HvMessage *m = HV_MESSAGE_ON_STACK(numElem);
 2012              		.loc 2 96 29 is_stmt 0 view .LVU421
 2013 0034 FFF7FEFF 		bl	strlen
 2014              	.LVL158:
  97:source/HeavyContext.cpp ****   msg_init(m, numElem, blockStartTimestamp + (hv_uint32_t) (hv_max_d(0.0, delayMs)*getSampleRate()/
 2015              		.loc 2 97 3 is_stmt 1 view .LVU422
 2016              	.LBB213:
 2017              	.LBI213:
  57:source/HvMessage.h ****   hv_assert(numElements > 0);
 2018              		.loc 5 57 25 view .LVU423
 2019              	.LBB214:
  58:source/HvMessage.h ****   return sizeof(HvMessage) + ((numElements-1) * sizeof(Element));
 2020              		.loc 5 58 3 view .LVU424
 2021 0038 8346     		mov	fp, r0
 2022 003a 0028     		cmp	r0, #0
 2023 003c 00F0B580 		beq	.L140
  59:source/HvMessage.h **** }
 2024              		.loc 5 59 3 view .LVU425
 2025              	.LVL159:
  59:source/HvMessage.h **** }
 2026              		.loc 5 59 64 is_stmt 0 view .LVU426
 2027 0040 C300     		lsls	r3, r0, #3
 2028 0042 6749     		ldr	r1, .L147+16
 2029              	.LBE214:
 2030              	.LBE213:
  98:source/HeavyContext.cpp ****   for (int i = 0; i < numElem; i++) {
 2031              		.loc 2 98 24 view .LVU427
 2032 0044 DAF81020 		ldr	r2, [r10, #16]
  98:source/HeavyContext.cpp ****   for (int i = 0; i < numElem; i++) {
 2033              		.loc 2 98 61 view .LVU428
 2034 0048 89FE089B 		vmaxnm.f64	d9, d9, d8
  97:source/HeavyContext.cpp ****   msg_init(m, numElem, blockStartTimestamp + (hv_uint32_t) (hv_max_d(0.0, delayMs)*getSampleRate()/
 2035              		.loc 2 97 18 view .LVU429
 2036 004c 0833     		adds	r3, r3, #8
 2037 004e ADEB030D 		sub	sp, sp, r3
  98:source/HeavyContext.cpp ****   for (int i = 0; i < numElem; i++) {
 2038              		.loc 2 98 98 view .LVU430
 2039 0052 DAF80030 		ldr	r3, [r10]
 2040 0056 9B69     		ldr	r3, [r3, #24]
  97:source/HeavyContext.cpp ****   msg_init(m, numElem, blockStartTimestamp + (hv_uint32_t) (hv_max_d(0.0, delayMs)*getSampleRate()/
 2041              		.loc 2 97 18 view .LVU431
 2042 0058 E846     		mov	r8, sp
ARM GAS  /var/folders/fb/yfxt3z4538j6z0vjt03w70vc0000gn/T//ccfrU3iz.s 			page 56


 2043              	.LVL160:
  98:source/HeavyContext.cpp ****   for (int i = 0; i < numElem; i++) {
 2044              		.loc 2 98 3 is_stmt 1 view .LVU432
 2045 005a 8B42     		cmp	r3, r1
 2046 005c 40F08280 		bne	.L122
 2047              	.LVL161:
 2048              	.LBB218:
 2049              	.LBI218:
  35:source/HeavyContext.hpp **** 
 2050              		.loc 1 35 10 view .LVU433
 2051              	.LBB219:
  35:source/HeavyContext.hpp **** 
 2052              		.loc 1 35 37 view .LVU434
  35:source/HeavyContext.hpp **** 
 2053              		.loc 1 35 44 is_stmt 0 view .LVU435
 2054 0060 9AED020B 		vldr.64	d0, [r10, #8]
 2055              	.LVL162:
 2056              	.L123:
  35:source/HeavyContext.hpp **** 
 2057              		.loc 1 35 44 view .LVU436
 2058              	.LBE219:
 2059              	.LBE218:
  98:source/HeavyContext.cpp ****   for (int i = 0; i < numElem; i++) {
 2060              		.loc 2 98 83 view .LVU437
 2061 0064 29EE009B 		vmul.f64	d9, d9, d0
  98:source/HeavyContext.cpp ****   for (int i = 0; i < numElem; i++) {
 2062              		.loc 2 98 11 view .LVU438
 2063 0068 5946     		mov	r1, fp
 2064 006a 4046     		mov	r0, r8
 2065 006c 013E     		subs	r6, r6, #1
 2066 006e 4546     		mov	r5, r8
 2067              	.LBB220:
  99:source/HeavyContext.cpp ****     switch (format[i]) {
 2068              		.loc 2 99 12 view .LVU439
 2069 0070 0024     		movs	r4, #0
 2070              	.LBE220:
  98:source/HeavyContext.cpp ****   for (int i = 0; i < numElem; i++) {
 2071              		.loc 2 98 99 view .LVU440
 2072 0072 9FED596B 		vldr.64	d6, .L147+8
 2073 0076 89EE067B 		vdiv.f64	d7, d9, d6
  98:source/HeavyContext.cpp ****   for (int i = 0; i < numElem; i++) {
 2074              		.loc 2 98 46 view .LVU441
 2075 007a BCEEC77B 		vcvt.u32.f64	s14, d7
  98:source/HeavyContext.cpp ****   for (int i = 0; i < numElem; i++) {
 2076              		.loc 2 98 11 view .LVU442
 2077 007e 17EE103A 		vmov	r3, s14	@ int
 2078 0082 1344     		add	r3, r3, r2
 2079 0084 1A46     		mov	r2, r3
 2080 0086 FFF7FEFF 		bl	msg_init
 2081              	.LVL163:
  99:source/HeavyContext.cpp ****     switch (format[i]) {
 2082              		.loc 2 99 3 is_stmt 1 view .LVU443
 2083              	.LBB279:
  99:source/HeavyContext.cpp ****     switch (format[i]) {
 2084              		.loc 2 99 21 view .LVU444
 2085              	.L135:
 100:source/HeavyContext.cpp ****       case 'b': msg_setBang(m, i); break;
ARM GAS  /var/folders/fb/yfxt3z4538j6z0vjt03w70vc0000gn/T//ccfrU3iz.s 			page 57


 2086              		.loc 2 100 5 view .LVU445
 2087 008a 16F8013F 		ldrb	r3, [r6, #1]!	@ zero_extendqisi2
 2088 008e 623B     		subs	r3, r3, #98
 2089 0090 112B     		cmp	r3, #17
 2090 0092 11D8     		bhi	.L124
 2091 0094 DFE803F0 		tbb	[pc, r3]
 2092              	.L126:
 2093 0098 09       		.byte	(.L129-.L126)/2
 2094 0099 10       		.byte	(.L124-.L126)/2
 2095 009a 10       		.byte	(.L124-.L126)/2
 2096 009b 10       		.byte	(.L124-.L126)/2
 2097 009c 4E       		.byte	(.L128-.L126)/2
 2098 009d 10       		.byte	(.L124-.L126)/2
 2099 009e 3E       		.byte	(.L127-.L126)/2
 2100 009f 10       		.byte	(.L124-.L126)/2
 2101 00a0 10       		.byte	(.L124-.L126)/2
 2102 00a1 10       		.byte	(.L124-.L126)/2
 2103 00a2 10       		.byte	(.L124-.L126)/2
 2104 00a3 10       		.byte	(.L124-.L126)/2
 2105 00a4 10       		.byte	(.L124-.L126)/2
 2106 00a5 10       		.byte	(.L124-.L126)/2
 2107 00a6 10       		.byte	(.L124-.L126)/2
 2108 00a7 10       		.byte	(.L124-.L126)/2
 2109 00a8 10       		.byte	(.L124-.L126)/2
 2110 00a9 23       		.byte	(.L125-.L126)/2
 2111              		.p2align 1
 2112              	.L129:
 101:source/HeavyContext.cpp ****       case 'f': msg_setFloat(m, i, (float) va_arg(ap, double)); break;
 2113              		.loc 2 101 7 view .LVU446
 101:source/HeavyContext.cpp ****       case 'f': msg_setFloat(m, i, (float) va_arg(ap, double)); break;
 2114              		.loc 2 101 17 view .LVU447
 2115              	.LVL164:
 2116              	.LBB221:
 2117              	.LBI221:
  97:source/HvMessage.h **** }
  98:source/HvMessage.h **** 
  99:source/HvMessage.h **** static inline ElementType msg_getType(const HvMessage *m, int index) {
 100:source/HvMessage.h ****   hv_assert(index < msg_getNumElements(m)); // invalid index
 101:source/HvMessage.h ****   return (&(m->elem)+index)->type;
 102:source/HvMessage.h **** }
 103:source/HvMessage.h **** 
 104:source/HvMessage.h **** static inline void msg_setBang(HvMessage *m, int index) {
 2118              		.loc 5 104 20 view .LVU448
 2119              	.LBB222:
 105:source/HvMessage.h ****   hv_assert(index < msg_getNumElements(m)); // invalid index
 2120              		.loc 5 105 3 view .LVU449
 2121              	.LBB223:
 2122              	.LBI223:
  90:source/HvMessage.h ****   return (int) m->numElements;
 2123              		.loc 5 90 19 view .LVU450
 2124              	.LBB224:
  91:source/HvMessage.h **** }
 2125              		.loc 5 91 3 view .LVU451
  91:source/HvMessage.h **** }
 2126              		.loc 5 91 19 is_stmt 0 view .LVU452
 2127 00aa B8F80430 		ldrh	r3, [r8, #4]
 2128              	.LBE224:
ARM GAS  /var/folders/fb/yfxt3z4538j6z0vjt03w70vc0000gn/T//ccfrU3iz.s 			page 58


 2129              	.LBE223:
 2130              		.loc 5 105 3 view .LVU453
 2131 00ae A342     		cmp	r3, r4
 2132 00b0 63DD     		ble	.L141
 106:source/HvMessage.h ****   (&(m->elem)+index)->type = HV_MSG_BANG;
 2133              		.loc 5 106 3 is_stmt 1 view .LVU454
 2134              		.loc 5 106 28 is_stmt 0 view .LVU455
 2135 00b2 0023     		movs	r3, #0
 2136 00b4 2B72     		strb	r3, [r5, #8]
 107:source/HvMessage.h ****   (&(m->elem)+index)->data.s = NULL;
 2137              		.loc 5 107 3 is_stmt 1 view .LVU456
 2138              		.loc 5 107 30 is_stmt 0 view .LVU457
 2139 00b6 EB60     		str	r3, [r5, #12]
 2140              	.LVL165:
 2141              	.L124:
 2142              		.loc 5 107 30 view .LVU458
 2143              	.LBE222:
 2144              	.LBE221:
  99:source/HeavyContext.cpp ****     switch (format[i]) {
 2145              		.loc 2 99 3 is_stmt 1 discriminator 2 view .LVU459
 2146 00b8 0134     		adds	r4, r4, #1
 2147              	.LVL166:
  99:source/HeavyContext.cpp ****     switch (format[i]) {
 2148              		.loc 2 99 21 discriminator 2 view .LVU460
 2149 00ba 0835     		adds	r5, r5, #8
 2150 00bc A345     		cmp	fp, r4
 2151 00be E4DC     		bgt	.L135
 2152              	.L144:
  99:source/HeavyContext.cpp ****     switch (format[i]) {
 2153              		.loc 2 99 21 is_stmt 0 discriminator 2 view .LVU461
 2154              	.LBE279:
 108:source/HeavyContext.cpp **** 
 2155              		.loc 2 108 3 is_stmt 1 view .LVU462
 110:source/HeavyContext.cpp ****   return success;
 2156              		.loc 2 110 3 view .LVU463
 110:source/HeavyContext.cpp ****   return success;
 2157              		.loc 2 110 64 is_stmt 0 view .LVU464
 2158 00c0 DAF80030 		ldr	r3, [r10]
 110:source/HeavyContext.cpp ****   return success;
 2159              		.loc 2 110 39 view .LVU465
 2160 00c4 B0EE480B 		vmov.f64	d0, d8
 2161 00c8 4246     		mov	r2, r8
 2162 00ca 4946     		mov	r1, r9
 2163 00cc 5046     		mov	r0, r10
 2164 00ce DB6C     		ldr	r3, [r3, #76]
 2165 00d0 9847     		blx	r3
 2166              	.LVL167:
 111:source/HeavyContext.cpp **** }
 2167              		.loc 2 111 3 is_stmt 1 view .LVU466
 112:source/HeavyContext.cpp **** 
 2168              		.loc 2 112 1 is_stmt 0 view .LVU467
 2169 00d2 1437     		adds	r7, r7, #20
 2170              		.cfi_remember_state
 2171              		.cfi_def_cfa_offset 52
 2172 00d4 BD46     		mov	sp, r7
 2173              		.cfi_def_cfa_register 13
 2174              		@ sp needed
ARM GAS  /var/folders/fb/yfxt3z4538j6z0vjt03w70vc0000gn/T//ccfrU3iz.s 			page 59


 2175 00d6 BDEC048B 		vldm	sp!, {d8-d9}
 2176              		.cfi_restore 82
 2177              		.cfi_restore 83
 2178              		.cfi_restore 80
 2179              		.cfi_restore 81
 2180              		.cfi_def_cfa_offset 36
 2181              	.LVL168:
 112:source/HeavyContext.cpp **** 
 2182              		.loc 2 112 1 view .LVU468
 2183 00da BDE8F08F 		pop	{r4, r5, r6, r7, r8, r9, r10, fp, pc}
 2184              	.LVL169:
 2185              	.L125:
 2186              		.cfi_restore_state
 2187              	.LBB280:
 104:source/HeavyContext.cpp ****       default: break;
 2188              		.loc 2 104 7 is_stmt 1 view .LVU469
 104:source/HeavyContext.cpp ****       default: break;
 2189              		.loc 2 104 17 view .LVU470
 104:source/HeavyContext.cpp ****       default: break;
 2190              		.loc 2 104 46 is_stmt 0 view .LVU471
 2191 00de FB68     		ldr	r3, [r7, #12]
 2192              	.LBB226:
 2193              	.LBB227:
 2194              	.LBB228:
 2195              	.LBB229:
  91:source/HvMessage.h **** }
 2196              		.loc 5 91 19 view .LVU472
 2197 00e0 B8F80420 		ldrh	r2, [r8, #4]
 2198              	.LBE229:
 2199              	.LBE228:
 2200              	.LBE227:
 2201              	.LBE226:
 104:source/HeavyContext.cpp ****       default: break;
 2202              		.loc 2 104 46 view .LVU473
 2203 00e4 191D     		adds	r1, r3, #4
 2204 00e6 1868     		ldr	r0, [r3]
 2205              	.LVL170:
 2206              	.LBB238:
 2207              	.LBI226:
 108:source/HvMessage.h **** }
 109:source/HvMessage.h **** 
 110:source/HvMessage.h **** static inline bool msg_isBang(const HvMessage *m, int index) {
 111:source/HvMessage.h ****   return (index < msg_getNumElements(m)) ? (msg_getType(m,index) == HV_MSG_BANG) : false;
 112:source/HvMessage.h **** }
 113:source/HvMessage.h **** 
 114:source/HvMessage.h **** static inline void msg_setFloat(HvMessage *m, int index, float f) {
 115:source/HvMessage.h ****   hv_assert(index < msg_getNumElements(m)); // invalid index
 116:source/HvMessage.h ****   (&(m->elem)+index)->type = HV_MSG_FLOAT;
 117:source/HvMessage.h ****   (&(m->elem)+index)->data.f = f;
 118:source/HvMessage.h **** }
 119:source/HvMessage.h **** 
 120:source/HvMessage.h **** static inline float msg_getFloat(const HvMessage *const m, int index) {
 121:source/HvMessage.h ****   hv_assert(index < msg_getNumElements(m)); // invalid index
 122:source/HvMessage.h ****   return (&(m->elem)+index)->data.f;
 123:source/HvMessage.h **** }
 124:source/HvMessage.h **** 
 125:source/HvMessage.h **** static inline bool msg_isFloat(const HvMessage *const m, int index) {
ARM GAS  /var/folders/fb/yfxt3z4538j6z0vjt03w70vc0000gn/T//ccfrU3iz.s 			page 60


 126:source/HvMessage.h ****   return (index < msg_getNumElements(m)) ? (msg_getType(m,index) == HV_MSG_FLOAT) : false;
 127:source/HvMessage.h **** }
 128:source/HvMessage.h **** 
 129:source/HvMessage.h **** static inline void msg_setHash(HvMessage *m, int index, hv_uint32_t h) {
 130:source/HvMessage.h ****   hv_assert(index < msg_getNumElements(m)); // invalid index
 131:source/HvMessage.h ****   (&(m->elem)+index)->type = HV_MSG_HASH;
 132:source/HvMessage.h ****   (&(m->elem)+index)->data.h = h;
 133:source/HvMessage.h **** }
 134:source/HvMessage.h **** 
 135:source/HvMessage.h **** static inline bool msg_isHash(const HvMessage *m, int index) {
 136:source/HvMessage.h ****   return (index < msg_getNumElements(m)) ? (msg_getType(m, index) == HV_MSG_HASH) : false;
 137:source/HvMessage.h **** }
 138:source/HvMessage.h **** 
 139:source/HvMessage.h **** /** Returns true if the element is a hash or symbol. False otherwise. */
 140:source/HvMessage.h **** static inline bool msg_isHashLike(const HvMessage *m, int index) {
 141:source/HvMessage.h ****   return (index < msg_getNumElements(m)) ? ((msg_getType(m, index) == HV_MSG_HASH) || (msg_getType(
 142:source/HvMessage.h **** }
 143:source/HvMessage.h **** 
 144:source/HvMessage.h **** /** Returns a 32-bit hash of the given element. */
 145:source/HvMessage.h **** hv_uint32_t msg_getHash(const HvMessage *const m, int i);
 146:source/HvMessage.h **** 
 147:source/HvMessage.h **** static inline void msg_setSymbol(HvMessage *m, int index, const char *s) {
 2208              		.loc 5 147 20 is_stmt 1 view .LVU474
 2209              	.LBB232:
 148:source/HvMessage.h ****   hv_assert(index < msg_getNumElements(m)); // invalid index
 2210              		.loc 5 148 3 view .LVU475
 2211              	.LBB231:
 2212              	.LBI228:
  90:source/HvMessage.h ****   return (int) m->numElements;
 2213              		.loc 5 90 19 view .LVU476
 2214              	.LBB230:
  91:source/HvMessage.h **** }
 2215              		.loc 5 91 3 view .LVU477
  91:source/HvMessage.h **** }
 2216              		.loc 5 91 3 is_stmt 0 view .LVU478
 2217              	.LBE230:
 2218              	.LBE231:
 2219              		.loc 5 148 3 view .LVU479
 2220 00e8 A242     		cmp	r2, r4
 2221              	.LBE232:
 2222              	.LBE238:
 104:source/HeavyContext.cpp ****       default: break;
 2223              		.loc 2 104 46 view .LVU480
 2224 00ea F960     		str	r1, [r7, #12]
 2225              	.LBB239:
 2226              	.LBB233:
 2227              		.loc 5 148 3 view .LVU481
 2228 00ec 3FDD     		ble	.L142
 149:source/HvMessage.h ****   hv_assert(s != NULL);
 2229              		.loc 5 149 3 is_stmt 1 view .LVU482
 2230 00ee 0028     		cmp	r0, #0
 2231 00f0 55D0     		beq	.L143
 150:source/HvMessage.h ****   (&(m->elem)+index)->type = HV_MSG_SYMBOL;
 2232              		.loc 5 150 3 view .LVU483
 2233              		.loc 5 150 28 is_stmt 0 view .LVU484
 2234 00f2 0223     		movs	r3, #2
 151:source/HvMessage.h ****   (&(m->elem)+index)->data.s = s;
ARM GAS  /var/folders/fb/yfxt3z4538j6z0vjt03w70vc0000gn/T//ccfrU3iz.s 			page 61


 2235              		.loc 5 151 30 view .LVU485
 2236 00f4 E860     		str	r0, [r5, #12]
 2237              	.LBE233:
 2238              	.LBE239:
  99:source/HeavyContext.cpp ****     switch (format[i]) {
 2239              		.loc 2 99 3 view .LVU486
 2240 00f6 0134     		adds	r4, r4, #1
 2241              	.LVL171:
  99:source/HeavyContext.cpp ****     switch (format[i]) {
 2242              		.loc 2 99 21 view .LVU487
 2243 00f8 0835     		adds	r5, r5, #8
 2244              	.LBB240:
 2245              	.LBB234:
 150:source/HvMessage.h ****   (&(m->elem)+index)->type = HV_MSG_SYMBOL;
 2246              		.loc 5 150 28 view .LVU488
 2247 00fa 2B70     		strb	r3, [r5]
 2248              		.loc 5 151 3 is_stmt 1 view .LVU489
 152:source/HvMessage.h ****   // NOTE(mhroth): if the same message container is reused and string reset,
 153:source/HvMessage.h ****   // then the message size will be overcounted
 154:source/HvMessage.h ****   m->numBytes += (hv_uint16_t) (hv_strlen(s) + 1); // also count '\0'
 2249              		.loc 5 154 3 view .LVU490
 2250              		.loc 5 154 33 is_stmt 0 view .LVU491
 2251 00fc FFF7FEFF 		bl	strlen
 2252              	.LVL172:
 2253              		.loc 5 154 15 view .LVU492
 2254 0100 B8F80630 		ldrh	r3, [r8, #6]
 2255              	.LBE234:
 2256              	.LBE240:
  99:source/HeavyContext.cpp ****     switch (format[i]) {
 2257              		.loc 2 99 21 view .LVU493
 2258 0104 A345     		cmp	fp, r4
 2259              	.LBB241:
 2260              	.LBB235:
 2261              		.loc 5 154 15 view .LVU494
 2262 0106 03F10103 		add	r3, r3, #1
 2263 010a 1844     		add	r0, r0, r3
 2264 010c A8F80600 		strh	r0, [r8, #6]	@ movhi
 2265              	.LVL173:
 2266              		.loc 5 154 15 view .LVU495
 2267              	.LBE235:
 2268              	.LBE241:
  99:source/HeavyContext.cpp ****     switch (format[i]) {
 2269              		.loc 2 99 3 is_stmt 1 view .LVU496
  99:source/HeavyContext.cpp ****     switch (format[i]) {
 2270              		.loc 2 99 21 view .LVU497
 2271 0110 BBDC     		bgt	.L135
 2272 0112 D5E7     		b	.L144
 2273              	.L127:
 103:source/HeavyContext.cpp ****       case 's': msg_setSymbol(m, i, (char *) va_arg(ap, char *)); break;
 2274              		.loc 2 103 7 view .LVU498
 103:source/HeavyContext.cpp ****       case 's': msg_setSymbol(m, i, (char *) va_arg(ap, char *)); break;
 2275              		.loc 2 103 17 view .LVU499
 103:source/HeavyContext.cpp ****       case 's': msg_setSymbol(m, i, (char *) va_arg(ap, char *)); break;
 2276              		.loc 2 103 41 is_stmt 0 view .LVU500
 2277 0114 FB68     		ldr	r3, [r7, #12]
 2278              	.LBB242:
 2279              	.LBB243:
ARM GAS  /var/folders/fb/yfxt3z4538j6z0vjt03w70vc0000gn/T//ccfrU3iz.s 			page 62


 2280              	.LBB244:
 2281              	.LBB245:
  91:source/HvMessage.h **** }
 2282              		.loc 5 91 19 view .LVU501
 2283 0116 B8F80420 		ldrh	r2, [r8, #4]
 2284              	.LBE245:
 2285              	.LBE244:
 2286              	.LBE243:
 2287              	.LBE242:
 103:source/HeavyContext.cpp ****       case 's': msg_setSymbol(m, i, (char *) va_arg(ap, char *)); break;
 2288              		.loc 2 103 41 view .LVU502
 2289 011a 191D     		adds	r1, r3, #4
 103:source/HeavyContext.cpp ****       case 's': msg_setSymbol(m, i, (char *) va_arg(ap, char *)); break;
 2290              		.loc 2 103 28 view .LVU503
 2291 011c 1B68     		ldr	r3, [r3]
 2292              	.LVL174:
 2293              	.LBB253:
 2294              	.LBI242:
 129:source/HvMessage.h ****   hv_assert(index < msg_getNumElements(m)); // invalid index
 2295              		.loc 5 129 20 is_stmt 1 view .LVU504
 2296              	.LBB248:
 130:source/HvMessage.h ****   (&(m->elem)+index)->type = HV_MSG_HASH;
 2297              		.loc 5 130 3 view .LVU505
 2298              	.LBB247:
 2299              	.LBI244:
  90:source/HvMessage.h ****   return (int) m->numElements;
 2300              		.loc 5 90 19 view .LVU506
 2301              	.LBB246:
  91:source/HvMessage.h **** }
 2302              		.loc 5 91 3 view .LVU507
  91:source/HvMessage.h **** }
 2303              		.loc 5 91 3 is_stmt 0 view .LVU508
 2304              	.LBE246:
 2305              	.LBE247:
 130:source/HvMessage.h ****   (&(m->elem)+index)->type = HV_MSG_HASH;
 2306              		.loc 5 130 3 view .LVU509
 2307 011e A242     		cmp	r2, r4
 2308              	.LBE248:
 2309              	.LBE253:
 103:source/HeavyContext.cpp ****       case 's': msg_setSymbol(m, i, (char *) va_arg(ap, char *)); break;
 2310              		.loc 2 103 41 view .LVU510
 2311 0120 F960     		str	r1, [r7, #12]
 2312              	.LBB254:
 2313              	.LBB249:
 130:source/HvMessage.h ****   (&(m->elem)+index)->type = HV_MSG_HASH;
 2314              		.loc 5 130 3 view .LVU511
 2315 0122 36DD     		ble	.L145
 131:source/HvMessage.h ****   (&(m->elem)+index)->data.h = h;
 2316              		.loc 5 131 3 is_stmt 1 view .LVU512
 2317              	.LBE249:
 2318              	.LBE254:
  99:source/HeavyContext.cpp ****     switch (format[i]) {
 2319              		.loc 2 99 3 is_stmt 0 view .LVU513
 2320 0124 0134     		adds	r4, r4, #1
 2321              	.LVL175:
 2322              	.LBB255:
 2323              	.LBB250:
ARM GAS  /var/folders/fb/yfxt3z4538j6z0vjt03w70vc0000gn/T//ccfrU3iz.s 			page 63


 131:source/HvMessage.h ****   (&(m->elem)+index)->data.h = h;
 2324              		.loc 5 131 28 view .LVU514
 2325 0126 0322     		movs	r2, #3
 132:source/HvMessage.h **** }
 2326              		.loc 5 132 30 view .LVU515
 2327 0128 EB60     		str	r3, [r5, #12]
 2328              	.LBE250:
 2329              	.LBE255:
  99:source/HeavyContext.cpp ****     switch (format[i]) {
 2330              		.loc 2 99 21 view .LVU516
 2331 012a 0835     		adds	r5, r5, #8
 2332 012c A345     		cmp	fp, r4
 2333              	.LBB256:
 2334              	.LBB251:
 131:source/HvMessage.h ****   (&(m->elem)+index)->data.h = h;
 2335              		.loc 5 131 28 view .LVU517
 2336 012e 2A70     		strb	r2, [r5]
 132:source/HvMessage.h **** }
 2337              		.loc 5 132 3 is_stmt 1 view .LVU518
 2338              	.LVL176:
 132:source/HvMessage.h **** }
 2339              		.loc 5 132 3 is_stmt 0 view .LVU519
 2340              	.LBE251:
 2341              	.LBE256:
  99:source/HeavyContext.cpp ****     switch (format[i]) {
 2342              		.loc 2 99 3 is_stmt 1 view .LVU520
  99:source/HeavyContext.cpp ****     switch (format[i]) {
 2343              		.loc 2 99 21 view .LVU521
 2344 0130 ABDC     		bgt	.L135
 2345 0132 C5E7     		b	.L144
 2346              	.L128:
 102:source/HeavyContext.cpp ****       case 'h': msg_setHash(m, i, (int) va_arg(ap, int)); break;
 2347              		.loc 2 102 7 view .LVU522
 102:source/HeavyContext.cpp ****       case 'h': msg_setHash(m, i, (int) va_arg(ap, int)); break;
 2348              		.loc 2 102 17 view .LVU523
 102:source/HeavyContext.cpp ****       case 'h': msg_setHash(m, i, (int) va_arg(ap, int)); break;
 2349              		.loc 2 102 44 is_stmt 0 view .LVU524
 2350 0134 FB68     		ldr	r3, [r7, #12]
 2351              	.LBB257:
 2352              	.LBB258:
 2353              	.LBB259:
 2354              	.LBB260:
  91:source/HvMessage.h **** }
 2355              		.loc 5 91 19 view .LVU525
 2356 0136 B8F80420 		ldrh	r2, [r8, #4]
 2357              	.LBE260:
 2358              	.LBE259:
 2359              	.LBE258:
 2360              	.LBE257:
 102:source/HeavyContext.cpp ****       case 'h': msg_setHash(m, i, (int) va_arg(ap, int)); break;
 2361              		.loc 2 102 44 view .LVU526
 2362 013a 0733     		adds	r3, r3, #7
 2363              	.LBB269:
 2364              	.LBB263:
 115:source/HvMessage.h ****   (&(m->elem)+index)->type = HV_MSG_FLOAT;
 2365              		.loc 5 115 3 view .LVU527
 2366 013c A242     		cmp	r2, r4
ARM GAS  /var/folders/fb/yfxt3z4538j6z0vjt03w70vc0000gn/T//ccfrU3iz.s 			page 64


 2367              	.LBE263:
 2368              	.LBE269:
 102:source/HeavyContext.cpp ****       case 'h': msg_setHash(m, i, (int) va_arg(ap, int)); break;
 2369              		.loc 2 102 44 view .LVU528
 2370 013e 23F00703 		bic	r3, r3, #7
 102:source/HeavyContext.cpp ****       case 'h': msg_setHash(m, i, (int) va_arg(ap, int)); break;
 2371              		.loc 2 102 29 view .LVU529
 2372 0142 93ED007B 		vldr.64	d7, [r3]
 102:source/HeavyContext.cpp ****       case 'h': msg_setHash(m, i, (int) va_arg(ap, int)); break;
 2373              		.loc 2 102 44 view .LVU530
 2374 0146 03F10803 		add	r3, r3, #8
 102:source/HeavyContext.cpp ****       case 'h': msg_setHash(m, i, (int) va_arg(ap, int)); break;
 2375              		.loc 2 102 29 view .LVU531
 2376 014a B7EEC77B 		vcvt.f32.f64	s14, d7
 2377              	.LVL177:
 2378              	.LBB270:
 2379              	.LBI257:
 114:source/HvMessage.h ****   hv_assert(index < msg_getNumElements(m)); // invalid index
 2380              		.loc 5 114 20 is_stmt 1 view .LVU532
 2381              	.LBB264:
 115:source/HvMessage.h ****   (&(m->elem)+index)->type = HV_MSG_FLOAT;
 2382              		.loc 5 115 3 view .LVU533
 2383              	.LBB262:
 2384              	.LBI259:
  90:source/HvMessage.h ****   return (int) m->numElements;
 2385              		.loc 5 90 19 view .LVU534
 2386              	.LBB261:
  91:source/HvMessage.h **** }
 2387              		.loc 5 91 3 view .LVU535
  91:source/HvMessage.h **** }
 2388              		.loc 5 91 3 is_stmt 0 view .LVU536
 2389              	.LBE261:
 2390              	.LBE262:
 2391              	.LBE264:
 2392              	.LBE270:
 102:source/HeavyContext.cpp ****       case 'h': msg_setHash(m, i, (int) va_arg(ap, int)); break;
 2393              		.loc 2 102 44 view .LVU537
 2394 014e FB60     		str	r3, [r7, #12]
 2395              	.LBB271:
 2396              	.LBB265:
 115:source/HvMessage.h ****   (&(m->elem)+index)->type = HV_MSG_FLOAT;
 2397              		.loc 5 115 3 view .LVU538
 2398 0150 19DD     		ble	.L146
 116:source/HvMessage.h ****   (&(m->elem)+index)->data.f = f;
 2399              		.loc 5 116 3 is_stmt 1 view .LVU539
 2400              	.LBE265:
 2401              	.LBE271:
  99:source/HeavyContext.cpp ****     switch (format[i]) {
 2402              		.loc 2 99 3 is_stmt 0 view .LVU540
 2403 0152 0134     		adds	r4, r4, #1
 2404              	.LVL178:
 2405              	.LBB272:
 2406              	.LBB266:
 116:source/HvMessage.h ****   (&(m->elem)+index)->data.f = f;
 2407              		.loc 5 116 28 view .LVU541
 2408 0154 0123     		movs	r3, #1
 117:source/HvMessage.h **** }
ARM GAS  /var/folders/fb/yfxt3z4538j6z0vjt03w70vc0000gn/T//ccfrU3iz.s 			page 65


 2409              		.loc 5 117 30 view .LVU542
 2410 0156 85ED037A 		vstr.32	s14, [r5, #12]
 2411              	.LBE266:
 2412              	.LBE272:
  99:source/HeavyContext.cpp ****     switch (format[i]) {
 2413              		.loc 2 99 21 view .LVU543
 2414 015a 0835     		adds	r5, r5, #8
 2415 015c A345     		cmp	fp, r4
 2416              	.LBB273:
 2417              	.LBB267:
 116:source/HvMessage.h ****   (&(m->elem)+index)->data.f = f;
 2418              		.loc 5 116 28 view .LVU544
 2419 015e 2B70     		strb	r3, [r5]
 117:source/HvMessage.h **** }
 2420              		.loc 5 117 3 is_stmt 1 view .LVU545
 2421              	.LVL179:
 117:source/HvMessage.h **** }
 2422              		.loc 5 117 3 is_stmt 0 view .LVU546
 2423              	.LBE267:
 2424              	.LBE273:
  99:source/HeavyContext.cpp ****     switch (format[i]) {
 2425              		.loc 2 99 3 is_stmt 1 view .LVU547
  99:source/HeavyContext.cpp ****     switch (format[i]) {
 2426              		.loc 2 99 21 view .LVU548
 2427 0160 93DC     		bgt	.L135
 2428 0162 ADE7     		b	.L144
 2429              	.LVL180:
 2430              	.L122:
  99:source/HeavyContext.cpp ****     switch (format[i]) {
 2431              		.loc 2 99 21 is_stmt 0 view .LVU549
 2432 0164 7A60     		str	r2, [r7, #4]
 2433              	.LBE280:
  98:source/HeavyContext.cpp ****   for (int i = 0; i < numElem; i++) {
 2434              		.loc 2 98 97 view .LVU550
 2435 0166 5046     		mov	r0, r10
 2436              	.LVL181:
  98:source/HeavyContext.cpp ****   for (int i = 0; i < numElem; i++) {
 2437              		.loc 2 98 97 view .LVU551
 2438 0168 9847     		blx	r3
 2439              	.LVL182:
 2440 016a 7A68     		ldr	r2, [r7, #4]
 2441 016c 7AE7     		b	.L123
 2442              	.LVL183:
 2443              	.L142:
 2444              	.LBB281:
 2445              	.LBB274:
 2446              	.LBB236:
 148:source/HvMessage.h ****   hv_assert(s != NULL);
 2447              		.loc 5 148 3 view .LVU552
 2448 016e 1D4B     		ldr	r3, .L147+20
 2449 0170 9421     		movs	r1, #148
 2450 0172 1D4A     		ldr	r2, .L147+24
 2451 0174 1D48     		ldr	r0, .L147+28
 2452 0176 FFF7FEFF 		bl	__assert_func
 2453              	.LVL184:
 2454              	.L141:
 148:source/HvMessage.h ****   hv_assert(s != NULL);
ARM GAS  /var/folders/fb/yfxt3z4538j6z0vjt03w70vc0000gn/T//ccfrU3iz.s 			page 66


 2455              		.loc 5 148 3 view .LVU553
 2456              	.LBE236:
 2457              	.LBE274:
 2458              	.LBB275:
 2459              	.LBB225:
 105:source/HvMessage.h ****   (&(m->elem)+index)->type = HV_MSG_BANG;
 2460              		.loc 5 105 3 view .LVU554
 2461 017a 1A4B     		ldr	r3, .L147+20
 2462 017c 6921     		movs	r1, #105
 2463 017e 1C4A     		ldr	r2, .L147+32
 2464 0180 1A48     		ldr	r0, .L147+28
 2465 0182 FFF7FEFF 		bl	__assert_func
 2466              	.LVL185:
 2467              	.L146:
 105:source/HvMessage.h ****   (&(m->elem)+index)->type = HV_MSG_BANG;
 2468              		.loc 5 105 3 view .LVU555
 2469              	.LBE225:
 2470              	.LBE275:
 2471              	.LBB276:
 2472              	.LBB268:
 115:source/HvMessage.h ****   (&(m->elem)+index)->type = HV_MSG_FLOAT;
 2473              		.loc 5 115 3 view .LVU556
 2474 0186 174B     		ldr	r3, .L147+20
 2475 0188 7321     		movs	r1, #115
 2476 018a 1A4A     		ldr	r2, .L147+36
 2477 018c 1748     		ldr	r0, .L147+28
 2478 018e FFF7FEFF 		bl	__assert_func
 2479              	.LVL186:
 2480              	.L145:
 115:source/HvMessage.h ****   (&(m->elem)+index)->type = HV_MSG_FLOAT;
 2481              		.loc 5 115 3 view .LVU557
 2482              	.LBE268:
 2483              	.LBE276:
 2484              	.LBB277:
 2485              	.LBB252:
 130:source/HvMessage.h ****   (&(m->elem)+index)->type = HV_MSG_HASH;
 2486              		.loc 5 130 3 view .LVU558
 2487 0192 144B     		ldr	r3, .L147+20
 2488              	.LVL187:
 130:source/HvMessage.h ****   (&(m->elem)+index)->type = HV_MSG_HASH;
 2489              		.loc 5 130 3 view .LVU559
 2490 0194 8221     		movs	r1, #130
 2491              	.LVL188:
 130:source/HvMessage.h ****   (&(m->elem)+index)->type = HV_MSG_HASH;
 2492              		.loc 5 130 3 view .LVU560
 2493 0196 184A     		ldr	r2, .L147+40
 2494 0198 1448     		ldr	r0, .L147+28
 2495 019a FFF7FEFF 		bl	__assert_func
 2496              	.LVL189:
 2497              	.L143:
 130:source/HvMessage.h ****   (&(m->elem)+index)->type = HV_MSG_HASH;
 2498              		.loc 5 130 3 view .LVU561
 2499              	.LBE252:
 2500              	.LBE277:
 2501              	.LBB278:
 2502              	.LBB237:
 149:source/HvMessage.h ****   (&(m->elem)+index)->type = HV_MSG_SYMBOL;
ARM GAS  /var/folders/fb/yfxt3z4538j6z0vjt03w70vc0000gn/T//ccfrU3iz.s 			page 67


 2503              		.loc 5 149 3 view .LVU562
 2504 019e 174B     		ldr	r3, .L147+44
 2505 01a0 9521     		movs	r1, #149
 2506 01a2 114A     		ldr	r2, .L147+24
 2507 01a4 1148     		ldr	r0, .L147+28
 2508 01a6 FFF7FEFF 		bl	__assert_func
 2509              	.LVL190:
 2510              	.L140:
 149:source/HvMessage.h ****   (&(m->elem)+index)->type = HV_MSG_SYMBOL;
 2511              		.loc 5 149 3 view .LVU563
 2512              	.LBE237:
 2513              	.LBE278:
 2514              	.LBE281:
 2515              	.LBB282:
 2516              	.LBB217:
 2517              	.LBB215:
 2518              	.LBI215:
  57:source/HvMessage.h ****   hv_assert(numElements > 0);
 2519              		.loc 5 57 25 is_stmt 1 view .LVU564
 2520              	.LBB216:
  58:source/HvMessage.h ****   return sizeof(HvMessage) + ((numElements-1) * sizeof(Element));
 2521              		.loc 5 58 3 is_stmt 0 view .LVU565
 2522 01aa 154B     		ldr	r3, .L147+48
 2523 01ac 3A21     		movs	r1, #58
 2524 01ae 154A     		ldr	r2, .L147+52
 2525 01b0 0E48     		ldr	r0, .L147+28
 2526              	.LVL191:
  58:source/HvMessage.h ****   return sizeof(HvMessage) + ((numElements-1) * sizeof(Element));
 2527              		.loc 5 58 3 view .LVU566
 2528 01b2 FFF7FEFF 		bl	__assert_func
 2529              	.LVL192:
 2530              	.L139:
  58:source/HvMessage.h ****   return sizeof(HvMessage) + ((numElements-1) * sizeof(Element));
 2531              		.loc 5 58 3 view .LVU567
 2532              	.LBE216:
 2533              	.LBE215:
 2534              	.LBE217:
 2535              	.LBE282:
  92:source/HeavyContext.cpp **** 
 2536              		.loc 2 92 3 discriminator 1 view .LVU568
 2537 01b6 144B     		ldr	r3, .L147+56
 2538 01b8 5C21     		movs	r1, #92
 2539              	.LVL193:
  92:source/HeavyContext.cpp **** 
 2540              		.loc 2 92 3 discriminator 1 view .LVU569
 2541 01ba 144A     		ldr	r2, .L147+60
 2542              	.LVL194:
  92:source/HeavyContext.cpp **** 
 2543              		.loc 2 92 3 discriminator 1 view .LVU570
 2544 01bc 1448     		ldr	r0, .L147+64
 2545              	.LVL195:
  92:source/HeavyContext.cpp **** 
 2546              		.loc 2 92 3 discriminator 1 view .LVU571
 2547 01be FFF7FEFF 		bl	__assert_func
 2548              	.LVL196:
 2549              	.L138:
  91:source/HeavyContext.cpp ****   hv_assert(format != nullptr);
ARM GAS  /var/folders/fb/yfxt3z4538j6z0vjt03w70vc0000gn/T//ccfrU3iz.s 			page 68


 2550              		.loc 2 91 3 discriminator 1 view .LVU572
 2551 01c2 144B     		ldr	r3, .L147+68
 2552 01c4 5B21     		movs	r1, #91
 2553              	.LVL197:
  91:source/HeavyContext.cpp ****   hv_assert(format != nullptr);
 2554              		.loc 2 91 3 discriminator 1 view .LVU573
 2555 01c6 114A     		ldr	r2, .L147+60
 2556              	.LVL198:
  91:source/HeavyContext.cpp ****   hv_assert(format != nullptr);
 2557              		.loc 2 91 3 discriminator 1 view .LVU574
 2558 01c8 1148     		ldr	r0, .L147+64
 2559              	.LVL199:
  91:source/HeavyContext.cpp ****   hv_assert(format != nullptr);
 2560              		.loc 2 91 3 discriminator 1 view .LVU575
 2561 01ca FFF7FEFF 		bl	__assert_func
 2562              	.LVL200:
 2563              	.L148:
 2564 01ce 00BF     		.align	3
 2565              	.L147:
 2566 01d0 00000000 		.word	0
 2567 01d4 00000000 		.word	0
 2568 01d8 00000000 		.word	0
 2569 01dc 00408F40 		.word	1083129856
 2570 01e0 00000000 		.word	_ZN12HeavyContext13getSampleRateEv
 2571 01e4 B0000000 		.word	.LC27
 2572 01e8 4C010000 		.word	.LC31
 2573 01ec 9C000000 		.word	.LC26
 2574 01f0 D0000000 		.word	.LC28
 2575 01f4 F4000000 		.word	.LC29
 2576 01f8 20010000 		.word	.LC30
 2577 01fc 80010000 		.word	.LC32
 2578 0200 6C000000 		.word	.LC24
 2579 0204 7C000000 		.word	.LC25
 2580 0208 58000000 		.word	.LC23
 2581 020c 00000000 		.word	.LC22
 2582 0210 58000000 		.word	.LC2
 2583 0214 00000000 		.word	.LC18
 2584              		.cfi_endproc
 2585              	.LFE993:
 2587              		.section	.rodata._ZN12HeavyContextC2Ediii.str1.4,"aMS",%progbits,1
 2588              		.align	2
 2589              	.LC33:
 2590 0000 73616D70 		.ascii	"sampleRate > 0.0\000"
 2590      6C655261 
 2590      7465203E 
 2590      20302E30 
 2590      00
 2591 0011 000000   		.align	2
 2592              	.LC34:
 2593 0014 48656176 		.ascii	"HeavyContext::HeavyContext(double, int, int, int)\000"
 2593      79436F6E 
 2593      74657874 
 2593      3A3A4865 
 2593      61767943 
 2594 0046 0000     		.align	2
 2595              	.LC35:
 2596 0048 706F6F6C 		.ascii	"poolKb > 0\000"
ARM GAS  /var/folders/fb/yfxt3z4538j6z0vjt03w70vc0000gn/T//ccfrU3iz.s 			page 69


 2596      4B62203E 
 2596      203000
 2597 0053 00       		.align	2
 2598              	.LC36:
 2599 0054 6F757451 		.ascii	"outQueueKb >= 0\000"
 2599      75657565 
 2599      4B62203E 
 2599      3D203000 
 2600              		.section	.text._ZN12HeavyContextC2Ediii,"ax",%progbits
 2601              		.align	1
 2602              		.p2align 2,,3
 2603              		.global	_ZN12HeavyContextC2Ediii
 2604              		.syntax unified
 2605              		.thumb
 2606              		.thumb_func
 2608              	_ZN12HeavyContextC2Ediii:
 2609              	.LVL201:
 2610              	.LFB984:
  36:source/HeavyContext.cpp ****     sampleRate(sampleRate) {
 2611              		.loc 2 36 1 is_stmt 1 view -0
 2612              		.cfi_startproc
 2613              		@ args = 0, pretend = 0, frame = 0
 2614              		@ frame_needed = 0, uses_anonymous_args = 0
 2615              	.LBB283:
 2616              	.LBB284:
 2617              	.LBI284:
 2618              		.file 6 "source/HeavyContextInterface.hpp"
   1:source/HeavyContextInterface.hpp **** /**
   2:source/HeavyContextInterface.hpp ****  * Copyright (c) 2014-2018 Enzien Audio Ltd.
   3:source/HeavyContextInterface.hpp ****  *
   4:source/HeavyContextInterface.hpp ****  * Permission to use, copy, modify, and/or distribute this software for any
   5:source/HeavyContextInterface.hpp ****  * purpose with or without fee is hereby granted, provided that the above
   6:source/HeavyContextInterface.hpp ****  * copyright notice and this permission notice appear in all copies.
   7:source/HeavyContextInterface.hpp ****  *
   8:source/HeavyContextInterface.hpp ****  * THE SOFTWARE IS PROVIDED "AS IS" AND THE AUTHOR DISCLAIMS ALL WARRANTIES WITH
   9:source/HeavyContextInterface.hpp ****  * REGARD TO THIS SOFTWARE INCLUDING ALL IMPLIED WARRANTIES OF MERCHANTABILITY
  10:source/HeavyContextInterface.hpp ****  * AND FITNESS. IN NO EVENT SHALL THE AUTHOR BE LIABLE FOR ANY SPECIAL, DIRECT,
  11:source/HeavyContextInterface.hpp ****  * INDIRECT, OR CONSEQUENTIAL DAMAGES OR ANY DAMAGES WHATSOEVER RESULTING FROM
  12:source/HeavyContextInterface.hpp ****  * LOSS OF USE, DATA OR PROFITS, WHETHER IN AN ACTION OF CONTRACT, NEGLIGENCE OR
  13:source/HeavyContextInterface.hpp ****  * OTHER TORTIOUS ACTION, ARISING OUT OF OR IN CONNECTION WITH THE USE OR
  14:source/HeavyContextInterface.hpp ****  * PERFORMANCE OF THIS SOFTWARE.
  15:source/HeavyContextInterface.hpp ****  */
  16:source/HeavyContextInterface.hpp **** 
  17:source/HeavyContextInterface.hpp **** #ifndef _HEAVY_CONTEXT_INTERFACE_H_
  18:source/HeavyContextInterface.hpp **** #define _HEAVY_CONTEXT_INTERFACE_H_
  19:source/HeavyContextInterface.hpp **** 
  20:source/HeavyContextInterface.hpp **** #include "HvUtils.h"
  21:source/HeavyContextInterface.hpp **** 
  22:source/HeavyContextInterface.hpp **** #ifndef _HEAVY_DECLARATIONS_
  23:source/HeavyContextInterface.hpp **** #define _HEAVY_DECLARATIONS_
  24:source/HeavyContextInterface.hpp **** 
  25:source/HeavyContextInterface.hpp **** class HeavyContextInterface;
  26:source/HeavyContextInterface.hpp **** struct HvMessage;
  27:source/HeavyContextInterface.hpp **** 
  28:source/HeavyContextInterface.hpp **** typedef enum {
  29:source/HeavyContextInterface.hpp ****   HV_PARAM_TYPE_PARAMETER_IN,
  30:source/HeavyContextInterface.hpp ****   HV_PARAM_TYPE_PARAMETER_OUT,
ARM GAS  /var/folders/fb/yfxt3z4538j6z0vjt03w70vc0000gn/T//ccfrU3iz.s 			page 70


  31:source/HeavyContextInterface.hpp ****   HV_PARAM_TYPE_EVENT_IN,
  32:source/HeavyContextInterface.hpp ****   HV_PARAM_TYPE_EVENT_OUT
  33:source/HeavyContextInterface.hpp **** } HvParameterType;
  34:source/HeavyContextInterface.hpp **** 
  35:source/HeavyContextInterface.hpp **** typedef struct HvParameterInfo {
  36:source/HeavyContextInterface.hpp ****   const char *name;     // the human readable parameter name
  37:source/HeavyContextInterface.hpp ****   hv_uint32_t hash;     // an integer identified used by heavy for this parameter
  38:source/HeavyContextInterface.hpp ****   HvParameterType type; // type of this parameter
  39:source/HeavyContextInterface.hpp ****   float minVal;         // the minimum value of this parameter
  40:source/HeavyContextInterface.hpp ****   float maxVal;         // the maximum value of this parameter
  41:source/HeavyContextInterface.hpp ****   float defaultVal;     // the default value of this parameter
  42:source/HeavyContextInterface.hpp **** } HvParameterInfo;
  43:source/HeavyContextInterface.hpp **** 
  44:source/HeavyContextInterface.hpp **** typedef void (HvSendHook_t) (HeavyContextInterface *context, const char *sendName, hv_uint32_t send
  45:source/HeavyContextInterface.hpp **** typedef void (HvPrintHook_t) (HeavyContextInterface *context, const char *printName, const char *st
  46:source/HeavyContextInterface.hpp **** 
  47:source/HeavyContextInterface.hpp **** #endif // _HEAVY_DECLARATIONS_
  48:source/HeavyContextInterface.hpp **** 
  49:source/HeavyContextInterface.hpp **** 
  50:source/HeavyContextInterface.hpp **** 
  51:source/HeavyContextInterface.hpp **** class HeavyContextInterface {
  52:source/HeavyContextInterface.hpp **** 
  53:source/HeavyContextInterface.hpp ****  public:
  54:source/HeavyContextInterface.hpp ****   HeavyContextInterface() {}
 2619              		.loc 6 54 3 view .LVU577
 2620              		.loc 6 54 3 is_stmt 0 view .LVU578
 2621              	.LBE284:
  39:source/HeavyContext.cpp ****   hv_assert(poolKb > 0);
 2622              		.loc 2 39 3 view .LVU579
 2623 0000 B5EEC00B 		vcmpe.f64	d0, #0
 2624              	.LBE283:
  36:source/HeavyContext.cpp ****     sampleRate(sampleRate) {
 2625              		.loc 2 36 1 view .LVU580
 2626 0004 70B5     		push	{r4, r5, r6, lr}
 2627              		.cfi_def_cfa_offset 16
 2628              		.cfi_offset 4, -16
 2629              		.cfi_offset 5, -12
 2630              		.cfi_offset 6, -8
 2631              		.cfi_offset 14, -4
 2632              	.LBB289:
  39:source/HeavyContext.cpp ****   hv_assert(poolKb > 0);
 2633              		.loc 2 39 3 view .LVU581
 2634 0006 F1EE10FA 		vmrs	APSR_nzcv, FPSCR
 2635              	.LBE289:
  36:source/HeavyContext.cpp ****     sampleRate(sampleRate) {
 2636              		.loc 2 36 1 view .LVU582
 2637 000a 1D46     		mov	r5, r3
 2638              	.LBB290:
  37:source/HeavyContext.cpp **** 
 2639              		.loc 2 37 26 view .LVU583
 2640 000c 294B     		ldr	r3, .L161
 2641              	.LVL202:
  37:source/HeavyContext.cpp **** 
 2642              		.loc 2 37 26 view .LVU584
 2643 000e 80ED020B 		vstr.64	d0, [r0, #8]
  39:source/HeavyContext.cpp ****   hv_assert(poolKb > 0);
 2644              		.loc 2 39 3 is_stmt 1 view .LVU585
ARM GAS  /var/folders/fb/yfxt3z4538j6z0vjt03w70vc0000gn/T//ccfrU3iz.s 			page 71


  37:source/HeavyContext.cpp **** 
 2645              		.loc 2 37 26 is_stmt 0 view .LVU586
 2646 0012 0360     		str	r3, [r0]
  39:source/HeavyContext.cpp ****   hv_assert(poolKb > 0);
 2647              		.loc 2 39 3 view .LVU587
 2648 0014 36DD     		ble	.L157
  40:source/HeavyContext.cpp ****   hv_assert(inQueueKb > 0);
 2649              		.loc 2 40 3 is_stmt 1 view .LVU588
 2650 0016 0029     		cmp	r1, #0
 2651 0018 46DD     		ble	.L158
  41:source/HeavyContext.cpp ****   hv_assert(outQueueKb >= 0);
 2652              		.loc 2 41 3 is_stmt 0 view .LVU589
 2653 001a 002A     		cmp	r2, #0
 2654 001c 1646     		mov	r6, r2
  41:source/HeavyContext.cpp ****   hv_assert(outQueueKb >= 0);
 2655              		.loc 2 41 3 is_stmt 1 view .LVU590
 2656 001e 3DDD     		ble	.L159
  42:source/HeavyContext.cpp **** 
 2657              		.loc 2 42 3 view .LVU591
 2658 0020 002D     		cmp	r5, #0
 2659 0022 35DB     		blt	.L160
  44:source/HeavyContext.cpp ****   printHook = nullptr;
 2660              		.loc 2 44 23 is_stmt 0 view .LVU592
 2661 0024 4FF00003 		mov	r3, #0
 2662 0028 0446     		mov	r4, r0
  44:source/HeavyContext.cpp ****   printHook = nullptr;
 2663              		.loc 2 44 3 is_stmt 1 view .LVU593
  44:source/HeavyContext.cpp ****   printHook = nullptr;
 2664              		.loc 2 44 23 is_stmt 0 view .LVU594
 2665 002a 0361     		str	r3, [r0, #16]
  45:source/HeavyContext.cpp ****   userData = nullptr;
 2666              		.loc 2 45 3 is_stmt 1 view .LVU595
  46:source/HeavyContext.cpp **** 
 2667              		.loc 2 46 12 is_stmt 0 view .LVU596
 2668 002c C0E91533 		strd	r3, r3, [r0, #84]
  50:source/HeavyContext.cpp **** 
 2669              		.loc 2 50 3 is_stmt 1 view .LVU597
  50:source/HeavyContext.cpp **** 
 2670              		.loc 2 50 31 is_stmt 0 view .LVU598
 2671 0030 0CBF     		ite	eq
 2672 0032 2B46     		moveq	r3, r5
 2673 0034 204B     		ldrne	r3, .L161+4
  57:source/HeavyContext.cpp ****   numBytes += hLp_init(&inQueue, inQueueKb * 1024);
 2674              		.loc 2 57 34 view .LVU599
 2675 0036 1830     		adds	r0, r0, #24
 2676              	.LVL203:
  50:source/HeavyContext.cpp **** 
 2677              		.loc 2 50 12 view .LVU600
 2678 0038 8363     		str	r3, [r0, #56]
  52:source/HeavyContext.cpp ****   HV_SPINLOCK_RELEASE(outQueueLock);
 2679              		.loc 2 52 3 is_stmt 1 view .LVU601
 2680              	.LVL204:
 2681              	.LBB285:
 2682              	.LBI285:
 212:/Library/DaisyToolchain/0.2.0/arm/arm-none-eabi/include/c++/10.3.1/bits/atomic_base.h ****     {
 2683              		.loc 4 212 5 view .LVU602
 2684              	.LBB286:
ARM GAS  /var/folders/fb/yfxt3z4538j6z0vjt03w70vc0000gn/T//ccfrU3iz.s 			page 72


 214:/Library/DaisyToolchain/0.2.0/arm/arm-none-eabi/include/c++/10.3.1/bits/atomic_base.h ****       __glibcxx_assert(__b != memory_order_consume);
 2685              		.loc 4 214 7 view .LVU603
 215:/Library/DaisyToolchain/0.2.0/arm/arm-none-eabi/include/c++/10.3.1/bits/atomic_base.h ****       __glibcxx_assert(__b != memory_order_acquire);
 2686              		.loc 4 215 52 view .LVU604
 216:/Library/DaisyToolchain/0.2.0/arm/arm-none-eabi/include/c++/10.3.1/bits/atomic_base.h ****       __glibcxx_assert(__b != memory_order_acq_rel);
 2687              		.loc 4 216 52 view .LVU605
 217:/Library/DaisyToolchain/0.2.0/arm/arm-none-eabi/include/c++/10.3.1/bits/atomic_base.h **** 
 2688              		.loc 4 217 52 view .LVU606
 2689              		.loc 4 219 7 view .LVU607
 2690              		.loc 4 219 22 is_stmt 0 view .LVU608
 2691 003a 0023     		movs	r3, #0
 2692 003c BFF35B8F 		dmb	ish
 2693 0040 80F86C30 		strb	r3, [r0, #108]
 2694              	.LVL205:
 2695              		.loc 4 219 22 view .LVU609
 2696              	.LBE286:
 2697              	.LBE285:
  53:source/HeavyContext.cpp **** 
 2698              		.loc 2 53 3 is_stmt 1 view .LVU610
 2699              	.LBB287:
 2700              	.LBI287:
 212:/Library/DaisyToolchain/0.2.0/arm/arm-none-eabi/include/c++/10.3.1/bits/atomic_base.h ****     {
 2701              		.loc 4 212 5 view .LVU611
 2702              	.LBB288:
 214:/Library/DaisyToolchain/0.2.0/arm/arm-none-eabi/include/c++/10.3.1/bits/atomic_base.h ****       __glibcxx_assert(__b != memory_order_consume);
 2703              		.loc 4 214 7 view .LVU612
 215:/Library/DaisyToolchain/0.2.0/arm/arm-none-eabi/include/c++/10.3.1/bits/atomic_base.h ****       __glibcxx_assert(__b != memory_order_acquire);
 2704              		.loc 4 215 52 view .LVU613
 216:/Library/DaisyToolchain/0.2.0/arm/arm-none-eabi/include/c++/10.3.1/bits/atomic_base.h ****       __glibcxx_assert(__b != memory_order_acq_rel);
 2705              		.loc 4 216 52 view .LVU614
 217:/Library/DaisyToolchain/0.2.0/arm/arm-none-eabi/include/c++/10.3.1/bits/atomic_base.h **** 
 2706              		.loc 4 217 52 view .LVU615
 2707              		.loc 4 219 7 view .LVU616
 2708              		.loc 4 219 22 is_stmt 0 view .LVU617
 2709 0044 BFF35B8F 		dmb	ish
 2710 0048 80F86D30 		strb	r3, [r0, #109]
 2711              	.LVL206:
 2712              		.loc 4 219 22 view .LVU618
 2713              	.LBE288:
 2714              	.LBE287:
  55:source/HeavyContext.cpp **** 
 2715              		.loc 2 55 3 is_stmt 1 view .LVU619
  55:source/HeavyContext.cpp **** 
 2716              		.loc 2 55 12 is_stmt 0 view .LVU620
 2717 004c 8823     		movs	r3, #136
 2718 004e 40F8043C 		str	r3, [r0, #-4]
  57:source/HeavyContext.cpp ****   numBytes += hLp_init(&inQueue, inQueueKb * 1024);
 2719              		.loc 2 57 3 is_stmt 1 view .LVU621
  57:source/HeavyContext.cpp ****   numBytes += hLp_init(&inQueue, inQueueKb * 1024);
 2720              		.loc 2 57 34 is_stmt 0 view .LVU622
 2721 0052 FFF7FEFF 		bl	mq_initWithPoolSize
 2722              	.LVL207:
  57:source/HeavyContext.cpp ****   numBytes += hLp_init(&inQueue, inQueueKb * 1024);
 2723              		.loc 2 57 12 view .LVU623
 2724 0056 6369     		ldr	r3, [r4, #20]
  58:source/HeavyContext.cpp ****   numBytes += hLp_init(&outQueue, outQueueKb * 1024); // outQueueKb value of 0 sets everything to N
 2725              		.loc 2 58 23 view .LVU624
ARM GAS  /var/folders/fb/yfxt3z4538j6z0vjt03w70vc0000gn/T//ccfrU3iz.s 			page 73


 2726 0058 B102     		lsls	r1, r6, #10
  57:source/HeavyContext.cpp ****   numBytes += hLp_init(&inQueue, inQueueKb * 1024);
 2727              		.loc 2 57 12 view .LVU625
 2728 005a 0344     		add	r3, r3, r0
  58:source/HeavyContext.cpp ****   numBytes += hLp_init(&outQueue, outQueueKb * 1024); // outQueueKb value of 0 sets everything to N
 2729              		.loc 2 58 23 view .LVU626
 2730 005c 04F15C00 		add	r0, r4, #92
  57:source/HeavyContext.cpp ****   numBytes += hLp_init(&inQueue, inQueueKb * 1024);
 2731              		.loc 2 57 12 view .LVU627
 2732 0060 6361     		str	r3, [r4, #20]
  58:source/HeavyContext.cpp ****   numBytes += hLp_init(&outQueue, outQueueKb * 1024); // outQueueKb value of 0 sets everything to N
 2733              		.loc 2 58 3 is_stmt 1 view .LVU628
  58:source/HeavyContext.cpp ****   numBytes += hLp_init(&outQueue, outQueueKb * 1024); // outQueueKb value of 0 sets everything to N
 2734              		.loc 2 58 23 is_stmt 0 view .LVU629
 2735 0062 FFF7FEFF 		bl	hLp_init
 2736              	.LVL208:
  58:source/HeavyContext.cpp ****   numBytes += hLp_init(&outQueue, outQueueKb * 1024); // outQueueKb value of 0 sets everything to N
 2737              		.loc 2 58 12 view .LVU630
 2738 0066 6369     		ldr	r3, [r4, #20]
  58:source/HeavyContext.cpp ****   numBytes += hLp_init(&outQueue, outQueueKb * 1024); // outQueueKb value of 0 sets everything to N
 2739              		.loc 2 58 23 view .LVU631
 2740 0068 0246     		mov	r2, r0
  59:source/HeavyContext.cpp **** }
 2741              		.loc 2 59 23 view .LVU632
 2742 006a A902     		lsls	r1, r5, #10
 2743 006c 04F17000 		add	r0, r4, #112
  58:source/HeavyContext.cpp ****   numBytes += hLp_init(&outQueue, outQueueKb * 1024); // outQueueKb value of 0 sets everything to N
 2744              		.loc 2 58 12 view .LVU633
 2745 0070 1344     		add	r3, r3, r2
 2746 0072 6361     		str	r3, [r4, #20]
  59:source/HeavyContext.cpp **** }
 2747              		.loc 2 59 3 is_stmt 1 view .LVU634
  59:source/HeavyContext.cpp **** }
 2748              		.loc 2 59 23 is_stmt 0 view .LVU635
 2749 0074 FFF7FEFF 		bl	hLp_init
 2750              	.LVL209:
  59:source/HeavyContext.cpp **** }
 2751              		.loc 2 59 12 view .LVU636
 2752 0078 6369     		ldr	r3, [r4, #20]
  59:source/HeavyContext.cpp **** }
 2753              		.loc 2 59 23 view .LVU637
 2754 007a 0246     		mov	r2, r0
 2755              	.LBE290:
  60:source/HeavyContext.cpp **** 
 2756              		.loc 2 60 1 view .LVU638
 2757 007c 2046     		mov	r0, r4
 2758              	.LBB291:
  59:source/HeavyContext.cpp **** }
 2759              		.loc 2 59 12 view .LVU639
 2760 007e 1344     		add	r3, r3, r2
 2761 0080 6361     		str	r3, [r4, #20]
 2762              	.LBE291:
  60:source/HeavyContext.cpp **** 
 2763              		.loc 2 60 1 view .LVU640
 2764 0082 70BD     		pop	{r4, r5, r6, pc}
 2765              	.LVL210:
 2766              	.L157:
ARM GAS  /var/folders/fb/yfxt3z4538j6z0vjt03w70vc0000gn/T//ccfrU3iz.s 			page 74


 2767              	.LBB292:
  39:source/HeavyContext.cpp ****   hv_assert(poolKb > 0);
 2768              		.loc 2 39 3 discriminator 1 view .LVU641
 2769 0084 0D4B     		ldr	r3, .L161+8
 2770 0086 2721     		movs	r1, #39
 2771              	.LVL211:
  39:source/HeavyContext.cpp ****   hv_assert(poolKb > 0);
 2772              		.loc 2 39 3 discriminator 1 view .LVU642
 2773 0088 0D4A     		ldr	r2, .L161+12
 2774              	.LVL212:
  39:source/HeavyContext.cpp ****   hv_assert(poolKb > 0);
 2775              		.loc 2 39 3 discriminator 1 view .LVU643
 2776 008a 0E48     		ldr	r0, .L161+16
 2777              	.LVL213:
  39:source/HeavyContext.cpp ****   hv_assert(poolKb > 0);
 2778              		.loc 2 39 3 discriminator 1 view .LVU644
 2779 008c FFF7FEFF 		bl	__assert_func
 2780              	.LVL214:
 2781              	.L160:
  42:source/HeavyContext.cpp **** 
 2782              		.loc 2 42 3 discriminator 1 view .LVU645
 2783 0090 0D4B     		ldr	r3, .L161+20
 2784 0092 2A21     		movs	r1, #42
 2785              	.LVL215:
  42:source/HeavyContext.cpp **** 
 2786              		.loc 2 42 3 discriminator 1 view .LVU646
 2787 0094 0A4A     		ldr	r2, .L161+12
 2788              	.LVL216:
  42:source/HeavyContext.cpp **** 
 2789              		.loc 2 42 3 discriminator 1 view .LVU647
 2790 0096 0B48     		ldr	r0, .L161+16
 2791              	.LVL217:
  42:source/HeavyContext.cpp **** 
 2792              		.loc 2 42 3 discriminator 1 view .LVU648
 2793 0098 FFF7FEFF 		bl	__assert_func
 2794              	.LVL218:
 2795              	.L159:
  41:source/HeavyContext.cpp ****   hv_assert(outQueueKb >= 0);
 2796              		.loc 2 41 3 discriminator 1 view .LVU649
 2797 009c 0B4B     		ldr	r3, .L161+24
 2798 009e 2921     		movs	r1, #41
 2799              	.LVL219:
  41:source/HeavyContext.cpp ****   hv_assert(outQueueKb >= 0);
 2800              		.loc 2 41 3 discriminator 1 view .LVU650
 2801 00a0 074A     		ldr	r2, .L161+12
 2802              	.LVL220:
  41:source/HeavyContext.cpp ****   hv_assert(outQueueKb >= 0);
 2803              		.loc 2 41 3 discriminator 1 view .LVU651
 2804 00a2 0848     		ldr	r0, .L161+16
 2805              	.LVL221:
  41:source/HeavyContext.cpp ****   hv_assert(outQueueKb >= 0);
 2806              		.loc 2 41 3 discriminator 1 view .LVU652
 2807 00a4 FFF7FEFF 		bl	__assert_func
 2808              	.LVL222:
 2809              	.L158:
  40:source/HeavyContext.cpp ****   hv_assert(inQueueKb > 0);
 2810              		.loc 2 40 3 discriminator 1 view .LVU653
ARM GAS  /var/folders/fb/yfxt3z4538j6z0vjt03w70vc0000gn/T//ccfrU3iz.s 			page 75


 2811 00a8 094B     		ldr	r3, .L161+28
 2812 00aa 2821     		movs	r1, #40
 2813              	.LVL223:
  40:source/HeavyContext.cpp ****   hv_assert(inQueueKb > 0);
 2814              		.loc 2 40 3 discriminator 1 view .LVU654
 2815 00ac 044A     		ldr	r2, .L161+12
 2816              	.LVL224:
  40:source/HeavyContext.cpp ****   hv_assert(inQueueKb > 0);
 2817              		.loc 2 40 3 discriminator 1 view .LVU655
 2818 00ae 0548     		ldr	r0, .L161+16
 2819              	.LVL225:
  40:source/HeavyContext.cpp ****   hv_assert(inQueueKb > 0);
 2820              		.loc 2 40 3 discriminator 1 view .LVU656
 2821 00b0 FFF7FEFF 		bl	__assert_func
 2822              	.LVL226:
 2823              	.L162:
  40:source/HeavyContext.cpp ****   hv_assert(inQueueKb > 0);
 2824              		.loc 2 40 3 discriminator 1 view .LVU657
 2825              		.align	2
 2826              	.L161:
 2827 00b4 08000000 		.word	.LANCHOR0+8
 2828 00b8 00000000 		.word	_Z15defaultSendHookP21HeavyContextInterfacePKcmPK9HvMessage
 2829 00bc 00000000 		.word	.LC33
 2830 00c0 14000000 		.word	.LC34
 2831 00c4 58000000 		.word	.LC2
 2832 00c8 54000000 		.word	.LC36
 2833 00cc 00000000 		.word	.LC5
 2834 00d0 48000000 		.word	.LC35
 2835              	.LBE292:
 2836              		.cfi_endproc
 2837              	.LFE984:
 2839              		.global	_ZN12HeavyContextC1Ediii
 2840              		.thumb_set _ZN12HeavyContextC1Ediii,_ZN12HeavyContextC2Ediii
 2841              		.section	.text._ZN12HeavyContextD2Ev,"ax",%progbits
 2842              		.align	1
 2843              		.p2align 2,,3
 2844              		.global	_ZN12HeavyContextD2Ev
 2845              		.syntax unified
 2846              		.thumb
 2847              		.thumb_func
 2849              	_ZN12HeavyContextD2Ev:
 2850              	.LVL227:
 2851              	.LFB987:
  62:source/HeavyContext.cpp ****   mq_free(&mq);
 2852              		.loc 2 62 1 is_stmt 1 view -0
 2853              		.cfi_startproc
 2854              		@ args = 0, pretend = 0, frame = 0
 2855              		@ frame_needed = 0, uses_anonymous_args = 0
 2856              	.LBB295:
  62:source/HeavyContext.cpp ****   mq_free(&mq);
 2857              		.loc 2 62 29 is_stmt 0 view .LVU659
 2858 0000 084B     		ldr	r3, .L165
 2859              	.LBE295:
  62:source/HeavyContext.cpp ****   mq_free(&mq);
 2860              		.loc 2 62 1 view .LVU660
 2861 0002 10B5     		push	{r4, lr}
 2862              		.cfi_def_cfa_offset 8
ARM GAS  /var/folders/fb/yfxt3z4538j6z0vjt03w70vc0000gn/T//ccfrU3iz.s 			page 76


 2863              		.cfi_offset 4, -8
 2864              		.cfi_offset 14, -4
  62:source/HeavyContext.cpp ****   mq_free(&mq);
 2865              		.loc 2 62 1 view .LVU661
 2866 0004 0446     		mov	r4, r0
 2867              	.LBB297:
  62:source/HeavyContext.cpp ****   mq_free(&mq);
 2868              		.loc 2 62 29 view .LVU662
 2869 0006 40F8183B 		str	r3, [r0], #24
 2870              	.LVL228:
  63:source/HeavyContext.cpp ****   hLp_free(&inQueue);
 2871              		.loc 2 63 3 is_stmt 1 view .LVU663
  63:source/HeavyContext.cpp ****   hLp_free(&inQueue);
 2872              		.loc 2 63 10 is_stmt 0 view .LVU664
 2873 000a FFF7FEFF 		bl	mq_free
 2874              	.LVL229:
  64:source/HeavyContext.cpp ****   hLp_free(&outQueue);
 2875              		.loc 2 64 3 is_stmt 1 view .LVU665
  64:source/HeavyContext.cpp ****   hLp_free(&outQueue);
 2876              		.loc 2 64 11 is_stmt 0 view .LVU666
 2877 000e 04F15C00 		add	r0, r4, #92
 2878 0012 FFF7FEFF 		bl	hLp_free
 2879              	.LVL230:
  65:source/HeavyContext.cpp **** }
 2880              		.loc 2 65 3 is_stmt 1 view .LVU667
  65:source/HeavyContext.cpp **** }
 2881              		.loc 2 65 11 is_stmt 0 view .LVU668
 2882 0016 04F17000 		add	r0, r4, #112
 2883 001a FFF7FEFF 		bl	hLp_free
 2884              	.LVL231:
 2885              	.LBB296:
 2886              	.LBI296:
  55:source/HeavyContextInterface.hpp ****   virtual ~HeavyContextInterface() {};
 2887              		.loc 6 55 11 is_stmt 1 view .LVU669
 2888              		.loc 6 55 11 is_stmt 0 view .LVU670
 2889              	.LBE296:
 2890              	.LBE297:
  66:source/HeavyContext.cpp **** 
 2891              		.loc 2 66 1 view .LVU671
 2892 001e 2046     		mov	r0, r4
 2893 0020 10BD     		pop	{r4, pc}
 2894              	.LVL232:
 2895              	.L166:
  66:source/HeavyContext.cpp **** 
 2896              		.loc 2 66 1 view .LVU672
 2897 0022 00BF     		.align	2
 2898              	.L165:
 2899 0024 08000000 		.word	.LANCHOR0+8
 2900              		.cfi_endproc
 2901              	.LFE987:
 2903              		.global	_ZN12HeavyContextD1Ev
 2904              		.thumb_set _ZN12HeavyContextD1Ev,_ZN12HeavyContextD2Ev
 2905              		.section	.text._ZN12HeavyContextD0Ev,"ax",%progbits
 2906              		.align	1
 2907              		.p2align 2,,3
 2908              		.global	_ZN12HeavyContextD0Ev
 2909              		.syntax unified
ARM GAS  /var/folders/fb/yfxt3z4538j6z0vjt03w70vc0000gn/T//ccfrU3iz.s 			page 77


 2910              		.thumb
 2911              		.thumb_func
 2913              	_ZN12HeavyContextD0Ev:
 2914              	.LVL233:
 2915              	.LFB989:
  62:source/HeavyContext.cpp ****   mq_free(&mq);
 2916              		.loc 2 62 1 is_stmt 1 view -0
 2917              		.cfi_startproc
 2918              		@ args = 0, pretend = 0, frame = 0
 2919              		@ frame_needed = 0, uses_anonymous_args = 0
 2920              	.LBB302:
 2921              	.LBB303:
  62:source/HeavyContext.cpp ****   mq_free(&mq);
 2922              		.loc 2 62 29 is_stmt 0 view .LVU674
 2923 0000 0A4B     		ldr	r3, .L169
 2924              	.LBE303:
 2925              	.LBE302:
  62:source/HeavyContext.cpp ****   mq_free(&mq);
 2926              		.loc 2 62 1 view .LVU675
 2927 0002 10B5     		push	{r4, lr}
 2928              		.cfi_def_cfa_offset 8
 2929              		.cfi_offset 4, -8
 2930              		.cfi_offset 14, -4
  62:source/HeavyContext.cpp ****   mq_free(&mq);
 2931              		.loc 2 62 1 view .LVU676
 2932 0004 0446     		mov	r4, r0
 2933              	.LVL234:
 2934              	.LBB306:
 2935              	.LBI302:
  62:source/HeavyContext.cpp ****   mq_free(&mq);
 2936              		.loc 2 62 1 is_stmt 1 view .LVU677
 2937              	.LBB305:
  62:source/HeavyContext.cpp ****   mq_free(&mq);
 2938              		.loc 2 62 29 is_stmt 0 view .LVU678
 2939 0006 40F8183B 		str	r3, [r0], #24
 2940              	.LVL235:
  63:source/HeavyContext.cpp ****   hLp_free(&inQueue);
 2941              		.loc 2 63 3 is_stmt 1 view .LVU679
  63:source/HeavyContext.cpp ****   hLp_free(&inQueue);
 2942              		.loc 2 63 10 is_stmt 0 view .LVU680
 2943 000a FFF7FEFF 		bl	mq_free
 2944              	.LVL236:
  64:source/HeavyContext.cpp ****   hLp_free(&outQueue);
 2945              		.loc 2 64 3 is_stmt 1 view .LVU681
  64:source/HeavyContext.cpp ****   hLp_free(&outQueue);
 2946              		.loc 2 64 11 is_stmt 0 view .LVU682
 2947 000e 04F15C00 		add	r0, r4, #92
 2948 0012 FFF7FEFF 		bl	hLp_free
 2949              	.LVL237:
  65:source/HeavyContext.cpp **** }
 2950              		.loc 2 65 3 is_stmt 1 view .LVU683
  65:source/HeavyContext.cpp **** }
 2951              		.loc 2 65 11 is_stmt 0 view .LVU684
 2952 0016 04F17000 		add	r0, r4, #112
 2953 001a FFF7FEFF 		bl	hLp_free
 2954              	.LVL238:
 2955              	.LBB304:
ARM GAS  /var/folders/fb/yfxt3z4538j6z0vjt03w70vc0000gn/T//ccfrU3iz.s 			page 78


 2956              	.LBI304:
 2957              		.loc 6 55 11 is_stmt 1 view .LVU685
 2958              		.loc 6 55 11 is_stmt 0 view .LVU686
 2959              	.LBE304:
 2960              	.LBE305:
 2961              	.LBE306:
  66:source/HeavyContext.cpp **** 
 2962              		.loc 2 66 1 view .LVU687
 2963 001e 2046     		mov	r0, r4
 2964 0020 8821     		movs	r1, #136
 2965 0022 FFF7FEFF 		bl	_ZdlPvj
 2966              	.LVL239:
 2967 0026 2046     		mov	r0, r4
 2968 0028 10BD     		pop	{r4, pc}
 2969              	.LVL240:
 2970              	.L170:
  66:source/HeavyContext.cpp **** 
 2971              		.loc 2 66 1 view .LVU688
 2972 002a 00BF     		.align	2
 2973              	.L169:
 2974 002c 08000000 		.word	.LANCHOR0+8
 2975              		.cfi_endproc
 2976              	.LFE989:
 2978              		.section	.text._ZN12HeavyContext24scheduleMessageForObjectEPK9HvMessagePFvP21HeavyContextInterface
 2979              		.align	1
 2980              		.p2align 2,,3
 2981              		.global	_ZN12HeavyContext24scheduleMessageForObjectEPK9HvMessagePFvP21HeavyContextInterfaceiS2_Ei
 2982              		.syntax unified
 2983              		.thumb
 2984              		.thumb_func
 2986              	_ZN12HeavyContext24scheduleMessageForObjectEPK9HvMessagePFvP21HeavyContextInterfaceiS2_Ei:
 2987              	.LVL241:
 2988              	.LFB996:
 145:source/HeavyContext.cpp ****   HvMessage *n = mq_addMessageByTimestamp(&mq, m, letIndex, sendMessage);
 2989              		.loc 2 145 19 is_stmt 1 view -0
 2990              		.cfi_startproc
 2991              		@ args = 0, pretend = 0, frame = 0
 2992              		@ frame_needed = 0, uses_anonymous_args = 0
 2993              		@ link register save eliminated.
 146:source/HeavyContext.cpp ****   return n;
 2994              		.loc 2 146 3 view .LVU690
 145:source/HeavyContext.cpp ****   HvMessage *n = mq_addMessageByTimestamp(&mq, m, letIndex, sendMessage);
 2995              		.loc 2 145 19 is_stmt 0 view .LVU691
 2996 0000 9446     		mov	ip, r2
 146:source/HeavyContext.cpp ****   return n;
 2997              		.loc 2 146 42 view .LVU692
 2998 0002 1830     		adds	r0, r0, #24
 2999              	.LVL242:
 145:source/HeavyContext.cpp ****   HvMessage *n = mq_addMessageByTimestamp(&mq, m, letIndex, sendMessage);
 3000              		.loc 2 145 19 view .LVU693
 3001 0004 1A46     		mov	r2, r3
 3002              	.LVL243:
 146:source/HeavyContext.cpp ****   return n;
 3003              		.loc 2 146 42 view .LVU694
 3004 0006 6346     		mov	r3, ip
 3005              	.LVL244:
 146:source/HeavyContext.cpp ****   return n;
ARM GAS  /var/folders/fb/yfxt3z4538j6z0vjt03w70vc0000gn/T//ccfrU3iz.s 			page 79


 3006              		.loc 2 146 42 view .LVU695
 3007 0008 FFF7FEBF 		b	mq_addMessageByTimestamp
 3008              	.LVL245:
 146:source/HeavyContext.cpp ****   return n;
 3009              		.loc 2 146 42 view .LVU696
 3010              		.cfi_endproc
 3011              	.LFE996:
 3013              		.section	.text._ZN12HeavyContext16getHashForStringEPKc,"ax",%progbits
 3014              		.align	1
 3015              		.p2align 2,,3
 3016              		.global	_ZN12HeavyContext16getHashForStringEPKc
 3017              		.syntax unified
 3018              		.thumb
 3019              		.thumb_func
 3021              	_ZN12HeavyContext16getHashForStringEPKc:
 3022              	.LVL246:
 3023              	.LFB1006:
 221:source/HeavyContext.cpp ****   return hv_string_to_hash(str);
 3024              		.loc 2 221 61 is_stmt 1 view -0
 3025              		.cfi_startproc
 3026              		@ args = 0, pretend = 0, frame = 0
 3027              		@ frame_needed = 0, uses_anonymous_args = 0
 3028              		@ link register save eliminated.
 222:source/HeavyContext.cpp **** }
 3029              		.loc 2 222 3 view .LVU698
 222:source/HeavyContext.cpp **** }
 3030              		.loc 2 222 27 is_stmt 0 view .LVU699
 3031 0000 FFF7FEBF 		b	hv_string_to_hash
 3032              	.LVL247:
 222:source/HeavyContext.cpp **** }
 3033              		.loc 2 222 27 view .LVU700
 3034              		.cfi_endproc
 3035              	.LFE1006:
 3037              		.section	.text._Z13_hv_table_getP21HeavyContextInterfacem,"ax",%progbits
 3038              		.align	1
 3039              		.p2align 2,,3
 3040              		.global	_Z13_hv_table_getP21HeavyContextInterfacem
 3041              		.syntax unified
 3042              		.thumb
 3043              		.thumb_func
 3045              	_Z13_hv_table_getP21HeavyContextInterfacem:
 3046              	.LVL248:
 3047              	.LFB1007:
 225:source/HeavyContext.cpp ****   hv_assert(c != nullptr);
 3048              		.loc 2 225 73 is_stmt 1 view -0
 3049              		.cfi_startproc
 3050              		@ args = 0, pretend = 0, frame = 0
 3051              		@ frame_needed = 0, uses_anonymous_args = 0
 226:source/HeavyContext.cpp ****   return reinterpret_cast<HeavyContext *>(c)->getTableForHash(tableHash);
 3052              		.loc 2 226 3 view .LVU702
 3053 0000 18B1     		cbz	r0, .L178
 227:source/HeavyContext.cpp **** }
 3054              		.loc 2 227 3 view .LVU703
 227:source/HeavyContext.cpp **** }
 3055              		.loc 2 227 72 is_stmt 0 view .LVU704
 3056 0002 0368     		ldr	r3, [r0]
 227:source/HeavyContext.cpp **** }
ARM GAS  /var/folders/fb/yfxt3z4538j6z0vjt03w70vc0000gn/T//ccfrU3iz.s 			page 80


 3057              		.loc 2 227 62 view .LVU705
 3058 0004 D3F88C30 		ldr	r3, [r3, #140]
 3059 0008 1847     		bx	r3
 3060              	.LVL249:
 3061              	.L178:
 225:source/HeavyContext.cpp ****   hv_assert(c != nullptr);
 3062              		.loc 2 225 73 discriminator 1 view .LVU706
 3063 000a 10B5     		push	{r4, lr}
 3064              		.cfi_def_cfa_offset 8
 3065              		.cfi_offset 4, -8
 3066              		.cfi_offset 14, -4
 3067 000c FFF7FEFF 		bl	_Z13_hv_table_getP21HeavyContextInterfacem.part.0
 3068              	.LVL250:
 225:source/HeavyContext.cpp ****   hv_assert(c != nullptr);
 3069              		.loc 2 225 73 discriminator 1 view .LVU707
 3070              		.cfi_endproc
 3071              	.LFE1007:
 3073              		.section	.text._Z30_hv_scheduleMessageForReceiverP21HeavyContextInterfacemP9HvMessage,"ax",%progbi
 3074              		.align	1
 3075              		.p2align 2,,3
 3076              		.global	_Z30_hv_scheduleMessageForReceiverP21HeavyContextInterfacemP9HvMessage
 3077              		.syntax unified
 3078              		.thumb
 3079              		.thumb_func
 3081              	_Z30_hv_scheduleMessageForReceiverP21HeavyContextInterfacemP9HvMessage:
 3082              	.LVL251:
 3083              	.LFB1008:
 230:source/HeavyContext.cpp ****   hv_assert(c != nullptr);
 3084              		.loc 2 230 103 is_stmt 1 view -0
 3085              		.cfi_startproc
 3086              		@ args = 0, pretend = 0, frame = 0
 3087              		@ frame_needed = 0, uses_anonymous_args = 0
 231:source/HeavyContext.cpp ****   reinterpret_cast<HeavyContext *>(c)->scheduleMessageForReceiver(receiverHash, m);
 3088              		.loc 2 231 3 view .LVU709
 3089 0000 18B1     		cbz	r0, .L184
 232:source/HeavyContext.cpp **** }
 3090              		.loc 2 232 3 view .LVU710
 232:source/HeavyContext.cpp **** }
 3091              		.loc 2 232 82 is_stmt 0 view .LVU711
 3092 0002 0368     		ldr	r3, [r0]
 232:source/HeavyContext.cpp **** }
 3093              		.loc 2 232 66 view .LVU712
 3094 0004 D3F89030 		ldr	r3, [r3, #144]
 3095 0008 1847     		bx	r3	@ indirect register sibling call
 3096              	.LVL252:
 3097              	.L184:
 230:source/HeavyContext.cpp ****   hv_assert(c != nullptr);
 3098              		.loc 2 230 103 discriminator 1 view .LVU713
 3099 000a 10B5     		push	{r4, lr}
 3100              		.cfi_def_cfa_offset 8
 3101              		.cfi_offset 4, -8
 3102              		.cfi_offset 14, -4
 3103 000c FFF7FEFF 		bl	_Z30_hv_scheduleMessageForReceiverP21HeavyContextInterfacemP9HvMessage.part.0
 3104              	.LVL253:
 230:source/HeavyContext.cpp ****   hv_assert(c != nullptr);
 3105              		.loc 2 230 103 discriminator 1 view .LVU714
 3106              		.cfi_endproc
ARM GAS  /var/folders/fb/yfxt3z4538j6z0vjt03w70vc0000gn/T//ccfrU3iz.s 			page 81


 3107              	.LFE1008:
 3109              		.section	.text._Z28_hv_scheduleMessageForObjectP21HeavyContextInterfacePK9HvMessagePFvS0_iS3_Ei,"a
 3110              		.align	1
 3111              		.p2align 2,,3
 3112              		.global	_Z28_hv_scheduleMessageForObjectP21HeavyContextInterfacePK9HvMessagePFvS0_iS3_Ei
 3113              		.syntax unified
 3114              		.thumb
 3115              		.thumb_func
 3117              	_Z28_hv_scheduleMessageForObjectP21HeavyContextInterfacePK9HvMessagePFvS0_iS3_Ei:
 3118              	.LVL254:
 3119              	.LFB1009:
 237:source/HeavyContext.cpp ****   hv_assert(c != nullptr);
 3120              		.loc 2 237 19 is_stmt 1 view -0
 3121              		.cfi_startproc
 3122              		@ args = 0, pretend = 0, frame = 0
 3123              		@ frame_needed = 0, uses_anonymous_args = 0
 3124              		.loc 2 238 3 view .LVU716
 3125 0000 28B1     		cbz	r0, .L190
 239:source/HeavyContext.cpp ****   HvMessage *n = reinterpret_cast<HeavyContext *>(c)->scheduleMessageForObject(
 3126              		.loc 2 239 3 view .LVU717
 3127              	.LVL255:
 3128              	.LBB309:
 3129              	.LBI309:
 143:source/HeavyContext.cpp ****     void (*sendMessage)(HeavyContextInterface *, int, const HvMessage *),
 3130              		.loc 2 143 12 view .LVU718
 3131              	.LBB310:
 146:source/HeavyContext.cpp ****   return n;
 3132              		.loc 2 146 3 view .LVU719
 3133 0002 9446     		mov	ip, r2
 146:source/HeavyContext.cpp ****   return n;
 3134              		.loc 2 146 42 is_stmt 0 view .LVU720
 3135 0004 1830     		adds	r0, r0, #24
 3136              	.LVL256:
 146:source/HeavyContext.cpp ****   return n;
 3137              		.loc 2 146 42 view .LVU721
 3138 0006 1A46     		mov	r2, r3
 3139              	.LVL257:
 146:source/HeavyContext.cpp ****   return n;
 3140              		.loc 2 146 42 view .LVU722
 3141 0008 6346     		mov	r3, ip
 3142              	.LVL258:
 146:source/HeavyContext.cpp ****   return n;
 3143              		.loc 2 146 42 view .LVU723
 3144 000a FFF7FEBF 		b	mq_addMessageByTimestamp
 3145              	.LVL259:
 3146              	.L190:
 146:source/HeavyContext.cpp ****   return n;
 3147              		.loc 2 146 42 view .LVU724
 3148              	.LBE310:
 3149              	.LBE309:
 237:source/HeavyContext.cpp ****   hv_assert(c != nullptr);
 3150              		.loc 2 237 19 discriminator 1 view .LVU725
 3151 000e 10B5     		push	{r4, lr}
 3152              		.cfi_def_cfa_offset 8
 3153              		.cfi_offset 4, -8
 3154              		.cfi_offset 14, -4
 3155 0010 FFF7FEFF 		bl	_Z28_hv_scheduleMessageForObjectP21HeavyContextInterfacePK9HvMessagePFvS0_iS3_Ei.part.0
ARM GAS  /var/folders/fb/yfxt3z4538j6z0vjt03w70vc0000gn/T//ccfrU3iz.s 			page 82


 3156              	.LVL260:
 237:source/HeavyContext.cpp ****   hv_assert(c != nullptr);
 3157              		.loc 2 237 19 discriminator 1 view .LVU726
 3158              		.cfi_endproc
 3159              	.LFE1009:
 3161              		.section	.text.hv_table_get,"ax",%progbits
 3162              		.align	1
 3163              		.p2align 2,,3
 3164              		.global	hv_table_get
 3165              		.syntax unified
 3166              		.thumb
 3167              		.thumb_func
 3169              	hv_table_get:
 3170              	.LVL261:
 3171              	.LFB1010:
 240:source/HeavyContext.cpp ****       m, sendMessage, letIndex);
 241:source/HeavyContext.cpp ****   return n;
 242:source/HeavyContext.cpp **** }
 243:source/HeavyContext.cpp **** 
 244:source/HeavyContext.cpp **** #ifdef __cplusplus
 245:source/HeavyContext.cpp **** extern "C" {
 246:source/HeavyContext.cpp **** #endif
 247:source/HeavyContext.cpp **** 
 248:source/HeavyContext.cpp **** HvTable *hv_table_get(HeavyContextInterface *c, hv_uint32_t tableHash) {
 3172              		.loc 2 248 72 is_stmt 1 view -0
 3173              		.cfi_startproc
 3174              		@ args = 0, pretend = 0, frame = 0
 3175              		@ frame_needed = 0, uses_anonymous_args = 0
 249:source/HeavyContext.cpp ****   return _hv_table_get(c, tableHash);
 3176              		.loc 2 249 3 view .LVU728
 3177              	.LBB313:
 3178              	.LBI313:
 225:source/HeavyContext.cpp ****   hv_assert(c != nullptr);
 3179              		.loc 2 225 10 view .LVU729
 3180              	.LBB314:
 226:source/HeavyContext.cpp ****   return reinterpret_cast<HeavyContext *>(c)->getTableForHash(tableHash);
 3181              		.loc 2 226 3 view .LVU730
 3182 0000 18B1     		cbz	r0, .L196
 227:source/HeavyContext.cpp **** }
 3183              		.loc 2 227 3 view .LVU731
 227:source/HeavyContext.cpp **** }
 3184              		.loc 2 227 72 is_stmt 0 view .LVU732
 3185 0002 0368     		ldr	r3, [r0]
 227:source/HeavyContext.cpp **** }
 3186              		.loc 2 227 62 view .LVU733
 3187 0004 D3F88C30 		ldr	r3, [r3, #140]
 3188 0008 1847     		bx	r3
 3189              	.LVL262:
 3190              	.L196:
 227:source/HeavyContext.cpp **** }
 3191              		.loc 2 227 62 view .LVU734
 3192              	.LBE314:
 3193              	.LBE313:
 248:source/HeavyContext.cpp ****   return _hv_table_get(c, tableHash);
 3194              		.loc 2 248 72 view .LVU735
 3195 000a 10B5     		push	{r4, lr}
 3196              		.cfi_def_cfa_offset 8
ARM GAS  /var/folders/fb/yfxt3z4538j6z0vjt03w70vc0000gn/T//ccfrU3iz.s 			page 83


 3197              		.cfi_offset 4, -8
 3198              		.cfi_offset 14, -4
 3199              	.LBB316:
 3200              	.LBB315:
 3201 000c FFF7FEFF 		bl	_Z13_hv_table_getP21HeavyContextInterfacem.part.0
 3202              	.LVL263:
 248:source/HeavyContext.cpp ****   return _hv_table_get(c, tableHash);
 3203              		.loc 2 248 72 view .LVU736
 3204              	.LBE315:
 3205              	.LBE316:
 3206              		.cfi_endproc
 3207              	.LFE1010:
 3209              		.section	.text.hv_scheduleMessageForReceiver,"ax",%progbits
 3210              		.align	1
 3211              		.p2align 2,,3
 3212              		.global	hv_scheduleMessageForReceiver
 3213              		.syntax unified
 3214              		.thumb
 3215              		.thumb_func
 3217              	hv_scheduleMessageForReceiver:
 3218              	.LVL264:
 3219              	.LFB1011:
 250:source/HeavyContext.cpp **** }
 251:source/HeavyContext.cpp **** 
 252:source/HeavyContext.cpp **** void hv_scheduleMessageForReceiver(HeavyContextInterface *c, hv_uint32_t receiverHash, HvMessage *m
 3220              		.loc 2 252 102 is_stmt 1 view -0
 3221              		.cfi_startproc
 3222              		@ args = 0, pretend = 0, frame = 0
 3223              		@ frame_needed = 0, uses_anonymous_args = 0
 253:source/HeavyContext.cpp ****   _hv_scheduleMessageForReceiver(c, receiverHash, m);
 3224              		.loc 2 253 3 view .LVU738
 3225              	.LBB319:
 3226              	.LBI319:
 230:source/HeavyContext.cpp ****   hv_assert(c != nullptr);
 3227              		.loc 2 230 6 view .LVU739
 3228              	.LBB320:
 231:source/HeavyContext.cpp ****   reinterpret_cast<HeavyContext *>(c)->scheduleMessageForReceiver(receiverHash, m);
 3229              		.loc 2 231 3 view .LVU740
 3230 0000 18B1     		cbz	r0, .L202
 232:source/HeavyContext.cpp **** }
 3231              		.loc 2 232 3 view .LVU741
 232:source/HeavyContext.cpp **** }
 3232              		.loc 2 232 82 is_stmt 0 view .LVU742
 3233 0002 0368     		ldr	r3, [r0]
 232:source/HeavyContext.cpp **** }
 3234              		.loc 2 232 66 view .LVU743
 3235 0004 D3F89030 		ldr	r3, [r3, #144]
 3236 0008 1847     		bx	r3	@ indirect register sibling call
 3237              	.LVL265:
 3238              	.L202:
 232:source/HeavyContext.cpp **** }
 3239              		.loc 2 232 66 view .LVU744
 3240              	.LBE320:
 3241              	.LBE319:
 252:source/HeavyContext.cpp ****   _hv_scheduleMessageForReceiver(c, receiverHash, m);
 3242              		.loc 2 252 102 view .LVU745
 3243 000a 10B5     		push	{r4, lr}
ARM GAS  /var/folders/fb/yfxt3z4538j6z0vjt03w70vc0000gn/T//ccfrU3iz.s 			page 84


 3244              		.cfi_def_cfa_offset 8
 3245              		.cfi_offset 4, -8
 3246              		.cfi_offset 14, -4
 3247              	.LBB322:
 3248              	.LBB321:
 3249 000c FFF7FEFF 		bl	_Z30_hv_scheduleMessageForReceiverP21HeavyContextInterfacemP9HvMessage.part.0
 3250              	.LVL266:
 252:source/HeavyContext.cpp ****   _hv_scheduleMessageForReceiver(c, receiverHash, m);
 3251              		.loc 2 252 102 view .LVU746
 3252              	.LBE321:
 3253              	.LBE322:
 3254              		.cfi_endproc
 3255              	.LFE1011:
 3257              		.section	.text.hv_scheduleMessageForObject,"ax",%progbits
 3258              		.align	1
 3259              		.p2align 2,,3
 3260              		.global	hv_scheduleMessageForObject
 3261              		.syntax unified
 3262              		.thumb
 3263              		.thumb_func
 3265              	hv_scheduleMessageForObject:
 3266              	.LVL267:
 3267              	.LFB1012:
 254:source/HeavyContext.cpp **** }
 255:source/HeavyContext.cpp **** 
 256:source/HeavyContext.cpp **** HvMessage *hv_scheduleMessageForObject(HeavyContextInterface *c, const HvMessage *m,
 257:source/HeavyContext.cpp ****     void (*sendMessage)(HeavyContextInterface *, int, const HvMessage *),
 258:source/HeavyContext.cpp ****     int letIndex) {
 3268              		.loc 2 258 19 is_stmt 1 view -0
 3269              		.cfi_startproc
 3270              		@ args = 0, pretend = 0, frame = 0
 3271              		@ frame_needed = 0, uses_anonymous_args = 0
 259:source/HeavyContext.cpp ****   return _hv_scheduleMessageForObject(c, m, sendMessage, letIndex);
 3272              		.loc 2 259 3 view .LVU748
 3273              	.LBB327:
 3274              	.LBI327:
 235:source/HeavyContext.cpp ****     void (*sendMessage)(HeavyContextInterface *, int, const HvMessage *),
 3275              		.loc 2 235 12 view .LVU749
 3276              	.LBB328:
 238:source/HeavyContext.cpp ****   HvMessage *n = reinterpret_cast<HeavyContext *>(c)->scheduleMessageForObject(
 3277              		.loc 2 238 3 view .LVU750
 3278 0000 28B1     		cbz	r0, .L208
 239:source/HeavyContext.cpp ****       m, sendMessage, letIndex);
 3279              		.loc 2 239 3 view .LVU751
 3280              	.LVL268:
 3281              	.LBB329:
 3282              	.LBI329:
 143:source/HeavyContext.cpp ****     void (*sendMessage)(HeavyContextInterface *, int, const HvMessage *),
 3283              		.loc 2 143 12 view .LVU752
 3284              	.LBB330:
 146:source/HeavyContext.cpp ****   return n;
 3285              		.loc 2 146 3 view .LVU753
 3286 0002 9446     		mov	ip, r2
 146:source/HeavyContext.cpp ****   return n;
 3287              		.loc 2 146 42 is_stmt 0 view .LVU754
 3288 0004 1830     		adds	r0, r0, #24
 3289              	.LVL269:
ARM GAS  /var/folders/fb/yfxt3z4538j6z0vjt03w70vc0000gn/T//ccfrU3iz.s 			page 85


 146:source/HeavyContext.cpp ****   return n;
 3290              		.loc 2 146 42 view .LVU755
 3291 0006 1A46     		mov	r2, r3
 3292              	.LVL270:
 146:source/HeavyContext.cpp ****   return n;
 3293              		.loc 2 146 42 view .LVU756
 3294 0008 6346     		mov	r3, ip
 3295              	.LVL271:
 146:source/HeavyContext.cpp ****   return n;
 3296              		.loc 2 146 42 view .LVU757
 3297 000a FFF7FEBF 		b	mq_addMessageByTimestamp
 3298              	.LVL272:
 3299              	.L208:
 146:source/HeavyContext.cpp ****   return n;
 3300              		.loc 2 146 42 view .LVU758
 3301              	.LBE330:
 3302              	.LBE329:
 3303              	.LBE328:
 3304              	.LBE327:
 258:source/HeavyContext.cpp ****   return _hv_scheduleMessageForObject(c, m, sendMessage, letIndex);
 3305              		.loc 2 258 19 view .LVU759
 3306 000e 10B5     		push	{r4, lr}
 3307              		.cfi_def_cfa_offset 8
 3308              		.cfi_offset 4, -8
 3309              		.cfi_offset 14, -4
 3310              	.LBB332:
 3311              	.LBB331:
 3312 0010 FFF7FEFF 		bl	_Z28_hv_scheduleMessageForObjectP21HeavyContextInterfacePK9HvMessagePFvS0_iS3_Ei.part.0
 3313              	.LVL273:
 258:source/HeavyContext.cpp ****   return _hv_scheduleMessageForObject(c, m, sendMessage, letIndex);
 3314              		.loc 2 258 19 view .LVU760
 3315              	.LBE331:
 3316              	.LBE332:
 3317              		.cfi_endproc
 3318              	.LFE1012:
 3320              		.global	_ZTV12HeavyContext
 3321              		.section	.rodata._ZTV12HeavyContext,"a"
 3322              		.align	2
 3323              		.set	.LANCHOR0,. + 0
 3326              	_ZTV12HeavyContext:
 3327 0000 00000000 		.word	0
 3328 0004 00000000 		.word	0
 3329 0008 00000000 		.word	0
 3330 000c 00000000 		.word	0
 3331 0010 00000000 		.word	__cxa_pure_virtual
 3332 0014 00000000 		.word	__cxa_pure_virtual
 3333 0018 00000000 		.word	__cxa_pure_virtual
 3334 001c 00000000 		.word	_ZN12HeavyContext7getSizeEv
