ARM GAS  /var/folders/fb/yfxt3z4538j6z0vjt03w70vc0000gn/T//ccuxLoMP.s 			page 1


   1              		.cpu cortex-m7
   2              		.arch armv7e-m
   3              		.fpu fpv5-d16
   4              		.eabi_attribute 28, 1
   5              		.eabi_attribute 20, 1
   6              		.eabi_attribute 21, 1
   7              		.eabi_attribute 23, 3
   8              		.eabi_attribute 24, 1
   9              		.eabi_attribute 25, 1
  10              		.eabi_attribute 26, 1
  11              		.eabi_attribute 30, 2
  12              		.eabi_attribute 34, 1
  13              		.eabi_attribute 18, 4
  14              		.file	"HvControlPrint.c"
  15              		.text
  16              	.Ltext0:
  17              		.cfi_sections	.debug_frame
  18              		.section	.text.cPrint_onMessage,"ax",%progbits
  19              		.align	1
  20              		.p2align 2,,3
  21              		.global	cPrint_onMessage
  22              		.syntax unified
  23              		.thumb
  24              		.thumb_func
  26              	cPrint_onMessage:
  27              	.LVL0:
  28              	.LFB399:
  29              		.file 1 "source/HvControlPrint.c"
   1:source/HvControlPrint.c **** /**
   2:source/HvControlPrint.c ****  * Copyright (c) 2014-2018 Enzien Audio Ltd.
   3:source/HvControlPrint.c ****  *
   4:source/HvControlPrint.c ****  * Permission to use, copy, modify, and/or distribute this software for any
   5:source/HvControlPrint.c ****  * purpose with or without fee is hereby granted, provided that the above
   6:source/HvControlPrint.c ****  * copyright notice and this permission notice appear in all copies.
   7:source/HvControlPrint.c ****  *
   8:source/HvControlPrint.c ****  * THE SOFTWARE IS PROVIDED "AS IS" AND THE AUTHOR DISCLAIMS ALL WARRANTIES WITH
   9:source/HvControlPrint.c ****  * REGARD TO THIS SOFTWARE INCLUDING ALL IMPLIED WARRANTIES OF MERCHANTABILITY
  10:source/HvControlPrint.c ****  * AND FITNESS. IN NO EVENT SHALL THE AUTHOR BE LIABLE FOR ANY SPECIAL, DIRECT,
  11:source/HvControlPrint.c ****  * INDIRECT, OR CONSEQUENTIAL DAMAGES OR ANY DAMAGES WHATSOEVER RESULTING FROM
  12:source/HvControlPrint.c ****  * LOSS OF USE, DATA OR PROFITS, WHETHER IN AN ACTION OF CONTRACT, NEGLIGENCE OR
  13:source/HvControlPrint.c ****  * OTHER TORTIOUS ACTION, ARISING OUT OF OR IN CONNECTION WITH THE USE OR
  14:source/HvControlPrint.c ****  * PERFORMANCE OF THIS SOFTWARE.
  15:source/HvControlPrint.c ****  */
  16:source/HvControlPrint.c **** 
  17:source/HvControlPrint.c **** #include "HvControlPrint.h"
  18:source/HvControlPrint.c **** 
  19:source/HvControlPrint.c **** void cPrint_onMessage(HeavyContextInterface *_c, const HvMessage *m, const char *name) {
  30              		.loc 1 19 88 view -0
  31              		.cfi_startproc
  32              		@ args = 0, pretend = 0, frame = 0
  33              		@ frame_needed = 0, uses_anonymous_args = 0
  20:source/HvControlPrint.c ****   if (hv_getPrintHook(_c) != NULL) {
  34              		.loc 1 20 3 view .LVU1
  19:source/HvControlPrint.c ****   if (hv_getPrintHook(_c) != NULL) {
  35              		.loc 1 19 88 is_stmt 0 view .LVU2
  36 0000 2DE9F041 		push	{r4, r5, r6, r7, r8, lr}
  37              		.cfi_def_cfa_offset 24
ARM GAS  /var/folders/fb/yfxt3z4538j6z0vjt03w70vc0000gn/T//ccuxLoMP.s 			page 2


  38              		.cfi_offset 4, -24
  39              		.cfi_offset 5, -20
  40              		.cfi_offset 6, -16
  41              		.cfi_offset 7, -12
  42              		.cfi_offset 8, -8
  43              		.cfi_offset 14, -4
  19:source/HvControlPrint.c ****   if (hv_getPrintHook(_c) != NULL) {
  44              		.loc 1 19 88 view .LVU3
  45 0004 0446     		mov	r4, r0
  46 0006 0D46     		mov	r5, r1
  47 0008 1646     		mov	r6, r2
  48              		.loc 1 20 7 view .LVU4
  49 000a FFF7FEFF 		bl	hv_getPrintHook
  50              	.LVL1:
  51              		.loc 1 20 6 view .LVU5
  52 000e 88B1     		cbz	r0, .L1
  53              	.LBB2:
  21:source/HvControlPrint.c ****     char *s = msg_toString(m);
  54              		.loc 1 21 5 is_stmt 1 view .LVU6
  55              		.loc 1 21 15 is_stmt 0 view .LVU7
  56 0010 2846     		mov	r0, r5
  57 0012 FFF7FEFF 		bl	msg_toString
  58              	.LVL2:
  59 0016 0746     		mov	r7, r0
  22:source/HvControlPrint.c ****     hv_getPrintHook(_c)(_c, name, s, m);
  60              		.loc 1 22 5 view .LVU8
  61 0018 2046     		mov	r0, r4
  62              	.LVL3:
  63              		.loc 1 22 5 is_stmt 1 view .LVU9
  64 001a FFF7FEFF 		bl	hv_getPrintHook
  65              	.LVL4:
  66 001e 2B46     		mov	r3, r5
  67 0020 8046     		mov	r8, r0
  68 0022 3A46     		mov	r2, r7
  69 0024 2046     		mov	r0, r4
  70 0026 3146     		mov	r1, r6
  71 0028 C047     		blx	r8
  72              	.LVL5:
  23:source/HvControlPrint.c ****     hv_free(s);
  73              		.loc 1 23 5 view .LVU10
  74 002a 3846     		mov	r0, r7
  75              	.LBE2:
  24:source/HvControlPrint.c ****   }
  25:source/HvControlPrint.c **** }
  76              		.loc 1 25 1 is_stmt 0 view .LVU11
  77 002c BDE8F041 		pop	{r4, r5, r6, r7, r8, lr}
  78              		.cfi_remember_state
  79              		.cfi_restore 14
  80              		.cfi_restore 8
  81              		.cfi_restore 7
  82              		.cfi_restore 6
  83              		.cfi_restore 5
  84              		.cfi_restore 4
  85              		.cfi_def_cfa_offset 0
  86              	.LVL6:
  87              	.LBB3:
  23:source/HvControlPrint.c ****     hv_free(s);
ARM GAS  /var/folders/fb/yfxt3z4538j6z0vjt03w70vc0000gn/T//ccuxLoMP.s 			page 3


  88              		.loc 1 23 5 view .LVU12
  89 0030 FFF7FEBF 		b	free
  90              	.LVL7:
  91              	.L1:
  92              		.cfi_restore_state
  23:source/HvControlPrint.c ****     hv_free(s);
  93              		.loc 1 23 5 view .LVU13
  94              	.LBE3:
  95              		.loc 1 25 1 view .LVU14
  96 0034 BDE8F081 		pop	{r4, r5, r6, r7, r8, pc}
  97              		.loc 1 25 1 view .LVU15
  98              		.cfi_endproc
  99              	.LFE399:
 101              		.text
 102              	.Letext0:
 103              		.file 2 "/Library/DaisyToolchain/0.2.0/arm/arm-none-eabi/include/machine/_default_types.h"
 104              		.file 3 "/Library/DaisyToolchain/0.2.0/arm/arm-none-eabi/include/sys/_stdint.h"
 105              		.file 4 "source/HvHeavy.h"
 106              		.file 5 "source/HvMessage.h"
 107              		.file 6 "/Library/DaisyToolchain/0.2.0/arm/arm-none-eabi/include/stdlib.h"
ARM GAS  /var/folders/fb/yfxt3z4538j6z0vjt03w70vc0000gn/T//ccuxLoMP.s 			page 4

