ARM GAS  /var/folders/fb/yfxt3z4538j6z0vjt03w70vc0000gn/T//cccFWh2g.s 			page 1


   1              		.cpu cortex-m7
   2              		.arch armv7e-m
   3              		.fpu fpv5-d16
   4              		.eabi_attribute 28, 1
   5              		.eabi_attribute 20, 1
   6              		.eabi_attribute 21, 1
   7              		.eabi_attribute 23, 3
   8              		.eabi_attribute 24, 1
   9              		.eabi_attribute 25, 1
  10              		.eabi_attribute 26, 1
  11              		.eabi_attribute 30, 2
  12              		.eabi_attribute 34, 1
  13              		.eabi_attribute 18, 4
  14              		.file	"HvLightPipe.c"
  15              		.text
  16              	.Ltext0:
  17              		.cfi_sections	.debug_frame
  18              		.section	.rodata.hLp_init.str1.4,"aMS",%progbits,1
  19              		.align	2
  20              	.LC0:
  21 0000 712D3E62 		.ascii	"q->buffer != ((void *)0)\000"
  21      75666665 
  21      7220213D 
  21      20282876 
  21      6F696420 
  22 0019 000000   		.align	2
  23              	.LC1:
  24 001c 736F7572 		.ascii	"source/HvLightPipe.c\000"
  24      63652F48 
  24      764C6967 
  24      68745069 
  24      70652E63 
  25              		.section	.text.hLp_init,"ax",%progbits
  26              		.align	1
  27              		.p2align 2,,3
  28              		.global	hLp_init
  29              		.syntax unified
  30              		.thumb
  31              		.thumb_func
  33              	hLp_init:
  34              	.LVL0:
  35              	.LFB328:
  36              		.file 1 "source/HvLightPipe.c"
   1:source/HvLightPipe.c **** /**
   2:source/HvLightPipe.c ****  * Copyright (c) 2014-2018 Enzien Audio Ltd.
   3:source/HvLightPipe.c ****  *
   4:source/HvLightPipe.c ****  * Permission to use, copy, modify, and/or distribute this software for any
   5:source/HvLightPipe.c ****  * purpose with or without fee is hereby granted, provided that the above
   6:source/HvLightPipe.c ****  * copyright notice and this permission notice appear in all copies.
   7:source/HvLightPipe.c ****  *
   8:source/HvLightPipe.c ****  * THE SOFTWARE IS PROVIDED "AS IS" AND THE AUTHOR DISCLAIMS ALL WARRANTIES WITH
   9:source/HvLightPipe.c ****  * REGARD TO THIS SOFTWARE INCLUDING ALL IMPLIED WARRANTIES OF MERCHANTABILITY
  10:source/HvLightPipe.c ****  * AND FITNESS. IN NO EVENT SHALL THE AUTHOR BE LIABLE FOR ANY SPECIAL, DIRECT,
  11:source/HvLightPipe.c ****  * INDIRECT, OR CONSEQUENTIAL DAMAGES OR ANY DAMAGES WHATSOEVER RESULTING FROM
  12:source/HvLightPipe.c ****  * LOSS OF USE, DATA OR PROFITS, WHETHER IN AN ACTION OF CONTRACT, NEGLIGENCE OR
  13:source/HvLightPipe.c ****  * OTHER TORTIOUS ACTION, ARISING OUT OF OR IN CONNECTION WITH THE USE OR
  14:source/HvLightPipe.c ****  * PERFORMANCE OF THIS SOFTWARE.
ARM GAS  /var/folders/fb/yfxt3z4538j6z0vjt03w70vc0000gn/T//cccFWh2g.s 			page 2


  15:source/HvLightPipe.c ****  */
  16:source/HvLightPipe.c **** 
  17:source/HvLightPipe.c **** #include "HvLightPipe.h"
  18:source/HvLightPipe.c **** 
  19:source/HvLightPipe.c **** #if __SSE__ || HV_SIMD_SSE
  20:source/HvLightPipe.c **** #include <xmmintrin.h>
  21:source/HvLightPipe.c **** #define hv_sfence() _mm_sfence()
  22:source/HvLightPipe.c **** #elif __arm__ || HV_SIMD_NEON
  23:source/HvLightPipe.c ****   #if __ARM_ACLE
  24:source/HvLightPipe.c ****     #include <arm_acle.h>
  25:source/HvLightPipe.c ****     // https://msdn.microsoft.com/en-us/library/hh875058.aspx#BarrierRestrictions
  26:source/HvLightPipe.c ****     // http://doxygen.reactos.org/d8/d47/armintr_8h_a02be7ec76ca51842bc90d9b466b54752.html
  27:source/HvLightPipe.c ****     #define hv_sfence() __dmb(0xE) /* _ARM_BARRIER_ST */
  28:source/HvLightPipe.c ****   #elif defined(__GNUC__)
  29:source/HvLightPipe.c ****     #define hv_sfence() __asm__ volatile ("dmb 0xE":::"memory")
  30:source/HvLightPipe.c ****   #else
  31:source/HvLightPipe.c ****     // http://stackoverflow.com/questions/19965076/gcc-memory-barrier-sync-synchronize-vs-asm-volat
  32:source/HvLightPipe.c ****     #define hv_sfence() __sync_synchronize()
  33:source/HvLightPipe.c ****   #endif
  34:source/HvLightPipe.c **** #elif HV_WIN
  35:source/HvLightPipe.c **** // https://msdn.microsoft.com/en-us/library/windows/desktop/ms684208(v=vs.85).aspx
  36:source/HvLightPipe.c **** #define hv_sfence() _WriteBarrier()
  37:source/HvLightPipe.c **** #else
  38:source/HvLightPipe.c **** #define hv_sfence() __asm__ volatile("" : : : "memory")
  39:source/HvLightPipe.c **** #endif
  40:source/HvLightPipe.c **** 
  41:source/HvLightPipe.c **** #define HLP_STOP 0
  42:source/HvLightPipe.c **** #define HLP_LOOP 0xFFFFFFFF
  43:source/HvLightPipe.c **** #define HLP_SET_UINT32_AT_BUFFER(a, b) (*((hv_uint32_t *) (a)) = (b))
  44:source/HvLightPipe.c **** #define HLP_GET_UINT32_AT_BUFFER(a) (*((hv_uint32_t *) (a)))
  45:source/HvLightPipe.c **** 
  46:source/HvLightPipe.c **** hv_uint32_t hLp_init(HvLightPipe *q, hv_uint32_t numBytes) {
  37              		.loc 1 46 60 view -0
  38              		.cfi_startproc
  39              		@ args = 0, pretend = 0, frame = 0
  40              		@ frame_needed = 0, uses_anonymous_args = 0
  47:source/HvLightPipe.c ****   if (numBytes > 0) {
  41              		.loc 1 47 3 view .LVU1
  46:source/HvLightPipe.c ****   if (numBytes > 0) {
  42              		.loc 1 46 60 is_stmt 0 view .LVU2
  43 0000 38B5     		push	{r3, r4, r5, lr}
  44              		.cfi_def_cfa_offset 16
  45              		.cfi_offset 3, -16
  46              		.cfi_offset 4, -12
  47              		.cfi_offset 5, -8
  48              		.cfi_offset 14, -4
  46:source/HvLightPipe.c ****   if (numBytes > 0) {
  49              		.loc 1 46 60 view .LVU3
  50 0002 0546     		mov	r5, r0
  51              		.loc 1 47 6 view .LVU4
  52 0004 0C46     		mov	r4, r1
  48:source/HvLightPipe.c ****     q->buffer = (char *) hv_malloc(numBytes);
  53              		.loc 1 48 26 view .LVU5
  54 0006 0846     		mov	r0, r1
  55              	.LVL1:
  47:source/HvLightPipe.c ****   if (numBytes > 0) {
  56              		.loc 1 47 6 view .LVU6
ARM GAS  /var/folders/fb/yfxt3z4538j6z0vjt03w70vc0000gn/T//cccFWh2g.s 			page 3


  57 0008 31B9     		cbnz	r1, .L7
  49:source/HvLightPipe.c ****     hv_assert(q->buffer != NULL);
  50:source/HvLightPipe.c ****     HLP_SET_UINT32_AT_BUFFER(q->buffer, HLP_STOP);
  51:source/HvLightPipe.c ****   } else {
  52:source/HvLightPipe.c ****     q->buffer = NULL;
  58              		.loc 1 52 5 is_stmt 1 view .LVU7
  59              		.loc 1 52 15 is_stmt 0 view .LVU8
  60 000a 2960     		str	r1, [r5]
  53:source/HvLightPipe.c ****   }
  54:source/HvLightPipe.c ****   q->writeHead = q->buffer;
  61              		.loc 1 54 3 is_stmt 1 view .LVU9
  55:source/HvLightPipe.c ****   q->readHead = q->buffer;
  62              		.loc 1 55 15 is_stmt 0 view .LVU10
  63 000c C5E90100 		strd	r0, r0, [r5, #4]
  56:source/HvLightPipe.c ****   q->len = numBytes;
  64              		.loc 1 56 3 is_stmt 1 view .LVU11
  57:source/HvLightPipe.c ****   q->remainingBytes = numBytes;
  65              		.loc 1 57 21 is_stmt 0 view .LVU12
  66 0010 C5E90344 		strd	r4, r4, [r5, #12]
  58:source/HvLightPipe.c ****   return numBytes;
  67              		.loc 1 58 3 is_stmt 1 view .LVU13
  59:source/HvLightPipe.c **** }
  68              		.loc 1 59 1 is_stmt 0 view .LVU14
  69 0014 2046     		mov	r0, r4
  70 0016 38BD     		pop	{r3, r4, r5, pc}
  71              	.LVL2:
  72              	.L7:
  48:source/HvLightPipe.c ****     hv_assert(q->buffer != NULL);
  73              		.loc 1 48 5 is_stmt 1 view .LVU15
  48:source/HvLightPipe.c ****     hv_assert(q->buffer != NULL);
  74              		.loc 1 48 26 is_stmt 0 view .LVU16
  75 0018 FFF7FEFF 		bl	malloc
  76              	.LVL3:
  48:source/HvLightPipe.c ****     hv_assert(q->buffer != NULL);
  77              		.loc 1 48 15 view .LVU17
  78 001c 2860     		str	r0, [r5]
  49:source/HvLightPipe.c ****     HLP_SET_UINT32_AT_BUFFER(q->buffer, HLP_STOP);
  79              		.loc 1 49 5 is_stmt 1 view .LVU18
  80 001e 38B1     		cbz	r0, .L8
  50:source/HvLightPipe.c ****   } else {
  81              		.loc 1 50 5 view .LVU19
  82 0020 0023     		movs	r3, #0
  55:source/HvLightPipe.c ****   q->len = numBytes;
  83              		.loc 1 55 15 is_stmt 0 view .LVU20
  84 0022 C5E90100 		strd	r0, r0, [r5, #4]
  50:source/HvLightPipe.c ****   } else {
  85              		.loc 1 50 5 view .LVU21
  86 0026 0360     		str	r3, [r0]
  54:source/HvLightPipe.c ****   q->readHead = q->buffer;
  87              		.loc 1 54 3 is_stmt 1 view .LVU22
  56:source/HvLightPipe.c ****   q->remainingBytes = numBytes;
  88              		.loc 1 56 3 view .LVU23
  89              		.loc 1 59 1 is_stmt 0 view .LVU24
  90 0028 2046     		mov	r0, r4
  57:source/HvLightPipe.c ****   return numBytes;
  91              		.loc 1 57 21 view .LVU25
  92 002a C5E90344 		strd	r4, r4, [r5, #12]
ARM GAS  /var/folders/fb/yfxt3z4538j6z0vjt03w70vc0000gn/T//cccFWh2g.s 			page 4


  58:source/HvLightPipe.c **** }
  93              		.loc 1 58 3 is_stmt 1 view .LVU26
  94              		.loc 1 59 1 is_stmt 0 view .LVU27
  95 002e 38BD     		pop	{r3, r4, r5, pc}
  96              	.LVL4:
  97              	.L8:
  49:source/HvLightPipe.c ****     HLP_SET_UINT32_AT_BUFFER(q->buffer, HLP_STOP);
  98              		.loc 1 49 5 discriminator 1 view .LVU28
  99 0030 024B     		ldr	r3, .L9
 100 0032 3121     		movs	r1, #49
 101 0034 024A     		ldr	r2, .L9+4
 102 0036 0348     		ldr	r0, .L9+8
 103 0038 FFF7FEFF 		bl	__assert_func
 104              	.LVL5:
 105              	.L10:
 106              		.align	2
 107              	.L9:
 108 003c 00000000 		.word	.LC0
 109 0040 00000000 		.word	.LANCHOR0
 110 0044 1C000000 		.word	.LC1
 111              		.cfi_endproc
 112              	.LFE328:
 114              		.section	.text.hLp_free,"ax",%progbits
 115              		.align	1
 116              		.p2align 2,,3
 117              		.global	hLp_free
 118              		.syntax unified
 119              		.thumb
 120              		.thumb_func
 122              	hLp_free:
 123              	.LVL6:
 124              	.LFB329:
  60:source/HvLightPipe.c **** 
  61:source/HvLightPipe.c **** void hLp_free(HvLightPipe *q) {
 125              		.loc 1 61 31 is_stmt 1 view -0
 126              		.cfi_startproc
 127              		@ args = 0, pretend = 0, frame = 0
 128              		@ frame_needed = 0, uses_anonymous_args = 0
 129              		@ link register save eliminated.
  62:source/HvLightPipe.c ****   hv_free(q->buffer);
 130              		.loc 1 62 3 view .LVU30
 131 0000 0068     		ldr	r0, [r0]
 132              	.LVL7:
 133              		.loc 1 62 3 is_stmt 0 view .LVU31
 134 0002 FFF7FEBF 		b	free
 135              	.LVL8:
 136              		.cfi_endproc
 137              	.LFE329:
 139 0006 00BF     		.section	.text.hLp_hasData,"ax",%progbits
 140              		.align	1
 141              		.p2align 2,,3
 142              		.global	hLp_hasData
 143              		.syntax unified
 144              		.thumb
 145              		.thumb_func
 147              	hLp_hasData:
 148              	.LVL9:
ARM GAS  /var/folders/fb/yfxt3z4538j6z0vjt03w70vc0000gn/T//cccFWh2g.s 			page 5


 149              	.LFB330:
  63:source/HvLightPipe.c **** }
  64:source/HvLightPipe.c **** 
  65:source/HvLightPipe.c **** hv_uint32_t hLp_hasData(HvLightPipe *q) {
 150              		.loc 1 65 41 is_stmt 1 view -0
 151              		.cfi_startproc
 152              		@ args = 0, pretend = 0, frame = 0
 153              		@ frame_needed = 0, uses_anonymous_args = 0
 154              		@ link register save eliminated.
  66:source/HvLightPipe.c ****   hv_uint32_t x = HLP_GET_UINT32_AT_BUFFER(q->readHead);
 155              		.loc 1 66 3 view .LVU33
 156              		.loc 1 66 15 is_stmt 0 view .LVU34
 157 0000 8368     		ldr	r3, [r0, #8]
 158 0002 1B68     		ldr	r3, [r3]
 159              	.LVL10:
  67:source/HvLightPipe.c ****   if (x == HLP_LOOP) {
 160              		.loc 1 67 3 is_stmt 1 view .LVU35
 161              		.loc 1 67 6 is_stmt 0 view .LVU36
 162 0004 5A1C     		adds	r2, r3, #1
 163 0006 02D1     		bne	.L12
  68:source/HvLightPipe.c ****     q->readHead = q->buffer;
 164              		.loc 1 68 5 is_stmt 1 view .LVU37
 165              		.loc 1 68 20 is_stmt 0 view .LVU38
 166 0008 0268     		ldr	r2, [r0]
  69:source/HvLightPipe.c ****     x = HLP_GET_UINT32_AT_BUFFER(q->readHead);
 167              		.loc 1 69 7 view .LVU39
 168 000a 1368     		ldr	r3, [r2]
 169              	.LVL11:
  68:source/HvLightPipe.c ****     q->readHead = q->buffer;
 170              		.loc 1 68 17 view .LVU40
 171 000c 8260     		str	r2, [r0, #8]
 172              	.LVL12:
 173              		.loc 1 69 5 is_stmt 1 view .LVU41
  70:source/HvLightPipe.c ****   }
  71:source/HvLightPipe.c ****   return x;
 174              		.loc 1 71 3 view .LVU42
 175              	.L12:
  72:source/HvLightPipe.c **** }
 176              		.loc 1 72 1 is_stmt 0 view .LVU43
 177 000e 1846     		mov	r0, r3
 178              	.LVL13:
 179              		.loc 1 72 1 view .LVU44
 180 0010 7047     		bx	lr
 181              		.cfi_endproc
 182              	.LFE330:
 184 0012 00BF     		.section	.text.hLp_getWriteBuffer,"ax",%progbits
 185              		.align	1
 186              		.p2align 2,,3
 187              		.global	hLp_getWriteBuffer
 188              		.syntax unified
 189              		.thumb
 190              		.thumb_func
 192              	hLp_getWriteBuffer:
 193              	.LVL14:
 194              	.LFB331:
  73:source/HvLightPipe.c **** 
  74:source/HvLightPipe.c **** char *hLp_getWriteBuffer(HvLightPipe *q, hv_uint32_t bytesToWrite) {
ARM GAS  /var/folders/fb/yfxt3z4538j6z0vjt03w70vc0000gn/T//cccFWh2g.s 			page 6


 195              		.loc 1 74 68 is_stmt 1 view -0
 196              		.cfi_startproc
 197              		@ args = 0, pretend = 0, frame = 0
 198              		@ frame_needed = 0, uses_anonymous_args = 0
 199              		@ link register save eliminated.
  75:source/HvLightPipe.c ****   char *const readHead = q->readHead;
 200              		.loc 1 75 3 view .LVU46
  76:source/HvLightPipe.c ****   char *const oldWriteHead = q->writeHead;
  77:source/HvLightPipe.c ****   const hv_uint32_t totalByteRequirement = bytesToWrite + 2*sizeof(hv_uint32_t);
 201              		.loc 1 77 21 is_stmt 0 view .LVU47
 202 0000 01F10802 		add	r2, r1, #8
  78:source/HvLightPipe.c **** 
  79:source/HvLightPipe.c ****   // check if there is enough space to write the data in the remaining
  80:source/HvLightPipe.c ****   // length of the buffer
  81:source/HvLightPipe.c ****   if (totalByteRequirement <= q->remainingBytes) {
 203              		.loc 1 81 6 view .LVU48
 204 0004 0369     		ldr	r3, [r0, #16]
 205 0006 9342     		cmp	r3, r2
  74:source/HvLightPipe.c ****   char *const readHead = q->readHead;
 206              		.loc 1 74 68 view .LVU49
 207 0008 70B4     		push	{r4, r5, r6}
 208              		.cfi_def_cfa_offset 12
 209              		.cfi_offset 4, -12
 210              		.cfi_offset 5, -8
 211              		.cfi_offset 6, -4
  76:source/HvLightPipe.c ****   char *const oldWriteHead = q->writeHead;
 212              		.loc 1 76 15 view .LVU50
 213 000a D0E90145 		ldrd	r4, r5, [r0, #4]
 214              	.LVL15:
  77:source/HvLightPipe.c **** 
 215              		.loc 1 77 3 is_stmt 1 view .LVU51
 216              		.loc 1 81 3 view .LVU52
 217              		.loc 1 81 6 is_stmt 0 view .LVU53
 218 000e 08D3     		bcc	.L15
 219              	.LBB2:
  82:source/HvLightPipe.c ****     char *const newWriteHead = oldWriteHead + sizeof(hv_uint32_t) + bytesToWrite;
 220              		.loc 1 82 5 is_stmt 1 view .LVU54
 221              	.LVL16:
  83:source/HvLightPipe.c **** 
  84:source/HvLightPipe.c ****     // check if writing would overwrite existing data in the pipe (return NULL if so)
  85:source/HvLightPipe.c ****     if ((oldWriteHead < readHead) && (newWriteHead >= readHead)) return NULL;
 222              		.loc 1 85 5 view .LVU55
  82:source/HvLightPipe.c ****     char *const newWriteHead = oldWriteHead + sizeof(hv_uint32_t) + bytesToWrite;
 223              		.loc 1 82 67 is_stmt 0 view .LVU56
 224 0010 0431     		adds	r1, r1, #4
 225              	.LVL17:
  82:source/HvLightPipe.c ****     char *const newWriteHead = oldWriteHead + sizeof(hv_uint32_t) + bytesToWrite;
 226              		.loc 1 82 17 view .LVU57
 227 0012 2144     		add	r1, r1, r4
 228              	.LVL18:
 229              		.loc 1 85 8 view .LVU58
 230 0014 8D42     		cmp	r5, r1
 231 0016 01D8     		bhi	.L21
 232 0018 A542     		cmp	r5, r4
 233 001a 1AD8     		bhi	.L19
 234              	.L21:
  86:source/HvLightPipe.c ****     else return (oldWriteHead + sizeof(hv_uint32_t));
ARM GAS  /var/folders/fb/yfxt3z4538j6z0vjt03w70vc0000gn/T//cccFWh2g.s 			page 7


 235              		.loc 1 86 10 is_stmt 1 view .LVU59
 236              		.loc 1 86 31 is_stmt 0 view .LVU60
 237 001c 201D     		adds	r0, r4, #4
 238              	.LVL19:
 239              		.loc 1 86 31 view .LVU61
 240              	.LBE2:
  87:source/HvLightPipe.c ****   } else {
  88:source/HvLightPipe.c ****     // there isn't enough space, try looping around to the start
  89:source/HvLightPipe.c ****     if (totalByteRequirement <= q->len) {
  90:source/HvLightPipe.c ****       if ((oldWriteHead < readHead) || ((q->buffer + totalByteRequirement) > readHead)) {
  91:source/HvLightPipe.c ****         return NULL; // overwrite condition
  92:source/HvLightPipe.c ****       } else {
  93:source/HvLightPipe.c ****         q->writeHead = q->buffer;
  94:source/HvLightPipe.c ****         q->remainingBytes = q->len;
  95:source/HvLightPipe.c ****         HLP_SET_UINT32_AT_BUFFER(q->buffer, HLP_STOP);
  96:source/HvLightPipe.c ****         hv_sfence();
  97:source/HvLightPipe.c ****         HLP_SET_UINT32_AT_BUFFER(oldWriteHead, HLP_LOOP);
  98:source/HvLightPipe.c ****         return q->buffer + sizeof(hv_uint32_t);
  99:source/HvLightPipe.c ****       }
 100:source/HvLightPipe.c ****     } else {
 101:source/HvLightPipe.c ****       return NULL; // there isn't enough space to write the data
 102:source/HvLightPipe.c ****     }
 103:source/HvLightPipe.c ****   }
 104:source/HvLightPipe.c **** }
 241              		.loc 1 104 1 view .LVU62
 242 001e 70BC     		pop	{r4, r5, r6}
 243              		.cfi_remember_state
 244              		.cfi_restore 6
 245              		.cfi_restore 5
 246              		.cfi_restore 4
 247              		.cfi_def_cfa_offset 0
 248              	.LVL20:
 249              		.loc 1 104 1 view .LVU63
 250 0020 7047     		bx	lr
 251              	.LVL21:
 252              	.L15:
 253              		.cfi_restore_state
  89:source/HvLightPipe.c ****       if ((oldWriteHead < readHead) || ((q->buffer + totalByteRequirement) > readHead)) {
 254              		.loc 1 89 5 is_stmt 1 view .LVU64
  89:source/HvLightPipe.c ****       if ((oldWriteHead < readHead) || ((q->buffer + totalByteRequirement) > readHead)) {
 255              		.loc 1 89 34 is_stmt 0 view .LVU65
 256 0022 C168     		ldr	r1, [r0, #12]
 257              	.LVL22:
  90:source/HvLightPipe.c ****         return NULL; // overwrite condition
 258              		.loc 1 90 7 is_stmt 1 view .LVU66
  90:source/HvLightPipe.c ****         return NULL; // overwrite condition
 259              		.loc 1 90 10 is_stmt 0 view .LVU67
 260 0024 9142     		cmp	r1, r2
 261 0026 14D3     		bcc	.L19
 262 0028 A542     		cmp	r5, r4
 263 002a 94BF     		ite	ls
 264 002c 0023     		movls	r3, #0
 265 002e 0123     		movhi	r3, #1
 266 0030 7BB9     		cbnz	r3, .L19
  90:source/HvLightPipe.c ****         return NULL; // overwrite condition
 267              		.loc 1 90 43 discriminator 1 view .LVU68
 268 0032 0668     		ldr	r6, [r0]
ARM GAS  /var/folders/fb/yfxt3z4538j6z0vjt03w70vc0000gn/T//cccFWh2g.s 			page 8


  90:source/HvLightPipe.c ****         return NULL; // overwrite condition
 269              		.loc 1 90 52 discriminator 1 view .LVU69
 270 0034 3244     		add	r2, r2, r6
 271              	.LVL23:
  90:source/HvLightPipe.c ****         return NULL; // overwrite condition
 272              		.loc 1 90 37 discriminator 1 view .LVU70
 273 0036 9542     		cmp	r5, r2
 274 0038 0ED3     		bcc	.L20
  93:source/HvLightPipe.c ****         q->remainingBytes = q->len;
 275              		.loc 1 93 9 is_stmt 1 view .LVU71
  93:source/HvLightPipe.c ****         q->remainingBytes = q->len;
 276              		.loc 1 93 22 is_stmt 0 view .LVU72
 277 003a 4660     		str	r6, [r0, #4]
  94:source/HvLightPipe.c ****         HLP_SET_UINT32_AT_BUFFER(q->buffer, HLP_STOP);
 278              		.loc 1 94 9 is_stmt 1 view .LVU73
  94:source/HvLightPipe.c ****         HLP_SET_UINT32_AT_BUFFER(q->buffer, HLP_STOP);
 279              		.loc 1 94 27 is_stmt 0 view .LVU74
 280 003c 0161     		str	r1, [r0, #16]
  95:source/HvLightPipe.c ****         hv_sfence();
 281              		.loc 1 95 9 is_stmt 1 view .LVU75
 282 003e 3360     		str	r3, [r6]
  96:source/HvLightPipe.c ****         HLP_SET_UINT32_AT_BUFFER(oldWriteHead, HLP_LOOP);
 283              		.loc 1 96 9 view .LVU76
 284              		.syntax unified
 285              	@ 96 "source/HvLightPipe.c" 1
 286 0040 BFF35E8F 		dmb 0xE
 287              	@ 0 "" 2
  97:source/HvLightPipe.c ****         return q->buffer + sizeof(hv_uint32_t);
 288              		.loc 1 97 9 view .LVU77
  98:source/HvLightPipe.c ****       }
 289              		.loc 1 98 26 is_stmt 0 view .LVU78
 290              		.thumb
 291              		.syntax unified
 292 0044 0068     		ldr	r0, [r0]
 293              	.LVL24:
  97:source/HvLightPipe.c ****         return q->buffer + sizeof(hv_uint32_t);
 294              		.loc 1 97 9 view .LVU79
 295 0046 4FF0FF33 		mov	r3, #-1
  98:source/HvLightPipe.c ****       }
 296              		.loc 1 98 26 view .LVU80
 297 004a 0430     		adds	r0, r0, #4
  97:source/HvLightPipe.c ****         return q->buffer + sizeof(hv_uint32_t);
 298              		.loc 1 97 9 view .LVU81
 299 004c 2360     		str	r3, [r4]
  98:source/HvLightPipe.c ****       }
 300              		.loc 1 98 9 is_stmt 1 view .LVU82
 301              	.L14:
 302              		.loc 1 104 1 is_stmt 0 view .LVU83
 303 004e 70BC     		pop	{r4, r5, r6}
 304              		.cfi_remember_state
 305              		.cfi_restore 6
 306              		.cfi_restore 5
 307              		.cfi_restore 4
 308              		.cfi_def_cfa_offset 0
 309              	.LVL25:
 310              		.loc 1 104 1 view .LVU84
 311 0050 7047     		bx	lr
ARM GAS  /var/folders/fb/yfxt3z4538j6z0vjt03w70vc0000gn/T//cccFWh2g.s 			page 9


 312              	.LVL26:
 313              	.L19:
 314              		.cfi_restore_state
 315              	.LBB3:
  85:source/HvLightPipe.c ****     else return (oldWriteHead + sizeof(hv_uint32_t));
 316              		.loc 1 85 73 view .LVU85
 317 0052 0020     		movs	r0, #0
 318              	.LVL27:
  85:source/HvLightPipe.c ****     else return (oldWriteHead + sizeof(hv_uint32_t));
 319              		.loc 1 85 73 view .LVU86
 320              	.LBE3:
 321              		.loc 1 104 1 view .LVU87
 322 0054 70BC     		pop	{r4, r5, r6}
 323              		.cfi_remember_state
 324              		.cfi_restore 6
 325              		.cfi_restore 5
 326              		.cfi_restore 4
 327              		.cfi_def_cfa_offset 0
 328              	.LVL28:
 329              		.loc 1 104 1 view .LVU88
 330 0056 7047     		bx	lr
 331              	.LVL29:
 332              	.L20:
 333              		.cfi_restore_state
 334              	.LBB4:
  85:source/HvLightPipe.c ****     else return (oldWriteHead + sizeof(hv_uint32_t));
 335              		.loc 1 85 73 view .LVU89
 336 0058 1846     		mov	r0, r3
 337              	.LVL30:
  85:source/HvLightPipe.c ****     else return (oldWriteHead + sizeof(hv_uint32_t));
 338              		.loc 1 85 73 view .LVU90
 339 005a F8E7     		b	.L14
 340              	.LBE4:
 341              		.cfi_endproc
 342              	.LFE331:
 344              		.section	.rodata.hLp_produce.str1.4,"aMS",%progbits,1
 345              		.align	2
 346              	.LC2:
 347 0000 712D3E72 		.ascii	"q->remainingBytes >= (numBytes + 2*sizeof(uint32_t)"
 347      656D6169 
 347      6E696E67 
 347      42797465 
 347      73203E3D 
 348 0033 2900     		.ascii	")\000"
 349              		.section	.text.hLp_produce,"ax",%progbits
 350              		.align	1
 351              		.p2align 2,,3
 352              		.global	hLp_produce
 353              		.syntax unified
 354              		.thumb
 355              		.thumb_func
 357              	hLp_produce:
 358              	.LVL31:
 359              	.LFB332:
 105:source/HvLightPipe.c **** 
 106:source/HvLightPipe.c **** void hLp_produce(HvLightPipe *q, hv_uint32_t numBytes) {
 360              		.loc 1 106 56 is_stmt 1 view -0
ARM GAS  /var/folders/fb/yfxt3z4538j6z0vjt03w70vc0000gn/T//cccFWh2g.s 			page 10


 361              		.cfi_startproc
 362              		@ args = 0, pretend = 0, frame = 0
 363              		@ frame_needed = 0, uses_anonymous_args = 0
 107:source/HvLightPipe.c ****   hv_assert(q->remainingBytes >= (numBytes + 2*sizeof(hv_uint32_t)));
 364              		.loc 1 107 3 view .LVU92
 365 0000 01F10802 		add	r2, r1, #8
 106:source/HvLightPipe.c ****   hv_assert(q->remainingBytes >= (numBytes + 2*sizeof(hv_uint32_t)));
 366              		.loc 1 106 56 is_stmt 0 view .LVU93
 367 0004 08B5     		push	{r3, lr}
 368              		.cfi_def_cfa_offset 8
 369              		.cfi_offset 3, -8
 370              		.cfi_offset 14, -4
 371              		.loc 1 107 3 view .LVU94
 372 0006 0369     		ldr	r3, [r0, #16]
 373 0008 9342     		cmp	r3, r2
 374 000a 0FD3     		bcc	.L29
 108:source/HvLightPipe.c ****   q->remainingBytes -= (sizeof(hv_uint32_t) + numBytes);
 375              		.loc 1 108 3 is_stmt 1 view .LVU95
 376              		.loc 1 108 21 is_stmt 0 view .LVU96
 377 000c 5B1A     		subs	r3, r3, r1
 109:source/HvLightPipe.c ****   char *const oldWriteHead = q->writeHead;
 378              		.loc 1 109 15 view .LVU97
 379 000e 4268     		ldr	r2, [r0, #4]
 110:source/HvLightPipe.c ****   q->writeHead += (sizeof(hv_uint32_t) + numBytes);
 380              		.loc 1 110 40 view .LVU98
 381 0010 01F1040C 		add	ip, r1, #4
 108:source/HvLightPipe.c ****   q->remainingBytes -= (sizeof(hv_uint32_t) + numBytes);
 382              		.loc 1 108 21 view .LVU99
 383 0014 043B     		subs	r3, r3, #4
 384 0016 0361     		str	r3, [r0, #16]
 109:source/HvLightPipe.c ****   char *const oldWriteHead = q->writeHead;
 385              		.loc 1 109 3 is_stmt 1 view .LVU100
 386              	.LVL32:
 387              		.loc 1 110 3 view .LVU101
 388              		.loc 1 110 16 is_stmt 0 view .LVU102
 389 0018 02EB0C03 		add	r3, r2, ip
 390 001c 4360     		str	r3, [r0, #4]
 111:source/HvLightPipe.c ****   HLP_SET_UINT32_AT_BUFFER(q->writeHead, HLP_STOP);
 391              		.loc 1 111 3 is_stmt 1 view .LVU103
 392 001e 0023     		movs	r3, #0
 393 0020 42F80C30 		str	r3, [r2, ip]
 112:source/HvLightPipe.c **** 
 113:source/HvLightPipe.c ****   // save everything before this point to memory
 114:source/HvLightPipe.c ****   hv_sfence();
 394              		.loc 1 114 3 view .LVU104
 395              		.syntax unified
 396              	@ 114 "source/HvLightPipe.c" 1
 397 0024 BFF35E8F 		dmb 0xE
 398              	@ 0 "" 2
 115:source/HvLightPipe.c **** 
 116:source/HvLightPipe.c ****   // then save this
 117:source/HvLightPipe.c ****   HLP_SET_UINT32_AT_BUFFER(oldWriteHead, numBytes);
 399              		.loc 1 117 3 view .LVU105
 400              		.thumb
 401              		.syntax unified
 402 0028 1160     		str	r1, [r2]
 118:source/HvLightPipe.c **** }
ARM GAS  /var/folders/fb/yfxt3z4538j6z0vjt03w70vc0000gn/T//cccFWh2g.s 			page 11


 403              		.loc 1 118 1 is_stmt 0 view .LVU106
 404 002a 08BD     		pop	{r3, pc}
 405              	.LVL33:
 406              	.L29:
 107:source/HvLightPipe.c ****   q->remainingBytes -= (sizeof(hv_uint32_t) + numBytes);
 407              		.loc 1 107 3 discriminator 1 view .LVU107
 408 002c 024B     		ldr	r3, .L30
 409 002e 6B21     		movs	r1, #107
 410              	.LVL34:
 107:source/HvLightPipe.c ****   q->remainingBytes -= (sizeof(hv_uint32_t) + numBytes);
 411              		.loc 1 107 3 discriminator 1 view .LVU108
 412 0030 024A     		ldr	r2, .L30+4
 413              	.LVL35:
 107:source/HvLightPipe.c ****   q->remainingBytes -= (sizeof(hv_uint32_t) + numBytes);
 414              		.loc 1 107 3 discriminator 1 view .LVU109
 415 0032 0348     		ldr	r0, .L30+8
 416              	.LVL36:
 107:source/HvLightPipe.c ****   q->remainingBytes -= (sizeof(hv_uint32_t) + numBytes);
 417              		.loc 1 107 3 discriminator 1 view .LVU110
 418 0034 FFF7FEFF 		bl	__assert_func
 419              	.LVL37:
 420              	.L31:
 421              		.align	2
 422              	.L30:
 423 0038 00000000 		.word	.LC2
 424 003c 00000000 		.word	.LANCHOR1
 425 0040 1C000000 		.word	.LC1
 426              		.cfi_endproc
 427              	.LFE332:
 429              		.section	.text.hLp_getReadBuffer,"ax",%progbits
 430              		.align	1
 431              		.p2align 2,,3
 432              		.global	hLp_getReadBuffer
 433              		.syntax unified
 434              		.thumb
 435              		.thumb_func
 437              	hLp_getReadBuffer:
 438              	.LVL38:
 439              	.LFB333:
 119:source/HvLightPipe.c **** 
 120:source/HvLightPipe.c **** char *hLp_getReadBuffer(HvLightPipe *q, hv_uint32_t *numBytes) {
 440              		.loc 1 120 64 is_stmt 1 view -0
 441              		.cfi_startproc
 442              		@ args = 0, pretend = 0, frame = 0
 443              		@ frame_needed = 0, uses_anonymous_args = 0
 444              		@ link register save eliminated.
 121:source/HvLightPipe.c ****   *numBytes = HLP_GET_UINT32_AT_BUFFER(q->readHead);
 445              		.loc 1 121 3 view .LVU112
 446              		.loc 1 121 15 is_stmt 0 view .LVU113
 447 0000 8068     		ldr	r0, [r0, #8]
 448              	.LVL39:
 449              		.loc 1 121 15 view .LVU114
 450 0002 50F8043B 		ldr	r3, [r0], #4
 451              		.loc 1 121 13 view .LVU115
 452 0006 0B60     		str	r3, [r1]
 122:source/HvLightPipe.c ****   char *const readBuffer = q->readHead + sizeof(hv_uint32_t);
 453              		.loc 1 122 3 is_stmt 1 view .LVU116
ARM GAS  /var/folders/fb/yfxt3z4538j6z0vjt03w70vc0000gn/T//cccFWh2g.s 			page 12


 454              	.LVL40:
 123:source/HvLightPipe.c ****   return readBuffer;
 455              		.loc 1 123 3 view .LVU117
 124:source/HvLightPipe.c **** }
 456              		.loc 1 124 1 is_stmt 0 view .LVU118
 457 0008 7047     		bx	lr
 458              		.cfi_endproc
 459              	.LFE333:
 461 000a 00BF     		.section	.rodata.hLp_consume.str1.4,"aMS",%progbits,1
 462              		.align	2
 463              	.LC3:
 464 0000 282A2828 		.ascii	"(*((uint32_t *) (q->readHead))) != 0\000"
 464      75696E74 
 464      33325F74 
 464      202A2920 
 464      28712D3E 
 465              		.section	.text.hLp_consume,"ax",%progbits
 466              		.align	1
 467              		.p2align 2,,3
 468              		.global	hLp_consume
 469              		.syntax unified
 470              		.thumb
 471              		.thumb_func
 473              	hLp_consume:
 474              	.LVL41:
 475              	.LFB334:
 125:source/HvLightPipe.c **** 
 126:source/HvLightPipe.c **** void hLp_consume(HvLightPipe *q) {
 476              		.loc 1 126 34 is_stmt 1 view -0
 477              		.cfi_startproc
 478              		@ args = 0, pretend = 0, frame = 0
 479              		@ frame_needed = 0, uses_anonymous_args = 0
 127:source/HvLightPipe.c ****   hv_assert(HLP_GET_UINT32_AT_BUFFER(q->readHead) != HLP_STOP);
 480              		.loc 1 127 3 view .LVU120
 126:source/HvLightPipe.c ****   hv_assert(HLP_GET_UINT32_AT_BUFFER(q->readHead) != HLP_STOP);
 481              		.loc 1 126 34 is_stmt 0 view .LVU121
 482 0000 08B5     		push	{r3, lr}
 483              		.cfi_def_cfa_offset 8
 484              		.cfi_offset 3, -8
 485              		.cfi_offset 14, -4
 486              		.loc 1 127 3 view .LVU122
 487 0002 8368     		ldr	r3, [r0, #8]
 488 0004 1A68     		ldr	r2, [r3]
 489 0006 1AB1     		cbz	r2, .L36
 128:source/HvLightPipe.c ****   q->readHead += sizeof(hv_uint32_t) + HLP_GET_UINT32_AT_BUFFER(q->readHead);
 490              		.loc 1 128 3 is_stmt 1 view .LVU123
 491              		.loc 1 128 38 is_stmt 0 view .LVU124
 492 0008 0432     		adds	r2, r2, #4
 493              		.loc 1 128 15 view .LVU125
 494 000a 1344     		add	r3, r3, r2
 495 000c 8360     		str	r3, [r0, #8]
 129:source/HvLightPipe.c **** }
 496              		.loc 1 129 1 view .LVU126
 497 000e 08BD     		pop	{r3, pc}
 498              	.L36:
 127:source/HvLightPipe.c ****   q->readHead += sizeof(hv_uint32_t) + HLP_GET_UINT32_AT_BUFFER(q->readHead);
 499              		.loc 1 127 3 discriminator 1 view .LVU127
ARM GAS  /var/folders/fb/yfxt3z4538j6z0vjt03w70vc0000gn/T//cccFWh2g.s 			page 13


 500 0010 024B     		ldr	r3, .L37
 501 0012 7F21     		movs	r1, #127
 502 0014 024A     		ldr	r2, .L37+4
 503 0016 0348     		ldr	r0, .L37+8
 504              	.LVL42:
 127:source/HvLightPipe.c ****   q->readHead += sizeof(hv_uint32_t) + HLP_GET_UINT32_AT_BUFFER(q->readHead);
 505              		.loc 1 127 3 discriminator 1 view .LVU128
 506 0018 FFF7FEFF 		bl	__assert_func
 507              	.LVL43:
 508              	.L38:
 509              		.align	2
 510              	.L37:
 511 001c 00000000 		.word	.LC3
 512 0020 00000000 		.word	.LANCHOR2
 513 0024 1C000000 		.word	.LC1
 514              		.cfi_endproc
 515              	.LFE334:
 517              		.section	.text.hLp_reset,"ax",%progbits
 518              		.align	1
 519              		.p2align 2,,3
 520              		.global	hLp_reset
 521              		.syntax unified
 522              		.thumb
 523              		.thumb_func
 525              	hLp_reset:
 526              	.LVL44:
 527              	.LFB335:
 130:source/HvLightPipe.c **** 
 131:source/HvLightPipe.c **** void hLp_reset(HvLightPipe *q) {
 528              		.loc 1 131 32 is_stmt 1 view -0
 529              		.cfi_startproc
 530              		@ args = 0, pretend = 0, frame = 0
 531              		@ frame_needed = 0, uses_anonymous_args = 0
 532              		@ link register save eliminated.
 132:source/HvLightPipe.c ****   q->writeHead = q->buffer;
 533              		.loc 1 132 3 view .LVU130
 131:source/HvLightPipe.c ****   q->writeHead = q->buffer;
 534              		.loc 1 131 32 is_stmt 0 view .LVU131
 535 0000 0346     		mov	r3, r0
 536              		.loc 1 132 19 view .LVU132
 537 0002 0068     		ldr	r0, [r0]
 538              	.LVL45:
 133:source/HvLightPipe.c ****   q->readHead = q->buffer;
 134:source/HvLightPipe.c ****   q->remainingBytes = q->len;
 135:source/HvLightPipe.c ****   memset(q->buffer, 0, q->len);
 539              		.loc 1 135 3 view .LVU133
 540 0004 0021     		movs	r1, #0
 134:source/HvLightPipe.c ****   memset(q->buffer, 0, q->len);
 541              		.loc 1 134 24 view .LVU134
 542 0006 DA68     		ldr	r2, [r3, #12]
 133:source/HvLightPipe.c ****   q->readHead = q->buffer;
 543              		.loc 1 133 15 view .LVU135
 544 0008 C3E90100 		strd	r0, r0, [r3, #4]
 134:source/HvLightPipe.c ****   memset(q->buffer, 0, q->len);
 545              		.loc 1 134 3 is_stmt 1 view .LVU136
 134:source/HvLightPipe.c ****   memset(q->buffer, 0, q->len);
 546              		.loc 1 134 21 is_stmt 0 view .LVU137
ARM GAS  /var/folders/fb/yfxt3z4538j6z0vjt03w70vc0000gn/T//cccFWh2g.s 			page 14


 547 000c 1A61     		str	r2, [r3, #16]
 548              		.loc 1 135 3 is_stmt 1 view .LVU138
 549 000e FFF7FEBF 		b	memset
 550              	.LVL46:
 551              		.loc 1 135 3 is_stmt 0 view .LVU139
 552              		.cfi_endproc
 553              	.LFE335:
 555 0012 00BF     		.section	.rodata.__func__.0,"a"
 556              		.align	2
 557              		.set	.LANCHOR2,. + 0
 560              	__func__.0:
 561 0000 684C705F 		.ascii	"hLp_consume\000"
 561      636F6E73 
 561      756D6500 
 562              		.section	.rodata.__func__.1,"a"
 563              		.align	2
 564              		.set	.LANCHOR1,. + 0
 567              	__func__.1:
 568 0000 684C705F 		.ascii	"hLp_produce\000"
 568      70726F64 
 568      75636500 
 569              		.section	.rodata.__func__.2,"a"
 570              		.align	2
 571              		.set	.LANCHOR0,. + 0
 574              	__func__.2:
 575 0000 684C705F 		.ascii	"hLp_init\000"
 575      696E6974 
 575      00
 576              		.text
 577              	.Letext0:
 578              		.file 2 "/Library/DaisyToolchain/0.2.0/arm/arm-none-eabi/include/machine/_default_types.h"
 579              		.file 3 "/Library/DaisyToolchain/0.2.0/arm/arm-none-eabi/include/sys/_stdint.h"
 580              		.file 4 "source/HvLightPipe.h"
 581              		.file 5 "/Library/DaisyToolchain/0.2.0/arm/arm-none-eabi/include/assert.h"
 582              		.file 6 "/Library/DaisyToolchain/0.2.0/arm/arm-none-eabi/include/stdlib.h"
 583              		.file 7 "<built-in>"
ARM GAS  /var/folders/fb/yfxt3z4538j6z0vjt03w70vc0000gn/T//cccFWh2g.s 			page 15

