ARM GAS  /var/folders/fb/yfxt3z4538j6z0vjt03w70vc0000gn/T//cc0qjWS6.s 			page 1


   1              		.cpu cortex-m7
   2              		.arch armv7e-m
   3              		.fpu fpv5-d16
   4              		.eabi_attribute 28, 1
   5              		.eabi_attribute 20, 1
   6              		.eabi_attribute 21, 1
   7              		.eabi_attribute 23, 3
   8              		.eabi_attribute 24, 1
   9              		.eabi_attribute 25, 1
  10              		.eabi_attribute 26, 1
  11              		.eabi_attribute 30, 2
  12              		.eabi_attribute 34, 1
  13              		.eabi_attribute 18, 4
  14              		.file	"HeavyDaisy_daisiSPI.cpp"
  15              		.text
  16              	.Ltext0:
  17              		.cfi_sections	.debug_frame
  18              		.section	.text._ZL8sendHookP21HeavyContextInterfacePKcmPK9HvMessage,"ax",%progbits
  19              		.align	1
  20              		.p2align 2,,3
  21              		.syntax unified
  22              		.thumb
  23              		.thumb_func
  25              	_ZL8sendHookP21HeavyContextInterfacePKcmPK9HvMessage:
  26              	.LVL0:
  27              	.LFB3003:
  28              		.file 1 "HeavyDaisy_daisiSPI.cpp"
   1:HeavyDaisy_daisiSPI.cpp **** /**
   2:HeavyDaisy_daisiSPI.cpp ****  * Copyright (c) 2023 Enzien Audio, Ltd.
   3:HeavyDaisy_daisiSPI.cpp ****  * 
   4:HeavyDaisy_daisiSPI.cpp ****  * Redistribution and use in source and binary forms, with or without modification,
   5:HeavyDaisy_daisiSPI.cpp ****  * are permitted provided that the following conditions are met:
   6:HeavyDaisy_daisiSPI.cpp ****  * 
   7:HeavyDaisy_daisiSPI.cpp ****  * 1. Redistributions of source code must retain the above copyright notice,
   8:HeavyDaisy_daisiSPI.cpp ****  *    this list of conditions, and the following disclaimer.
   9:HeavyDaisy_daisiSPI.cpp ****  * 
  10:HeavyDaisy_daisiSPI.cpp ****  * 2. Redistributions in binary form must reproduce the phrase "powered by heavy",
  11:HeavyDaisy_daisiSPI.cpp ****  *    the heavy logo, and a hyperlink to https://enzienaudio.com, all in a visible
  12:HeavyDaisy_daisiSPI.cpp ****  *    form.
  13:HeavyDaisy_daisiSPI.cpp ****  * 
  14:HeavyDaisy_daisiSPI.cpp ****  *   2.1 If the Application is distributed in a store system (for example,
  15:HeavyDaisy_daisiSPI.cpp ****  *       the Apple "App Store" or "Google Play"), the phrase "powered by heavy"
  16:HeavyDaisy_daisiSPI.cpp ****  *       shall be included in the app description or the copyright text as well as
  17:HeavyDaisy_daisiSPI.cpp ****  *       the in the app itself. The heavy logo will shall be visible in the app
  18:HeavyDaisy_daisiSPI.cpp ****  *       itself as well.
  19:HeavyDaisy_daisiSPI.cpp ****  * 
  20:HeavyDaisy_daisiSPI.cpp ****  * THIS SOFTWARE IS PROVIDED BY THE COPYRIGHT HOLDERS AND CONTRIBUTORS "AS IS"
  21:HeavyDaisy_daisiSPI.cpp ****  * AND ANY EXPRESS OR IMPLIED WARRANTIES, INCLUDING, BUT NOT LIMITED TO,
  22:HeavyDaisy_daisiSPI.cpp ****  * THE IMPLIED WARRANTIES OF MERCHANTABILITY AND FITNESS FOR A PARTICULAR PURPOSE
  23:HeavyDaisy_daisiSPI.cpp ****  * ARE DISCLAIMED. IN NO EVENT SHALL THE COPYRIGHT HOLDER OR CONTRIBUTORS BE LIABLE
  24:HeavyDaisy_daisiSPI.cpp ****  * FOR ANY DIRECT, INDIRECT, INCIDENTAL, SPECIAL, EXEMPLARY, OR CONSEQUENTIAL
  25:HeavyDaisy_daisiSPI.cpp ****  * DAMAGES (INCLUDING, BUT NOT LIMITED TO, PROCUREMENT OF SUBSTITUTE GOODS OR
  26:HeavyDaisy_daisiSPI.cpp ****  * SERVICES; LOSS OF USE, DATA, OR PROFITS; OR BUSINESS INTERRUPTION) HOWEVER
  27:HeavyDaisy_daisiSPI.cpp ****  * CAUSED AND ON ANY THEORY OF LIABILITY, WHETHER IN CONTRACT, STRICT LIABILITY,
  28:HeavyDaisy_daisiSPI.cpp ****  * OR TORT (INCLUDING NEGLIGENCE OR OTHERWISE) ARISING IN ANY WAY OUT OF THE USE OF
  29:HeavyDaisy_daisiSPI.cpp ****  * THIS SOFTWARE, EVEN IF ADVISED OF THE POSSIBILITY OF SUCH DAMAGE.
  30:HeavyDaisy_daisiSPI.cpp ****  * 
ARM GAS  /var/folders/fb/yfxt3z4538j6z0vjt03w70vc0000gn/T//cc0qjWS6.s 			page 2


  31:HeavyDaisy_daisiSPI.cpp ****  */
  32:HeavyDaisy_daisiSPI.cpp **** 
  33:HeavyDaisy_daisiSPI.cpp **** #include "Heavy_daisiSPI.h"
  34:HeavyDaisy_daisiSPI.cpp **** #include "Heavy_daisiSPI.hpp" 
  35:HeavyDaisy_daisiSPI.cpp **** #include "HeavyDaisy_daisiSPI.hpp"                                                                 
  36:HeavyDaisy_daisiSPI.cpp **** 
  37:HeavyDaisy_daisiSPI.cpp **** #define SAMPLE_RATE 48000.f
  38:HeavyDaisy_daisiSPI.cpp **** 
  39:HeavyDaisy_daisiSPI.cpp **** using namespace daisy;
  40:HeavyDaisy_daisiSPI.cpp **** 
  41:HeavyDaisy_daisiSPI.cpp **** json2daisy::DaisyPod hardware;
  42:HeavyDaisy_daisiSPI.cpp **** 
  43:HeavyDaisy_daisiSPI.cpp **** Heavy_daisiSPI hv(SAMPLE_RATE);
  44:HeavyDaisy_daisiSPI.cpp **** 
  45:HeavyDaisy_daisiSPI.cpp **** void audiocallback(daisy::AudioHandle::InputBuffer in, daisy::AudioHandle::OutputBuffer out, size_t
  46:HeavyDaisy_daisiSPI.cpp **** static void sendHook(HeavyContextInterface *c, const char *receiverName, uint32_t receiverHash, con
  47:HeavyDaisy_daisiSPI.cpp **** void CallbackWriteIn(Heavy_daisiSPI& hv);
  48:HeavyDaisy_daisiSPI.cpp **** void LoopWriteIn(Heavy_daisiSPI& hv);
  49:HeavyDaisy_daisiSPI.cpp **** void CallbackWriteOut();
  50:HeavyDaisy_daisiSPI.cpp **** void LoopWriteOut();
  51:HeavyDaisy_daisiSPI.cpp **** void PostProcess();
  52:HeavyDaisy_daisiSPI.cpp **** void Display();
  53:HeavyDaisy_daisiSPI.cpp **** 
  54:HeavyDaisy_daisiSPI.cpp **** 
  55:HeavyDaisy_daisiSPI.cpp **** int main(void)
  56:HeavyDaisy_daisiSPI.cpp **** {
  57:HeavyDaisy_daisiSPI.cpp ****   hardware.Init(true);
  58:HeavyDaisy_daisiSPI.cpp ****   hardware.StartAudio(audiocallback);
  59:HeavyDaisy_daisiSPI.cpp **** 
  60:HeavyDaisy_daisiSPI.cpp ****   hv.setSendHook(sendHook);
  61:HeavyDaisy_daisiSPI.cpp **** 
  62:HeavyDaisy_daisiSPI.cpp ****   for(;;)
  63:HeavyDaisy_daisiSPI.cpp ****   {
  64:HeavyDaisy_daisiSPI.cpp ****     hardware.LoopProcess();
  65:HeavyDaisy_daisiSPI.cpp ****     Display();
  66:HeavyDaisy_daisiSPI.cpp ****   }
  67:HeavyDaisy_daisiSPI.cpp **** }
  68:HeavyDaisy_daisiSPI.cpp **** 
  69:HeavyDaisy_daisiSPI.cpp **** /** The audio processing function. At the standard 48KHz sample rate and a block
  70:HeavyDaisy_daisiSPI.cpp ****  *  size of 48, this will fire every millisecond.
  71:HeavyDaisy_daisiSPI.cpp ****  */
  72:HeavyDaisy_daisiSPI.cpp **** void audiocallback(daisy::AudioHandle::InputBuffer in, daisy::AudioHandle::OutputBuffer out, size_t
  73:HeavyDaisy_daisiSPI.cpp **** {
  74:HeavyDaisy_daisiSPI.cpp ****   hv.process((float**)in, (float**)out, size);
  75:HeavyDaisy_daisiSPI.cpp ****   hardware.PostProcess();
  76:HeavyDaisy_daisiSPI.cpp **** }
  77:HeavyDaisy_daisiSPI.cpp **** 
  78:HeavyDaisy_daisiSPI.cpp **** /** Receives messages from PD and writes them to the appropriate 
  79:HeavyDaisy_daisiSPI.cpp ****  *  index in the `output_data` array, to be written later.
  80:HeavyDaisy_daisiSPI.cpp ****  */
  81:HeavyDaisy_daisiSPI.cpp **** static void sendHook(HeavyContextInterface *c, const char *receiverName, uint32_t receiverHash, con
  82:HeavyDaisy_daisiSPI.cpp **** {
  29              		.loc 1 82 1 view -0
  30              		.cfi_startproc
  31              		@ args = 0, pretend = 0, frame = 0
  32              		@ frame_needed = 0, uses_anonymous_args = 0
  33              		@ link register save eliminated.
ARM GAS  /var/folders/fb/yfxt3z4538j6z0vjt03w70vc0000gn/T//cc0qjWS6.s 			page 3


  83:HeavyDaisy_daisiSPI.cpp **** }
  34              		.loc 1 83 1 is_stmt 0 view .LVU1
  35 0000 7047     		bx	lr
  36              		.cfi_endproc
  37              	.LFE3003:
  39 0002 00BF     		.section	.text._ZN5daisy11OledDisplayINS_13SSD130xDriverILj128ELj64ENS_24SSD130x4WireSpiTransportE
  40              		.align	1
  41              		.p2align 2,,3
  42              		.weak	_ZN5daisy11OledDisplayINS_13SSD130xDriverILj128ELj64ENS_24SSD130x4WireSpiTransportEEEE4FillE
  43              		.syntax unified
  44              		.thumb
  45              		.thumb_func
  47              	_ZN5daisy11OledDisplayINS_13SSD130xDriverILj128ELj64ENS_24SSD130x4WireSpiTransportEEEE4FillEb:
  48              	.LVL1:
  49              	.LFB3037:
  50              		.file 2 "../../../lib/pd2dsy/libdaisy/src/hid/disp/oled_display.h"
   1:../../../lib/pd2dsy/libdaisy/src/hid/disp/oled_display.h **** #pragma once
   2:../../../lib/pd2dsy/libdaisy/src/hid/disp/oled_display.h **** #ifndef DSY_OLED_DISPLAY_H
   3:../../../lib/pd2dsy/libdaisy/src/hid/disp/oled_display.h **** #define DSY_OLED_DISPLAY_H /**< Macro */
   4:../../../lib/pd2dsy/libdaisy/src/hid/disp/oled_display.h **** 
   5:../../../lib/pd2dsy/libdaisy/src/hid/disp/oled_display.h **** #include "display.h"
   6:../../../lib/pd2dsy/libdaisy/src/hid/disp/oled_display.h **** 
   7:../../../lib/pd2dsy/libdaisy/src/hid/disp/oled_display.h **** namespace daisy
   8:../../../lib/pd2dsy/libdaisy/src/hid/disp/oled_display.h **** {
   9:../../../lib/pd2dsy/libdaisy/src/hid/disp/oled_display.h **** /** 
  10:../../../lib/pd2dsy/libdaisy/src/hid/disp/oled_display.h ****  * This class is for drawing to a monochrome OLED display. 
  11:../../../lib/pd2dsy/libdaisy/src/hid/disp/oled_display.h ****  * @ingroup device
  12:../../../lib/pd2dsy/libdaisy/src/hid/disp/oled_display.h **** */
  13:../../../lib/pd2dsy/libdaisy/src/hid/disp/oled_display.h **** template <typename DisplayDriver>
  14:../../../lib/pd2dsy/libdaisy/src/hid/disp/oled_display.h **** class OledDisplay : public OneBitGraphicsDisplayImpl<OledDisplay<DisplayDriver>>
  15:../../../lib/pd2dsy/libdaisy/src/hid/disp/oled_display.h **** {
  16:../../../lib/pd2dsy/libdaisy/src/hid/disp/oled_display.h ****   public:
  17:../../../lib/pd2dsy/libdaisy/src/hid/disp/oled_display.h ****     OledDisplay() {}
  18:../../../lib/pd2dsy/libdaisy/src/hid/disp/oled_display.h ****     virtual ~OledDisplay() {}
  19:../../../lib/pd2dsy/libdaisy/src/hid/disp/oled_display.h **** 
  20:../../../lib/pd2dsy/libdaisy/src/hid/disp/oled_display.h ****     struct Config
  21:../../../lib/pd2dsy/libdaisy/src/hid/disp/oled_display.h ****     {
  22:../../../lib/pd2dsy/libdaisy/src/hid/disp/oled_display.h ****         typename DisplayDriver::Config driver_config;
  23:../../../lib/pd2dsy/libdaisy/src/hid/disp/oled_display.h ****     };
  24:../../../lib/pd2dsy/libdaisy/src/hid/disp/oled_display.h **** 
  25:../../../lib/pd2dsy/libdaisy/src/hid/disp/oled_display.h ****     void Init(Config config) { driver_.Init(config.driver_config); }
  26:../../../lib/pd2dsy/libdaisy/src/hid/disp/oled_display.h **** 
  27:../../../lib/pd2dsy/libdaisy/src/hid/disp/oled_display.h ****     uint16_t Height() const override { return driver_.Height(); }
  28:../../../lib/pd2dsy/libdaisy/src/hid/disp/oled_display.h ****     uint16_t Width() const override { return driver_.Width(); }
  29:../../../lib/pd2dsy/libdaisy/src/hid/disp/oled_display.h **** 
  30:../../../lib/pd2dsy/libdaisy/src/hid/disp/oled_display.h ****     /** 
  31:../../../lib/pd2dsy/libdaisy/src/hid/disp/oled_display.h ****     Fills the entire display with either on/off.
  32:../../../lib/pd2dsy/libdaisy/src/hid/disp/oled_display.h ****     \param on Sets on or off.
  33:../../../lib/pd2dsy/libdaisy/src/hid/disp/oled_display.h ****     */
  34:../../../lib/pd2dsy/libdaisy/src/hid/disp/oled_display.h ****     void Fill(bool on) override { driver_.Fill(on); }
  51              		.loc 2 34 10 is_stmt 1 view -0
  52              		.cfi_startproc
  53              		@ args = 0, pretend = 0, frame = 0
  54              		@ frame_needed = 0, uses_anonymous_args = 0
  55              		@ link register save eliminated.
  56              	.LBB514:
  57              	.LBI514:
ARM GAS  /var/folders/fb/yfxt3z4538j6z0vjt03w70vc0000gn/T//cc0qjWS6.s 			page 4


  58              		.file 3 "../../../lib/pd2dsy/libdaisy/src/dev/oled_ssd130x.h"
   1:../../../lib/pd2dsy/libdaisy/src/dev/oled_ssd130x.h **** #pragma once
   2:../../../lib/pd2dsy/libdaisy/src/dev/oled_ssd130x.h **** #ifndef SA_OLED_SSD130X_H
   3:../../../lib/pd2dsy/libdaisy/src/dev/oled_ssd130x.h **** #define SA_OLED_SSD130X_H /**< & */
   4:../../../lib/pd2dsy/libdaisy/src/dev/oled_ssd130x.h **** 
   5:../../../lib/pd2dsy/libdaisy/src/dev/oled_ssd130x.h **** #include "per/i2c.h"
   6:../../../lib/pd2dsy/libdaisy/src/dev/oled_ssd130x.h **** #include "per/spi.h"
   7:../../../lib/pd2dsy/libdaisy/src/dev/oled_ssd130x.h **** #include "per/gpio.h"
   8:../../../lib/pd2dsy/libdaisy/src/dev/oled_ssd130x.h **** #include "sys/system.h"
   9:../../../lib/pd2dsy/libdaisy/src/dev/oled_ssd130x.h **** 
  10:../../../lib/pd2dsy/libdaisy/src/dev/oled_ssd130x.h **** namespace daisy
  11:../../../lib/pd2dsy/libdaisy/src/dev/oled_ssd130x.h **** {
  12:../../../lib/pd2dsy/libdaisy/src/dev/oled_ssd130x.h **** /**
  13:../../../lib/pd2dsy/libdaisy/src/dev/oled_ssd130x.h ****  * I2C Transport for SSD1306 / SSD1309 OLED display devices
  14:../../../lib/pd2dsy/libdaisy/src/dev/oled_ssd130x.h ****  */
  15:../../../lib/pd2dsy/libdaisy/src/dev/oled_ssd130x.h **** class SSD130xI2CTransport
  16:../../../lib/pd2dsy/libdaisy/src/dev/oled_ssd130x.h **** {
  17:../../../lib/pd2dsy/libdaisy/src/dev/oled_ssd130x.h ****   public:
  18:../../../lib/pd2dsy/libdaisy/src/dev/oled_ssd130x.h ****     struct Config
  19:../../../lib/pd2dsy/libdaisy/src/dev/oled_ssd130x.h ****     {
  20:../../../lib/pd2dsy/libdaisy/src/dev/oled_ssd130x.h ****         Config()
  21:../../../lib/pd2dsy/libdaisy/src/dev/oled_ssd130x.h ****         {
  22:../../../lib/pd2dsy/libdaisy/src/dev/oled_ssd130x.h ****             // Intialize using defaults
  23:../../../lib/pd2dsy/libdaisy/src/dev/oled_ssd130x.h ****             Defaults();
  24:../../../lib/pd2dsy/libdaisy/src/dev/oled_ssd130x.h ****         }
  25:../../../lib/pd2dsy/libdaisy/src/dev/oled_ssd130x.h ****         I2CHandle::Config i2c_config;
  26:../../../lib/pd2dsy/libdaisy/src/dev/oled_ssd130x.h ****         uint8_t           i2c_address;
  27:../../../lib/pd2dsy/libdaisy/src/dev/oled_ssd130x.h ****         void              Defaults()
  28:../../../lib/pd2dsy/libdaisy/src/dev/oled_ssd130x.h ****         {
  29:../../../lib/pd2dsy/libdaisy/src/dev/oled_ssd130x.h ****             i2c_config.periph         = I2CHandle::Config::Peripheral::I2C_1;
  30:../../../lib/pd2dsy/libdaisy/src/dev/oled_ssd130x.h ****             i2c_config.speed          = I2CHandle::Config::Speed::I2C_1MHZ;
  31:../../../lib/pd2dsy/libdaisy/src/dev/oled_ssd130x.h ****             i2c_config.mode           = I2CHandle::Config::Mode::I2C_MASTER;
  32:../../../lib/pd2dsy/libdaisy/src/dev/oled_ssd130x.h ****             i2c_config.pin_config.scl = {DSY_GPIOB, 8};
  33:../../../lib/pd2dsy/libdaisy/src/dev/oled_ssd130x.h ****             i2c_config.pin_config.sda = {DSY_GPIOB, 9};
  34:../../../lib/pd2dsy/libdaisy/src/dev/oled_ssd130x.h ****             i2c_address               = 0x3C;
  35:../../../lib/pd2dsy/libdaisy/src/dev/oled_ssd130x.h ****         }
  36:../../../lib/pd2dsy/libdaisy/src/dev/oled_ssd130x.h ****     };
  37:../../../lib/pd2dsy/libdaisy/src/dev/oled_ssd130x.h ****     void Init(const Config& config)
  38:../../../lib/pd2dsy/libdaisy/src/dev/oled_ssd130x.h ****     {
  39:../../../lib/pd2dsy/libdaisy/src/dev/oled_ssd130x.h ****         i2c_address_ = config.i2c_address;
  40:../../../lib/pd2dsy/libdaisy/src/dev/oled_ssd130x.h ****         i2c_.Init(config.i2c_config);
  41:../../../lib/pd2dsy/libdaisy/src/dev/oled_ssd130x.h ****     };
  42:../../../lib/pd2dsy/libdaisy/src/dev/oled_ssd130x.h ****     void SendCommand(uint8_t cmd)
  43:../../../lib/pd2dsy/libdaisy/src/dev/oled_ssd130x.h ****     {
  44:../../../lib/pd2dsy/libdaisy/src/dev/oled_ssd130x.h ****         uint8_t buf[2] = {0X00, cmd};
  45:../../../lib/pd2dsy/libdaisy/src/dev/oled_ssd130x.h ****         i2c_.TransmitBlocking(i2c_address_, buf, 2, 1000);
  46:../../../lib/pd2dsy/libdaisy/src/dev/oled_ssd130x.h ****     };
  47:../../../lib/pd2dsy/libdaisy/src/dev/oled_ssd130x.h **** 
  48:../../../lib/pd2dsy/libdaisy/src/dev/oled_ssd130x.h ****     void SendData(uint8_t* buff, size_t size)
  49:../../../lib/pd2dsy/libdaisy/src/dev/oled_ssd130x.h ****     {
  50:../../../lib/pd2dsy/libdaisy/src/dev/oled_ssd130x.h ****         for(size_t i = 0; i < size; i++)
  51:../../../lib/pd2dsy/libdaisy/src/dev/oled_ssd130x.h ****         {
  52:../../../lib/pd2dsy/libdaisy/src/dev/oled_ssd130x.h ****             uint8_t buf[2] = {0X40, buff[i]};
  53:../../../lib/pd2dsy/libdaisy/src/dev/oled_ssd130x.h ****             i2c_.TransmitBlocking(i2c_address_, buf, 2, 1000);
  54:../../../lib/pd2dsy/libdaisy/src/dev/oled_ssd130x.h ****         }
  55:../../../lib/pd2dsy/libdaisy/src/dev/oled_ssd130x.h ****     };
  56:../../../lib/pd2dsy/libdaisy/src/dev/oled_ssd130x.h **** 
ARM GAS  /var/folders/fb/yfxt3z4538j6z0vjt03w70vc0000gn/T//cc0qjWS6.s 			page 5


  57:../../../lib/pd2dsy/libdaisy/src/dev/oled_ssd130x.h ****   private:
  58:../../../lib/pd2dsy/libdaisy/src/dev/oled_ssd130x.h ****     daisy::I2CHandle i2c_;
  59:../../../lib/pd2dsy/libdaisy/src/dev/oled_ssd130x.h ****     uint8_t          i2c_address_;
  60:../../../lib/pd2dsy/libdaisy/src/dev/oled_ssd130x.h **** };
  61:../../../lib/pd2dsy/libdaisy/src/dev/oled_ssd130x.h **** 
  62:../../../lib/pd2dsy/libdaisy/src/dev/oled_ssd130x.h **** /**
  63:../../../lib/pd2dsy/libdaisy/src/dev/oled_ssd130x.h ****  * 4 Wire SPI Transport for SSD1306 / SSD1309 OLED display devices
  64:../../../lib/pd2dsy/libdaisy/src/dev/oled_ssd130x.h ****  */
  65:../../../lib/pd2dsy/libdaisy/src/dev/oled_ssd130x.h **** class SSD130x4WireSpiTransport
  66:../../../lib/pd2dsy/libdaisy/src/dev/oled_ssd130x.h **** {
  67:../../../lib/pd2dsy/libdaisy/src/dev/oled_ssd130x.h ****   public:
  68:../../../lib/pd2dsy/libdaisy/src/dev/oled_ssd130x.h ****     struct Config
  69:../../../lib/pd2dsy/libdaisy/src/dev/oled_ssd130x.h ****     {
  70:../../../lib/pd2dsy/libdaisy/src/dev/oled_ssd130x.h ****         Config()
  71:../../../lib/pd2dsy/libdaisy/src/dev/oled_ssd130x.h ****         {
  72:../../../lib/pd2dsy/libdaisy/src/dev/oled_ssd130x.h ****             // Initialize using defaults
  73:../../../lib/pd2dsy/libdaisy/src/dev/oled_ssd130x.h ****             Defaults();
  74:../../../lib/pd2dsy/libdaisy/src/dev/oled_ssd130x.h ****         }
  75:../../../lib/pd2dsy/libdaisy/src/dev/oled_ssd130x.h ****         SpiHandle::Config spi_config;
  76:../../../lib/pd2dsy/libdaisy/src/dev/oled_ssd130x.h ****         struct
  77:../../../lib/pd2dsy/libdaisy/src/dev/oled_ssd130x.h ****         {
  78:../../../lib/pd2dsy/libdaisy/src/dev/oled_ssd130x.h ****             dsy_gpio_pin dc;    /**< & */
  79:../../../lib/pd2dsy/libdaisy/src/dev/oled_ssd130x.h ****             dsy_gpio_pin reset; /**< & */
  80:../../../lib/pd2dsy/libdaisy/src/dev/oled_ssd130x.h ****         } pin_config;
  81:../../../lib/pd2dsy/libdaisy/src/dev/oled_ssd130x.h ****         void Defaults()
  82:../../../lib/pd2dsy/libdaisy/src/dev/oled_ssd130x.h ****         {
  83:../../../lib/pd2dsy/libdaisy/src/dev/oled_ssd130x.h ****             // SPI peripheral config
  84:../../../lib/pd2dsy/libdaisy/src/dev/oled_ssd130x.h ****             spi_config.periph = SpiHandle::Config::Peripheral::SPI_1;
  85:../../../lib/pd2dsy/libdaisy/src/dev/oled_ssd130x.h ****             spi_config.mode   = SpiHandle::Config::Mode::MASTER;
  86:../../../lib/pd2dsy/libdaisy/src/dev/oled_ssd130x.h ****             spi_config.direction
  87:../../../lib/pd2dsy/libdaisy/src/dev/oled_ssd130x.h ****                 = SpiHandle::Config::Direction::TWO_LINES_TX_ONLY;
  88:../../../lib/pd2dsy/libdaisy/src/dev/oled_ssd130x.h ****             spi_config.datasize       = 8;
  89:../../../lib/pd2dsy/libdaisy/src/dev/oled_ssd130x.h ****             spi_config.clock_polarity = SpiHandle::Config::ClockPolarity::LOW;
  90:../../../lib/pd2dsy/libdaisy/src/dev/oled_ssd130x.h ****             spi_config.clock_phase    = SpiHandle::Config::ClockPhase::ONE_EDGE;
  91:../../../lib/pd2dsy/libdaisy/src/dev/oled_ssd130x.h ****             spi_config.nss            = SpiHandle::Config::NSS::HARD_OUTPUT;
  92:../../../lib/pd2dsy/libdaisy/src/dev/oled_ssd130x.h ****             spi_config.baud_prescaler = SpiHandle::Config::BaudPrescaler::PS_8;
  93:../../../lib/pd2dsy/libdaisy/src/dev/oled_ssd130x.h ****             // SPI pin config
  94:../../../lib/pd2dsy/libdaisy/src/dev/oled_ssd130x.h ****             spi_config.pin_config.sclk = {DSY_GPIOG, 11};
  95:../../../lib/pd2dsy/libdaisy/src/dev/oled_ssd130x.h ****             spi_config.pin_config.miso = {DSY_GPIOX, 0};
  96:../../../lib/pd2dsy/libdaisy/src/dev/oled_ssd130x.h ****             spi_config.pin_config.mosi = {DSY_GPIOB, 5};
  97:../../../lib/pd2dsy/libdaisy/src/dev/oled_ssd130x.h ****             spi_config.pin_config.nss  = {DSY_GPIOG, 10};
  98:../../../lib/pd2dsy/libdaisy/src/dev/oled_ssd130x.h ****             // SSD130x control pin config
  99:../../../lib/pd2dsy/libdaisy/src/dev/oled_ssd130x.h ****             pin_config.dc    = {DSY_GPIOB, 4};
 100:../../../lib/pd2dsy/libdaisy/src/dev/oled_ssd130x.h ****             pin_config.reset = {DSY_GPIOB, 15};
 101:../../../lib/pd2dsy/libdaisy/src/dev/oled_ssd130x.h ****         }
 102:../../../lib/pd2dsy/libdaisy/src/dev/oled_ssd130x.h ****     };
 103:../../../lib/pd2dsy/libdaisy/src/dev/oled_ssd130x.h ****     void Init(const Config& config)
 104:../../../lib/pd2dsy/libdaisy/src/dev/oled_ssd130x.h ****     {
 105:../../../lib/pd2dsy/libdaisy/src/dev/oled_ssd130x.h ****         // Initialize both GPIO
 106:../../../lib/pd2dsy/libdaisy/src/dev/oled_ssd130x.h ****         pin_dc_.mode = DSY_GPIO_MODE_OUTPUT_PP;
 107:../../../lib/pd2dsy/libdaisy/src/dev/oled_ssd130x.h ****         pin_dc_.pin  = config.pin_config.dc;
 108:../../../lib/pd2dsy/libdaisy/src/dev/oled_ssd130x.h ****         dsy_gpio_init(&pin_dc_);
 109:../../../lib/pd2dsy/libdaisy/src/dev/oled_ssd130x.h ****         pin_reset_.mode = DSY_GPIO_MODE_OUTPUT_PP;
 110:../../../lib/pd2dsy/libdaisy/src/dev/oled_ssd130x.h ****         pin_reset_.pin  = config.pin_config.reset;
 111:../../../lib/pd2dsy/libdaisy/src/dev/oled_ssd130x.h ****         dsy_gpio_init(&pin_reset_);
 112:../../../lib/pd2dsy/libdaisy/src/dev/oled_ssd130x.h **** 
 113:../../../lib/pd2dsy/libdaisy/src/dev/oled_ssd130x.h ****         // Initialize SPI
ARM GAS  /var/folders/fb/yfxt3z4538j6z0vjt03w70vc0000gn/T//cc0qjWS6.s 			page 6


 114:../../../lib/pd2dsy/libdaisy/src/dev/oled_ssd130x.h ****         spi_.Init(config.spi_config);
 115:../../../lib/pd2dsy/libdaisy/src/dev/oled_ssd130x.h **** 
 116:../../../lib/pd2dsy/libdaisy/src/dev/oled_ssd130x.h ****         // Reset and Configure OLED.
 117:../../../lib/pd2dsy/libdaisy/src/dev/oled_ssd130x.h ****         dsy_gpio_write(&pin_reset_, 0);
 118:../../../lib/pd2dsy/libdaisy/src/dev/oled_ssd130x.h ****         System::Delay(10);
 119:../../../lib/pd2dsy/libdaisy/src/dev/oled_ssd130x.h ****         dsy_gpio_write(&pin_reset_, 1);
 120:../../../lib/pd2dsy/libdaisy/src/dev/oled_ssd130x.h ****         System::Delay(10);
 121:../../../lib/pd2dsy/libdaisy/src/dev/oled_ssd130x.h ****     };
 122:../../../lib/pd2dsy/libdaisy/src/dev/oled_ssd130x.h ****     void SendCommand(uint8_t cmd)
 123:../../../lib/pd2dsy/libdaisy/src/dev/oled_ssd130x.h ****     {
 124:../../../lib/pd2dsy/libdaisy/src/dev/oled_ssd130x.h ****         dsy_gpio_write(&pin_dc_, 0);
 125:../../../lib/pd2dsy/libdaisy/src/dev/oled_ssd130x.h ****         spi_.BlockingTransmit(&cmd, 1);
 126:../../../lib/pd2dsy/libdaisy/src/dev/oled_ssd130x.h ****     };
 127:../../../lib/pd2dsy/libdaisy/src/dev/oled_ssd130x.h **** 
 128:../../../lib/pd2dsy/libdaisy/src/dev/oled_ssd130x.h ****     void SendData(uint8_t* buff, size_t size)
 129:../../../lib/pd2dsy/libdaisy/src/dev/oled_ssd130x.h ****     {
 130:../../../lib/pd2dsy/libdaisy/src/dev/oled_ssd130x.h ****         dsy_gpio_write(&pin_dc_, 1);
 131:../../../lib/pd2dsy/libdaisy/src/dev/oled_ssd130x.h ****         spi_.BlockingTransmit(buff, size);
 132:../../../lib/pd2dsy/libdaisy/src/dev/oled_ssd130x.h ****     };
 133:../../../lib/pd2dsy/libdaisy/src/dev/oled_ssd130x.h **** 
 134:../../../lib/pd2dsy/libdaisy/src/dev/oled_ssd130x.h ****   private:
 135:../../../lib/pd2dsy/libdaisy/src/dev/oled_ssd130x.h ****     SpiHandle spi_;
 136:../../../lib/pd2dsy/libdaisy/src/dev/oled_ssd130x.h ****     dsy_gpio  pin_reset_;
 137:../../../lib/pd2dsy/libdaisy/src/dev/oled_ssd130x.h ****     dsy_gpio  pin_dc_;
 138:../../../lib/pd2dsy/libdaisy/src/dev/oled_ssd130x.h **** };
 139:../../../lib/pd2dsy/libdaisy/src/dev/oled_ssd130x.h **** 
 140:../../../lib/pd2dsy/libdaisy/src/dev/oled_ssd130x.h **** 
 141:../../../lib/pd2dsy/libdaisy/src/dev/oled_ssd130x.h **** /**
 142:../../../lib/pd2dsy/libdaisy/src/dev/oled_ssd130x.h ****  * A driver implementation for the SSD1306/SSD1309
 143:../../../lib/pd2dsy/libdaisy/src/dev/oled_ssd130x.h ****  */
 144:../../../lib/pd2dsy/libdaisy/src/dev/oled_ssd130x.h **** template <size_t width, size_t height, typename Transport>
 145:../../../lib/pd2dsy/libdaisy/src/dev/oled_ssd130x.h **** class SSD130xDriver
 146:../../../lib/pd2dsy/libdaisy/src/dev/oled_ssd130x.h **** {
 147:../../../lib/pd2dsy/libdaisy/src/dev/oled_ssd130x.h ****   public:
 148:../../../lib/pd2dsy/libdaisy/src/dev/oled_ssd130x.h ****     struct Config
 149:../../../lib/pd2dsy/libdaisy/src/dev/oled_ssd130x.h ****     {
 150:../../../lib/pd2dsy/libdaisy/src/dev/oled_ssd130x.h ****         typename Transport::Config transport_config;
 151:../../../lib/pd2dsy/libdaisy/src/dev/oled_ssd130x.h ****     };
 152:../../../lib/pd2dsy/libdaisy/src/dev/oled_ssd130x.h **** 
 153:../../../lib/pd2dsy/libdaisy/src/dev/oled_ssd130x.h ****     void Init(Config config)
 154:../../../lib/pd2dsy/libdaisy/src/dev/oled_ssd130x.h ****     {
 155:../../../lib/pd2dsy/libdaisy/src/dev/oled_ssd130x.h ****         transport_.Init(config.transport_config);
 156:../../../lib/pd2dsy/libdaisy/src/dev/oled_ssd130x.h **** 
 157:../../../lib/pd2dsy/libdaisy/src/dev/oled_ssd130x.h ****         // Init routine...
 158:../../../lib/pd2dsy/libdaisy/src/dev/oled_ssd130x.h **** 
 159:../../../lib/pd2dsy/libdaisy/src/dev/oled_ssd130x.h ****         // Display Off
 160:../../../lib/pd2dsy/libdaisy/src/dev/oled_ssd130x.h ****         transport_.SendCommand(0xaE);
 161:../../../lib/pd2dsy/libdaisy/src/dev/oled_ssd130x.h ****         // Dimension dependent commands...
 162:../../../lib/pd2dsy/libdaisy/src/dev/oled_ssd130x.h ****         switch(height)
 163:../../../lib/pd2dsy/libdaisy/src/dev/oled_ssd130x.h ****         {
 164:../../../lib/pd2dsy/libdaisy/src/dev/oled_ssd130x.h ****             case 16:
 165:../../../lib/pd2dsy/libdaisy/src/dev/oled_ssd130x.h ****                 // Display Clock Divide Ratio
 166:../../../lib/pd2dsy/libdaisy/src/dev/oled_ssd130x.h ****                 transport_.SendCommand(0xD5);
 167:../../../lib/pd2dsy/libdaisy/src/dev/oled_ssd130x.h ****                 transport_.SendCommand(0x60);
 168:../../../lib/pd2dsy/libdaisy/src/dev/oled_ssd130x.h ****                 // Multiplex Ratio
 169:../../../lib/pd2dsy/libdaisy/src/dev/oled_ssd130x.h ****                 transport_.SendCommand(0xA8);
 170:../../../lib/pd2dsy/libdaisy/src/dev/oled_ssd130x.h ****                 transport_.SendCommand(0x0F);
ARM GAS  /var/folders/fb/yfxt3z4538j6z0vjt03w70vc0000gn/T//cc0qjWS6.s 			page 7


 171:../../../lib/pd2dsy/libdaisy/src/dev/oled_ssd130x.h ****                 // COM Pins
 172:../../../lib/pd2dsy/libdaisy/src/dev/oled_ssd130x.h ****                 transport_.SendCommand(0xDA);
 173:../../../lib/pd2dsy/libdaisy/src/dev/oled_ssd130x.h ****                 transport_.SendCommand(0x02);
 174:../../../lib/pd2dsy/libdaisy/src/dev/oled_ssd130x.h ****                 break;
 175:../../../lib/pd2dsy/libdaisy/src/dev/oled_ssd130x.h ****             case 32:
 176:../../../lib/pd2dsy/libdaisy/src/dev/oled_ssd130x.h ****                 // Display Clock Divide Ratio
 177:../../../lib/pd2dsy/libdaisy/src/dev/oled_ssd130x.h ****                 transport_.SendCommand(0xD5);
 178:../../../lib/pd2dsy/libdaisy/src/dev/oled_ssd130x.h ****                 transport_.SendCommand(0x80);
 179:../../../lib/pd2dsy/libdaisy/src/dev/oled_ssd130x.h ****                 // Multiplex Ratio
 180:../../../lib/pd2dsy/libdaisy/src/dev/oled_ssd130x.h ****                 transport_.SendCommand(0xA8);
 181:../../../lib/pd2dsy/libdaisy/src/dev/oled_ssd130x.h ****                 transport_.SendCommand(0x1F);
 182:../../../lib/pd2dsy/libdaisy/src/dev/oled_ssd130x.h ****                 // COM Pins
 183:../../../lib/pd2dsy/libdaisy/src/dev/oled_ssd130x.h ****                 transport_.SendCommand(0xDA);
 184:../../../lib/pd2dsy/libdaisy/src/dev/oled_ssd130x.h ****                 if(width == 64)
 185:../../../lib/pd2dsy/libdaisy/src/dev/oled_ssd130x.h ****                 {
 186:../../../lib/pd2dsy/libdaisy/src/dev/oled_ssd130x.h ****                     transport_.SendCommand(0x12);
 187:../../../lib/pd2dsy/libdaisy/src/dev/oled_ssd130x.h ****                 }
 188:../../../lib/pd2dsy/libdaisy/src/dev/oled_ssd130x.h ****                 else
 189:../../../lib/pd2dsy/libdaisy/src/dev/oled_ssd130x.h ****                 {
 190:../../../lib/pd2dsy/libdaisy/src/dev/oled_ssd130x.h ****                     transport_.SendCommand(0x02);
 191:../../../lib/pd2dsy/libdaisy/src/dev/oled_ssd130x.h ****                 }
 192:../../../lib/pd2dsy/libdaisy/src/dev/oled_ssd130x.h **** 
 193:../../../lib/pd2dsy/libdaisy/src/dev/oled_ssd130x.h ****                 break;
 194:../../../lib/pd2dsy/libdaisy/src/dev/oled_ssd130x.h ****             case 48:
 195:../../../lib/pd2dsy/libdaisy/src/dev/oled_ssd130x.h ****                 // Display Clock Divide Ratio
 196:../../../lib/pd2dsy/libdaisy/src/dev/oled_ssd130x.h ****                 transport_.SendCommand(0xD5);
 197:../../../lib/pd2dsy/libdaisy/src/dev/oled_ssd130x.h ****                 transport_.SendCommand(0x80);
 198:../../../lib/pd2dsy/libdaisy/src/dev/oled_ssd130x.h ****                 // Multiplex Ratio
 199:../../../lib/pd2dsy/libdaisy/src/dev/oled_ssd130x.h ****                 transport_.SendCommand(0xA8);
 200:../../../lib/pd2dsy/libdaisy/src/dev/oled_ssd130x.h ****                 transport_.SendCommand(0x2F);
 201:../../../lib/pd2dsy/libdaisy/src/dev/oled_ssd130x.h ****                 // COM Pins
 202:../../../lib/pd2dsy/libdaisy/src/dev/oled_ssd130x.h ****                 transport_.SendCommand(0xDA);
 203:../../../lib/pd2dsy/libdaisy/src/dev/oled_ssd130x.h ****                 transport_.SendCommand(0x12);
 204:../../../lib/pd2dsy/libdaisy/src/dev/oled_ssd130x.h ****                 break;
 205:../../../lib/pd2dsy/libdaisy/src/dev/oled_ssd130x.h ****             default: // 128
 206:../../../lib/pd2dsy/libdaisy/src/dev/oled_ssd130x.h ****                 // Display Clock Divide Ratio
 207:../../../lib/pd2dsy/libdaisy/src/dev/oled_ssd130x.h ****                 transport_.SendCommand(0xD5);
 208:../../../lib/pd2dsy/libdaisy/src/dev/oled_ssd130x.h ****                 transport_.SendCommand(0x80);
 209:../../../lib/pd2dsy/libdaisy/src/dev/oled_ssd130x.h ****                 // Multiplex Ratio
 210:../../../lib/pd2dsy/libdaisy/src/dev/oled_ssd130x.h ****                 transport_.SendCommand(0xA8);
 211:../../../lib/pd2dsy/libdaisy/src/dev/oled_ssd130x.h ****                 transport_.SendCommand(0x3F);
 212:../../../lib/pd2dsy/libdaisy/src/dev/oled_ssd130x.h ****                 // COM Pins
 213:../../../lib/pd2dsy/libdaisy/src/dev/oled_ssd130x.h ****                 transport_.SendCommand(0xDA);
 214:../../../lib/pd2dsy/libdaisy/src/dev/oled_ssd130x.h ****                 transport_.SendCommand(0x12);
 215:../../../lib/pd2dsy/libdaisy/src/dev/oled_ssd130x.h ****                 break;
 216:../../../lib/pd2dsy/libdaisy/src/dev/oled_ssd130x.h ****         }
 217:../../../lib/pd2dsy/libdaisy/src/dev/oled_ssd130x.h **** 
 218:../../../lib/pd2dsy/libdaisy/src/dev/oled_ssd130x.h ****         // Display Offset
 219:../../../lib/pd2dsy/libdaisy/src/dev/oled_ssd130x.h ****         transport_.SendCommand(0xD3);
 220:../../../lib/pd2dsy/libdaisy/src/dev/oled_ssd130x.h ****         transport_.SendCommand(0x00);
 221:../../../lib/pd2dsy/libdaisy/src/dev/oled_ssd130x.h ****         // Start Line Address
 222:../../../lib/pd2dsy/libdaisy/src/dev/oled_ssd130x.h ****         transport_.SendCommand(0x40);
 223:../../../lib/pd2dsy/libdaisy/src/dev/oled_ssd130x.h ****         // Normal Display
 224:../../../lib/pd2dsy/libdaisy/src/dev/oled_ssd130x.h ****         transport_.SendCommand(0xA6);
 225:../../../lib/pd2dsy/libdaisy/src/dev/oled_ssd130x.h ****         // All On Resume
 226:../../../lib/pd2dsy/libdaisy/src/dev/oled_ssd130x.h ****         transport_.SendCommand(0xA4);
 227:../../../lib/pd2dsy/libdaisy/src/dev/oled_ssd130x.h ****         // Charge Pump
ARM GAS  /var/folders/fb/yfxt3z4538j6z0vjt03w70vc0000gn/T//cc0qjWS6.s 			page 8


 228:../../../lib/pd2dsy/libdaisy/src/dev/oled_ssd130x.h ****         transport_.SendCommand(0x8D);
 229:../../../lib/pd2dsy/libdaisy/src/dev/oled_ssd130x.h ****         transport_.SendCommand(0x14);
 230:../../../lib/pd2dsy/libdaisy/src/dev/oled_ssd130x.h ****         // Set Segment Remap
 231:../../../lib/pd2dsy/libdaisy/src/dev/oled_ssd130x.h ****         transport_.SendCommand(0xA1);
 232:../../../lib/pd2dsy/libdaisy/src/dev/oled_ssd130x.h ****         // COM Output Scan Direction
 233:../../../lib/pd2dsy/libdaisy/src/dev/oled_ssd130x.h ****         transport_.SendCommand(0xC8);
 234:../../../lib/pd2dsy/libdaisy/src/dev/oled_ssd130x.h ****         // Contrast Control
 235:../../../lib/pd2dsy/libdaisy/src/dev/oled_ssd130x.h ****         transport_.SendCommand(0x81);
 236:../../../lib/pd2dsy/libdaisy/src/dev/oled_ssd130x.h ****         transport_.SendCommand(0x8F);
 237:../../../lib/pd2dsy/libdaisy/src/dev/oled_ssd130x.h ****         // Pre Charge
 238:../../../lib/pd2dsy/libdaisy/src/dev/oled_ssd130x.h ****         transport_.SendCommand(0xD9);
 239:../../../lib/pd2dsy/libdaisy/src/dev/oled_ssd130x.h ****         transport_.SendCommand(0x25);
 240:../../../lib/pd2dsy/libdaisy/src/dev/oled_ssd130x.h ****         // VCOM Detect
 241:../../../lib/pd2dsy/libdaisy/src/dev/oled_ssd130x.h ****         transport_.SendCommand(0xDB);
 242:../../../lib/pd2dsy/libdaisy/src/dev/oled_ssd130x.h ****         transport_.SendCommand(0x34);
 243:../../../lib/pd2dsy/libdaisy/src/dev/oled_ssd130x.h **** 
 244:../../../lib/pd2dsy/libdaisy/src/dev/oled_ssd130x.h **** 
 245:../../../lib/pd2dsy/libdaisy/src/dev/oled_ssd130x.h ****         // Display On
 246:../../../lib/pd2dsy/libdaisy/src/dev/oled_ssd130x.h ****         transport_.SendCommand(0xAF); //--turn on oled panel
 247:../../../lib/pd2dsy/libdaisy/src/dev/oled_ssd130x.h ****     };
 248:../../../lib/pd2dsy/libdaisy/src/dev/oled_ssd130x.h **** 
 249:../../../lib/pd2dsy/libdaisy/src/dev/oled_ssd130x.h ****     size_t Width() const { return width; };
 250:../../../lib/pd2dsy/libdaisy/src/dev/oled_ssd130x.h ****     size_t Height() const { return height; };
 251:../../../lib/pd2dsy/libdaisy/src/dev/oled_ssd130x.h **** 
 252:../../../lib/pd2dsy/libdaisy/src/dev/oled_ssd130x.h ****     void DrawPixel(uint_fast8_t x, uint_fast8_t y, bool on)
 253:../../../lib/pd2dsy/libdaisy/src/dev/oled_ssd130x.h ****     {
 254:../../../lib/pd2dsy/libdaisy/src/dev/oled_ssd130x.h ****         if(x >= width || y >= height)
 255:../../../lib/pd2dsy/libdaisy/src/dev/oled_ssd130x.h ****             return;
 256:../../../lib/pd2dsy/libdaisy/src/dev/oled_ssd130x.h ****         if(on)
 257:../../../lib/pd2dsy/libdaisy/src/dev/oled_ssd130x.h ****             buffer_[x + (y / 8) * width] |= (1 << (y % 8));
 258:../../../lib/pd2dsy/libdaisy/src/dev/oled_ssd130x.h ****         else
 259:../../../lib/pd2dsy/libdaisy/src/dev/oled_ssd130x.h ****             buffer_[x + (y / 8) * width] &= ~(1 << (y % 8));
 260:../../../lib/pd2dsy/libdaisy/src/dev/oled_ssd130x.h ****     }
 261:../../../lib/pd2dsy/libdaisy/src/dev/oled_ssd130x.h **** 
 262:../../../lib/pd2dsy/libdaisy/src/dev/oled_ssd130x.h ****     void Fill(bool on)
  59              		.loc 3 262 10 view .LVU3
  60              	.LBB515:
 263:../../../lib/pd2dsy/libdaisy/src/dev/oled_ssd130x.h ****     {
 264:../../../lib/pd2dsy/libdaisy/src/dev/oled_ssd130x.h ****         for(size_t i = 0; i < sizeof(buffer_); i++)
  61              		.loc 3 264 29 view .LVU4
 265:../../../lib/pd2dsy/libdaisy/src/dev/oled_ssd130x.h ****         {
 266:../../../lib/pd2dsy/libdaisy/src/dev/oled_ssd130x.h ****             buffer_[i] = on ? 0xff : 0x00;
  62              		.loc 3 266 24 is_stmt 0 view .LVU5
  63 0000 4942     		rsbs	r1, r1, #0
  64              	.LVL2:
  65              		.loc 3 266 24 view .LVU6
  66 0002 4FF48062 		mov	r2, #1024
  67 0006 1430     		adds	r0, r0, #20
  68              	.LVL3:
  69              		.loc 3 266 24 view .LVU7
  70 0008 C9B2     		uxtb	r1, r1
  71 000a FFF7FEBF 		b	memset
  72              	.LVL4:
  73              		.loc 3 266 24 view .LVU8
  74              	.LBE515:
  75              	.LBE514:
  76              		.cfi_endproc
ARM GAS  /var/folders/fb/yfxt3z4538j6z0vjt03w70vc0000gn/T//cc0qjWS6.s 			page 9


  77              	.LFE3037:
  79 000e 00BF     		.section	.text._ZN5daisy11OledDisplayINS_13SSD130xDriverILj128ELj64ENS_24SSD130x4WireSpiTransportE
  80              		.align	1
  81              		.p2align 2,,3
  82              		.weak	_ZN5daisy11OledDisplayINS_13SSD130xDriverILj128ELj64ENS_24SSD130x4WireSpiTransportEEEED2Ev
  83              		.syntax unified
  84              		.thumb
  85              		.thumb_func
  87              	_ZN5daisy11OledDisplayINS_13SSD130xDriverILj128ELj64ENS_24SSD130x4WireSpiTransportEEEED2Ev:
  88              	.LVL5:
  89              	.LFB3049:
  18:../../../lib/pd2dsy/libdaisy/src/hid/disp/oled_display.h **** 
  90              		.loc 2 18 13 is_stmt 1 view -0
  91              		.cfi_startproc
  92              		@ args = 0, pretend = 0, frame = 0
  93              		@ frame_needed = 0, uses_anonymous_args = 0
  94              		@ link register save eliminated.
  95              	.LBB516:
  96              	.LBI516:
  97              		.file 4 "../../../lib/pd2dsy/libdaisy/src/hid/disp/display.h"
   1:../../../lib/pd2dsy/libdaisy/src/hid/disp/display.h **** #pragma once
   2:../../../lib/pd2dsy/libdaisy/src/hid/disp/display.h **** #ifndef DSY_DISPLAY_H
   3:../../../lib/pd2dsy/libdaisy/src/hid/disp/display.h **** #define DSY_DISPLAY_H /**< Macro */
   4:../../../lib/pd2dsy/libdaisy/src/hid/disp/display.h **** #include <cmath>
   5:../../../lib/pd2dsy/libdaisy/src/hid/disp/display.h **** #include "util/oled_fonts.h"
   6:../../../lib/pd2dsy/libdaisy/src/hid/disp/display.h **** #include "daisy_core.h"
   7:../../../lib/pd2dsy/libdaisy/src/hid/disp/display.h **** #include "graphics_common.h"
   8:../../../lib/pd2dsy/libdaisy/src/hid/disp/display.h **** 
   9:../../../lib/pd2dsy/libdaisy/src/hid/disp/display.h **** #ifndef deg2rad
  10:../../../lib/pd2dsy/libdaisy/src/hid/disp/display.h **** #define deg2rad(deg) ((deg)*3.141592 / 180.0)
  11:../../../lib/pd2dsy/libdaisy/src/hid/disp/display.h **** #endif
  12:../../../lib/pd2dsy/libdaisy/src/hid/disp/display.h **** 
  13:../../../lib/pd2dsy/libdaisy/src/hid/disp/display.h **** namespace daisy
  14:../../../lib/pd2dsy/libdaisy/src/hid/disp/display.h **** {
  15:../../../lib/pd2dsy/libdaisy/src/hid/disp/display.h **** /** 
  16:../../../lib/pd2dsy/libdaisy/src/hid/disp/display.h ****  * This interface is used as a base class for all types of 1bit-per-pixel
  17:../../../lib/pd2dsy/libdaisy/src/hid/disp/display.h ****  * graphics displays.
  18:../../../lib/pd2dsy/libdaisy/src/hid/disp/display.h **** */
  19:../../../lib/pd2dsy/libdaisy/src/hid/disp/display.h **** class OneBitGraphicsDisplay
  20:../../../lib/pd2dsy/libdaisy/src/hid/disp/display.h **** {
  21:../../../lib/pd2dsy/libdaisy/src/hid/disp/display.h ****   public:
  22:../../../lib/pd2dsy/libdaisy/src/hid/disp/display.h ****     OneBitGraphicsDisplay() {}
  23:../../../lib/pd2dsy/libdaisy/src/hid/disp/display.h ****     virtual ~OneBitGraphicsDisplay() {}
  24:../../../lib/pd2dsy/libdaisy/src/hid/disp/display.h **** 
  25:../../../lib/pd2dsy/libdaisy/src/hid/disp/display.h ****     virtual uint16_t Height() const = 0;
  26:../../../lib/pd2dsy/libdaisy/src/hid/disp/display.h ****     virtual uint16_t Width() const  = 0;
  27:../../../lib/pd2dsy/libdaisy/src/hid/disp/display.h **** 
  28:../../../lib/pd2dsy/libdaisy/src/hid/disp/display.h ****     Rectangle GetBounds() const
  29:../../../lib/pd2dsy/libdaisy/src/hid/disp/display.h ****     {
  30:../../../lib/pd2dsy/libdaisy/src/hid/disp/display.h ****         return Rectangle(int16_t(Width()), int16_t(Height()));
  31:../../../lib/pd2dsy/libdaisy/src/hid/disp/display.h ****     }
  32:../../../lib/pd2dsy/libdaisy/src/hid/disp/display.h **** 
  33:../../../lib/pd2dsy/libdaisy/src/hid/disp/display.h **** 
  34:../../../lib/pd2dsy/libdaisy/src/hid/disp/display.h ****     size_t CurrentX() { return currentX_; };
  35:../../../lib/pd2dsy/libdaisy/src/hid/disp/display.h ****     size_t CurrentY() { return currentY_; };
  36:../../../lib/pd2dsy/libdaisy/src/hid/disp/display.h **** 
  37:../../../lib/pd2dsy/libdaisy/src/hid/disp/display.h ****     /** 
ARM GAS  /var/folders/fb/yfxt3z4538j6z0vjt03w70vc0000gn/T//cc0qjWS6.s 			page 10


  38:../../../lib/pd2dsy/libdaisy/src/hid/disp/display.h ****     Fills the entire display with either on/off.
  39:../../../lib/pd2dsy/libdaisy/src/hid/disp/display.h ****     \param on Sets on or off.
  40:../../../lib/pd2dsy/libdaisy/src/hid/disp/display.h ****     */
  41:../../../lib/pd2dsy/libdaisy/src/hid/disp/display.h ****     virtual void Fill(bool on) = 0;
  42:../../../lib/pd2dsy/libdaisy/src/hid/disp/display.h **** 
  43:../../../lib/pd2dsy/libdaisy/src/hid/disp/display.h ****     /**
  44:../../../lib/pd2dsy/libdaisy/src/hid/disp/display.h ****     Sets the pixel at the specified coordinate to be on/off.
  45:../../../lib/pd2dsy/libdaisy/src/hid/disp/display.h ****     \param x   x Coordinate
  46:../../../lib/pd2dsy/libdaisy/src/hid/disp/display.h ****     \param y   y coordinate
  47:../../../lib/pd2dsy/libdaisy/src/hid/disp/display.h ****     \param on  on or off
  48:../../../lib/pd2dsy/libdaisy/src/hid/disp/display.h ****     */
  49:../../../lib/pd2dsy/libdaisy/src/hid/disp/display.h ****     virtual void DrawPixel(uint_fast8_t x, uint_fast8_t y, bool on) = 0;
  50:../../../lib/pd2dsy/libdaisy/src/hid/disp/display.h **** 
  51:../../../lib/pd2dsy/libdaisy/src/hid/disp/display.h ****     /**
  52:../../../lib/pd2dsy/libdaisy/src/hid/disp/display.h ****     Draws a line from (x1, y1) to (y1, y2)
  53:../../../lib/pd2dsy/libdaisy/src/hid/disp/display.h ****     \param x1  x Coordinate of the starting point
  54:../../../lib/pd2dsy/libdaisy/src/hid/disp/display.h ****     \param y1  y Coordinate of the starting point
  55:../../../lib/pd2dsy/libdaisy/src/hid/disp/display.h ****     \param x2  x Coordinate of the ending point
  56:../../../lib/pd2dsy/libdaisy/src/hid/disp/display.h ****     \param y2  y Coordinate of the ending point
  57:../../../lib/pd2dsy/libdaisy/src/hid/disp/display.h ****     \param on  on or off
  58:../../../lib/pd2dsy/libdaisy/src/hid/disp/display.h ****     */
  59:../../../lib/pd2dsy/libdaisy/src/hid/disp/display.h ****     virtual void DrawLine(uint_fast8_t x1,
  60:../../../lib/pd2dsy/libdaisy/src/hid/disp/display.h ****                           uint_fast8_t y1,
  61:../../../lib/pd2dsy/libdaisy/src/hid/disp/display.h ****                           uint_fast8_t x2,
  62:../../../lib/pd2dsy/libdaisy/src/hid/disp/display.h ****                           uint_fast8_t y2,
  63:../../../lib/pd2dsy/libdaisy/src/hid/disp/display.h ****                           bool         on)
  64:../../../lib/pd2dsy/libdaisy/src/hid/disp/display.h ****         = 0;
  65:../../../lib/pd2dsy/libdaisy/src/hid/disp/display.h **** 
  66:../../../lib/pd2dsy/libdaisy/src/hid/disp/display.h ****     /**
  67:../../../lib/pd2dsy/libdaisy/src/hid/disp/display.h ****     Draws a rectangle based on two coordinates.
  68:../../../lib/pd2dsy/libdaisy/src/hid/disp/display.h ****     \param x1 x Coordinate of the first point
  69:../../../lib/pd2dsy/libdaisy/src/hid/disp/display.h ****     \param y1 y Coordinate of the first point
  70:../../../lib/pd2dsy/libdaisy/src/hid/disp/display.h ****     \param x2 x Coordinate of the second point
  71:../../../lib/pd2dsy/libdaisy/src/hid/disp/display.h ****     \param y2 y Coordinate of the second point
  72:../../../lib/pd2dsy/libdaisy/src/hid/disp/display.h ****     \param on on or off
  73:../../../lib/pd2dsy/libdaisy/src/hid/disp/display.h ****     \param fill fill the rectangle or draw only the outline
  74:../../../lib/pd2dsy/libdaisy/src/hid/disp/display.h ****     */
  75:../../../lib/pd2dsy/libdaisy/src/hid/disp/display.h ****     virtual void DrawRect(uint_fast8_t x1,
  76:../../../lib/pd2dsy/libdaisy/src/hid/disp/display.h ****                           uint_fast8_t y1,
  77:../../../lib/pd2dsy/libdaisy/src/hid/disp/display.h ****                           uint_fast8_t x2,
  78:../../../lib/pd2dsy/libdaisy/src/hid/disp/display.h ****                           uint_fast8_t y2,
  79:../../../lib/pd2dsy/libdaisy/src/hid/disp/display.h ****                           bool         on,
  80:../../../lib/pd2dsy/libdaisy/src/hid/disp/display.h ****                           bool         fill = false)
  81:../../../lib/pd2dsy/libdaisy/src/hid/disp/display.h ****         = 0;
  82:../../../lib/pd2dsy/libdaisy/src/hid/disp/display.h **** 
  83:../../../lib/pd2dsy/libdaisy/src/hid/disp/display.h ****     /**
  84:../../../lib/pd2dsy/libdaisy/src/hid/disp/display.h ****     Draws a rectangle.
  85:../../../lib/pd2dsy/libdaisy/src/hid/disp/display.h ****     \param rect the rectangle
  86:../../../lib/pd2dsy/libdaisy/src/hid/disp/display.h ****     \param on   on or off
  87:../../../lib/pd2dsy/libdaisy/src/hid/disp/display.h ****     \param fill fill the rectangle or draw only the outline
  88:../../../lib/pd2dsy/libdaisy/src/hid/disp/display.h ****     */
  89:../../../lib/pd2dsy/libdaisy/src/hid/disp/display.h ****     void DrawRect(const Rectangle& rect, bool on, bool fill = false)
  90:../../../lib/pd2dsy/libdaisy/src/hid/disp/display.h ****     {
  91:../../../lib/pd2dsy/libdaisy/src/hid/disp/display.h ****         DrawRect(rect.GetX(),
  92:../../../lib/pd2dsy/libdaisy/src/hid/disp/display.h ****                  rect.GetY(),
  93:../../../lib/pd2dsy/libdaisy/src/hid/disp/display.h ****                  rect.GetRight(),
  94:../../../lib/pd2dsy/libdaisy/src/hid/disp/display.h ****                  rect.GetBottom(),
ARM GAS  /var/folders/fb/yfxt3z4538j6z0vjt03w70vc0000gn/T//cc0qjWS6.s 			page 11


  95:../../../lib/pd2dsy/libdaisy/src/hid/disp/display.h ****                  on,
  96:../../../lib/pd2dsy/libdaisy/src/hid/disp/display.h ****                  fill);
  97:../../../lib/pd2dsy/libdaisy/src/hid/disp/display.h ****     }
  98:../../../lib/pd2dsy/libdaisy/src/hid/disp/display.h **** 
  99:../../../lib/pd2dsy/libdaisy/src/hid/disp/display.h ****     /**
 100:../../../lib/pd2dsy/libdaisy/src/hid/disp/display.h ****     Draws an arc around the specified coordinate
 101:../../../lib/pd2dsy/libdaisy/src/hid/disp/display.h ****     \param x           x Coordinate of the center of the arc
 102:../../../lib/pd2dsy/libdaisy/src/hid/disp/display.h ****     \param y           y Coordinate of the center of the arc
 103:../../../lib/pd2dsy/libdaisy/src/hid/disp/display.h ****     \param radius      radius of the arc
 104:../../../lib/pd2dsy/libdaisy/src/hid/disp/display.h ****     \param start_angle angle where to start the arc
 105:../../../lib/pd2dsy/libdaisy/src/hid/disp/display.h ****     \param sweep       total angle of the arc
 106:../../../lib/pd2dsy/libdaisy/src/hid/disp/display.h ****     \param on  on or off
 107:../../../lib/pd2dsy/libdaisy/src/hid/disp/display.h ****     */
 108:../../../lib/pd2dsy/libdaisy/src/hid/disp/display.h ****     virtual void DrawArc(uint_fast8_t x,
 109:../../../lib/pd2dsy/libdaisy/src/hid/disp/display.h ****                          uint_fast8_t y,
 110:../../../lib/pd2dsy/libdaisy/src/hid/disp/display.h ****                          uint_fast8_t radius,
 111:../../../lib/pd2dsy/libdaisy/src/hid/disp/display.h ****                          int_fast16_t start_angle,
 112:../../../lib/pd2dsy/libdaisy/src/hid/disp/display.h ****                          int_fast16_t sweep,
 113:../../../lib/pd2dsy/libdaisy/src/hid/disp/display.h ****                          bool         on)
 114:../../../lib/pd2dsy/libdaisy/src/hid/disp/display.h ****         = 0;
 115:../../../lib/pd2dsy/libdaisy/src/hid/disp/display.h **** 
 116:../../../lib/pd2dsy/libdaisy/src/hid/disp/display.h ****     /**
 117:../../../lib/pd2dsy/libdaisy/src/hid/disp/display.h ****     Draws a circle around the specified coordinate
 118:../../../lib/pd2dsy/libdaisy/src/hid/disp/display.h ****     \param x           x Coordinate of the center of the circle
 119:../../../lib/pd2dsy/libdaisy/src/hid/disp/display.h ****     \param y           y Coordinate of the center of the circle
 120:../../../lib/pd2dsy/libdaisy/src/hid/disp/display.h ****     \param radius      radius of the circle
 121:../../../lib/pd2dsy/libdaisy/src/hid/disp/display.h ****     \param on  on or off
 122:../../../lib/pd2dsy/libdaisy/src/hid/disp/display.h ****     */
 123:../../../lib/pd2dsy/libdaisy/src/hid/disp/display.h ****     void
 124:../../../lib/pd2dsy/libdaisy/src/hid/disp/display.h ****     DrawCircle(uint_fast8_t x, uint_fast8_t y, uint_fast8_t radius, bool on)
 125:../../../lib/pd2dsy/libdaisy/src/hid/disp/display.h ****     {
 126:../../../lib/pd2dsy/libdaisy/src/hid/disp/display.h ****         DrawArc(x, y, radius, 0, 360, on);
 127:../../../lib/pd2dsy/libdaisy/src/hid/disp/display.h ****     };
 128:../../../lib/pd2dsy/libdaisy/src/hid/disp/display.h **** 
 129:../../../lib/pd2dsy/libdaisy/src/hid/disp/display.h ****     /** 
 130:../../../lib/pd2dsy/libdaisy/src/hid/disp/display.h ****     Writes the character with the specific FontDef
 131:../../../lib/pd2dsy/libdaisy/src/hid/disp/display.h ****     to the display buffer at the current Cursor position.
 132:../../../lib/pd2dsy/libdaisy/src/hid/disp/display.h ****     \param ch character to be written
 133:../../../lib/pd2dsy/libdaisy/src/hid/disp/display.h ****     \param font font to be written in
 134:../../../lib/pd2dsy/libdaisy/src/hid/disp/display.h ****     \param on    on or off
 135:../../../lib/pd2dsy/libdaisy/src/hid/disp/display.h ****     \return &
 136:../../../lib/pd2dsy/libdaisy/src/hid/disp/display.h ****     */
 137:../../../lib/pd2dsy/libdaisy/src/hid/disp/display.h ****     virtual char WriteChar(char ch, FontDef font, bool on) = 0;
 138:../../../lib/pd2dsy/libdaisy/src/hid/disp/display.h **** 
 139:../../../lib/pd2dsy/libdaisy/src/hid/disp/display.h ****     /** 
 140:../../../lib/pd2dsy/libdaisy/src/hid/disp/display.h ****     Similar to WriteChar, except it will handle an entire String.
 141:../../../lib/pd2dsy/libdaisy/src/hid/disp/display.h ****     Wrapping does not happen automatically, so the width
 142:../../../lib/pd2dsy/libdaisy/src/hid/disp/display.h ****     of the string must be kept within the dimensions of the screen.
 143:../../../lib/pd2dsy/libdaisy/src/hid/disp/display.h ****     \param str string to be written
 144:../../../lib/pd2dsy/libdaisy/src/hid/disp/display.h ****     \param font font to use
 145:../../../lib/pd2dsy/libdaisy/src/hid/disp/display.h ****     \param on  on or off
 146:../../../lib/pd2dsy/libdaisy/src/hid/disp/display.h ****     \return &
 147:../../../lib/pd2dsy/libdaisy/src/hid/disp/display.h ****     */
 148:../../../lib/pd2dsy/libdaisy/src/hid/disp/display.h ****     virtual char WriteString(const char* str, FontDef font, bool on) = 0;
 149:../../../lib/pd2dsy/libdaisy/src/hid/disp/display.h **** 
 150:../../../lib/pd2dsy/libdaisy/src/hid/disp/display.h ****     /** 
 151:../../../lib/pd2dsy/libdaisy/src/hid/disp/display.h ****     Similar to WriteString but justified within a bounding box.
ARM GAS  /var/folders/fb/yfxt3z4538j6z0vjt03w70vc0000gn/T//cc0qjWS6.s 			page 12


 152:../../../lib/pd2dsy/libdaisy/src/hid/disp/display.h ****     \param str          string to be written
 153:../../../lib/pd2dsy/libdaisy/src/hid/disp/display.h ****     \param font         font to use
 154:../../../lib/pd2dsy/libdaisy/src/hid/disp/display.h ****     \param boundingBox  the bounding box to draw the text in
 155:../../../lib/pd2dsy/libdaisy/src/hid/disp/display.h ****     \param alignment    the alignment to use
 156:../../../lib/pd2dsy/libdaisy/src/hid/disp/display.h ****     \param on           on or off
 157:../../../lib/pd2dsy/libdaisy/src/hid/disp/display.h ****     \return The rectangle that was drawn to
 158:../../../lib/pd2dsy/libdaisy/src/hid/disp/display.h ****     */
 159:../../../lib/pd2dsy/libdaisy/src/hid/disp/display.h ****     virtual Rectangle WriteStringAligned(const char*    str,
 160:../../../lib/pd2dsy/libdaisy/src/hid/disp/display.h ****                                          const FontDef& font,
 161:../../../lib/pd2dsy/libdaisy/src/hid/disp/display.h ****                                          Rectangle      boundingBox,
 162:../../../lib/pd2dsy/libdaisy/src/hid/disp/display.h ****                                          Alignment      alignment,
 163:../../../lib/pd2dsy/libdaisy/src/hid/disp/display.h ****                                          bool           on)
 164:../../../lib/pd2dsy/libdaisy/src/hid/disp/display.h ****         = 0;
 165:../../../lib/pd2dsy/libdaisy/src/hid/disp/display.h **** 
 166:../../../lib/pd2dsy/libdaisy/src/hid/disp/display.h ****     /** 
 167:../../../lib/pd2dsy/libdaisy/src/hid/disp/display.h ****     Moves the 'Cursor' position used for WriteChar, and WriteStr to the specified coordinate.
 168:../../../lib/pd2dsy/libdaisy/src/hid/disp/display.h ****     \param x x pos
 169:../../../lib/pd2dsy/libdaisy/src/hid/disp/display.h ****     \param y y pos
 170:../../../lib/pd2dsy/libdaisy/src/hid/disp/display.h ****     */
 171:../../../lib/pd2dsy/libdaisy/src/hid/disp/display.h ****     void SetCursor(uint16_t x, uint16_t y)
 172:../../../lib/pd2dsy/libdaisy/src/hid/disp/display.h ****     {
 173:../../../lib/pd2dsy/libdaisy/src/hid/disp/display.h ****         currentX_ = (x >= Width()) ? Width() - 1 : x;
 174:../../../lib/pd2dsy/libdaisy/src/hid/disp/display.h ****         currentY_ = (y >= Height()) ? Height() - 1 : y;
 175:../../../lib/pd2dsy/libdaisy/src/hid/disp/display.h ****     }
 176:../../../lib/pd2dsy/libdaisy/src/hid/disp/display.h **** 
 177:../../../lib/pd2dsy/libdaisy/src/hid/disp/display.h ****     /** 
 178:../../../lib/pd2dsy/libdaisy/src/hid/disp/display.h ****     Writes the current display buffer to the OLED device using SPI or I2C depending on 
 179:../../../lib/pd2dsy/libdaisy/src/hid/disp/display.h ****     how the object was initialized.
 180:../../../lib/pd2dsy/libdaisy/src/hid/disp/display.h ****     */
 181:../../../lib/pd2dsy/libdaisy/src/hid/disp/display.h ****     virtual void Update() = 0;
 182:../../../lib/pd2dsy/libdaisy/src/hid/disp/display.h **** 
 183:../../../lib/pd2dsy/libdaisy/src/hid/disp/display.h ****   protected:
 184:../../../lib/pd2dsy/libdaisy/src/hid/disp/display.h ****     uint16_t currentX_;
 185:../../../lib/pd2dsy/libdaisy/src/hid/disp/display.h ****     uint16_t currentY_;
 186:../../../lib/pd2dsy/libdaisy/src/hid/disp/display.h **** };
 187:../../../lib/pd2dsy/libdaisy/src/hid/disp/display.h **** 
 188:../../../lib/pd2dsy/libdaisy/src/hid/disp/display.h **** /** This class is intended as a intermediary class for your actual implementation of the OneBitGrap
 189:../../../lib/pd2dsy/libdaisy/src/hid/disp/display.h ****  *  interface. It uses the CRTP design pattern where the template argument is the child class. It p
 190:../../../lib/pd2dsy/libdaisy/src/hid/disp/display.h ****  *  implementations for most of the functions, except DrawPixel(), Update() and Fill(), which you'l
 191:../../../lib/pd2dsy/libdaisy/src/hid/disp/display.h ****  *  to provide in your child class.
 192:../../../lib/pd2dsy/libdaisy/src/hid/disp/display.h ****  *  The main goal of this class is to provide common drawing functions without relying on massive a
 193:../../../lib/pd2dsy/libdaisy/src/hid/disp/display.h ****  *  virtual function calls that would result in a performance loss. To achieve this, any drawing fu
 194:../../../lib/pd2dsy/libdaisy/src/hid/disp/display.h ****  *  is implemented here and internally calls other drawing functions (e.g. DrawRect() which interna
 195:../../../lib/pd2dsy/libdaisy/src/hid/disp/display.h ****  *  DrawPixel() and DrawLine()) makes these calls via the qualified name of these functions to expl
 196:../../../lib/pd2dsy/libdaisy/src/hid/disp/display.h ****  *  suppress the virtual dispatch mechanism like this:
 197:../../../lib/pd2dsy/libdaisy/src/hid/disp/display.h ****  * 
 198:../../../lib/pd2dsy/libdaisy/src/hid/disp/display.h ****  *      ChildType::DrawPixel(...); // no virtual function call; direct call into the child class fu
 199:../../../lib/pd2dsy/libdaisy/src/hid/disp/display.h ****  *  
 200:../../../lib/pd2dsy/libdaisy/src/hid/disp/display.h ****  *  To create a custom OneBitGraphicsDisplay implementation, you can 
 201:../../../lib/pd2dsy/libdaisy/src/hid/disp/display.h ****  *  A) inherit from OneBitGraphicsDisplay directly and provide all the drawing functions yourself
 202:../../../lib/pd2dsy/libdaisy/src/hid/disp/display.h ****  *  B) Inherit from OneBitGraphicsDisplayImpl and only provide DrawPixel(), Fill() and Update()
 203:../../../lib/pd2dsy/libdaisy/src/hid/disp/display.h ****  *     like this:
 204:../../../lib/pd2dsy/libdaisy/src/hid/disp/display.h ****  *  
 205:../../../lib/pd2dsy/libdaisy/src/hid/disp/display.h ****  *      class MyDisplayClass : public OneBitGraphicsDisplayImpl<MyDisplayClass> 
 206:../../../lib/pd2dsy/libdaisy/src/hid/disp/display.h ****  *      {
 207:../../../lib/pd2dsy/libdaisy/src/hid/disp/display.h ****  *      public:
 208:../../../lib/pd2dsy/libdaisy/src/hid/disp/display.h ****  *          void Fill() override { ... };
ARM GAS  /var/folders/fb/yfxt3z4538j6z0vjt03w70vc0000gn/T//cc0qjWS6.s 			page 13


 209:../../../lib/pd2dsy/libdaisy/src/hid/disp/display.h ****  *          void DrawPixel(uint_fast8_t x, uint_fast8_t y, bool on) override { ... };
 210:../../../lib/pd2dsy/libdaisy/src/hid/disp/display.h ****  *          void Update() override { ... }
 211:../../../lib/pd2dsy/libdaisy/src/hid/disp/display.h ****  *      };
 212:../../../lib/pd2dsy/libdaisy/src/hid/disp/display.h ****  *  
 213:../../../lib/pd2dsy/libdaisy/src/hid/disp/display.h ****  */
 214:../../../lib/pd2dsy/libdaisy/src/hid/disp/display.h **** template <class ChildType>
 215:../../../lib/pd2dsy/libdaisy/src/hid/disp/display.h **** class OneBitGraphicsDisplayImpl : public OneBitGraphicsDisplay
 216:../../../lib/pd2dsy/libdaisy/src/hid/disp/display.h **** {
 217:../../../lib/pd2dsy/libdaisy/src/hid/disp/display.h ****   public:
 218:../../../lib/pd2dsy/libdaisy/src/hid/disp/display.h ****     OneBitGraphicsDisplayImpl() {}
 219:../../../lib/pd2dsy/libdaisy/src/hid/disp/display.h ****     virtual ~OneBitGraphicsDisplayImpl() {}
  98              		.loc 4 219 13 view .LVU10
  99              	.LBB517:
 100              	.LBI517:
  23:../../../lib/pd2dsy/libdaisy/src/hid/disp/display.h **** 
 101              		.loc 4 23 13 view .LVU11
  23:../../../lib/pd2dsy/libdaisy/src/hid/disp/display.h **** 
 102              		.loc 4 23 13 is_stmt 0 view .LVU12
 103              	.LBE517:
 104              	.LBE516:
  18:../../../lib/pd2dsy/libdaisy/src/hid/disp/oled_display.h **** 
 105              		.loc 2 18 29 view .LVU13
 106 0000 7047     		bx	lr
 107              		.cfi_endproc
 108              	.LFE3049:
 110              		.weak	_ZN5daisy11OledDisplayINS_13SSD130xDriverILj128ELj64ENS_24SSD130x4WireSpiTransportEEEED1Ev
 111              		.thumb_set _ZN5daisy11OledDisplayINS_13SSD130xDriverILj128ELj64ENS_24SSD130x4WireSpiTransportEEEED
 112 0002 00BF     		.section	.text._ZN10json2daisy8DaisyPodD2Ev,"axG",%progbits,_ZN10json2daisy8DaisyPodD5Ev,comdat
 113              		.align	1
 114              		.p2align 2,,3
 115              		.weak	_ZN10json2daisy8DaisyPodD2Ev
 116              		.syntax unified
 117              		.thumb
 118              		.thumb_func
 120              	_ZN10json2daisy8DaisyPodD2Ev:
 121              	.LVL6:
 122              	.LFB3069:
 123              		.file 5 "source/HeavyDaisy_daisiSPI.hpp"
   1:source/HeavyDaisy_daisiSPI.hpp **** /*
   2:source/HeavyDaisy_daisiSPI.hpp ****  * MIT License
   3:source/HeavyDaisy_daisiSPI.hpp ****  * 
   4:source/HeavyDaisy_daisiSPI.hpp ****  * Copyright (c) 2021 Electrosmith
   5:source/HeavyDaisy_daisiSPI.hpp ****  * 
   6:source/HeavyDaisy_daisiSPI.hpp ****  * Permission is hereby granted, free of charge, to any person obtaining a copy
   7:source/HeavyDaisy_daisiSPI.hpp ****  * of this software and associated documentation files (the "Software"), to deal
   8:source/HeavyDaisy_daisiSPI.hpp ****  * in the Software without restriction, including without limitation the rights
   9:source/HeavyDaisy_daisiSPI.hpp ****  * to use, copy, modify, merge, publish, distribute, sublicense, and/or sell
  10:source/HeavyDaisy_daisiSPI.hpp ****  * copies of the Software, and to permit persons to whom the Software is
  11:source/HeavyDaisy_daisiSPI.hpp ****  * furnished to do so, subject to the following conditions:
  12:source/HeavyDaisy_daisiSPI.hpp ****  * 
  13:source/HeavyDaisy_daisiSPI.hpp ****  * The above copyright notice and this permission notice shall be included in all
  14:source/HeavyDaisy_daisiSPI.hpp ****  * copies or substantial portions of the Software.
  15:source/HeavyDaisy_daisiSPI.hpp ****  * 
  16:source/HeavyDaisy_daisiSPI.hpp ****  * THE SOFTWARE IS PROVIDED "AS IS", WITHOUT WARRANTY OF ANY KIND, EXPRESS OR
  17:source/HeavyDaisy_daisiSPI.hpp ****  * IMPLIED, INCLUDING BUT NOT LIMITED TO THE WARRANTIES OF MERCHANTABILITY,
  18:source/HeavyDaisy_daisiSPI.hpp ****  * FITNESS FOR A PARTICULAR PURPOSE AND NONINFRINGEMENT. IN NO EVENT SHALL THE
  19:source/HeavyDaisy_daisiSPI.hpp ****  * AUTHORS OR COPYRIGHT HOLDERS BE LIABLE FOR ANY CLAIM, DAMAGES OR OTHER
ARM GAS  /var/folders/fb/yfxt3z4538j6z0vjt03w70vc0000gn/T//cc0qjWS6.s 			page 14


  20:source/HeavyDaisy_daisiSPI.hpp ****  * LIABILITY, WHETHER IN AN ACTION OF CONTRACT, TORT OR OTHERWISE, ARISING FROM,
  21:source/HeavyDaisy_daisiSPI.hpp ****  * OUT OF OR IN CONNECTION WITH THE SOFTWARE OR THE USE OR OTHER DEALINGS IN THE
  22:source/HeavyDaisy_daisiSPI.hpp ****  * SOFTWARE.
  23:source/HeavyDaisy_daisiSPI.hpp ****  * 
  24:source/HeavyDaisy_daisiSPI.hpp ****  */
  25:source/HeavyDaisy_daisiSPI.hpp **** 
  26:source/HeavyDaisy_daisiSPI.hpp **** #ifndef __JSON2DAISY_POD_H__
  27:source/HeavyDaisy_daisiSPI.hpp **** #define __JSON2DAISY_POD_H__
  28:source/HeavyDaisy_daisiSPI.hpp **** 
  29:source/HeavyDaisy_daisiSPI.hpp **** #include "daisy_seed.h"
  30:source/HeavyDaisy_daisiSPI.hpp **** #include "dev/codec_ak4556.h"
  31:source/HeavyDaisy_daisiSPI.hpp **** #include "dev/oled_ssd130x.h"
  32:source/HeavyDaisy_daisiSPI.hpp **** 
  33:source/HeavyDaisy_daisiSPI.hpp **** #define ANALOG_COUNT 2
  34:source/HeavyDaisy_daisiSPI.hpp **** 
  35:source/HeavyDaisy_daisiSPI.hpp **** namespace json2daisy {
  36:source/HeavyDaisy_daisiSPI.hpp **** 
  37:source/HeavyDaisy_daisiSPI.hpp **** 
  38:source/HeavyDaisy_daisiSPI.hpp **** 
  39:source/HeavyDaisy_daisiSPI.hpp **** struct DaisyPod {
 124              		.loc 5 39 8 is_stmt 1 view -0
 125              		.cfi_startproc
 126              		@ args = 0, pretend = 0, frame = 0
 127              		@ frame_needed = 0, uses_anonymous_args = 0
 128              		@ link register save eliminated.
 129              	.LBB518:
 130              	.LBI518:
  18:../../../lib/pd2dsy/libdaisy/src/hid/disp/oled_display.h **** 
 131              		.loc 2 18 13 view .LVU15
 132              	.LBB519:
 133              	.LBI519:
 134              		.loc 4 219 13 view .LVU16
 135              	.LBB520:
 136              	.LBI520:
  23:../../../lib/pd2dsy/libdaisy/src/hid/disp/display.h **** 
 137              		.loc 4 23 13 view .LVU17
  23:../../../lib/pd2dsy/libdaisy/src/hid/disp/display.h **** 
 138              		.loc 4 23 13 is_stmt 0 view .LVU18
 139              	.LBE520:
 140              	.LBE519:
 141              	.LBE518:
 142              	.LBB521:
 143              	.LBI521:
 144              		.file 6 "../../../lib/pd2dsy/libdaisy/src/hid/switch.h"
   1:../../../lib/pd2dsy/libdaisy/src/hid/switch.h **** #pragma once
   2:../../../lib/pd2dsy/libdaisy/src/hid/switch.h **** #ifndef DSY_SWITCH_H
   3:../../../lib/pd2dsy/libdaisy/src/hid/switch.h **** #define DSY_SWITCH_H
   4:../../../lib/pd2dsy/libdaisy/src/hid/switch.h **** #include "daisy_core.h"
   5:../../../lib/pd2dsy/libdaisy/src/hid/switch.h **** #include "per/gpio.h"
   6:../../../lib/pd2dsy/libdaisy/src/hid/switch.h **** #include "sys/system.h"
   7:../../../lib/pd2dsy/libdaisy/src/hid/switch.h **** 
   8:../../../lib/pd2dsy/libdaisy/src/hid/switch.h **** namespace daisy
   9:../../../lib/pd2dsy/libdaisy/src/hid/switch.h **** {
  10:../../../lib/pd2dsy/libdaisy/src/hid/switch.h **** /** 
  11:../../../lib/pd2dsy/libdaisy/src/hid/switch.h ****     Generic Class for handling momentary/latching switches \n 
  12:../../../lib/pd2dsy/libdaisy/src/hid/switch.h ****     Inspired/influenced by Mutable Instruments (pichenettes) Switch classes
  13:../../../lib/pd2dsy/libdaisy/src/hid/switch.h ****     @author Stephen Hensley
ARM GAS  /var/folders/fb/yfxt3z4538j6z0vjt03w70vc0000gn/T//cc0qjWS6.s 			page 15


  14:../../../lib/pd2dsy/libdaisy/src/hid/switch.h ****     @date December 2019
  15:../../../lib/pd2dsy/libdaisy/src/hid/switch.h ****     @ingroup controls
  16:../../../lib/pd2dsy/libdaisy/src/hid/switch.h **** */
  17:../../../lib/pd2dsy/libdaisy/src/hid/switch.h **** class Switch
  18:../../../lib/pd2dsy/libdaisy/src/hid/switch.h **** {
  19:../../../lib/pd2dsy/libdaisy/src/hid/switch.h ****   public:
  20:../../../lib/pd2dsy/libdaisy/src/hid/switch.h ****     /** Specifies the expected behavior of the switch */
  21:../../../lib/pd2dsy/libdaisy/src/hid/switch.h ****     enum Type
  22:../../../lib/pd2dsy/libdaisy/src/hid/switch.h ****     {
  23:../../../lib/pd2dsy/libdaisy/src/hid/switch.h ****         TYPE_TOGGLE,    /**< & */
  24:../../../lib/pd2dsy/libdaisy/src/hid/switch.h ****         TYPE_MOMENTARY, /**< & */
  25:../../../lib/pd2dsy/libdaisy/src/hid/switch.h ****     };
  26:../../../lib/pd2dsy/libdaisy/src/hid/switch.h ****     /** Specifies whether the pressed is HIGH or LOW. */
  27:../../../lib/pd2dsy/libdaisy/src/hid/switch.h ****     enum Polarity
  28:../../../lib/pd2dsy/libdaisy/src/hid/switch.h ****     {
  29:../../../lib/pd2dsy/libdaisy/src/hid/switch.h ****         POLARITY_NORMAL,   /**< & */
  30:../../../lib/pd2dsy/libdaisy/src/hid/switch.h ****         POLARITY_INVERTED, /**< & */
  31:../../../lib/pd2dsy/libdaisy/src/hid/switch.h ****     };
  32:../../../lib/pd2dsy/libdaisy/src/hid/switch.h **** 
  33:../../../lib/pd2dsy/libdaisy/src/hid/switch.h ****     /** Specifies whether to use built-in Pull Up/Down resistors to hold button at a given state wh
  34:../../../lib/pd2dsy/libdaisy/src/hid/switch.h ****     enum Pull
  35:../../../lib/pd2dsy/libdaisy/src/hid/switch.h ****     {
  36:../../../lib/pd2dsy/libdaisy/src/hid/switch.h ****         PULL_UP,   /**< & */
  37:../../../lib/pd2dsy/libdaisy/src/hid/switch.h ****         PULL_DOWN, /**< & */
  38:../../../lib/pd2dsy/libdaisy/src/hid/switch.h ****         PULL_NONE, /**< & */
  39:../../../lib/pd2dsy/libdaisy/src/hid/switch.h ****     };
  40:../../../lib/pd2dsy/libdaisy/src/hid/switch.h **** 
  41:../../../lib/pd2dsy/libdaisy/src/hid/switch.h ****     Switch() {}
  42:../../../lib/pd2dsy/libdaisy/src/hid/switch.h ****     ~Switch() {}
 145              		.loc 6 42 5 is_stmt 1 view .LVU19
 146              		.loc 6 42 5 is_stmt 0 view .LVU20
 147              	.LBE521:
 148              	.LBB522:
 149              	.LBI522:
 150              		.loc 6 42 5 is_stmt 1 view .LVU21
 151              		.loc 6 42 5 is_stmt 0 view .LVU22
 152              	.LBE522:
 153              	.LBB523:
 154              	.LBI523:
 155              		.file 7 "../../../lib/pd2dsy/libdaisy/src/hid/rgb_led.h"
   1:../../../lib/pd2dsy/libdaisy/src/hid/rgb_led.h **** #pragma once
   2:../../../lib/pd2dsy/libdaisy/src/hid/rgb_led.h **** #ifndef DSY_RGB_LED_H
   3:../../../lib/pd2dsy/libdaisy/src/hid/rgb_led.h **** #define DSY_RGB_LED_H
   4:../../../lib/pd2dsy/libdaisy/src/hid/rgb_led.h **** #include "hid/led.h"
   5:../../../lib/pd2dsy/libdaisy/src/hid/rgb_led.h **** #include "util/color.h"
   6:../../../lib/pd2dsy/libdaisy/src/hid/rgb_led.h **** 
   7:../../../lib/pd2dsy/libdaisy/src/hid/rgb_led.h **** namespace daisy
   8:../../../lib/pd2dsy/libdaisy/src/hid/rgb_led.h **** {
   9:../../../lib/pd2dsy/libdaisy/src/hid/rgb_led.h **** /** @addtogroup feedback
  10:../../../lib/pd2dsy/libdaisy/src/hid/rgb_led.h ****     @{
  11:../../../lib/pd2dsy/libdaisy/src/hid/rgb_led.h **** */
  12:../../../lib/pd2dsy/libdaisy/src/hid/rgb_led.h **** 
  13:../../../lib/pd2dsy/libdaisy/src/hid/rgb_led.h **** /** 3x LEDs configured as an RGB for ease of use. */
  14:../../../lib/pd2dsy/libdaisy/src/hid/rgb_led.h **** class RgbLed
  15:../../../lib/pd2dsy/libdaisy/src/hid/rgb_led.h **** {
  16:../../../lib/pd2dsy/libdaisy/src/hid/rgb_led.h ****   public:
  17:../../../lib/pd2dsy/libdaisy/src/hid/rgb_led.h ****     RgbLed() {}
ARM GAS  /var/folders/fb/yfxt3z4538j6z0vjt03w70vc0000gn/T//cc0qjWS6.s 			page 16


  18:../../../lib/pd2dsy/libdaisy/src/hid/rgb_led.h ****     ~RgbLed() {}
 156              		.loc 7 18 5 is_stmt 1 view .LVU23
 157              	.LBB524:
 158              	.LBI524:
 159              		.file 8 "../../../lib/pd2dsy/libdaisy/src/hid/led.h"
   1:../../../lib/pd2dsy/libdaisy/src/hid/led.h **** 
   2:../../../lib/pd2dsy/libdaisy/src/hid/led.h **** #pragma once
   3:../../../lib/pd2dsy/libdaisy/src/hid/led.h **** #ifndef DSY_LED_H
   4:../../../lib/pd2dsy/libdaisy/src/hid/led.h **** #define DSY_LED_H
   5:../../../lib/pd2dsy/libdaisy/src/hid/led.h **** #include "daisy_core.h"
   6:../../../lib/pd2dsy/libdaisy/src/hid/led.h **** #include "per/gpio.h"
   7:../../../lib/pd2dsy/libdaisy/src/hid/led.h **** 
   8:../../../lib/pd2dsy/libdaisy/src/hid/led.h **** /* TODO - Get this set up to work with the dev_leddriver stuff as well
   9:../../../lib/pd2dsy/libdaisy/src/hid/led.h **** - Setup Hardware PWM for pins that have it
  10:../../../lib/pd2dsy/libdaisy/src/hid/led.h **** */
  11:../../../lib/pd2dsy/libdaisy/src/hid/led.h **** 
  12:../../../lib/pd2dsy/libdaisy/src/hid/led.h **** namespace daisy
  13:../../../lib/pd2dsy/libdaisy/src/hid/led.h **** {
  14:../../../lib/pd2dsy/libdaisy/src/hid/led.h **** /**
  15:../../../lib/pd2dsy/libdaisy/src/hid/led.h ****     @brief LED Class providing simple Software PWM ability, etc \n 
  16:../../../lib/pd2dsy/libdaisy/src/hid/led.h ****     Eventually this will work with hardware PWM, and external LED Driver devices as well.
  17:../../../lib/pd2dsy/libdaisy/src/hid/led.h ****     @author shensley
  18:../../../lib/pd2dsy/libdaisy/src/hid/led.h ****     @date March 2020
  19:../../../lib/pd2dsy/libdaisy/src/hid/led.h ****     @ingroup feedback
  20:../../../lib/pd2dsy/libdaisy/src/hid/led.h **** */
  21:../../../lib/pd2dsy/libdaisy/src/hid/led.h **** class Led
  22:../../../lib/pd2dsy/libdaisy/src/hid/led.h **** {
  23:../../../lib/pd2dsy/libdaisy/src/hid/led.h ****   public:
  24:../../../lib/pd2dsy/libdaisy/src/hid/led.h ****     Led() {}
  25:../../../lib/pd2dsy/libdaisy/src/hid/led.h ****     ~Led() {}
 160              		.loc 8 25 5 view .LVU24
 161              		.loc 8 25 5 is_stmt 0 view .LVU25
 162              	.LBE524:
 163              	.LBB525:
 164              	.LBI525:
 165              		.loc 8 25 5 is_stmt 1 view .LVU26
 166              		.loc 8 25 5 is_stmt 0 view .LVU27
 167              	.LBE525:
 168              	.LBB526:
 169              	.LBI526:
 170              		.loc 8 25 5 is_stmt 1 view .LVU28
 171              		.loc 8 25 5 is_stmt 0 view .LVU29
 172              	.LBE526:
 173              	.LBE523:
 174              	.LBB527:
 175              	.LBI527:
 176              		.loc 7 18 5 is_stmt 1 view .LVU30
 177              	.LBB528:
 178              	.LBI528:
 179              		.loc 8 25 5 view .LVU31
 180              		.loc 8 25 5 is_stmt 0 view .LVU32
 181              	.LBE528:
 182              	.LBB529:
 183              	.LBI529:
 184              		.loc 8 25 5 is_stmt 1 view .LVU33
 185              		.loc 8 25 5 is_stmt 0 view .LVU34
 186              	.LBE529:
ARM GAS  /var/folders/fb/yfxt3z4538j6z0vjt03w70vc0000gn/T//cc0qjWS6.s 			page 17


 187              	.LBB530:
 188              	.LBI530:
 189              		.loc 8 25 5 is_stmt 1 view .LVU35
 190              		.loc 8 25 5 is_stmt 0 view .LVU36
 191              	.LBE530:
 192              	.LBE527:
 193              	.LBB531:
 194              	.LBI531:
 195              		.file 9 "../../../lib/pd2dsy/libdaisy/src/hid/encoder.h"
   1:../../../lib/pd2dsy/libdaisy/src/hid/encoder.h **** #pragma once
   2:../../../lib/pd2dsy/libdaisy/src/hid/encoder.h **** #ifndef DSY_ENCODER_H
   3:../../../lib/pd2dsy/libdaisy/src/hid/encoder.h **** #define DSY_ENCODER_H
   4:../../../lib/pd2dsy/libdaisy/src/hid/encoder.h **** #include "daisy_core.h"
   5:../../../lib/pd2dsy/libdaisy/src/hid/encoder.h **** #include "per/gpio.h"
   6:../../../lib/pd2dsy/libdaisy/src/hid/encoder.h **** #include "hid/switch.h"
   7:../../../lib/pd2dsy/libdaisy/src/hid/encoder.h **** 
   8:../../../lib/pd2dsy/libdaisy/src/hid/encoder.h **** namespace daisy
   9:../../../lib/pd2dsy/libdaisy/src/hid/encoder.h **** {
  10:../../../lib/pd2dsy/libdaisy/src/hid/encoder.h **** /** 
  11:../../../lib/pd2dsy/libdaisy/src/hid/encoder.h ****     @brief Generic Class for handling Quadrature Encoders \n 
  12:../../../lib/pd2dsy/libdaisy/src/hid/encoder.h ****     Inspired/influenced by Mutable Instruments (pichenettes) Encoder classes
  13:../../../lib/pd2dsy/libdaisy/src/hid/encoder.h ****     @author Stephen Hensley
  14:../../../lib/pd2dsy/libdaisy/src/hid/encoder.h ****     @date December 2019
  15:../../../lib/pd2dsy/libdaisy/src/hid/encoder.h ****     @ingroup controls
  16:../../../lib/pd2dsy/libdaisy/src/hid/encoder.h **** */
  17:../../../lib/pd2dsy/libdaisy/src/hid/encoder.h **** class Encoder
  18:../../../lib/pd2dsy/libdaisy/src/hid/encoder.h **** {
  19:../../../lib/pd2dsy/libdaisy/src/hid/encoder.h ****   public:
  20:../../../lib/pd2dsy/libdaisy/src/hid/encoder.h ****     Encoder() {}
  21:../../../lib/pd2dsy/libdaisy/src/hid/encoder.h ****     ~Encoder() {}
 196              		.loc 9 21 5 is_stmt 1 view .LVU37
 197              	.LBB532:
 198              	.LBI532:
 199              		.loc 6 42 5 view .LVU38
 200              		.loc 6 42 5 is_stmt 0 view .LVU39
 201              	.LBE532:
 202              	.LBE531:
 203              	.LBB533:
 204              	.LBI533:
 205              		.file 10 "../../../lib/pd2dsy/libdaisy/src/hid/ctrl.h"
   1:../../../lib/pd2dsy/libdaisy/src/hid/ctrl.h **** #pragma once
   2:../../../lib/pd2dsy/libdaisy/src/hid/ctrl.h **** #ifndef DSY_KNOB_H
   3:../../../lib/pd2dsy/libdaisy/src/hid/ctrl.h **** #define DSY_KNOB_H /**< & */
   4:../../../lib/pd2dsy/libdaisy/src/hid/ctrl.h **** #include <stdint.h>
   5:../../../lib/pd2dsy/libdaisy/src/hid/ctrl.h **** 
   6:../../../lib/pd2dsy/libdaisy/src/hid/ctrl.h **** #ifdef __cplusplus
   7:../../../lib/pd2dsy/libdaisy/src/hid/ctrl.h **** namespace daisy
   8:../../../lib/pd2dsy/libdaisy/src/hid/ctrl.h **** {
   9:../../../lib/pd2dsy/libdaisy/src/hid/ctrl.h **** /**
  10:../../../lib/pd2dsy/libdaisy/src/hid/ctrl.h ****     @brief Hardware Interface for control inputs \n 
  11:../../../lib/pd2dsy/libdaisy/src/hid/ctrl.h ****     Primarily designed for ADC input controls such as \n 
  12:../../../lib/pd2dsy/libdaisy/src/hid/ctrl.h ****     potentiometers, and control voltage. \n 
  13:../../../lib/pd2dsy/libdaisy/src/hid/ctrl.h ****     @author Stephen Hensley
  14:../../../lib/pd2dsy/libdaisy/src/hid/ctrl.h ****     @date November 2019
  15:../../../lib/pd2dsy/libdaisy/src/hid/ctrl.h ****     @ingroup controls
  16:../../../lib/pd2dsy/libdaisy/src/hid/ctrl.h **** */
  17:../../../lib/pd2dsy/libdaisy/src/hid/ctrl.h **** class AnalogControl
ARM GAS  /var/folders/fb/yfxt3z4538j6z0vjt03w70vc0000gn/T//cc0qjWS6.s 			page 18


  18:../../../lib/pd2dsy/libdaisy/src/hid/ctrl.h **** {
  19:../../../lib/pd2dsy/libdaisy/src/hid/ctrl.h ****   public:
  20:../../../lib/pd2dsy/libdaisy/src/hid/ctrl.h ****     /** Constructor */
  21:../../../lib/pd2dsy/libdaisy/src/hid/ctrl.h ****     AnalogControl() {}
  22:../../../lib/pd2dsy/libdaisy/src/hid/ctrl.h ****     /** destructor */
  23:../../../lib/pd2dsy/libdaisy/src/hid/ctrl.h ****     ~AnalogControl() {}
 206              		.loc 10 23 5 is_stmt 1 view .LVU40
 207              		.loc 10 23 5 is_stmt 0 view .LVU41
 208              	.LBE533:
 209              	.LBB534:
 210              	.LBI534:
 211              		.loc 10 23 5 is_stmt 1 view .LVU42
 212              		.loc 10 23 5 is_stmt 0 view .LVU43
 213              	.LBE534:
 214              	.LBB535:
 215              	.LBI535:
 216              		.file 11 "../../../lib/pd2dsy/libdaisy/src/daisy_seed.h"
   1:../../../lib/pd2dsy/libdaisy/src/daisy_seed.h **** #pragma once
   2:../../../lib/pd2dsy/libdaisy/src/daisy_seed.h **** #ifndef DSY_SEED_H
   3:../../../lib/pd2dsy/libdaisy/src/daisy_seed.h **** #define DSY_SEED_H
   4:../../../lib/pd2dsy/libdaisy/src/daisy_seed.h **** 
   5:../../../lib/pd2dsy/libdaisy/src/daisy_seed.h **** #include "daisy.h"
   6:../../../lib/pd2dsy/libdaisy/src/daisy_seed.h **** 
   7:../../../lib/pd2dsy/libdaisy/src/daisy_seed.h **** //Uncomment this out if you're still using the rev2 hardware
   8:../../../lib/pd2dsy/libdaisy/src/daisy_seed.h **** //#define SEED_REV2
   9:../../../lib/pd2dsy/libdaisy/src/daisy_seed.h **** 
  10:../../../lib/pd2dsy/libdaisy/src/daisy_seed.h **** namespace daisy
  11:../../../lib/pd2dsy/libdaisy/src/daisy_seed.h **** {
  12:../../../lib/pd2dsy/libdaisy/src/daisy_seed.h **** /**
  13:../../../lib/pd2dsy/libdaisy/src/daisy_seed.h ****    @brief This is the higher-level interface for the Daisy board. \n 
  14:../../../lib/pd2dsy/libdaisy/src/daisy_seed.h ****     All basic peripheral configuration/initialization is setup here. \n
  15:../../../lib/pd2dsy/libdaisy/src/daisy_seed.h **** 
  16:../../../lib/pd2dsy/libdaisy/src/daisy_seed.h ****    @ingroup boards
  17:../../../lib/pd2dsy/libdaisy/src/daisy_seed.h **** */
  18:../../../lib/pd2dsy/libdaisy/src/daisy_seed.h **** class DaisySeed
  19:../../../lib/pd2dsy/libdaisy/src/daisy_seed.h **** {
  20:../../../lib/pd2dsy/libdaisy/src/daisy_seed.h ****   public:
  21:../../../lib/pd2dsy/libdaisy/src/daisy_seed.h ****     DaisySeed() {}
  22:../../../lib/pd2dsy/libdaisy/src/daisy_seed.h ****     ~DaisySeed() {}
 217              		.loc 11 22 5 is_stmt 1 view .LVU44
 218              	.LBB536:
 219              	.LBI536:
 220              		.file 12 "../../../lib/pd2dsy/libdaisy/src/sys/system.h"
   1:../../../lib/pd2dsy/libdaisy/src/sys/system.h **** #ifndef DSY_SYSTEM_H
   2:../../../lib/pd2dsy/libdaisy/src/sys/system.h **** #define DSY_SYSTEM_H
   3:../../../lib/pd2dsy/libdaisy/src/sys/system.h **** 
   4:../../../lib/pd2dsy/libdaisy/src/sys/system.h **** #ifndef UNIT_TEST // for unit tests, a dummy implementation is provided below
   5:../../../lib/pd2dsy/libdaisy/src/sys/system.h **** 
   6:../../../lib/pd2dsy/libdaisy/src/sys/system.h **** #include <cstdint>
   7:../../../lib/pd2dsy/libdaisy/src/sys/system.h **** #include "per/tim.h"
   8:../../../lib/pd2dsy/libdaisy/src/sys/system.h **** 
   9:../../../lib/pd2dsy/libdaisy/src/sys/system.h **** namespace daisy
  10:../../../lib/pd2dsy/libdaisy/src/sys/system.h **** {
  11:../../../lib/pd2dsy/libdaisy/src/sys/system.h **** /** A handle for interacting with the Core System. 
  12:../../../lib/pd2dsy/libdaisy/src/sys/system.h ****  ** This includes the Clock tree, MPU, global DMA initialization,
  13:../../../lib/pd2dsy/libdaisy/src/sys/system.h ****  ** cache handling, and any other necessary global initiailzation
  14:../../../lib/pd2dsy/libdaisy/src/sys/system.h ****  **
ARM GAS  /var/folders/fb/yfxt3z4538j6z0vjt03w70vc0000gn/T//cc0qjWS6.s 			page 19


  15:../../../lib/pd2dsy/libdaisy/src/sys/system.h ****  ** @author shensley
  16:../../../lib/pd2dsy/libdaisy/src/sys/system.h ****  ** @ingroup system
  17:../../../lib/pd2dsy/libdaisy/src/sys/system.h ****  */
  18:../../../lib/pd2dsy/libdaisy/src/sys/system.h **** class System
  19:../../../lib/pd2dsy/libdaisy/src/sys/system.h **** {
  20:../../../lib/pd2dsy/libdaisy/src/sys/system.h ****   public:
  21:../../../lib/pd2dsy/libdaisy/src/sys/system.h ****     /** Contains settings for initializing the System */
  22:../../../lib/pd2dsy/libdaisy/src/sys/system.h ****     struct Config
  23:../../../lib/pd2dsy/libdaisy/src/sys/system.h ****     {
  24:../../../lib/pd2dsy/libdaisy/src/sys/system.h ****         /** Specifies the system clock frequency that feeds APB/AHB clocks, etc. */
  25:../../../lib/pd2dsy/libdaisy/src/sys/system.h ****         enum class SysClkFreq
  26:../../../lib/pd2dsy/libdaisy/src/sys/system.h ****         {
  27:../../../lib/pd2dsy/libdaisy/src/sys/system.h ****             FREQ_400MHZ,
  28:../../../lib/pd2dsy/libdaisy/src/sys/system.h ****             FREQ_480MHZ,
  29:../../../lib/pd2dsy/libdaisy/src/sys/system.h ****         };
  30:../../../lib/pd2dsy/libdaisy/src/sys/system.h **** 
  31:../../../lib/pd2dsy/libdaisy/src/sys/system.h ****         /** Method to call on the struct to set to defaults
  32:../../../lib/pd2dsy/libdaisy/src/sys/system.h ****          ** CPU Freq set to 400MHz
  33:../../../lib/pd2dsy/libdaisy/src/sys/system.h ****          ** Cache Enabled 
  34:../../../lib/pd2dsy/libdaisy/src/sys/system.h ****          ** */
  35:../../../lib/pd2dsy/libdaisy/src/sys/system.h ****         void Defaults()
  36:../../../lib/pd2dsy/libdaisy/src/sys/system.h ****         {
  37:../../../lib/pd2dsy/libdaisy/src/sys/system.h ****             cpu_freq    = SysClkFreq::FREQ_400MHZ;
  38:../../../lib/pd2dsy/libdaisy/src/sys/system.h ****             use_dcache  = true;
  39:../../../lib/pd2dsy/libdaisy/src/sys/system.h ****             use_icache  = true;
  40:../../../lib/pd2dsy/libdaisy/src/sys/system.h ****             skip_clocks = false;
  41:../../../lib/pd2dsy/libdaisy/src/sys/system.h ****         }
  42:../../../lib/pd2dsy/libdaisy/src/sys/system.h **** 
  43:../../../lib/pd2dsy/libdaisy/src/sys/system.h ****         /** Method to call on the struct to set to boost mode:
  44:../../../lib/pd2dsy/libdaisy/src/sys/system.h ****          ** CPU Freq set to 480MHz
  45:../../../lib/pd2dsy/libdaisy/src/sys/system.h ****          ** Cache Enabled 
  46:../../../lib/pd2dsy/libdaisy/src/sys/system.h ****          ** */
  47:../../../lib/pd2dsy/libdaisy/src/sys/system.h ****         void Boost()
  48:../../../lib/pd2dsy/libdaisy/src/sys/system.h ****         {
  49:../../../lib/pd2dsy/libdaisy/src/sys/system.h ****             cpu_freq    = SysClkFreq::FREQ_480MHZ;
  50:../../../lib/pd2dsy/libdaisy/src/sys/system.h ****             use_dcache  = true;
  51:../../../lib/pd2dsy/libdaisy/src/sys/system.h ****             use_icache  = true;
  52:../../../lib/pd2dsy/libdaisy/src/sys/system.h ****             skip_clocks = false;
  53:../../../lib/pd2dsy/libdaisy/src/sys/system.h ****         }
  54:../../../lib/pd2dsy/libdaisy/src/sys/system.h **** 
  55:../../../lib/pd2dsy/libdaisy/src/sys/system.h ****         SysClkFreq cpu_freq;
  56:../../../lib/pd2dsy/libdaisy/src/sys/system.h ****         bool       use_dcache;
  57:../../../lib/pd2dsy/libdaisy/src/sys/system.h ****         bool       use_icache;
  58:../../../lib/pd2dsy/libdaisy/src/sys/system.h ****         bool       skip_clocks;
  59:../../../lib/pd2dsy/libdaisy/src/sys/system.h ****     };
  60:../../../lib/pd2dsy/libdaisy/src/sys/system.h **** 
  61:../../../lib/pd2dsy/libdaisy/src/sys/system.h ****     /** Describes the different regions of memory available to the Daisy
  62:../../../lib/pd2dsy/libdaisy/src/sys/system.h ****      * 
  63:../../../lib/pd2dsy/libdaisy/src/sys/system.h ****      */
  64:../../../lib/pd2dsy/libdaisy/src/sys/system.h ****     enum MemoryRegion
  65:../../../lib/pd2dsy/libdaisy/src/sys/system.h ****     {
  66:../../../lib/pd2dsy/libdaisy/src/sys/system.h ****         INTERNAL_FLASH = 0,
  67:../../../lib/pd2dsy/libdaisy/src/sys/system.h ****         ITCMRAM,
  68:../../../lib/pd2dsy/libdaisy/src/sys/system.h ****         DTCMRAM,
  69:../../../lib/pd2dsy/libdaisy/src/sys/system.h ****         SRAM_D1,
  70:../../../lib/pd2dsy/libdaisy/src/sys/system.h ****         SRAM_D2,
  71:../../../lib/pd2dsy/libdaisy/src/sys/system.h ****         SRAM_D3,
ARM GAS  /var/folders/fb/yfxt3z4538j6z0vjt03w70vc0000gn/T//cc0qjWS6.s 			page 20


  72:../../../lib/pd2dsy/libdaisy/src/sys/system.h ****         SDRAM,
  73:../../../lib/pd2dsy/libdaisy/src/sys/system.h ****         QSPI,
  74:../../../lib/pd2dsy/libdaisy/src/sys/system.h ****         INVALID_ADDRESS,
  75:../../../lib/pd2dsy/libdaisy/src/sys/system.h ****     };
  76:../../../lib/pd2dsy/libdaisy/src/sys/system.h **** 
  77:../../../lib/pd2dsy/libdaisy/src/sys/system.h ****     System() {}
  78:../../../lib/pd2dsy/libdaisy/src/sys/system.h ****     ~System() {}
 221              		.loc 12 78 5 view .LVU45
 222              		.loc 12 78 5 is_stmt 0 view .LVU46
 223              	.LBE536:
 224              	.LBB537:
 225              	.LBI537:
 226              		.file 13 "../../../lib/pd2dsy/libdaisy/src/hid/usb.h"
   1:../../../lib/pd2dsy/libdaisy/src/hid/usb.h **** #pragma once
   2:../../../lib/pd2dsy/libdaisy/src/hid/usb.h **** #ifndef DSY_HID_USB_H
   3:../../../lib/pd2dsy/libdaisy/src/hid/usb.h **** #define DSY_HID_USB_H
   4:../../../lib/pd2dsy/libdaisy/src/hid/usb.h **** #include <stdint.h>
   5:../../../lib/pd2dsy/libdaisy/src/hid/usb.h **** #include <stdlib.h>
   6:../../../lib/pd2dsy/libdaisy/src/hid/usb.h **** 
   7:../../../lib/pd2dsy/libdaisy/src/hid/usb.h **** namespace daisy
   8:../../../lib/pd2dsy/libdaisy/src/hid/usb.h **** /** @addtogroup human_interface
   9:../../../lib/pd2dsy/libdaisy/src/hid/usb.h ****     @{
  10:../../../lib/pd2dsy/libdaisy/src/hid/usb.h **** */
  11:../../../lib/pd2dsy/libdaisy/src/hid/usb.h **** 
  12:../../../lib/pd2dsy/libdaisy/src/hid/usb.h **** {
  13:../../../lib/pd2dsy/libdaisy/src/hid/usb.h **** /** 
  14:../../../lib/pd2dsy/libdaisy/src/hid/usb.h ****     @brief Interface for initializing and using the USB Peripherals on the daisy
  15:../../../lib/pd2dsy/libdaisy/src/hid/usb.h ****     @author Stephen Hensley
  16:../../../lib/pd2dsy/libdaisy/src/hid/usb.h ****     @date December 2019
  17:../../../lib/pd2dsy/libdaisy/src/hid/usb.h **** */
  18:../../../lib/pd2dsy/libdaisy/src/hid/usb.h **** class UsbHandle
  19:../../../lib/pd2dsy/libdaisy/src/hid/usb.h **** {
  20:../../../lib/pd2dsy/libdaisy/src/hid/usb.h ****   public:
  21:../../../lib/pd2dsy/libdaisy/src/hid/usb.h ****     /** Return values for USBHandle Functions */
  22:../../../lib/pd2dsy/libdaisy/src/hid/usb.h ****     enum class Result
  23:../../../lib/pd2dsy/libdaisy/src/hid/usb.h ****     {
  24:../../../lib/pd2dsy/libdaisy/src/hid/usb.h ****         OK,
  25:../../../lib/pd2dsy/libdaisy/src/hid/usb.h ****         ERR,
  26:../../../lib/pd2dsy/libdaisy/src/hid/usb.h ****     };
  27:../../../lib/pd2dsy/libdaisy/src/hid/usb.h **** 
  28:../../../lib/pd2dsy/libdaisy/src/hid/usb.h ****     /** Specified which of the two USB Peripherals to initialize. */
  29:../../../lib/pd2dsy/libdaisy/src/hid/usb.h ****     enum UsbPeriph
  30:../../../lib/pd2dsy/libdaisy/src/hid/usb.h ****     {
  31:../../../lib/pd2dsy/libdaisy/src/hid/usb.h ****         FS_INTERNAL, /**< Internal pin */
  32:../../../lib/pd2dsy/libdaisy/src/hid/usb.h ****         FS_EXTERNAL, /**< FS External D+ pin is Pin 38 (GPIO32). FS External D- pin is Pin 37 (GPIO
  33:../../../lib/pd2dsy/libdaisy/src/hid/usb.h ****         FS_BOTH,     /**< Both */
  34:../../../lib/pd2dsy/libdaisy/src/hid/usb.h ****     };
  35:../../../lib/pd2dsy/libdaisy/src/hid/usb.h **** 
  36:../../../lib/pd2dsy/libdaisy/src/hid/usb.h **** 
  37:../../../lib/pd2dsy/libdaisy/src/hid/usb.h ****     /** Function called upon reception of a buffer */
  38:../../../lib/pd2dsy/libdaisy/src/hid/usb.h ****     typedef void (*ReceiveCallback)(uint8_t* buff, uint32_t* len);
  39:../../../lib/pd2dsy/libdaisy/src/hid/usb.h **** 
  40:../../../lib/pd2dsy/libdaisy/src/hid/usb.h ****     UsbHandle() {}
  41:../../../lib/pd2dsy/libdaisy/src/hid/usb.h **** 
  42:../../../lib/pd2dsy/libdaisy/src/hid/usb.h ****     ~UsbHandle() {}
 227              		.loc 13 42 5 is_stmt 1 view .LVU47
 228              		.loc 13 42 5 is_stmt 0 view .LVU48
ARM GAS  /var/folders/fb/yfxt3z4538j6z0vjt03w70vc0000gn/T//cc0qjWS6.s 			page 21


 229              	.LBE537:
 230              	.LBB538:
 231              	.LBI538:
 232              		.file 14 "../../../lib/pd2dsy/libdaisy/src/per/adc.h"
   1:../../../lib/pd2dsy/libdaisy/src/per/adc.h **** #pragma once
   2:../../../lib/pd2dsy/libdaisy/src/per/adc.h **** #ifndef DSY_ADC_H
   3:../../../lib/pd2dsy/libdaisy/src/per/adc.h **** #define DSY_ADC_H /**< Macro */
   4:../../../lib/pd2dsy/libdaisy/src/per/adc.h **** #include <stdint.h>
   5:../../../lib/pd2dsy/libdaisy/src/per/adc.h **** #include <stdlib.h>
   6:../../../lib/pd2dsy/libdaisy/src/per/adc.h **** #include "daisy_core.h"
   7:../../../lib/pd2dsy/libdaisy/src/per/adc.h **** #include "per/gpio.h"
   8:../../../lib/pd2dsy/libdaisy/src/per/adc.h **** 
   9:../../../lib/pd2dsy/libdaisy/src/per/adc.h **** #define DSY_ADC_MAX_CHANNELS 16 /**< Maximum number of ADC channels */
  10:../../../lib/pd2dsy/libdaisy/src/per/adc.h **** 
  11:../../../lib/pd2dsy/libdaisy/src/per/adc.h **** namespace daisy
  12:../../../lib/pd2dsy/libdaisy/src/per/adc.h **** {
  13:../../../lib/pd2dsy/libdaisy/src/per/adc.h **** /** @addtogroup per_analog
  14:../../../lib/pd2dsy/libdaisy/src/per/adc.h ****     @{
  15:../../../lib/pd2dsy/libdaisy/src/per/adc.h **** */
  16:../../../lib/pd2dsy/libdaisy/src/per/adc.h **** 
  17:../../../lib/pd2dsy/libdaisy/src/per/adc.h **** /* While there may not be many configuration options here,
  18:../../../lib/pd2dsy/libdaisy/src/per/adc.h **** using a struct like this allows us to add more configuration
  19:../../../lib/pd2dsy/libdaisy/src/per/adc.h **** later without breaking existing functionality.
  20:../../../lib/pd2dsy/libdaisy/src/per/adc.h **** */
  21:../../../lib/pd2dsy/libdaisy/src/per/adc.h **** 
  22:../../../lib/pd2dsy/libdaisy/src/per/adc.h **** /** @brief   Configuration Structure for an ADC Channel 
  23:../../../lib/pd2dsy/libdaisy/src/per/adc.h ****  *  @details This can be used to configure a a single input, 
  24:../../../lib/pd2dsy/libdaisy/src/per/adc.h ****  *           or a multiplexed input, allowing up to 8 inputs on 
  25:../../../lib/pd2dsy/libdaisy/src/per/adc.h ****  *           one channel.
  26:../../../lib/pd2dsy/libdaisy/src/per/adc.h ****  *  @note    Sharing data lines to multiple muxes _is_ possible, but
  27:../../../lib/pd2dsy/libdaisy/src/per/adc.h ****  *           each channel sharing data lines must be set to the maximum
  28:../../../lib/pd2dsy/libdaisy/src/per/adc.h ****  *           number of channels, even if some multiplexers have fewer
  29:../../../lib/pd2dsy/libdaisy/src/per/adc.h ****  *           inputs connected.
  30:../../../lib/pd2dsy/libdaisy/src/per/adc.h **** */
  31:../../../lib/pd2dsy/libdaisy/src/per/adc.h **** struct AdcChannelConfig
  32:../../../lib/pd2dsy/libdaisy/src/per/adc.h **** {
  33:../../../lib/pd2dsy/libdaisy/src/per/adc.h ****     /** Which pin to use for multiplexing */
  34:../../../lib/pd2dsy/libdaisy/src/per/adc.h ****     enum MuxPin
  35:../../../lib/pd2dsy/libdaisy/src/per/adc.h ****     {
  36:../../../lib/pd2dsy/libdaisy/src/per/adc.h ****         MUX_SEL_0,    /**< & */
  37:../../../lib/pd2dsy/libdaisy/src/per/adc.h ****         MUX_SEL_1,    /**< & */
  38:../../../lib/pd2dsy/libdaisy/src/per/adc.h ****         MUX_SEL_2,    /**< & */
  39:../../../lib/pd2dsy/libdaisy/src/per/adc.h ****         MUX_SEL_LAST, /**< & */
  40:../../../lib/pd2dsy/libdaisy/src/per/adc.h ****     };
  41:../../../lib/pd2dsy/libdaisy/src/per/adc.h **** 
  42:../../../lib/pd2dsy/libdaisy/src/per/adc.h ****     /** Initializes a single ADC pin as an ADC. 
  43:../../../lib/pd2dsy/libdaisy/src/per/adc.h ****     \param pin Pin to init.
  44:../../../lib/pd2dsy/libdaisy/src/per/adc.h ****      */
  45:../../../lib/pd2dsy/libdaisy/src/per/adc.h ****     void InitSingle(dsy_gpio_pin pin);
  46:../../../lib/pd2dsy/libdaisy/src/per/adc.h **** 
  47:../../../lib/pd2dsy/libdaisy/src/per/adc.h ****     /** 
  48:../../../lib/pd2dsy/libdaisy/src/per/adc.h ****     Initializes a single ADC pin as a Multiplexed ADC.
  49:../../../lib/pd2dsy/libdaisy/src/per/adc.h ****     Requires a CD405X Multiplexer connected to the pin.
  50:../../../lib/pd2dsy/libdaisy/src/per/adc.h ****     You only need to supply the mux pins that are required,
  51:../../../lib/pd2dsy/libdaisy/src/per/adc.h ****     e.g. a 4052 mux would only require mux_0 and mux_1.
  52:../../../lib/pd2dsy/libdaisy/src/per/adc.h ****     Internal Callbacks handle the pin addressing.
  53:../../../lib/pd2dsy/libdaisy/src/per/adc.h ****     \param mux_channels must be 1-8
ARM GAS  /var/folders/fb/yfxt3z4538j6z0vjt03w70vc0000gn/T//cc0qjWS6.s 			page 22


  54:../../../lib/pd2dsy/libdaisy/src/per/adc.h ****     \param mux_0 First mux pin
  55:../../../lib/pd2dsy/libdaisy/src/per/adc.h ****     \param mux_1 Second mux pin
  56:../../../lib/pd2dsy/libdaisy/src/per/adc.h ****     \param mux_2 Third mux pin
  57:../../../lib/pd2dsy/libdaisy/src/per/adc.h ****     \param adc_pin &
  58:../../../lib/pd2dsy/libdaisy/src/per/adc.h ****     */
  59:../../../lib/pd2dsy/libdaisy/src/per/adc.h ****     void InitMux(dsy_gpio_pin adc_pin,
  60:../../../lib/pd2dsy/libdaisy/src/per/adc.h ****                  size_t       mux_channels,
  61:../../../lib/pd2dsy/libdaisy/src/per/adc.h ****                  dsy_gpio_pin mux_0,
  62:../../../lib/pd2dsy/libdaisy/src/per/adc.h ****                  dsy_gpio_pin mux_1 = {DSY_GPIOX, 0},
  63:../../../lib/pd2dsy/libdaisy/src/per/adc.h ****                  dsy_gpio_pin mux_2 = {DSY_GPIOX, 0});
  64:../../../lib/pd2dsy/libdaisy/src/per/adc.h **** 
  65:../../../lib/pd2dsy/libdaisy/src/per/adc.h ****     dsy_gpio pin_;                   /**< & */
  66:../../../lib/pd2dsy/libdaisy/src/per/adc.h ****     dsy_gpio mux_pin_[MUX_SEL_LAST]; /**< & */
  67:../../../lib/pd2dsy/libdaisy/src/per/adc.h ****     uint8_t  mux_channels_;          /**< & */
  68:../../../lib/pd2dsy/libdaisy/src/per/adc.h **** };
  69:../../../lib/pd2dsy/libdaisy/src/per/adc.h **** 
  70:../../../lib/pd2dsy/libdaisy/src/per/adc.h **** /**
  71:../../../lib/pd2dsy/libdaisy/src/per/adc.h ****    @brief Handler for analog to digital conversion
  72:../../../lib/pd2dsy/libdaisy/src/per/adc.h **** */
  73:../../../lib/pd2dsy/libdaisy/src/per/adc.h **** class AdcHandle
  74:../../../lib/pd2dsy/libdaisy/src/per/adc.h **** {
  75:../../../lib/pd2dsy/libdaisy/src/per/adc.h ****   public:
  76:../../../lib/pd2dsy/libdaisy/src/per/adc.h ****     /** Supported oversampling amounts */
  77:../../../lib/pd2dsy/libdaisy/src/per/adc.h ****     enum OverSampling
  78:../../../lib/pd2dsy/libdaisy/src/per/adc.h ****     {
  79:../../../lib/pd2dsy/libdaisy/src/per/adc.h ****         OVS_NONE, /**< & */
  80:../../../lib/pd2dsy/libdaisy/src/per/adc.h ****         OVS_4,    /**< & */
  81:../../../lib/pd2dsy/libdaisy/src/per/adc.h ****         OVS_8,    /**< & */
  82:../../../lib/pd2dsy/libdaisy/src/per/adc.h ****         OVS_16,   /**< & */
  83:../../../lib/pd2dsy/libdaisy/src/per/adc.h ****         OVS_32,   /**< & */
  84:../../../lib/pd2dsy/libdaisy/src/per/adc.h ****         OVS_64,   /**< & */
  85:../../../lib/pd2dsy/libdaisy/src/per/adc.h ****         OVS_128,  /**< & */
  86:../../../lib/pd2dsy/libdaisy/src/per/adc.h ****         OVS_256,  /**< & */
  87:../../../lib/pd2dsy/libdaisy/src/per/adc.h ****         OVS_512,  /**< & */
  88:../../../lib/pd2dsy/libdaisy/src/per/adc.h ****         OVS_1024, /**< & */
  89:../../../lib/pd2dsy/libdaisy/src/per/adc.h ****         OVS_LAST, /**< & */
  90:../../../lib/pd2dsy/libdaisy/src/per/adc.h ****     };
  91:../../../lib/pd2dsy/libdaisy/src/per/adc.h **** 
  92:../../../lib/pd2dsy/libdaisy/src/per/adc.h ****     AdcHandle() {}
  93:../../../lib/pd2dsy/libdaisy/src/per/adc.h ****     ~AdcHandle() {}
 233              		.loc 14 93 5 is_stmt 1 view .LVU49
 234              		.loc 14 93 5 is_stmt 0 view .LVU50
 235              	.LBE538:
 236              	.LBB539:
 237              	.LBI539:
 238              		.file 15 "../../../lib/pd2dsy/libdaisy/src/hid/audio.h"
   1:../../../lib/pd2dsy/libdaisy/src/hid/audio.h **** #ifndef DSY_AUDIO_H
   2:../../../lib/pd2dsy/libdaisy/src/hid/audio.h **** #define DSY_AUDIO_H /**< & */
   3:../../../lib/pd2dsy/libdaisy/src/hid/audio.h **** 
   4:../../../lib/pd2dsy/libdaisy/src/hid/audio.h **** #include "per/sai.h"
   5:../../../lib/pd2dsy/libdaisy/src/hid/audio.h **** 
   6:../../../lib/pd2dsy/libdaisy/src/hid/audio.h **** namespace daisy
   7:../../../lib/pd2dsy/libdaisy/src/hid/audio.h **** {
   8:../../../lib/pd2dsy/libdaisy/src/hid/audio.h **** /** @brief Audio Engine Handle
   9:../../../lib/pd2dsy/libdaisy/src/hid/audio.h ****  *  @ingroup audio 
  10:../../../lib/pd2dsy/libdaisy/src/hid/audio.h ****  *  @details This class allows for higher level access to an audio engine.
  11:../../../lib/pd2dsy/libdaisy/src/hid/audio.h ****  *           If you're using a SOM like the DaisySeed or DaisyPatchSM (or any 
ARM GAS  /var/folders/fb/yfxt3z4538j6z0vjt03w70vc0000gn/T//cc0qjWS6.s 			page 23


  12:../../../lib/pd2dsy/libdaisy/src/hid/audio.h ****  *            board that includes one of those objects) then the intialization
  13:../../../lib/pd2dsy/libdaisy/src/hid/audio.h ****  *            is already taken  care of.
  14:../../../lib/pd2dsy/libdaisy/src/hid/audio.h ****  *           If you're setting up your own custom hardware, or need to make changes
  15:../../../lib/pd2dsy/libdaisy/src/hid/audio.h ****  *           you will have to take the following steps:
  16:../../../lib/pd2dsy/libdaisy/src/hid/audio.h ****  *             1. Create and Initialize an SaiHandle or two depending on your requirements
  17:../../../lib/pd2dsy/libdaisy/src/hid/audio.h ****  *             2. Initialize the Audio Handle with the desired settings and the Initialized SaiHand
  18:../../../lib/pd2dsy/libdaisy/src/hid/audio.h ****  *             3. If the connected codec requires special configuration or initialization, do so
  19:../../../lib/pd2dsy/libdaisy/src/hid/audio.h ****  *             4. Write a callback method using either the AudioCallback or the InterleavingAudioCa
  20:../../../lib/pd2dsy/libdaisy/src/hid/audio.h ****  *             5. Start the Audio using one of the StartAudio function
  21:../../../lib/pd2dsy/libdaisy/src/hid/audio.h ****  */
  22:../../../lib/pd2dsy/libdaisy/src/hid/audio.h **** class AudioHandle
  23:../../../lib/pd2dsy/libdaisy/src/hid/audio.h **** {
  24:../../../lib/pd2dsy/libdaisy/src/hid/audio.h ****   public:
  25:../../../lib/pd2dsy/libdaisy/src/hid/audio.h ****     /** Manually configurable details about the Audio Engine */
  26:../../../lib/pd2dsy/libdaisy/src/hid/audio.h ****     /** TODO: Figure out how to get samplerate in here. */
  27:../../../lib/pd2dsy/libdaisy/src/hid/audio.h ****     struct Config
  28:../../../lib/pd2dsy/libdaisy/src/hid/audio.h ****     {
  29:../../../lib/pd2dsy/libdaisy/src/hid/audio.h ****         /** number of samples to process per callback */
  30:../../../lib/pd2dsy/libdaisy/src/hid/audio.h ****         size_t blocksize;
  31:../../../lib/pd2dsy/libdaisy/src/hid/audio.h **** 
  32:../../../lib/pd2dsy/libdaisy/src/hid/audio.h ****         /**< Sample rate of audio */
  33:../../../lib/pd2dsy/libdaisy/src/hid/audio.h ****         SaiHandle::Config::SampleRate samplerate;
  34:../../../lib/pd2dsy/libdaisy/src/hid/audio.h **** 
  35:../../../lib/pd2dsy/libdaisy/src/hid/audio.h ****         /** factor for adjustment before and after callback for hardware that may have extra headro
  36:../../../lib/pd2dsy/libdaisy/src/hid/audio.h ****         float postgain;
  37:../../../lib/pd2dsy/libdaisy/src/hid/audio.h **** 
  38:../../../lib/pd2dsy/libdaisy/src/hid/audio.h ****         /** factor for additional one-sided compensation to audio path for hardware that may
  39:../../../lib/pd2dsy/libdaisy/src/hid/audio.h ****          *  have unequal input/output ranges
  40:../../../lib/pd2dsy/libdaisy/src/hid/audio.h ****          */
  41:../../../lib/pd2dsy/libdaisy/src/hid/audio.h ****         float output_compensation;
  42:../../../lib/pd2dsy/libdaisy/src/hid/audio.h **** 
  43:../../../lib/pd2dsy/libdaisy/src/hid/audio.h ****         /** Sets default values for config struct */
  44:../../../lib/pd2dsy/libdaisy/src/hid/audio.h ****         Config()
  45:../../../lib/pd2dsy/libdaisy/src/hid/audio.h ****         : blocksize(48),
  46:../../../lib/pd2dsy/libdaisy/src/hid/audio.h ****           samplerate(SaiHandle::Config::SampleRate::SAI_48KHZ),
  47:../../../lib/pd2dsy/libdaisy/src/hid/audio.h ****           postgain(1.f),
  48:../../../lib/pd2dsy/libdaisy/src/hid/audio.h ****           output_compensation(1.f)
  49:../../../lib/pd2dsy/libdaisy/src/hid/audio.h ****         {
  50:../../../lib/pd2dsy/libdaisy/src/hid/audio.h ****         }
  51:../../../lib/pd2dsy/libdaisy/src/hid/audio.h ****     };
  52:../../../lib/pd2dsy/libdaisy/src/hid/audio.h **** 
  53:../../../lib/pd2dsy/libdaisy/src/hid/audio.h ****     enum class Result
  54:../../../lib/pd2dsy/libdaisy/src/hid/audio.h ****     {
  55:../../../lib/pd2dsy/libdaisy/src/hid/audio.h ****         OK,
  56:../../../lib/pd2dsy/libdaisy/src/hid/audio.h ****         ERR,
  57:../../../lib/pd2dsy/libdaisy/src/hid/audio.h ****     };
  58:../../../lib/pd2dsy/libdaisy/src/hid/audio.h **** 
  59:../../../lib/pd2dsy/libdaisy/src/hid/audio.h ****     /** Non-Interleaving input buffer
  60:../../../lib/pd2dsy/libdaisy/src/hid/audio.h ****      * Buffer arranged by float[chn][sample] 
  61:../../../lib/pd2dsy/libdaisy/src/hid/audio.h ****      * const so that the user can't modify the input
  62:../../../lib/pd2dsy/libdaisy/src/hid/audio.h ****      */
  63:../../../lib/pd2dsy/libdaisy/src/hid/audio.h ****     typedef const float* const* InputBuffer;
  64:../../../lib/pd2dsy/libdaisy/src/hid/audio.h **** 
  65:../../../lib/pd2dsy/libdaisy/src/hid/audio.h ****     /** Non-Interleaving output buffer
  66:../../../lib/pd2dsy/libdaisy/src/hid/audio.h ****      * Arranged by float[chn][sample] 
  67:../../../lib/pd2dsy/libdaisy/src/hid/audio.h ****      */
  68:../../../lib/pd2dsy/libdaisy/src/hid/audio.h ****     typedef float** OutputBuffer;
ARM GAS  /var/folders/fb/yfxt3z4538j6z0vjt03w70vc0000gn/T//cc0qjWS6.s 			page 24


  69:../../../lib/pd2dsy/libdaisy/src/hid/audio.h **** 
  70:../../../lib/pd2dsy/libdaisy/src/hid/audio.h ****     /** Type for a Non-Interleaving audio callback 
  71:../../../lib/pd2dsy/libdaisy/src/hid/audio.h ****      * Non-Interleaving audio callbacks in daisy will be of this type
  72:../../../lib/pd2dsy/libdaisy/src/hid/audio.h ****      */
  73:../../../lib/pd2dsy/libdaisy/src/hid/audio.h ****     typedef void (*AudioCallback)(InputBuffer  in,
  74:../../../lib/pd2dsy/libdaisy/src/hid/audio.h ****                                   OutputBuffer out,
  75:../../../lib/pd2dsy/libdaisy/src/hid/audio.h ****                                   size_t       size);
  76:../../../lib/pd2dsy/libdaisy/src/hid/audio.h **** 
  77:../../../lib/pd2dsy/libdaisy/src/hid/audio.h ****     /** Interleaving Input buffer
  78:../../../lib/pd2dsy/libdaisy/src/hid/audio.h ****      ** audio is prepared as { L0, R0, L1, R1, . . . LN, RN }]
  79:../../../lib/pd2dsy/libdaisy/src/hid/audio.h ****      ** this is const, as the user shouldn't modify it
  80:../../../lib/pd2dsy/libdaisy/src/hid/audio.h ****     */
  81:../../../lib/pd2dsy/libdaisy/src/hid/audio.h ****     typedef const float* InterleavingInputBuffer;
  82:../../../lib/pd2dsy/libdaisy/src/hid/audio.h **** 
  83:../../../lib/pd2dsy/libdaisy/src/hid/audio.h ****     /** Interleaving Output buffer 
  84:../../../lib/pd2dsy/libdaisy/src/hid/audio.h ****      ** audio is prepared as { L0, R0, L1, R1, . . . LN, RN }
  85:../../../lib/pd2dsy/libdaisy/src/hid/audio.h ****     */
  86:../../../lib/pd2dsy/libdaisy/src/hid/audio.h ****     typedef float* InterleavingOutputBuffer;
  87:../../../lib/pd2dsy/libdaisy/src/hid/audio.h **** 
  88:../../../lib/pd2dsy/libdaisy/src/hid/audio.h ****     /** Interleaving Audio Callback 
  89:../../../lib/pd2dsy/libdaisy/src/hid/audio.h ****      * Interleaving audio callbacks in daisy must be of this type
  90:../../../lib/pd2dsy/libdaisy/src/hid/audio.h ****      */
  91:../../../lib/pd2dsy/libdaisy/src/hid/audio.h ****     typedef void (*InterleavingAudioCallback)(InterleavingInputBuffer  in,
  92:../../../lib/pd2dsy/libdaisy/src/hid/audio.h ****                                               InterleavingOutputBuffer out,
  93:../../../lib/pd2dsy/libdaisy/src/hid/audio.h ****                                               size_t                   size);
  94:../../../lib/pd2dsy/libdaisy/src/hid/audio.h **** 
  95:../../../lib/pd2dsy/libdaisy/src/hid/audio.h ****     AudioHandle() : pimpl_(nullptr) {}
  96:../../../lib/pd2dsy/libdaisy/src/hid/audio.h ****     ~AudioHandle() {}
 239              		.loc 15 96 5 is_stmt 1 view .LVU51
 240              		.loc 15 96 5 is_stmt 0 view .LVU52
 241              	.LBE539:
 242              	.LBE535:
 243              		.loc 5 39 8 view .LVU53
 244 0000 7047     		bx	lr
 245              		.cfi_endproc
 246              	.LFE3069:
 248              		.weak	_ZN10json2daisy8DaisyPodD1Ev
 249              		.thumb_set _ZN10json2daisy8DaisyPodD1Ev,_ZN10json2daisy8DaisyPodD2Ev
 250 0002 00BF     		.section	.text._ZNK5daisy11OledDisplayINS_13SSD130xDriverILj128ELj64ENS_24SSD130x4WireSpiTransport
 251              		.align	1
 252              		.p2align 2,,3
 253              		.weak	_ZNK5daisy11OledDisplayINS_13SSD130xDriverILj128ELj64ENS_24SSD130x4WireSpiTransportEEEE6Heig
 254              		.syntax unified
 255              		.thumb
 256              		.thumb_func
 258              	_ZNK5daisy11OledDisplayINS_13SSD130xDriverILj128ELj64ENS_24SSD130x4WireSpiTransportEEEE6HeightEv:
 259              	.LVL7:
 260              	.LFB3071:
  27:../../../lib/pd2dsy/libdaisy/src/hid/disp/oled_display.h ****     uint16_t Width() const override { return driver_.Width(); }
 261              		.loc 2 27 14 is_stmt 1 view -0
 262              		.cfi_startproc
 263              		@ args = 0, pretend = 0, frame = 0
 264              		@ frame_needed = 0, uses_anonymous_args = 0
 265              		@ link register save eliminated.
  27:../../../lib/pd2dsy/libdaisy/src/hid/disp/oled_display.h ****     uint16_t Width() const override { return driver_.Width(); }
 266              		.loc 2 27 65 is_stmt 0 view .LVU55
 267 0000 4020     		movs	r0, #64
ARM GAS  /var/folders/fb/yfxt3z4538j6z0vjt03w70vc0000gn/T//cc0qjWS6.s 			page 25


 268              	.LVL8:
  27:../../../lib/pd2dsy/libdaisy/src/hid/disp/oled_display.h ****     uint16_t Width() const override { return driver_.Width(); }
 269              		.loc 2 27 65 view .LVU56
 270 0002 7047     		bx	lr
 271              		.cfi_endproc
 272              	.LFE3071:
 274              		.section	.text._ZNK5daisy11OledDisplayINS_13SSD130xDriverILj128ELj64ENS_24SSD130x4WireSpiTransport
 275              		.align	1
 276              		.p2align 2,,3
 277              		.weak	_ZNK5daisy11OledDisplayINS_13SSD130xDriverILj128ELj64ENS_24SSD130x4WireSpiTransportEEEE5Widt
 278              		.syntax unified
 279              		.thumb
 280              		.thumb_func
 282              	_ZNK5daisy11OledDisplayINS_13SSD130xDriverILj128ELj64ENS_24SSD130x4WireSpiTransportEEEE5WidthEv:
 283              	.LVL9:
 284              	.LFB3072:
  28:../../../lib/pd2dsy/libdaisy/src/hid/disp/oled_display.h **** 
 285              		.loc 2 28 14 is_stmt 1 view -0
 286              		.cfi_startproc
 287              		@ args = 0, pretend = 0, frame = 0
 288              		@ frame_needed = 0, uses_anonymous_args = 0
 289              		@ link register save eliminated.
  28:../../../lib/pd2dsy/libdaisy/src/hid/disp/oled_display.h **** 
 290              		.loc 2 28 63 is_stmt 0 view .LVU58
 291 0000 8020     		movs	r0, #128
 292              	.LVL10:
  28:../../../lib/pd2dsy/libdaisy/src/hid/disp/oled_display.h **** 
 293              		.loc 2 28 63 view .LVU59
 294 0002 7047     		bx	lr
 295              		.cfi_endproc
 296              	.LFE3072:
 298              		.section	.text._ZN5daisy11OledDisplayINS_13SSD130xDriverILj128ELj64ENS_24SSD130x4WireSpiTransportE
 299              		.align	1
 300              		.p2align 2,,3
 301              		.weak	_ZN5daisy11OledDisplayINS_13SSD130xDriverILj128ELj64ENS_24SSD130x4WireSpiTransportEEEED0Ev
 302              		.syntax unified
 303              		.thumb
 304              		.thumb_func
 306              	_ZN5daisy11OledDisplayINS_13SSD130xDriverILj128ELj64ENS_24SSD130x4WireSpiTransportEEEED0Ev:
 307              	.LVL11:
 308              	.LFB3051:
  18:../../../lib/pd2dsy/libdaisy/src/hid/disp/oled_display.h **** 
 309              		.loc 2 18 13 is_stmt 1 view -0
 310              		.cfi_startproc
 311              		@ args = 0, pretend = 0, frame = 0
 312              		@ frame_needed = 0, uses_anonymous_args = 0
  18:../../../lib/pd2dsy/libdaisy/src/hid/disp/oled_display.h **** 
 313              		.loc 2 18 13 is_stmt 0 view .LVU61
 314 0000 10B5     		push	{r4, lr}
 315              		.cfi_def_cfa_offset 8
 316              		.cfi_offset 4, -8
 317              		.cfi_offset 14, -4
  18:../../../lib/pd2dsy/libdaisy/src/hid/disp/oled_display.h **** 
 318              		.loc 2 18 13 view .LVU62
 319 0002 0446     		mov	r4, r0
 320              	.LVL12:
 321              	.LBB540:
ARM GAS  /var/folders/fb/yfxt3z4538j6z0vjt03w70vc0000gn/T//cc0qjWS6.s 			page 26


 322              	.LBI540:
  18:../../../lib/pd2dsy/libdaisy/src/hid/disp/oled_display.h **** 
 323              		.loc 2 18 13 is_stmt 1 view .LVU63
 324              	.LBB541:
 325              	.LBI541:
 326              		.loc 4 219 13 view .LVU64
 327              	.LBB542:
 328              	.LBI542:
  23:../../../lib/pd2dsy/libdaisy/src/hid/disp/display.h **** 
 329              		.loc 4 23 13 view .LVU65
  23:../../../lib/pd2dsy/libdaisy/src/hid/disp/display.h **** 
 330              		.loc 4 23 13 is_stmt 0 view .LVU66
 331              	.LBE542:
 332              	.LBE541:
 333              	.LBE540:
  18:../../../lib/pd2dsy/libdaisy/src/hid/disp/oled_display.h **** 
 334              		.loc 2 18 29 view .LVU67
 335 0004 40F21441 		movw	r1, #1044
 336 0008 FFF7FEFF 		bl	_ZdlPvj
 337              	.LVL13:
  18:../../../lib/pd2dsy/libdaisy/src/hid/disp/oled_display.h **** 
 338              		.loc 2 18 29 view .LVU68
 339 000c 2046     		mov	r0, r4
 340 000e 10BD     		pop	{r4, pc}
  18:../../../lib/pd2dsy/libdaisy/src/hid/disp/oled_display.h **** 
 341              		.loc 2 18 29 view .LVU69
 342              		.cfi_endproc
 343              	.LFE3051:
 345              		.section	.text._ZN5daisy11OledDisplayINS_13SSD130xDriverILj128ELj64ENS_24SSD130x4WireSpiTransportE
 346              		.align	1
 347              		.p2align 2,,3
 348              		.weak	_ZN5daisy11OledDisplayINS_13SSD130xDriverILj128ELj64ENS_24SSD130x4WireSpiTransportEEEE6Updat
 349              		.syntax unified
 350              		.thumb
 351              		.thumb_func
 353              	_ZN5daisy11OledDisplayINS_13SSD130xDriverILj128ELj64ENS_24SSD130x4WireSpiTransportEEEE6UpdateEv:
 354              	.LVL14:
 355              	.LFB3038:
  35:../../../lib/pd2dsy/libdaisy/src/hid/disp/oled_display.h **** 
  36:../../../lib/pd2dsy/libdaisy/src/hid/disp/oled_display.h ****     /**
  37:../../../lib/pd2dsy/libdaisy/src/hid/disp/oled_display.h ****     Sets the pixel at the specified coordinate to be on/off.
  38:../../../lib/pd2dsy/libdaisy/src/hid/disp/oled_display.h ****     \param x   x Coordinate
  39:../../../lib/pd2dsy/libdaisy/src/hid/disp/oled_display.h ****     \param y   y coordinate
  40:../../../lib/pd2dsy/libdaisy/src/hid/disp/oled_display.h ****     \param on  on or off
  41:../../../lib/pd2dsy/libdaisy/src/hid/disp/oled_display.h ****     */
  42:../../../lib/pd2dsy/libdaisy/src/hid/disp/oled_display.h ****     void DrawPixel(uint_fast8_t x, uint_fast8_t y, bool on) override
  43:../../../lib/pd2dsy/libdaisy/src/hid/disp/oled_display.h ****     {
  44:../../../lib/pd2dsy/libdaisy/src/hid/disp/oled_display.h ****         driver_.DrawPixel(x, y, on);
  45:../../../lib/pd2dsy/libdaisy/src/hid/disp/oled_display.h ****     }
  46:../../../lib/pd2dsy/libdaisy/src/hid/disp/oled_display.h **** 
  47:../../../lib/pd2dsy/libdaisy/src/hid/disp/oled_display.h ****     /** 
  48:../../../lib/pd2dsy/libdaisy/src/hid/disp/oled_display.h ****     Writes the current display buffer to the OLED device using SPI or I2C depending on 
  49:../../../lib/pd2dsy/libdaisy/src/hid/disp/oled_display.h ****     how the object was initialized.
  50:../../../lib/pd2dsy/libdaisy/src/hid/disp/oled_display.h ****     */
  51:../../../lib/pd2dsy/libdaisy/src/hid/disp/oled_display.h ****     void Update() override { driver_.Update(); }
 356              		.loc 2 51 10 is_stmt 1 view -0
 357              		.cfi_startproc
ARM GAS  /var/folders/fb/yfxt3z4538j6z0vjt03w70vc0000gn/T//cc0qjWS6.s 			page 27


 358              		@ args = 0, pretend = 0, frame = 8
 359              		@ frame_needed = 0, uses_anonymous_args = 0
 360              	.LBB553:
 361              	.LBI553:
 267:../../../lib/pd2dsy/libdaisy/src/dev/oled_ssd130x.h ****         }
 268:../../../lib/pd2dsy/libdaisy/src/dev/oled_ssd130x.h ****     };
 269:../../../lib/pd2dsy/libdaisy/src/dev/oled_ssd130x.h **** 
 270:../../../lib/pd2dsy/libdaisy/src/dev/oled_ssd130x.h ****     /**
 271:../../../lib/pd2dsy/libdaisy/src/dev/oled_ssd130x.h ****      * Update the display 
 272:../../../lib/pd2dsy/libdaisy/src/dev/oled_ssd130x.h ****     */
 273:../../../lib/pd2dsy/libdaisy/src/dev/oled_ssd130x.h ****     void Update()
 362              		.loc 3 273 10 view .LVU71
 363              	.LBB554:
 274:../../../lib/pd2dsy/libdaisy/src/dev/oled_ssd130x.h ****     {
 275:../../../lib/pd2dsy/libdaisy/src/dev/oled_ssd130x.h ****         uint8_t i;
 276:../../../lib/pd2dsy/libdaisy/src/dev/oled_ssd130x.h ****         uint8_t high_column_addr;
 277:../../../lib/pd2dsy/libdaisy/src/dev/oled_ssd130x.h ****         switch(height)
 278:../../../lib/pd2dsy/libdaisy/src/dev/oled_ssd130x.h ****         {
 279:../../../lib/pd2dsy/libdaisy/src/dev/oled_ssd130x.h ****             case 32: high_column_addr = 0x12; break;
 280:../../../lib/pd2dsy/libdaisy/src/dev/oled_ssd130x.h **** 
 281:../../../lib/pd2dsy/libdaisy/src/dev/oled_ssd130x.h ****             default: high_column_addr = 0x10; break;
 282:../../../lib/pd2dsy/libdaisy/src/dev/oled_ssd130x.h ****         }
 283:../../../lib/pd2dsy/libdaisy/src/dev/oled_ssd130x.h ****         for(i = 0; i < (height / 8); i++)
 364              		.loc 3 283 22 view .LVU72
 365              	.LBE554:
 366              	.LBE553:
 367              		.loc 2 51 10 is_stmt 0 view .LVU73
 368 0000 2DE9F041 		push	{r4, r5, r6, r7, r8, lr}
 369              		.cfi_def_cfa_offset 24
 370              		.cfi_offset 4, -24
 371              		.cfi_offset 5, -20
 372              		.cfi_offset 6, -16
 373              		.cfi_offset 7, -12
 374              		.cfi_offset 8, -8
 375              		.cfi_offset 14, -4
 376              	.LBB576:
 377              	.LBB574:
 378              	.LBB555:
 379              	.LBB556:
 125:../../../lib/pd2dsy/libdaisy/src/dev/oled_ssd130x.h ****     };
 380              		.loc 3 125 30 view .LVU74
 381 0004 B024     		movs	r4, #176
 382              	.LBE556:
 383              	.LBE555:
 384              	.LBE574:
 385              	.LBE576:
 386              		.loc 2 51 10 view .LVU75
 387 0006 82B0     		sub	sp, sp, #8
 388              		.cfi_def_cfa_offset 32
 389              	.LBB577:
 390              	.LBB575:
 391              	.LBB561:
 392              	.LBB557:
 124:../../../lib/pd2dsy/libdaisy/src/dev/oled_ssd130x.h ****         spi_.BlockingTransmit(&cmd, 1);
 393              		.loc 3 124 24 view .LVU76
 394 0008 00F10806 		add	r6, r0, #8
 395 000c 00F11005 		add	r5, r0, #16
ARM GAS  /var/folders/fb/yfxt3z4538j6z0vjt03w70vc0000gn/T//cc0qjWS6.s 			page 28


 396 0010 00F11408 		add	r8, r0, #20
 397              	.LVL15:
 398              	.L11:
 124:../../../lib/pd2dsy/libdaisy/src/dev/oled_ssd130x.h ****         spi_.BlockingTransmit(&cmd, 1);
 399              		.loc 3 124 24 view .LVU77
 400 0014 0027     		movs	r7, #0
 124:../../../lib/pd2dsy/libdaisy/src/dev/oled_ssd130x.h ****         spi_.BlockingTransmit(&cmd, 1);
 401              		.loc 3 124 23 view .LVU78
 402 0016 2846     		mov	r0, r5
 403 0018 8DF80740 		strb	r4, [sp, #7]
 404              	.LVL16:
 124:../../../lib/pd2dsy/libdaisy/src/dev/oled_ssd130x.h ****         spi_.BlockingTransmit(&cmd, 1);
 405              		.loc 3 124 23 view .LVU79
 406              	.LBE557:
 407              	.LBI555:
 122:../../../lib/pd2dsy/libdaisy/src/dev/oled_ssd130x.h ****     {
 408              		.loc 3 122 10 is_stmt 1 view .LVU80
 409              	.LBB558:
 124:../../../lib/pd2dsy/libdaisy/src/dev/oled_ssd130x.h ****         spi_.BlockingTransmit(&cmd, 1);
 410              		.loc 3 124 9 view .LVU81
 411              	.LBE558:
 412              	.LBE561:
 413              		.loc 3 283 22 is_stmt 0 view .LVU82
 414 001c 0134     		adds	r4, r4, #1
 415              	.LVL17:
 416              	.LBB562:
 417              	.LBB559:
 124:../../../lib/pd2dsy/libdaisy/src/dev/oled_ssd130x.h ****         spi_.BlockingTransmit(&cmd, 1);
 418              		.loc 3 124 23 view .LVU83
 419 001e 3946     		mov	r1, r7
 420 0020 FFF7FEFF 		bl	dsy_gpio_write
 421              	.LVL18:
 125:../../../lib/pd2dsy/libdaisy/src/dev/oled_ssd130x.h ****     };
 422              		.loc 3 125 9 is_stmt 1 view .LVU84
 125:../../../lib/pd2dsy/libdaisy/src/dev/oled_ssd130x.h ****     };
 423              		.loc 3 125 30 is_stmt 0 view .LVU85
 424 0024 6423     		movs	r3, #100
 425 0026 0122     		movs	r2, #1
 426 0028 0DF10701 		add	r1, sp, #7
 427 002c 3046     		mov	r0, r6
 428              	.LBE559:
 429              	.LBE562:
 430              		.loc 3 283 22 view .LVU86
 431 002e E4B2     		uxtb	r4, r4
 432              	.LBB563:
 433              	.LBB560:
 125:../../../lib/pd2dsy/libdaisy/src/dev/oled_ssd130x.h ****     };
 434              		.loc 3 125 30 view .LVU87
 435 0030 FFF7FEFF 		bl	_ZN5daisy9SpiHandle16BlockingTransmitEPhjm
 436              	.LVL19:
 125:../../../lib/pd2dsy/libdaisy/src/dev/oled_ssd130x.h ****     };
 437              		.loc 3 125 30 view .LVU88
 438              	.LBE560:
 439              	.LBE563:
 440              	.LBB564:
 441              	.LBB565:
 124:../../../lib/pd2dsy/libdaisy/src/dev/oled_ssd130x.h ****         spi_.BlockingTransmit(&cmd, 1);
ARM GAS  /var/folders/fb/yfxt3z4538j6z0vjt03w70vc0000gn/T//cc0qjWS6.s 			page 29


 442              		.loc 3 124 23 view .LVU89
 443 0034 3946     		mov	r1, r7
 444 0036 2846     		mov	r0, r5
 445 0038 8DF80770 		strb	r7, [sp, #7]
 446              	.LVL20:
 124:../../../lib/pd2dsy/libdaisy/src/dev/oled_ssd130x.h ****         spi_.BlockingTransmit(&cmd, 1);
 447              		.loc 3 124 23 view .LVU90
 448              	.LBE565:
 449              	.LBI564:
 122:../../../lib/pd2dsy/libdaisy/src/dev/oled_ssd130x.h ****     {
 450              		.loc 3 122 10 is_stmt 1 view .LVU91
 451              	.LBB566:
 124:../../../lib/pd2dsy/libdaisy/src/dev/oled_ssd130x.h ****         spi_.BlockingTransmit(&cmd, 1);
 452              		.loc 3 124 9 view .LVU92
 124:../../../lib/pd2dsy/libdaisy/src/dev/oled_ssd130x.h ****         spi_.BlockingTransmit(&cmd, 1);
 453              		.loc 3 124 23 is_stmt 0 view .LVU93
 454 003c FFF7FEFF 		bl	dsy_gpio_write
 455              	.LVL21:
 125:../../../lib/pd2dsy/libdaisy/src/dev/oled_ssd130x.h ****     };
 456              		.loc 3 125 9 is_stmt 1 view .LVU94
 125:../../../lib/pd2dsy/libdaisy/src/dev/oled_ssd130x.h ****     };
 457              		.loc 3 125 30 is_stmt 0 view .LVU95
 458 0040 0122     		movs	r2, #1
 459 0042 6423     		movs	r3, #100
 460 0044 0DF10701 		add	r1, sp, #7
 461 0048 3046     		mov	r0, r6
 462 004a FFF7FEFF 		bl	_ZN5daisy9SpiHandle16BlockingTransmitEPhjm
 463              	.LVL22:
 125:../../../lib/pd2dsy/libdaisy/src/dev/oled_ssd130x.h ****     };
 464              		.loc 3 125 30 view .LVU96
 465 004e 1023     		movs	r3, #16
 466              	.LBE566:
 467              	.LBE564:
 468              	.LBB567:
 469              	.LBB568:
 124:../../../lib/pd2dsy/libdaisy/src/dev/oled_ssd130x.h ****         spi_.BlockingTransmit(&cmd, 1);
 470              		.loc 3 124 23 view .LVU97
 471 0050 3946     		mov	r1, r7
 472 0052 2846     		mov	r0, r5
 473 0054 8DF80730 		strb	r3, [sp, #7]
 474              	.LVL23:
 124:../../../lib/pd2dsy/libdaisy/src/dev/oled_ssd130x.h ****         spi_.BlockingTransmit(&cmd, 1);
 475              		.loc 3 124 23 view .LVU98
 476              	.LBE568:
 477              	.LBI567:
 122:../../../lib/pd2dsy/libdaisy/src/dev/oled_ssd130x.h ****     {
 478              		.loc 3 122 10 is_stmt 1 view .LVU99
 479              	.LBB569:
 124:../../../lib/pd2dsy/libdaisy/src/dev/oled_ssd130x.h ****         spi_.BlockingTransmit(&cmd, 1);
 480              		.loc 3 124 9 view .LVU100
 124:../../../lib/pd2dsy/libdaisy/src/dev/oled_ssd130x.h ****         spi_.BlockingTransmit(&cmd, 1);
 481              		.loc 3 124 23 is_stmt 0 view .LVU101
 482 0058 FFF7FEFF 		bl	dsy_gpio_write
 483              	.LVL24:
 125:../../../lib/pd2dsy/libdaisy/src/dev/oled_ssd130x.h ****     };
 484              		.loc 3 125 9 is_stmt 1 view .LVU102
 125:../../../lib/pd2dsy/libdaisy/src/dev/oled_ssd130x.h ****     };
ARM GAS  /var/folders/fb/yfxt3z4538j6z0vjt03w70vc0000gn/T//cc0qjWS6.s 			page 30


 485              		.loc 3 125 30 is_stmt 0 view .LVU103
 486 005c 6423     		movs	r3, #100
 487 005e 0122     		movs	r2, #1
 488 0060 0DF10701 		add	r1, sp, #7
 489 0064 3046     		mov	r0, r6
 490 0066 FFF7FEFF 		bl	_ZN5daisy9SpiHandle16BlockingTransmitEPhjm
 491              	.LVL25:
 125:../../../lib/pd2dsy/libdaisy/src/dev/oled_ssd130x.h ****     };
 492              		.loc 3 125 30 view .LVU104
 493              	.LBE569:
 494              	.LBE567:
 495              	.LBB570:
 496              	.LBI570:
 128:../../../lib/pd2dsy/libdaisy/src/dev/oled_ssd130x.h ****     {
 497              		.loc 3 128 10 is_stmt 1 view .LVU105
 498              	.LBB571:
 130:../../../lib/pd2dsy/libdaisy/src/dev/oled_ssd130x.h ****         spi_.BlockingTransmit(buff, size);
 499              		.loc 3 130 9 view .LVU106
 130:../../../lib/pd2dsy/libdaisy/src/dev/oled_ssd130x.h ****         spi_.BlockingTransmit(buff, size);
 500              		.loc 3 130 23 is_stmt 0 view .LVU107
 501 006a 0121     		movs	r1, #1
 502 006c 2846     		mov	r0, r5
 503 006e FFF7FEFF 		bl	dsy_gpio_write
 504              	.LVL26:
 131:../../../lib/pd2dsy/libdaisy/src/dev/oled_ssd130x.h ****     };
 505              		.loc 3 131 9 is_stmt 1 view .LVU108
 131:../../../lib/pd2dsy/libdaisy/src/dev/oled_ssd130x.h ****     };
 506              		.loc 3 131 30 is_stmt 0 view .LVU109
 507 0072 8022     		movs	r2, #128
 508 0074 4146     		mov	r1, r8
 509 0076 6423     		movs	r3, #100
 510 0078 3046     		mov	r0, r6
 511              	.LBE571:
 512              	.LBE570:
 513              		.loc 3 283 22 view .LVU110
 514 007a 9044     		add	r8, r8, r2
 515              	.LVL27:
 516              	.LBB573:
 517              	.LBB572:
 131:../../../lib/pd2dsy/libdaisy/src/dev/oled_ssd130x.h ****     };
 518              		.loc 3 131 30 view .LVU111
 519 007c FFF7FEFF 		bl	_ZN5daisy9SpiHandle16BlockingTransmitEPhjm
 520              	.LVL28:
 131:../../../lib/pd2dsy/libdaisy/src/dev/oled_ssd130x.h ****     };
 521              		.loc 3 131 30 view .LVU112
 522              	.LBE572:
 523              	.LBE573:
 524              		.loc 3 283 9 is_stmt 1 view .LVU113
 525              		.loc 3 283 22 view .LVU114
 526 0080 B82C     		cmp	r4, #184
 527 0082 C7D1     		bne	.L11
 528              	.LBE575:
 529              	.LBE577:
 530              		.loc 2 51 48 is_stmt 0 view .LVU115
 531 0084 02B0     		add	sp, sp, #8
 532              		.cfi_def_cfa_offset 24
 533              		@ sp needed
ARM GAS  /var/folders/fb/yfxt3z4538j6z0vjt03w70vc0000gn/T//cc0qjWS6.s 			page 31


 534 0086 BDE8F081 		pop	{r4, r5, r6, r7, r8, pc}
 535              		.loc 2 51 48 view .LVU116
 536              		.cfi_endproc
 537              	.LFE3038:
 539 008a 00BF     		.section	.text._ZN5daisy25OneBitGraphicsDisplayImplINS_11OledDisplayINS_13SSD130xDriverILj128ELj64
 540              		.align	1
 541              		.p2align 2,,3
 542              		.weak	_ZN5daisy25OneBitGraphicsDisplayImplINS_11OledDisplayINS_13SSD130xDriverILj128ELj64ENS_24SSD
 543              		.syntax unified
 544              		.thumb
 545              		.thumb_func
 547              	_ZN5daisy25OneBitGraphicsDisplayImplINS_11OledDisplayINS_13SSD130xDriverILj128ELj64ENS_24SSD130x4Wi
 548              	.LVL29:
 549              	.LFB3078:
 220:../../../lib/pd2dsy/libdaisy/src/hid/disp/display.h **** 
 221:../../../lib/pd2dsy/libdaisy/src/hid/disp/display.h ****     void DrawLine(uint_fast8_t x1,
 222:../../../lib/pd2dsy/libdaisy/src/hid/disp/display.h ****                   uint_fast8_t y1,
 223:../../../lib/pd2dsy/libdaisy/src/hid/disp/display.h ****                   uint_fast8_t x2,
 224:../../../lib/pd2dsy/libdaisy/src/hid/disp/display.h ****                   uint_fast8_t y2,
 225:../../../lib/pd2dsy/libdaisy/src/hid/disp/display.h ****                   bool         on) override
 226:../../../lib/pd2dsy/libdaisy/src/hid/disp/display.h ****     {
 227:../../../lib/pd2dsy/libdaisy/src/hid/disp/display.h ****         int_fast16_t deltaX = abs((int_fast16_t)x2 - (int_fast16_t)x1);
 228:../../../lib/pd2dsy/libdaisy/src/hid/disp/display.h ****         int_fast16_t deltaY = abs((int_fast16_t)y2 - (int_fast16_t)y1);
 229:../../../lib/pd2dsy/libdaisy/src/hid/disp/display.h ****         int_fast16_t signX  = ((x1 < x2) ? 1 : -1);
 230:../../../lib/pd2dsy/libdaisy/src/hid/disp/display.h ****         int_fast16_t signY  = ((y1 < y2) ? 1 : -1);
 231:../../../lib/pd2dsy/libdaisy/src/hid/disp/display.h ****         int_fast16_t error  = deltaX - deltaY;
 232:../../../lib/pd2dsy/libdaisy/src/hid/disp/display.h ****         int_fast16_t error2;
 233:../../../lib/pd2dsy/libdaisy/src/hid/disp/display.h **** 
 234:../../../lib/pd2dsy/libdaisy/src/hid/disp/display.h ****         // If we write "ChildType::DrawPixel(x2, y2, on);", we end up with
 235:../../../lib/pd2dsy/libdaisy/src/hid/disp/display.h ****         // all sorts of weird compiler errors when the Child class is a template
 236:../../../lib/pd2dsy/libdaisy/src/hid/disp/display.h ****         // class. The only way around this is to use this very verbose syntax:
 237:../../../lib/pd2dsy/libdaisy/src/hid/disp/display.h ****         ((ChildType*)(this))->ChildType::DrawPixel(x2, y2, on);
 238:../../../lib/pd2dsy/libdaisy/src/hid/disp/display.h **** 
 239:../../../lib/pd2dsy/libdaisy/src/hid/disp/display.h ****         while((x1 != x2) || (y1 != y2))
 240:../../../lib/pd2dsy/libdaisy/src/hid/disp/display.h ****         {
 241:../../../lib/pd2dsy/libdaisy/src/hid/disp/display.h ****             ((ChildType*)(this))->ChildType::DrawPixel(x1, y1, on);
 242:../../../lib/pd2dsy/libdaisy/src/hid/disp/display.h ****             error2 = error * 2;
 243:../../../lib/pd2dsy/libdaisy/src/hid/disp/display.h ****             if(error2 > -deltaY)
 244:../../../lib/pd2dsy/libdaisy/src/hid/disp/display.h ****             {
 245:../../../lib/pd2dsy/libdaisy/src/hid/disp/display.h ****                 error -= deltaY;
 246:../../../lib/pd2dsy/libdaisy/src/hid/disp/display.h ****                 x1 += signX;
 247:../../../lib/pd2dsy/libdaisy/src/hid/disp/display.h ****             }
 248:../../../lib/pd2dsy/libdaisy/src/hid/disp/display.h **** 
 249:../../../lib/pd2dsy/libdaisy/src/hid/disp/display.h ****             if(error2 < deltaX)
 250:../../../lib/pd2dsy/libdaisy/src/hid/disp/display.h ****             {
 251:../../../lib/pd2dsy/libdaisy/src/hid/disp/display.h ****                 error += deltaX;
 252:../../../lib/pd2dsy/libdaisy/src/hid/disp/display.h ****                 y1 += signY;
 253:../../../lib/pd2dsy/libdaisy/src/hid/disp/display.h ****             }
 254:../../../lib/pd2dsy/libdaisy/src/hid/disp/display.h ****         }
 255:../../../lib/pd2dsy/libdaisy/src/hid/disp/display.h ****     }
 256:../../../lib/pd2dsy/libdaisy/src/hid/disp/display.h **** 
 257:../../../lib/pd2dsy/libdaisy/src/hid/disp/display.h ****     void DrawRect(uint_fast8_t x1,
 258:../../../lib/pd2dsy/libdaisy/src/hid/disp/display.h ****                   uint_fast8_t y1,
 259:../../../lib/pd2dsy/libdaisy/src/hid/disp/display.h ****                   uint_fast8_t x2,
 260:../../../lib/pd2dsy/libdaisy/src/hid/disp/display.h ****                   uint_fast8_t y2,
 261:../../../lib/pd2dsy/libdaisy/src/hid/disp/display.h ****                   bool         on,
 262:../../../lib/pd2dsy/libdaisy/src/hid/disp/display.h ****                   bool         fill = false) override
ARM GAS  /var/folders/fb/yfxt3z4538j6z0vjt03w70vc0000gn/T//cc0qjWS6.s 			page 32


 263:../../../lib/pd2dsy/libdaisy/src/hid/disp/display.h ****     {
 264:../../../lib/pd2dsy/libdaisy/src/hid/disp/display.h ****         if(fill)
 265:../../../lib/pd2dsy/libdaisy/src/hid/disp/display.h ****         {
 266:../../../lib/pd2dsy/libdaisy/src/hid/disp/display.h ****             for(uint_fast8_t x = x1; x <= x2; x++)
 267:../../../lib/pd2dsy/libdaisy/src/hid/disp/display.h ****             {
 268:../../../lib/pd2dsy/libdaisy/src/hid/disp/display.h ****                 for(uint_fast8_t y = y1; y <= y2; y++)
 269:../../../lib/pd2dsy/libdaisy/src/hid/disp/display.h ****                 {
 270:../../../lib/pd2dsy/libdaisy/src/hid/disp/display.h ****                     ((ChildType*)(this))->ChildType::DrawPixel(x, y, on);
 271:../../../lib/pd2dsy/libdaisy/src/hid/disp/display.h ****                 }
 272:../../../lib/pd2dsy/libdaisy/src/hid/disp/display.h ****             }
 273:../../../lib/pd2dsy/libdaisy/src/hid/disp/display.h ****         }
 274:../../../lib/pd2dsy/libdaisy/src/hid/disp/display.h ****         else
 275:../../../lib/pd2dsy/libdaisy/src/hid/disp/display.h ****         {
 276:../../../lib/pd2dsy/libdaisy/src/hid/disp/display.h ****             ((ChildType*)(this))->ChildType::DrawLine(x1, y1, x2, y1, on);
 277:../../../lib/pd2dsy/libdaisy/src/hid/disp/display.h ****             ((ChildType*)(this))->ChildType::DrawLine(x2, y1, x2, y2, on);
 278:../../../lib/pd2dsy/libdaisy/src/hid/disp/display.h ****             ((ChildType*)(this))->ChildType::DrawLine(x2, y2, x1, y2, on);
 279:../../../lib/pd2dsy/libdaisy/src/hid/disp/display.h ****             ((ChildType*)(this))->ChildType::DrawLine(x1, y2, x1, y1, on);
 280:../../../lib/pd2dsy/libdaisy/src/hid/disp/display.h ****         }
 281:../../../lib/pd2dsy/libdaisy/src/hid/disp/display.h ****     }
 282:../../../lib/pd2dsy/libdaisy/src/hid/disp/display.h **** 
 283:../../../lib/pd2dsy/libdaisy/src/hid/disp/display.h ****     void DrawArc(uint_fast8_t x,
 284:../../../lib/pd2dsy/libdaisy/src/hid/disp/display.h ****                  uint_fast8_t y,
 285:../../../lib/pd2dsy/libdaisy/src/hid/disp/display.h ****                  uint_fast8_t radius,
 286:../../../lib/pd2dsy/libdaisy/src/hid/disp/display.h ****                  int_fast16_t start_angle,
 287:../../../lib/pd2dsy/libdaisy/src/hid/disp/display.h ****                  int_fast16_t sweep,
 288:../../../lib/pd2dsy/libdaisy/src/hid/disp/display.h ****                  bool         on) override
 289:../../../lib/pd2dsy/libdaisy/src/hid/disp/display.h ****     {
 290:../../../lib/pd2dsy/libdaisy/src/hid/disp/display.h ****         // Values to calculate the circle
 291:../../../lib/pd2dsy/libdaisy/src/hid/disp/display.h ****         int_fast16_t t_x, t_y, err, e2;
 292:../../../lib/pd2dsy/libdaisy/src/hid/disp/display.h **** 
 293:../../../lib/pd2dsy/libdaisy/src/hid/disp/display.h ****         // Temporary values to speed up comparisons
 294:../../../lib/pd2dsy/libdaisy/src/hid/disp/display.h ****         float t_sxy, t_syx, t_sxny, t_synx;
 295:../../../lib/pd2dsy/libdaisy/src/hid/disp/display.h ****         float t_exy, t_eyx, t_exny, t_eynx;
 296:../../../lib/pd2dsy/libdaisy/src/hid/disp/display.h **** 
 297:../../../lib/pd2dsy/libdaisy/src/hid/disp/display.h ****         float start_angle_rad, end_angle_rad;
 298:../../../lib/pd2dsy/libdaisy/src/hid/disp/display.h ****         float start_x, start_y, end_x, end_y;
 299:../../../lib/pd2dsy/libdaisy/src/hid/disp/display.h **** 
 300:../../../lib/pd2dsy/libdaisy/src/hid/disp/display.h ****         bool d1, d2, d3, d4;
 301:../../../lib/pd2dsy/libdaisy/src/hid/disp/display.h **** 
 302:../../../lib/pd2dsy/libdaisy/src/hid/disp/display.h ****         d1 = d2 = d3 = d4 = true;
 303:../../../lib/pd2dsy/libdaisy/src/hid/disp/display.h **** 
 304:../../../lib/pd2dsy/libdaisy/src/hid/disp/display.h ****         bool circle = false;
 305:../../../lib/pd2dsy/libdaisy/src/hid/disp/display.h **** 
 306:../../../lib/pd2dsy/libdaisy/src/hid/disp/display.h ****         if(sweep < 0)
 307:../../../lib/pd2dsy/libdaisy/src/hid/disp/display.h ****         {
 308:../../../lib/pd2dsy/libdaisy/src/hid/disp/display.h ****             start_angle += sweep;
 309:../../../lib/pd2dsy/libdaisy/src/hid/disp/display.h ****             sweep = -sweep;
 310:../../../lib/pd2dsy/libdaisy/src/hid/disp/display.h ****         }
 311:../../../lib/pd2dsy/libdaisy/src/hid/disp/display.h **** 
 312:../../../lib/pd2dsy/libdaisy/src/hid/disp/display.h ****         start_angle_rad = deg2rad(start_angle);
 313:../../../lib/pd2dsy/libdaisy/src/hid/disp/display.h ****         end_angle_rad   = deg2rad(start_angle + sweep);
 314:../../../lib/pd2dsy/libdaisy/src/hid/disp/display.h **** 
 315:../../../lib/pd2dsy/libdaisy/src/hid/disp/display.h ****         start_x = cos(start_angle_rad) * radius;
 316:../../../lib/pd2dsy/libdaisy/src/hid/disp/display.h ****         start_y = -sin(start_angle_rad) * radius;
 317:../../../lib/pd2dsy/libdaisy/src/hid/disp/display.h ****         end_x   = cos(end_angle_rad) * radius;
 318:../../../lib/pd2dsy/libdaisy/src/hid/disp/display.h ****         end_y   = -sin(end_angle_rad) * radius;
 319:../../../lib/pd2dsy/libdaisy/src/hid/disp/display.h **** 
ARM GAS  /var/folders/fb/yfxt3z4538j6z0vjt03w70vc0000gn/T//cc0qjWS6.s 			page 33


 320:../../../lib/pd2dsy/libdaisy/src/hid/disp/display.h ****         // Check if start and endpoint are very near
 321:../../../lib/pd2dsy/libdaisy/src/hid/disp/display.h ****         if((end_x - start_x) * (end_x - start_x)
 322:../../../lib/pd2dsy/libdaisy/src/hid/disp/display.h ****                + (end_y - start_y) * (end_y - start_y)
 323:../../../lib/pd2dsy/libdaisy/src/hid/disp/display.h ****            < 2.0f)
 324:../../../lib/pd2dsy/libdaisy/src/hid/disp/display.h ****         {
 325:../../../lib/pd2dsy/libdaisy/src/hid/disp/display.h ****             if(sweep > 180)
 326:../../../lib/pd2dsy/libdaisy/src/hid/disp/display.h ****                 circle = true;
 327:../../../lib/pd2dsy/libdaisy/src/hid/disp/display.h ****             else
 328:../../../lib/pd2dsy/libdaisy/src/hid/disp/display.h ****                 // Nothing to draw
 329:../../../lib/pd2dsy/libdaisy/src/hid/disp/display.h ****                 return;
 330:../../../lib/pd2dsy/libdaisy/src/hid/disp/display.h ****         }
 331:../../../lib/pd2dsy/libdaisy/src/hid/disp/display.h **** 
 332:../../../lib/pd2dsy/libdaisy/src/hid/disp/display.h ****         t_x = -radius;
 333:../../../lib/pd2dsy/libdaisy/src/hid/disp/display.h ****         t_y = 0;
 334:../../../lib/pd2dsy/libdaisy/src/hid/disp/display.h ****         err = 2 - 2 * radius;
 335:../../../lib/pd2dsy/libdaisy/src/hid/disp/display.h **** 
 336:../../../lib/pd2dsy/libdaisy/src/hid/disp/display.h ****         do
 337:../../../lib/pd2dsy/libdaisy/src/hid/disp/display.h ****         {
 338:../../../lib/pd2dsy/libdaisy/src/hid/disp/display.h ****             if(!circle)
 339:../../../lib/pd2dsy/libdaisy/src/hid/disp/display.h ****             {
 340:../../../lib/pd2dsy/libdaisy/src/hid/disp/display.h ****                 t_sxy  = start_x * t_y;
 341:../../../lib/pd2dsy/libdaisy/src/hid/disp/display.h ****                 t_syx  = start_y * t_x;
 342:../../../lib/pd2dsy/libdaisy/src/hid/disp/display.h ****                 t_sxny = start_x * -t_y;
 343:../../../lib/pd2dsy/libdaisy/src/hid/disp/display.h ****                 t_synx = start_y * -t_x;
 344:../../../lib/pd2dsy/libdaisy/src/hid/disp/display.h ****                 t_exy  = end_x * t_y;
 345:../../../lib/pd2dsy/libdaisy/src/hid/disp/display.h ****                 t_eyx  = end_y * t_x;
 346:../../../lib/pd2dsy/libdaisy/src/hid/disp/display.h ****                 t_exny = end_x * -t_y;
 347:../../../lib/pd2dsy/libdaisy/src/hid/disp/display.h ****                 t_eynx = end_y * -t_x;
 348:../../../lib/pd2dsy/libdaisy/src/hid/disp/display.h **** 
 349:../../../lib/pd2dsy/libdaisy/src/hid/disp/display.h ****                 if(sweep > 180)
 350:../../../lib/pd2dsy/libdaisy/src/hid/disp/display.h ****                 {
 351:../../../lib/pd2dsy/libdaisy/src/hid/disp/display.h ****                     d1 = (t_sxy - t_synx < 0 || t_exy - t_eynx > 0);
 352:../../../lib/pd2dsy/libdaisy/src/hid/disp/display.h ****                     d2 = (t_sxy - t_syx < 0 || t_exy - t_eyx > 0);
 353:../../../lib/pd2dsy/libdaisy/src/hid/disp/display.h ****                     d3 = (t_sxny - t_syx < 0 || t_exny - t_eyx > 0);
 354:../../../lib/pd2dsy/libdaisy/src/hid/disp/display.h ****                     d4 = (t_sxny - t_synx < 0 || t_exny - t_eynx > 0);
 355:../../../lib/pd2dsy/libdaisy/src/hid/disp/display.h ****                 }
 356:../../../lib/pd2dsy/libdaisy/src/hid/disp/display.h ****                 else
 357:../../../lib/pd2dsy/libdaisy/src/hid/disp/display.h ****                 {
 358:../../../lib/pd2dsy/libdaisy/src/hid/disp/display.h ****                     d1 = (t_sxy - t_synx < 0 && t_exy - t_eynx > 0);
 359:../../../lib/pd2dsy/libdaisy/src/hid/disp/display.h ****                     d2 = (t_sxy - t_syx < 0 && t_exy - t_eyx > 0);
 360:../../../lib/pd2dsy/libdaisy/src/hid/disp/display.h ****                     d3 = (t_sxny - t_syx < 0 && t_exny - t_eyx > 0);
 361:../../../lib/pd2dsy/libdaisy/src/hid/disp/display.h ****                     d4 = (t_sxny - t_synx < 0 && t_exny - t_eynx > 0);
 362:../../../lib/pd2dsy/libdaisy/src/hid/disp/display.h ****                 }
 363:../../../lib/pd2dsy/libdaisy/src/hid/disp/display.h ****             }
 364:../../../lib/pd2dsy/libdaisy/src/hid/disp/display.h **** 
 365:../../../lib/pd2dsy/libdaisy/src/hid/disp/display.h ****             if(d1)
 366:../../../lib/pd2dsy/libdaisy/src/hid/disp/display.h ****                 ((ChildType*)(this))
 367:../../../lib/pd2dsy/libdaisy/src/hid/disp/display.h ****                     ->ChildType::DrawPixel(x - t_x, y + t_y, on);
 368:../../../lib/pd2dsy/libdaisy/src/hid/disp/display.h ****             if(d2)
 369:../../../lib/pd2dsy/libdaisy/src/hid/disp/display.h ****                 ((ChildType*)(this))
 370:../../../lib/pd2dsy/libdaisy/src/hid/disp/display.h ****                     ->ChildType::DrawPixel(x + t_x, y + t_y, on);
 371:../../../lib/pd2dsy/libdaisy/src/hid/disp/display.h ****             if(d3)
 372:../../../lib/pd2dsy/libdaisy/src/hid/disp/display.h ****                 ((ChildType*)(this))
 373:../../../lib/pd2dsy/libdaisy/src/hid/disp/display.h ****                     ->ChildType::DrawPixel(x + t_x, y - t_y, on);
 374:../../../lib/pd2dsy/libdaisy/src/hid/disp/display.h ****             if(d4)
 375:../../../lib/pd2dsy/libdaisy/src/hid/disp/display.h ****                 ((ChildType*)(this))
 376:../../../lib/pd2dsy/libdaisy/src/hid/disp/display.h ****                     ->ChildType::DrawPixel(x - t_x, y - t_y, on);
ARM GAS  /var/folders/fb/yfxt3z4538j6z0vjt03w70vc0000gn/T//cc0qjWS6.s 			page 34


 377:../../../lib/pd2dsy/libdaisy/src/hid/disp/display.h **** 
 378:../../../lib/pd2dsy/libdaisy/src/hid/disp/display.h ****             e2 = err;
 379:../../../lib/pd2dsy/libdaisy/src/hid/disp/display.h ****             if(e2 <= t_y)
 380:../../../lib/pd2dsy/libdaisy/src/hid/disp/display.h ****             {
 381:../../../lib/pd2dsy/libdaisy/src/hid/disp/display.h ****                 t_y++;
 382:../../../lib/pd2dsy/libdaisy/src/hid/disp/display.h ****                 err = err + (t_y * 2 + 1);
 383:../../../lib/pd2dsy/libdaisy/src/hid/disp/display.h ****                 if(-t_x == t_y && e2 <= t_x)
 384:../../../lib/pd2dsy/libdaisy/src/hid/disp/display.h ****                 {
 385:../../../lib/pd2dsy/libdaisy/src/hid/disp/display.h ****                     e2 = 0;
 386:../../../lib/pd2dsy/libdaisy/src/hid/disp/display.h ****                 }
 387:../../../lib/pd2dsy/libdaisy/src/hid/disp/display.h ****             }
 388:../../../lib/pd2dsy/libdaisy/src/hid/disp/display.h ****             if(e2 > t_x)
 389:../../../lib/pd2dsy/libdaisy/src/hid/disp/display.h ****             {
 390:../../../lib/pd2dsy/libdaisy/src/hid/disp/display.h ****                 t_x++;
 391:../../../lib/pd2dsy/libdaisy/src/hid/disp/display.h ****                 err = err + (t_x * 2 + 1);
 392:../../../lib/pd2dsy/libdaisy/src/hid/disp/display.h ****             }
 393:../../../lib/pd2dsy/libdaisy/src/hid/disp/display.h ****         } while(t_x <= 0);
 394:../../../lib/pd2dsy/libdaisy/src/hid/disp/display.h ****     }
 395:../../../lib/pd2dsy/libdaisy/src/hid/disp/display.h **** 
 396:../../../lib/pd2dsy/libdaisy/src/hid/disp/display.h ****     char WriteChar(char ch, FontDef font, bool on) override
 397:../../../lib/pd2dsy/libdaisy/src/hid/disp/display.h ****     {
 398:../../../lib/pd2dsy/libdaisy/src/hid/disp/display.h ****         uint32_t i, b, j;
 399:../../../lib/pd2dsy/libdaisy/src/hid/disp/display.h **** 
 400:../../../lib/pd2dsy/libdaisy/src/hid/disp/display.h ****         // Check if character is valid
 401:../../../lib/pd2dsy/libdaisy/src/hid/disp/display.h ****         if(ch < 32 || ch > 126)
 402:../../../lib/pd2dsy/libdaisy/src/hid/disp/display.h ****             return 0;
 403:../../../lib/pd2dsy/libdaisy/src/hid/disp/display.h **** 
 404:../../../lib/pd2dsy/libdaisy/src/hid/disp/display.h ****         // Check remaining space on current line
 405:../../../lib/pd2dsy/libdaisy/src/hid/disp/display.h ****         if(Width() < (currentX_ + font.FontWidth)
 406:../../../lib/pd2dsy/libdaisy/src/hid/disp/display.h ****            || Height() < (currentY_ + font.FontHeight))
 407:../../../lib/pd2dsy/libdaisy/src/hid/disp/display.h ****         {
 408:../../../lib/pd2dsy/libdaisy/src/hid/disp/display.h ****             // Not enough space on current line
 409:../../../lib/pd2dsy/libdaisy/src/hid/disp/display.h ****             return 0;
 410:../../../lib/pd2dsy/libdaisy/src/hid/disp/display.h ****         }
 411:../../../lib/pd2dsy/libdaisy/src/hid/disp/display.h **** 
 412:../../../lib/pd2dsy/libdaisy/src/hid/disp/display.h ****         // Use the font to write
 413:../../../lib/pd2dsy/libdaisy/src/hid/disp/display.h ****         for(i = 0; i < font.FontHeight; i++)
 414:../../../lib/pd2dsy/libdaisy/src/hid/disp/display.h ****         {
 415:../../../lib/pd2dsy/libdaisy/src/hid/disp/display.h ****             b = font.data[(ch - 32) * font.FontHeight + i];
 416:../../../lib/pd2dsy/libdaisy/src/hid/disp/display.h ****             for(j = 0; j < font.FontWidth; j++)
 417:../../../lib/pd2dsy/libdaisy/src/hid/disp/display.h ****             {
 418:../../../lib/pd2dsy/libdaisy/src/hid/disp/display.h ****                 if((b << j) & 0x8000)
 419:../../../lib/pd2dsy/libdaisy/src/hid/disp/display.h ****                 {
 420:../../../lib/pd2dsy/libdaisy/src/hid/disp/display.h ****                     ((ChildType*)(this))
 421:../../../lib/pd2dsy/libdaisy/src/hid/disp/display.h ****                         ->ChildType::DrawPixel(
 422:../../../lib/pd2dsy/libdaisy/src/hid/disp/display.h ****                             currentX_ + j, (currentY_ + i), on);
 423:../../../lib/pd2dsy/libdaisy/src/hid/disp/display.h ****                 }
 424:../../../lib/pd2dsy/libdaisy/src/hid/disp/display.h ****                 else
 425:../../../lib/pd2dsy/libdaisy/src/hid/disp/display.h ****                 {
 426:../../../lib/pd2dsy/libdaisy/src/hid/disp/display.h ****                     ((ChildType*)(this))
 427:../../../lib/pd2dsy/libdaisy/src/hid/disp/display.h ****                         ->ChildType::DrawPixel(
 428:../../../lib/pd2dsy/libdaisy/src/hid/disp/display.h ****                             currentX_ + j, (currentY_ + i), !on);
 429:../../../lib/pd2dsy/libdaisy/src/hid/disp/display.h ****                 }
 430:../../../lib/pd2dsy/libdaisy/src/hid/disp/display.h ****             }
 431:../../../lib/pd2dsy/libdaisy/src/hid/disp/display.h ****         }
 432:../../../lib/pd2dsy/libdaisy/src/hid/disp/display.h **** 
 433:../../../lib/pd2dsy/libdaisy/src/hid/disp/display.h ****         // The current space is now taken
ARM GAS  /var/folders/fb/yfxt3z4538j6z0vjt03w70vc0000gn/T//cc0qjWS6.s 			page 35


 434:../../../lib/pd2dsy/libdaisy/src/hid/disp/display.h ****         SetCursor(currentX_ + font.FontWidth, currentY_);
 435:../../../lib/pd2dsy/libdaisy/src/hid/disp/display.h **** 
 436:../../../lib/pd2dsy/libdaisy/src/hid/disp/display.h ****         // Return written char for validation
 437:../../../lib/pd2dsy/libdaisy/src/hid/disp/display.h ****         return ch;
 438:../../../lib/pd2dsy/libdaisy/src/hid/disp/display.h ****     }
 439:../../../lib/pd2dsy/libdaisy/src/hid/disp/display.h **** 
 440:../../../lib/pd2dsy/libdaisy/src/hid/disp/display.h ****     char WriteString(const char* str, FontDef font, bool on) override
 550              		.loc 4 440 10 is_stmt 1 view -0
 551              		.cfi_startproc
 552              		@ args = 4, pretend = 0, frame = 32
 553              		@ frame_needed = 0, uses_anonymous_args = 0
 554              		.loc 4 440 10 is_stmt 0 view .LVU118
 555 0000 2DE9F04F 		push	{r4, r5, r6, r7, r8, r9, r10, fp, lr}
 556              		.cfi_def_cfa_offset 36
 557              		.cfi_offset 4, -36
 558              		.cfi_offset 5, -32
 559              		.cfi_offset 6, -28
 560              		.cfi_offset 7, -24
 561              		.cfi_offset 8, -20
 562              		.cfi_offset 9, -16
 563              		.cfi_offset 10, -12
 564              		.cfi_offset 11, -8
 565              		.cfi_offset 14, -4
 566 0004 89B0     		sub	sp, sp, #36
 567              		.cfi_def_cfa_offset 72
 568              		.loc 4 440 10 view .LVU119
 569 0006 08AC     		add	r4, sp, #32
 570 0008 9DF84870 		ldrb	r7, [sp, #72]	@ zero_extendqisi2
 571 000c 0191     		str	r1, [sp, #4]
 572 000e 04E90C00 		stmdb	r4, {r2, r3}
 441:../../../lib/pd2dsy/libdaisy/src/hid/disp/display.h ****     {
 442:../../../lib/pd2dsy/libdaisy/src/hid/disp/display.h ****         // Write until null-byte
 443:../../../lib/pd2dsy/libdaisy/src/hid/disp/display.h ****         while(*str)
 573              		.loc 4 443 9 is_stmt 1 view .LVU120
 574 0012 0B78     		ldrb	r3, [r1]	@ zero_extendqisi2
 575 0014 002B     		cmp	r3, #0
 576 0016 00F0AB80 		beq	.L38
 577 001a 1A46     		mov	r2, r3
 578 001c 9DF81880 		ldrb	r8, [sp, #24]	@ zero_extendqisi2
 579 0020 9DF81930 		ldrb	r3, [sp, #25]	@ zero_extendqisi2
 580 0024 0646     		mov	r6, r0
 581 0026 4546     		mov	r5, r8
 582 0028 9046     		mov	r8, r2
 583 002a 0393     		str	r3, [sp, #12]
 584 002c 079B     		ldr	r3, [sp, #28]
 585 002e 0593     		str	r3, [sp, #20]
 586              	.LVL30:
 587              	.L39:
 588              	.LBB606:
 589              	.LBI606:
 396:../../../lib/pd2dsy/libdaisy/src/hid/disp/display.h ****     {
 590              		.loc 4 396 10 view .LVU121
 591              	.LBB607:
 401:../../../lib/pd2dsy/libdaisy/src/hid/disp/display.h ****             return 0;
 592              		.loc 4 401 20 is_stmt 0 view .LVU122
 593 0030 A8F12004 		sub	r4, r8, #32
 401:../../../lib/pd2dsy/libdaisy/src/hid/disp/display.h ****             return 0;
ARM GAS  /var/folders/fb/yfxt3z4538j6z0vjt03w70vc0000gn/T//cc0qjWS6.s 			page 36


 594              		.loc 4 401 9 view .LVU123
 595 0034 E3B2     		uxtb	r3, r4
 596 0036 5E2B     		cmp	r3, #94
 597 0038 00F29E80 		bhi	.L20
 405:../../../lib/pd2dsy/libdaisy/src/hid/disp/display.h ****            || Height() < (currentY_ + font.FontHeight))
 598              		.loc 4 405 17 view .LVU124
 599 003c 3368     		ldr	r3, [r6]
 600 003e 5E4A     		ldr	r2, .L60
 601 0040 DB68     		ldr	r3, [r3, #12]
 602 0042 9342     		cmp	r3, r2
 603 0044 40F09B80 		bne	.L53
 604 0048 8020     		movs	r0, #128
 605              	.L19:
 405:../../../lib/pd2dsy/libdaisy/src/hid/disp/display.h ****            || Height() < (currentY_ + font.FontHeight))
 606              		.loc 4 405 23 view .LVU125
 607 004a B388     		ldrh	r3, [r6, #4]
 405:../../../lib/pd2dsy/libdaisy/src/hid/disp/display.h ****            || Height() < (currentY_ + font.FontHeight))
 608              		.loc 4 405 33 view .LVU126
 609 004c 2B44     		add	r3, r3, r5
 406:../../../lib/pd2dsy/libdaisy/src/hid/disp/display.h ****         {
 610              		.loc 4 406 12 view .LVU127
 611 004e 8342     		cmp	r3, r0
 612 0050 00F39280 		bgt	.L20
 406:../../../lib/pd2dsy/libdaisy/src/hid/disp/display.h ****         {
 613              		.loc 4 406 21 view .LVU128
 614 0054 3368     		ldr	r3, [r6]
 615 0056 594A     		ldr	r2, .L60+4
 616 0058 9B68     		ldr	r3, [r3, #8]
 617 005a 9342     		cmp	r3, r2
 618 005c 40F09280 		bne	.L54
 619 0060 4020     		movs	r0, #64
 620              	.L21:
 406:../../../lib/pd2dsy/libdaisy/src/hid/disp/display.h ****         {
 621              		.loc 4 406 27 view .LVU129
 622 0062 F188     		ldrh	r1, [r6, #6]
 406:../../../lib/pd2dsy/libdaisy/src/hid/disp/display.h ****         {
 623              		.loc 4 406 37 view .LVU130
 624 0064 039A     		ldr	r2, [sp, #12]
 406:../../../lib/pd2dsy/libdaisy/src/hid/disp/display.h ****         {
 625              		.loc 4 406 27 view .LVU131
 626 0066 0291     		str	r1, [sp, #8]
 406:../../../lib/pd2dsy/libdaisy/src/hid/disp/display.h ****         {
 627              		.loc 4 406 37 view .LVU132
 628 0068 8B18     		adds	r3, r1, r2
 406:../../../lib/pd2dsy/libdaisy/src/hid/disp/display.h ****         {
 629              		.loc 4 406 12 view .LVU133
 630 006a 8342     		cmp	r3, r0
 631 006c 00F38480 		bgt	.L20
 632              	.LVL31:
 413:../../../lib/pd2dsy/libdaisy/src/hid/disp/display.h ****         {
 633              		.loc 4 413 22 is_stmt 1 view .LVU134
 634 0070 002A     		cmp	r2, #0
 635 0072 00F09180 		beq	.L22
 415:../../../lib/pd2dsy/libdaisy/src/hid/disp/display.h ****             for(j = 0; j < font.FontWidth; j++)
 636              		.loc 4 415 37 is_stmt 0 view .LVU135
 637 0076 02FB04F4 		mul	r4, r2, r4
 638 007a 6FF00049 		mvn	r9, #-2147483648
ARM GAS  /var/folders/fb/yfxt3z4538j6z0vjt03w70vc0000gn/T//cc0qjWS6.s 			page 37


 639 007e 059B     		ldr	r3, [sp, #20]
 640 0080 A144     		add	r9, r9, r4
 641 0082 1444     		add	r4, r4, r2
 434:../../../lib/pd2dsy/libdaisy/src/hid/disp/display.h **** 
 642              		.loc 4 434 19 view .LVU136
 643 0084 B6F804B0 		ldrh	fp, [r6, #4]
 644 0088 03EB4909 		add	r9, r3, r9, lsl #1
 645 008c 023B     		subs	r3, r3, #2
 646 008e CDF81080 		str	r8, [sp, #16]
 647 0092 03EB4403 		add	r3, r3, r4, lsl #1
 648 0096 0C46     		mov	r4, r1
 649 0098 9A46     		mov	r10, r3
 650              	.LVL32:
 651              	.L25:
 415:../../../lib/pd2dsy/libdaisy/src/hid/disp/display.h ****             for(j = 0; j < font.FontWidth; j++)
 652              		.loc 4 415 15 view .LVU137
 653 009a 39F802CF 		ldrh	ip, [r9, #2]!
 654              	.LVL33:
 416:../../../lib/pd2dsy/libdaisy/src/hid/disp/display.h ****             {
 655              		.loc 4 416 26 is_stmt 1 view .LVU138
 656 009e A5B3     		cbz	r5, .L30
 657              	.LBB608:
 658              	.LBB609:
 659              	.LBB610:
 660              	.LBB611:
 661              	.LBB612:
 259:../../../lib/pd2dsy/libdaisy/src/dev/oled_ssd130x.h ****     }
 662              		.loc 3 259 55 is_stmt 0 view .LVU139
 663 00a0 04F00703 		and	r3, r4, #7
 259:../../../lib/pd2dsy/libdaisy/src/dev/oled_ssd130x.h ****     }
 664              		.loc 3 259 49 view .LVU140
 665 00a4 4FF0010E 		mov	lr, #1
 259:../../../lib/pd2dsy/libdaisy/src/dev/oled_ssd130x.h ****     }
 666              		.loc 3 259 28 view .LVU141
 667 00a8 E208     		lsrs	r2, r4, #3
 668 00aa 5946     		mov	r1, fp
 259:../../../lib/pd2dsy/libdaisy/src/dev/oled_ssd130x.h ****     }
 669              		.loc 3 259 49 view .LVU142
 670 00ac 0EFA03FE 		lsl	lr, lr, r3
 671 00b0 0BF11403 		add	r3, fp, #20
 259:../../../lib/pd2dsy/libdaisy/src/dev/oled_ssd130x.h ****     }
 672              		.loc 3 259 42 view .LVU143
 673 00b4 4FFA8EFE 		sxtb	lr, lr
 674 00b8 03EBC212 		add	r2, r3, r2, lsl #7
 675              	.LBE612:
 676              	.LBE611:
 677              	.LBE610:
 678              	.LBE609:
 679              	.LBE608:
 416:../../../lib/pd2dsy/libdaisy/src/hid/disp/display.h ****             {
 680              		.loc 4 416 19 view .LVU144
 681 00bc 0023     		movs	r3, #0
 682              	.LBB630:
 683              	.LBB625:
 684              	.LBB620:
 685              	.LBB616:
 686              	.LBB613:
ARM GAS  /var/folders/fb/yfxt3z4538j6z0vjt03w70vc0000gn/T//cc0qjWS6.s 			page 38


 259:../../../lib/pd2dsy/libdaisy/src/dev/oled_ssd130x.h ****     }
 687              		.loc 3 259 42 view .LVU145
 688 00be 6FEA0E08 		mvn	r8, lr
 689 00c2 3244     		add	r2, r2, r6
 690 00c4 0DE0     		b	.L31
 691              	.LVL34:
 692              	.L55:
 259:../../../lib/pd2dsy/libdaisy/src/dev/oled_ssd130x.h ****     }
 693              		.loc 3 259 42 view .LVU146
 694              	.LBE613:
 695              	.LBE616:
 696              	.LBE620:
 697              	.LBE625:
 698              	.LBE630:
 699              	.LBB631:
 700              	.LBI631:
  42:../../../lib/pd2dsy/libdaisy/src/hid/disp/oled_display.h ****     {
 701              		.loc 2 42 10 is_stmt 1 view .LVU147
 702              	.LBB632:
 703              	.LBI632:
 252:../../../lib/pd2dsy/libdaisy/src/dev/oled_ssd130x.h ****     {
 704              		.loc 3 252 10 view .LVU148
 705              	.LBB633:
 254:../../../lib/pd2dsy/libdaisy/src/dev/oled_ssd130x.h ****             return;
 706              		.loc 3 254 9 is_stmt 0 view .LVU149
 707 00c6 7F29     		cmp	r1, #127
 708 00c8 06D8     		bhi	.L27
 709 00ca 3F2C     		cmp	r4, #63
 710 00cc 04D8     		bhi	.L27
 257:../../../lib/pd2dsy/libdaisy/src/dev/oled_ssd130x.h ****         else
 711              		.loc 3 257 42 view .LVU150
 712 00ce 1078     		ldrb	r0, [r2]	@ zero_extendqisi2
 256:../../../lib/pd2dsy/libdaisy/src/dev/oled_ssd130x.h ****             buffer_[x + (y / 8) * width] |= (1 << (y % 8));
 713              		.loc 3 256 9 view .LVU151
 714 00d0 97B1     		cbz	r7, .L29
 715              	.L52:
 256:../../../lib/pd2dsy/libdaisy/src/dev/oled_ssd130x.h ****             buffer_[x + (y / 8) * width] |= (1 << (y % 8));
 716              		.loc 3 256 9 view .LVU152
 717              	.LBE633:
 718              	.LBE632:
 719              	.LBE631:
 720              	.LBB634:
 721              	.LBB626:
 722              	.LBB621:
 257:../../../lib/pd2dsy/libdaisy/src/dev/oled_ssd130x.h ****         else
 723              		.loc 3 257 42 view .LVU153
 724 00d2 4EEA0000 		orr	r0, lr, r0
 725 00d6 1070     		strb	r0, [r2]
 726              	.L27:
 727              	.LBE621:
 728              	.LBE626:
 729              	.LBE634:
 416:../../../lib/pd2dsy/libdaisy/src/hid/disp/display.h ****             {
 730              		.loc 4 416 13 is_stmt 1 view .LVU154
 731 00d8 0133     		adds	r3, r3, #1
 732              	.LVL35:
 416:../../../lib/pd2dsy/libdaisy/src/hid/disp/display.h ****             {
ARM GAS  /var/folders/fb/yfxt3z4538j6z0vjt03w70vc0000gn/T//cc0qjWS6.s 			page 39


 733              		.loc 4 416 26 view .LVU155
 734 00da 0132     		adds	r2, r2, #1
 735 00dc 0131     		adds	r1, r1, #1
 736 00de AB42     		cmp	r3, r5
 737 00e0 13D0     		beq	.L30
 738              	.LVL36:
 739              	.L31:
 418:../../../lib/pd2dsy/libdaisy/src/hid/disp/display.h ****                 {
 740              		.loc 4 418 23 is_stmt 0 view .LVU156
 741 00e2 0CFA03F0 		lsl	r0, ip, r3
 418:../../../lib/pd2dsy/libdaisy/src/hid/disp/display.h ****                 {
 742              		.loc 4 418 17 view .LVU157
 743 00e6 0004     		lsls	r0, r0, #16
 744 00e8 EDD4     		bmi	.L55
 745              	.LVL37:
 746              	.LBB635:
 747              	.LBI608:
  42:../../../lib/pd2dsy/libdaisy/src/hid/disp/oled_display.h ****     {
 748              		.loc 2 42 10 is_stmt 1 view .LVU158
 749              	.LBB627:
 750              	.LBI609:
 252:../../../lib/pd2dsy/libdaisy/src/dev/oled_ssd130x.h ****     {
 751              		.loc 3 252 10 view .LVU159
 752              	.LBB622:
 254:../../../lib/pd2dsy/libdaisy/src/dev/oled_ssd130x.h ****             return;
 753              		.loc 3 254 9 is_stmt 0 view .LVU160
 754 00ea 7F29     		cmp	r1, #127
 755 00ec F4D8     		bhi	.L27
 756 00ee 3F2C     		cmp	r4, #63
 757 00f0 F2D8     		bhi	.L27
 257:../../../lib/pd2dsy/libdaisy/src/dev/oled_ssd130x.h ****         else
 758              		.loc 3 257 42 view .LVU161
 759 00f2 1078     		ldrb	r0, [r2]	@ zero_extendqisi2
 256:../../../lib/pd2dsy/libdaisy/src/dev/oled_ssd130x.h ****             buffer_[x + (y / 8) * width] |= (1 << (y % 8));
 760              		.loc 3 256 9 view .LVU162
 761 00f4 002F     		cmp	r7, #0
 762 00f6 ECD0     		beq	.L52
 763              	.L29:
 764              	.LVL38:
 765              	.LBB617:
 766              	.LBI611:
 252:../../../lib/pd2dsy/libdaisy/src/dev/oled_ssd130x.h ****     {
 767              		.loc 3 252 10 is_stmt 1 view .LVU163
 252:../../../lib/pd2dsy/libdaisy/src/dev/oled_ssd130x.h ****     {
 768              		.loc 3 252 10 is_stmt 0 view .LVU164
 769              	.LBE617:
 770              	.LBE622:
 771              	.LBE627:
 772              	.LBE635:
 416:../../../lib/pd2dsy/libdaisy/src/hid/disp/display.h ****             {
 773              		.loc 4 416 13 view .LVU165
 774 00f8 0133     		adds	r3, r3, #1
 775              	.LVL39:
 776              	.LBB636:
 777              	.LBB628:
 778              	.LBB623:
 779              	.LBB618:
ARM GAS  /var/folders/fb/yfxt3z4538j6z0vjt03w70vc0000gn/T//cc0qjWS6.s 			page 40


 780              	.LBB614:
 259:../../../lib/pd2dsy/libdaisy/src/dev/oled_ssd130x.h ****     }
 781              		.loc 3 259 42 view .LVU166
 782 00fa 08EA0000 		and	r0, r8, r0
 783              	.LBE614:
 784              	.LBE618:
 785              	.LBE623:
 786              	.LBE628:
 787              	.LBE636:
 416:../../../lib/pd2dsy/libdaisy/src/hid/disp/display.h ****             {
 788              		.loc 4 416 26 view .LVU167
 789 00fe 0132     		adds	r2, r2, #1
 790 0100 0131     		adds	r1, r1, #1
 791 0102 AB42     		cmp	r3, r5
 792              	.LBB637:
 793              	.LBB629:
 794              	.LBB624:
 795              	.LBB619:
 796              	.LBB615:
 259:../../../lib/pd2dsy/libdaisy/src/dev/oled_ssd130x.h ****     }
 797              		.loc 3 259 42 view .LVU168
 798 0104 02F8010C 		strb	r0, [r2, #-1]
 259:../../../lib/pd2dsy/libdaisy/src/dev/oled_ssd130x.h ****     }
 799              		.loc 3 259 42 view .LVU169
 800              	.LBE615:
 801              	.LBE619:
 802              	.LBE624:
 803              	.LBE629:
 804              	.LBE637:
 416:../../../lib/pd2dsy/libdaisy/src/hid/disp/display.h ****             {
 805              		.loc 4 416 13 is_stmt 1 view .LVU170
 806              	.LVL40:
 416:../../../lib/pd2dsy/libdaisy/src/hid/disp/display.h ****             {
 807              		.loc 4 416 26 view .LVU171
 808 0108 EBD1     		bne	.L31
 809              	.LVL41:
 810              	.L30:
 413:../../../lib/pd2dsy/libdaisy/src/hid/disp/display.h ****         {
 811              		.loc 4 413 9 view .LVU172
 413:../../../lib/pd2dsy/libdaisy/src/hid/disp/display.h ****         {
 812              		.loc 4 413 22 view .LVU173
 813 010a D145     		cmp	r9, r10
 814 010c 04F10104 		add	r4, r4, #1
 815 0110 C3D1     		bne	.L25
 816 0112 DDF81080 		ldr	r8, [sp, #16]
 817              	.LVL42:
 818              	.L24:
 819              	.LBB638:
 820              	.LBB639:
 173:../../../lib/pd2dsy/libdaisy/src/hid/disp/display.h ****         currentY_ = (y >= Height()) ? Height() - 1 : y;
 821              		.loc 4 173 33 is_stmt 0 view .LVU174
 822 0116 3268     		ldr	r2, [r6]
 823              	.LBE639:
 824              	.LBE638:
 434:../../../lib/pd2dsy/libdaisy/src/hid/disp/display.h **** 
 825              		.loc 4 434 18 view .LVU175
 826 0118 0BEB0504 		add	r4, fp, r5
ARM GAS  /var/folders/fb/yfxt3z4538j6z0vjt03w70vc0000gn/T//cc0qjWS6.s 			page 41


 827 011c 2649     		ldr	r1, .L60
 828              	.LBB644:
 829              	.LBB640:
 173:../../../lib/pd2dsy/libdaisy/src/hid/disp/display.h ****         currentY_ = (y >= Height()) ? Height() - 1 : y;
 830              		.loc 4 173 33 view .LVU176
 831 011e D368     		ldr	r3, [r2, #12]
 832              	.LBE640:
 833              	.LBE644:
 434:../../../lib/pd2dsy/libdaisy/src/hid/disp/display.h **** 
 834              		.loc 4 434 18 view .LVU177
 835 0120 A4B2     		uxth	r4, r4
 836              	.LVL43:
 837              	.LBB645:
 838              	.LBI638:
 171:../../../lib/pd2dsy/libdaisy/src/hid/disp/display.h ****     {
 839              		.loc 4 171 10 is_stmt 1 view .LVU178
 840              	.LBB641:
 173:../../../lib/pd2dsy/libdaisy/src/hid/disp/display.h ****         currentY_ = (y >= Height()) ? Height() - 1 : y;
 841              		.loc 4 173 9 view .LVU179
 842 0122 8B42     		cmp	r3, r1
 843 0124 34D1     		bne	.L56
 173:../../../lib/pd2dsy/libdaisy/src/hid/disp/display.h ****         currentY_ = (y >= Height()) ? Height() - 1 : y;
 844              		.loc 4 173 33 is_stmt 0 view .LVU180
 845 0126 8020     		movs	r0, #128
 846              	.L32:
 173:../../../lib/pd2dsy/libdaisy/src/hid/disp/display.h ****         currentY_ = (y >= Height()) ? Height() - 1 : y;
 847              		.loc 4 173 19 view .LVU181
 848 0128 8442     		cmp	r4, r0
 849 012a 04D3     		bcc	.L33
 173:../../../lib/pd2dsy/libdaisy/src/hid/disp/display.h ****         currentY_ = (y >= Height()) ? Height() - 1 : y;
 850              		.loc 4 173 44 view .LVU182
 851 012c D368     		ldr	r3, [r2, #12]
 852 012e 2249     		ldr	r1, .L60
 853 0130 8B42     		cmp	r3, r1
 854 0132 3AD1     		bne	.L57
 855 0134 7F24     		movs	r4, #127
 856              	.LVL44:
 857              	.L33:
 174:../../../lib/pd2dsy/libdaisy/src/hid/disp/display.h ****     }
 858              		.loc 4 174 34 view .LVU183
 859 0136 9368     		ldr	r3, [r2, #8]
 860 0138 204A     		ldr	r2, .L60+4
 173:../../../lib/pd2dsy/libdaisy/src/hid/disp/display.h ****         currentY_ = (y >= Height()) ? Height() - 1 : y;
 861              		.loc 4 173 19 view .LVU184
 862 013a B480     		strh	r4, [r6, #4]	@ movhi
 174:../../../lib/pd2dsy/libdaisy/src/hid/disp/display.h ****     }
 863              		.loc 4 174 9 is_stmt 1 view .LVU185
 864 013c 9342     		cmp	r3, r2
 865 013e 24D1     		bne	.L58
 174:../../../lib/pd2dsy/libdaisy/src/hid/disp/display.h ****     }
 866              		.loc 4 174 34 is_stmt 0 view .LVU186
 867 0140 4020     		movs	r0, #64
 868              	.L35:
 174:../../../lib/pd2dsy/libdaisy/src/hid/disp/display.h ****     }
 869              		.loc 4 174 19 view .LVU187
 870 0142 029B     		ldr	r3, [sp, #8]
 871 0144 8342     		cmp	r3, r0
ARM GAS  /var/folders/fb/yfxt3z4538j6z0vjt03w70vc0000gn/T//cc0qjWS6.s 			page 42


 872 0146 06D3     		bcc	.L36
 174:../../../lib/pd2dsy/libdaisy/src/hid/disp/display.h ****     }
 873              		.loc 4 174 46 view .LVU188
 874 0148 3368     		ldr	r3, [r6]
 875 014a 1C4A     		ldr	r2, .L60+4
 876 014c 9B68     		ldr	r3, [r3, #8]
 877 014e 9342     		cmp	r3, r2
 878 0150 25D1     		bne	.L59
 879 0152 3F23     		movs	r3, #63
 880 0154 0293     		str	r3, [sp, #8]
 881              	.LVL45:
 882              	.L36:
 174:../../../lib/pd2dsy/libdaisy/src/hid/disp/display.h ****     }
 883              		.loc 4 174 19 view .LVU189
 884 0156 029B     		ldr	r3, [sp, #8]
 885 0158 F380     		strh	r3, [r6, #6]	@ movhi
 886              	.LVL46:
 887              	.L18:
 174:../../../lib/pd2dsy/libdaisy/src/hid/disp/display.h ****     }
 888              		.loc 4 174 19 view .LVU190
 889              	.LBE641:
 890              	.LBE645:
 891              	.LBE607:
 892              	.LBE606:
 444:../../../lib/pd2dsy/libdaisy/src/hid/disp/display.h ****         {
 445:../../../lib/pd2dsy/libdaisy/src/hid/disp/display.h ****             if(((ChildType*)(this))->ChildType::WriteChar(*str, font, on)
 446:../../../lib/pd2dsy/libdaisy/src/hid/disp/display.h ****                != *str)
 893              		.loc 4 446 16 view .LVU191
 894 015a 019B     		ldr	r3, [sp, #4]
 895 015c 1878     		ldrb	r0, [r3]	@ zero_extendqisi2
 445:../../../lib/pd2dsy/libdaisy/src/hid/disp/display.h ****                != *str)
 896              		.loc 4 445 13 view .LVU192
 897 015e 4045     		cmp	r0, r8
 898 0160 07D1     		bne	.L16
 899              	.LVL47:
 443:../../../lib/pd2dsy/libdaisy/src/hid/disp/display.h ****         {
 900              		.loc 4 443 9 is_stmt 1 view .LVU193
 901 0162 13F8018F 		ldrb	r8, [r3, #1]!	@ zero_extendqisi2
 902              	.LVL48:
 443:../../../lib/pd2dsy/libdaisy/src/hid/disp/display.h ****         {
 903              		.loc 4 443 9 is_stmt 0 view .LVU194
 904 0166 0193     		str	r3, [sp, #4]
 905 0168 B8F1000F 		cmp	r8, #0
 906 016c 7FF460AF 		bne	.L39
 907              	.LVL49:
 908              	.L38:
 909              	.LBB650:
 910              	.LBB648:
 402:../../../lib/pd2dsy/libdaisy/src/hid/disp/display.h **** 
 911              		.loc 4 402 20 view .LVU195
 912 0170 0020     		movs	r0, #0
 913              	.L16:
 914              	.LBE648:
 915              	.LBE650:
 447:../../../lib/pd2dsy/libdaisy/src/hid/disp/display.h ****             {
 448:../../../lib/pd2dsy/libdaisy/src/hid/disp/display.h ****                 // Char could not be written
 449:../../../lib/pd2dsy/libdaisy/src/hid/disp/display.h ****                 return *str;
ARM GAS  /var/folders/fb/yfxt3z4538j6z0vjt03w70vc0000gn/T//cc0qjWS6.s 			page 43


 450:../../../lib/pd2dsy/libdaisy/src/hid/disp/display.h ****             }
 451:../../../lib/pd2dsy/libdaisy/src/hid/disp/display.h **** 
 452:../../../lib/pd2dsy/libdaisy/src/hid/disp/display.h ****             // Next char
 453:../../../lib/pd2dsy/libdaisy/src/hid/disp/display.h ****             str++;
 454:../../../lib/pd2dsy/libdaisy/src/hid/disp/display.h ****         }
 455:../../../lib/pd2dsy/libdaisy/src/hid/disp/display.h **** 
 456:../../../lib/pd2dsy/libdaisy/src/hid/disp/display.h ****         // Everything ok
 457:../../../lib/pd2dsy/libdaisy/src/hid/disp/display.h ****         return *str;
 458:../../../lib/pd2dsy/libdaisy/src/hid/disp/display.h ****     }
 916              		.loc 4 458 5 view .LVU196
 917 0172 09B0     		add	sp, sp, #36
 918              		.cfi_remember_state
 919              		.cfi_def_cfa_offset 36
 920              		@ sp needed
 921 0174 BDE8F08F 		pop	{r4, r5, r6, r7, r8, r9, r10, fp, pc}
 922              	.LVL50:
 923              	.L20:
 924              		.cfi_restore_state
 925              	.LBB651:
 926              	.LBB649:
 402:../../../lib/pd2dsy/libdaisy/src/hid/disp/display.h **** 
 927              		.loc 4 402 20 view .LVU197
 928 0178 4FF00008 		mov	r8, #0
 929              	.LVL51:
 402:../../../lib/pd2dsy/libdaisy/src/hid/disp/display.h **** 
 930              		.loc 4 402 20 view .LVU198
 931 017c EDE7     		b	.L18
 932              	.LVL52:
 933              	.L53:
 405:../../../lib/pd2dsy/libdaisy/src/hid/disp/display.h ****            || Height() < (currentY_ + font.FontHeight))
 934              		.loc 4 405 17 view .LVU199
 935 017e 3046     		mov	r0, r6
 936 0180 9847     		blx	r3
 937              	.LVL53:
 938 0182 62E7     		b	.L19
 939              	.L54:
 406:../../../lib/pd2dsy/libdaisy/src/hid/disp/display.h ****         {
 940              		.loc 4 406 21 view .LVU200
 941 0184 3046     		mov	r0, r6
 942 0186 9847     		blx	r3
 943              	.LVL54:
 944 0188 6BE7     		b	.L21
 945              	.LVL55:
 946              	.L58:
 947              	.LBB646:
 948              	.LBB642:
 174:../../../lib/pd2dsy/libdaisy/src/hid/disp/display.h ****     }
 949              		.loc 4 174 33 view .LVU201
 950 018a 3046     		mov	r0, r6
 951 018c 9847     		blx	r3
 952              	.LVL56:
 953 018e D8E7     		b	.L35
 954              	.LVL57:
 955              	.L56:
 173:../../../lib/pd2dsy/libdaisy/src/hid/disp/display.h ****         currentY_ = (y >= Height()) ? Height() - 1 : y;
 956              		.loc 4 173 32 view .LVU202
 957 0190 3046     		mov	r0, r6
ARM GAS  /var/folders/fb/yfxt3z4538j6z0vjt03w70vc0000gn/T//cc0qjWS6.s 			page 44


 958 0192 9847     		blx	r3
 959              	.LVL58:
 173:../../../lib/pd2dsy/libdaisy/src/hid/disp/display.h ****         currentY_ = (y >= Height()) ? Height() - 1 : y;
 960              		.loc 4 173 44 view .LVU203
 961 0194 3268     		ldr	r2, [r6]
 962 0196 C7E7     		b	.L32
 963              	.LVL59:
 964              	.L22:
 173:../../../lib/pd2dsy/libdaisy/src/hid/disp/display.h ****         currentY_ = (y >= Height()) ? Height() - 1 : y;
 965              		.loc 4 173 44 view .LVU204
 966              	.LBE642:
 967              	.LBE646:
 434:../../../lib/pd2dsy/libdaisy/src/hid/disp/display.h **** 
 968              		.loc 4 434 19 view .LVU205
 969 0198 B6F804B0 		ldrh	fp, [r6, #4]
 970 019c BBE7     		b	.L24
 971              	.LVL60:
 972              	.L59:
 973              	.LBB647:
 974              	.LBB643:
 174:../../../lib/pd2dsy/libdaisy/src/hid/disp/display.h ****     }
 975              		.loc 4 174 45 view .LVU206
 976 019e 3046     		mov	r0, r6
 977 01a0 9847     		blx	r3
 978              	.LVL61:
 174:../../../lib/pd2dsy/libdaisy/src/hid/disp/display.h ****     }
 979              		.loc 4 174 19 view .LVU207
 980 01a2 0138     		subs	r0, r0, #1
 981 01a4 83B2     		uxth	r3, r0
 982 01a6 0293     		str	r3, [sp, #8]
 983              	.LVL62:
 174:../../../lib/pd2dsy/libdaisy/src/hid/disp/display.h ****     }
 984              		.loc 4 174 19 view .LVU208
 985 01a8 D5E7     		b	.L36
 986              	.LVL63:
 987              	.L57:
 173:../../../lib/pd2dsy/libdaisy/src/hid/disp/display.h ****         currentY_ = (y >= Height()) ? Height() - 1 : y;
 988              		.loc 4 173 43 view .LVU209
 989 01aa 3046     		mov	r0, r6
 990 01ac 9847     		blx	r3
 991              	.LVL64:
 173:../../../lib/pd2dsy/libdaisy/src/hid/disp/display.h ****         currentY_ = (y >= Height()) ? Height() - 1 : y;
 992              		.loc 4 173 19 view .LVU210
 993 01ae 0138     		subs	r0, r0, #1
 174:../../../lib/pd2dsy/libdaisy/src/hid/disp/display.h ****     }
 994              		.loc 4 174 34 view .LVU211
 995 01b0 3268     		ldr	r2, [r6]
 173:../../../lib/pd2dsy/libdaisy/src/hid/disp/display.h ****         currentY_ = (y >= Height()) ? Height() - 1 : y;
 996              		.loc 4 173 19 view .LVU212
 997 01b2 84B2     		uxth	r4, r0
 998              	.LVL65:
 173:../../../lib/pd2dsy/libdaisy/src/hid/disp/display.h ****         currentY_ = (y >= Height()) ? Height() - 1 : y;
 999              		.loc 4 173 19 view .LVU213
 1000 01b4 BFE7     		b	.L33
 1001              	.L61:
 1002 01b6 00BF     		.align	2
 1003              	.L60:
ARM GAS  /var/folders/fb/yfxt3z4538j6z0vjt03w70vc0000gn/T//cc0qjWS6.s 			page 45


 1004 01b8 00000000 		.word	_ZNK5daisy11OledDisplayINS_13SSD130xDriverILj128ELj64ENS_24SSD130x4WireSpiTransportEEEE5Widt
 1005 01bc 00000000 		.word	_ZNK5daisy11OledDisplayINS_13SSD130xDriverILj128ELj64ENS_24SSD130x4WireSpiTransportEEEE6Heig
 1006              	.LBE643:
 1007              	.LBE647:
 1008              	.LBE649:
 1009              	.LBE651:
 1010              		.cfi_endproc
 1011              	.LFE3078:
 1013              		.section	.text._ZN5daisy25OneBitGraphicsDisplayImplINS_11OledDisplayINS_13SSD130xDriverILj128ELj64
 1014              		.align	1
 1015              		.p2align 2,,3
 1016              		.weak	_ZN5daisy25OneBitGraphicsDisplayImplINS_11OledDisplayINS_13SSD130xDriverILj128ELj64ENS_24SSD
 1017              		.syntax unified
 1018              		.thumb
 1019              		.thumb_func
 1021              	_ZN5daisy25OneBitGraphicsDisplayImplINS_11OledDisplayINS_13SSD130xDriverILj128ELj64ENS_24SSD130x4Wi
 1022              	.LVL66:
 1023              	.LFB3077:
 396:../../../lib/pd2dsy/libdaisy/src/hid/disp/display.h ****     {
 1024              		.loc 4 396 10 is_stmt 1 view -0
 1025              		.cfi_startproc
 1026              		@ args = 4, pretend = 0, frame = 16
 1027              		@ frame_needed = 0, uses_anonymous_args = 0
 396:../../../lib/pd2dsy/libdaisy/src/hid/disp/display.h ****     {
 1028              		.loc 4 396 10 is_stmt 0 view .LVU215
 1029 0000 2DE9F04F 		push	{r4, r5, r6, r7, r8, r9, r10, fp, lr}
 1030              		.cfi_def_cfa_offset 36
 1031              		.cfi_offset 4, -36
 1032              		.cfi_offset 5, -32
 1033              		.cfi_offset 6, -28
 1034              		.cfi_offset 7, -24
 1035              		.cfi_offset 8, -20
 1036              		.cfi_offset 9, -16
 1037              		.cfi_offset 10, -12
 1038              		.cfi_offset 11, -8
 1039              		.cfi_offset 14, -4
 1040 0004 85B0     		sub	sp, sp, #20
 1041              		.cfi_def_cfa_offset 56
 1042              	.LVL67:
 401:../../../lib/pd2dsy/libdaisy/src/hid/disp/display.h ****             return 0;
 1043              		.loc 4 401 20 view .LVU216
 1044 0006 A1F12005 		sub	r5, r1, #32
 396:../../../lib/pd2dsy/libdaisy/src/hid/disp/display.h ****     {
 1045              		.loc 4 396 10 view .LVU217
 1046 000a 04AC     		add	r4, sp, #16
 1047 000c 9DF83870 		ldrb	r7, [sp, #56]	@ zero_extendqisi2
 1048 0010 0091     		str	r1, [sp]
 1049 0012 04E90C00 		stmdb	r4, {r2, r3}
 1050              	.LVL68:
 401:../../../lib/pd2dsy/libdaisy/src/hid/disp/display.h ****             return 0;
 1051              		.loc 4 401 9 view .LVU218
 1052 0016 EBB2     		uxtb	r3, r5
 1053 0018 5E2B     		cmp	r3, #94
 1054 001a 00F29580 		bhi	.L66
 405:../../../lib/pd2dsy/libdaisy/src/hid/disp/display.h ****            || Height() < (currentY_ + font.FontHeight))
 1055              		.loc 4 405 17 view .LVU219
 1056 001e 0368     		ldr	r3, [r0]
ARM GAS  /var/folders/fb/yfxt3z4538j6z0vjt03w70vc0000gn/T//cc0qjWS6.s 			page 46


 1057 0020 8046     		mov	r8, r0
 1058 0022 5D4A     		ldr	r2, .L101
 1059 0024 DB68     		ldr	r3, [r3, #12]
 1060 0026 9DF80840 		ldrb	r4, [sp, #8]	@ zero_extendqisi2
 1061 002a 9342     		cmp	r3, r2
 1062 002c 9DF80960 		ldrb	r6, [sp, #9]	@ zero_extendqisi2
 1063 0030 40F09480 		bne	.L93
 1064 0034 8020     		movs	r0, #128
 1065              	.LVL69:
 1066              	.L65:
 405:../../../lib/pd2dsy/libdaisy/src/hid/disp/display.h ****            || Height() < (currentY_ + font.FontHeight))
 1067              		.loc 4 405 23 view .LVU220
 1068 0036 B8F80430 		ldrh	r3, [r8, #4]
 405:../../../lib/pd2dsy/libdaisy/src/hid/disp/display.h ****            || Height() < (currentY_ + font.FontHeight))
 1069              		.loc 4 405 33 view .LVU221
 1070 003a 2344     		add	r3, r3, r4
 406:../../../lib/pd2dsy/libdaisy/src/hid/disp/display.h ****         {
 1071              		.loc 4 406 12 view .LVU222
 1072 003c 8342     		cmp	r3, r0
 1073 003e 00F38380 		bgt	.L66
 406:../../../lib/pd2dsy/libdaisy/src/hid/disp/display.h ****         {
 1074              		.loc 4 406 21 discriminator 2 view .LVU223
 1075 0042 D8F80030 		ldr	r3, [r8]
 1076 0046 554A     		ldr	r2, .L101+4
 1077 0048 9B68     		ldr	r3, [r3, #8]
 1078 004a 9342     		cmp	r3, r2
 1079 004c 40F08880 		bne	.L94
 406:../../../lib/pd2dsy/libdaisy/src/hid/disp/display.h ****         {
 1080              		.loc 4 406 21 view .LVU224
 1081 0050 4020     		movs	r0, #64
 1082              	.L67:
 406:../../../lib/pd2dsy/libdaisy/src/hid/disp/display.h ****         {
 1083              		.loc 4 406 27 discriminator 2 view .LVU225
 1084 0052 B8F80620 		ldrh	r2, [r8, #6]
 406:../../../lib/pd2dsy/libdaisy/src/hid/disp/display.h ****         {
 1085              		.loc 4 406 37 discriminator 2 view .LVU226
 1086 0056 9319     		adds	r3, r2, r6
 406:../../../lib/pd2dsy/libdaisy/src/hid/disp/display.h ****         {
 1087              		.loc 4 406 27 discriminator 2 view .LVU227
 1088 0058 0192     		str	r2, [sp, #4]
 406:../../../lib/pd2dsy/libdaisy/src/hid/disp/display.h ****         {
 1089              		.loc 4 406 12 discriminator 2 view .LVU228
 1090 005a 8342     		cmp	r3, r0
 1091 005c 74DC     		bgt	.L66
 1092              	.LVL70:
 413:../../../lib/pd2dsy/libdaisy/src/hid/disp/display.h ****         {
 1093              		.loc 4 413 22 is_stmt 1 view .LVU229
 1094 005e 002E     		cmp	r6, #0
 1095 0060 00F08980 		beq	.L68
 415:../../../lib/pd2dsy/libdaisy/src/hid/disp/display.h ****             for(j = 0; j < font.FontWidth; j++)
 1096              		.loc 4 415 37 is_stmt 0 view .LVU230
 1097 0064 06FB05F5 		mul	r5, r6, r5
 1098 0068 6FF00040 		mvn	r0, #-2147483648
 415:../../../lib/pd2dsy/libdaisy/src/hid/disp/display.h ****             for(j = 0; j < font.FontWidth; j++)
 1099              		.loc 4 415 22 view .LVU231
 1100 006c 039B     		ldr	r3, [sp, #12]
 1101 006e 9646     		mov	lr, r2
ARM GAS  /var/folders/fb/yfxt3z4538j6z0vjt03w70vc0000gn/T//cc0qjWS6.s 			page 47


 1102 0070 2844     		add	r0, r0, r5
 1103 0072 2E44     		add	r6, r6, r5
 434:../../../lib/pd2dsy/libdaisy/src/hid/disp/display.h **** 
 1104              		.loc 4 434 19 view .LVU232
 1105 0074 B8F804A0 		ldrh	r10, [r8, #4]
 1106 0078 03EB4000 		add	r0, r3, r0, lsl #1
 1107 007c 023B     		subs	r3, r3, #2
 1108 007e 03EB460B 		add	fp, r3, r6, lsl #1
 1109              	.LVL71:
 1110              	.L71:
 415:../../../lib/pd2dsy/libdaisy/src/hid/disp/display.h ****             for(j = 0; j < font.FontWidth; j++)
 1111              		.loc 4 415 15 view .LVU233
 1112 0082 30F8026F 		ldrh	r6, [r0, #2]!
 1113              	.LVL72:
 416:../../../lib/pd2dsy/libdaisy/src/hid/disp/display.h ****             {
 1114              		.loc 4 416 26 is_stmt 1 view .LVU234
 1115 0086 BCB3     		cbz	r4, .L76
 1116              	.LBB682:
 1117              	.LBB683:
 1118              	.LBB684:
 1119              	.LBB685:
 1120              	.LBB686:
 259:../../../lib/pd2dsy/libdaisy/src/dev/oled_ssd130x.h ****     }
 1121              		.loc 3 259 55 is_stmt 0 view .LVU235
 1122 0088 0EF00703 		and	r3, lr, #7
 259:../../../lib/pd2dsy/libdaisy/src/dev/oled_ssd130x.h ****     }
 1123              		.loc 3 259 49 view .LVU236
 1124 008c 4FF0010C 		mov	ip, #1
 259:../../../lib/pd2dsy/libdaisy/src/dev/oled_ssd130x.h ****     }
 1125              		.loc 3 259 28 view .LVU237
 1126 0090 4FEADE02 		lsr	r2, lr, #3
 1127 0094 5146     		mov	r1, r10
 259:../../../lib/pd2dsy/libdaisy/src/dev/oled_ssd130x.h ****     }
 1128              		.loc 3 259 49 view .LVU238
 1129 0096 0CFA03FC 		lsl	ip, ip, r3
 1130 009a 0AF11403 		add	r3, r10, #20
 259:../../../lib/pd2dsy/libdaisy/src/dev/oled_ssd130x.h ****     }
 1131              		.loc 3 259 42 view .LVU239
 1132 009e 4FFA8CFC 		sxtb	ip, ip
 1133 00a2 03EBC212 		add	r2, r3, r2, lsl #7
 1134              	.LBE686:
 1135              	.LBE685:
 1136              	.LBE684:
 1137              	.LBE683:
 1138              	.LBE682:
 416:../../../lib/pd2dsy/libdaisy/src/hid/disp/display.h ****             {
 1139              		.loc 4 416 19 view .LVU240
 1140 00a6 0023     		movs	r3, #0
 1141              	.LBB704:
 1142              	.LBB699:
 1143              	.LBB694:
 1144              	.LBB690:
 1145              	.LBB687:
 259:../../../lib/pd2dsy/libdaisy/src/dev/oled_ssd130x.h ****     }
 1146              		.loc 3 259 42 view .LVU241
 1147 00a8 6FEA0C09 		mvn	r9, ip
 1148 00ac 4244     		add	r2, r2, r8
ARM GAS  /var/folders/fb/yfxt3z4538j6z0vjt03w70vc0000gn/T//cc0qjWS6.s 			page 48


 1149 00ae 0EE0     		b	.L77
 1150              	.LVL73:
 1151              	.L95:
 259:../../../lib/pd2dsy/libdaisy/src/dev/oled_ssd130x.h ****     }
 1152              		.loc 3 259 42 view .LVU242
 1153              	.LBE687:
 1154              	.LBE690:
 1155              	.LBE694:
 1156              	.LBE699:
 1157              	.LBE704:
 1158              	.LBB705:
 1159              	.LBI705:
  42:../../../lib/pd2dsy/libdaisy/src/hid/disp/oled_display.h ****     {
 1160              		.loc 2 42 10 is_stmt 1 view .LVU243
 1161              	.LBB706:
 1162              	.LBI706:
 252:../../../lib/pd2dsy/libdaisy/src/dev/oled_ssd130x.h ****     {
 1163              		.loc 3 252 10 view .LVU244
 1164              	.LBB707:
 254:../../../lib/pd2dsy/libdaisy/src/dev/oled_ssd130x.h ****             return;
 1165              		.loc 3 254 9 is_stmt 0 view .LVU245
 1166 00b0 7F29     		cmp	r1, #127
 1167 00b2 07D8     		bhi	.L73
 1168 00b4 BEF13F0F 		cmp	lr, #63
 1169 00b8 04D8     		bhi	.L73
 257:../../../lib/pd2dsy/libdaisy/src/dev/oled_ssd130x.h ****         else
 1170              		.loc 3 257 42 view .LVU246
 1171 00ba 1578     		ldrb	r5, [r2]	@ zero_extendqisi2
 256:../../../lib/pd2dsy/libdaisy/src/dev/oled_ssd130x.h ****             buffer_[x + (y / 8) * width] |= (1 << (y % 8));
 1172              		.loc 3 256 9 view .LVU247
 1173 00bc 9FB1     		cbz	r7, .L75
 1174              	.L92:
 256:../../../lib/pd2dsy/libdaisy/src/dev/oled_ssd130x.h ****             buffer_[x + (y / 8) * width] |= (1 << (y % 8));
 1175              		.loc 3 256 9 view .LVU248
 1176              	.LBE707:
 1177              	.LBE706:
 1178              	.LBE705:
 1179              	.LBB708:
 1180              	.LBB700:
 1181              	.LBB695:
 257:../../../lib/pd2dsy/libdaisy/src/dev/oled_ssd130x.h ****         else
 1182              		.loc 3 257 42 view .LVU249
 1183 00be 4CEA0505 		orr	r5, ip, r5
 1184 00c2 1570     		strb	r5, [r2]
 1185              	.L73:
 1186              	.LBE695:
 1187              	.LBE700:
 1188              	.LBE708:
 416:../../../lib/pd2dsy/libdaisy/src/hid/disp/display.h ****             {
 1189              		.loc 4 416 13 is_stmt 1 discriminator 2 view .LVU250
 1190 00c4 0133     		adds	r3, r3, #1
 1191              	.LVL74:
 416:../../../lib/pd2dsy/libdaisy/src/hid/disp/display.h ****             {
 1192              		.loc 4 416 26 discriminator 2 view .LVU251
 1193 00c6 0132     		adds	r2, r2, #1
 1194 00c8 0131     		adds	r1, r1, #1
 1195 00ca 9C42     		cmp	r4, r3
ARM GAS  /var/folders/fb/yfxt3z4538j6z0vjt03w70vc0000gn/T//cc0qjWS6.s 			page 49


 1196 00cc 14D0     		beq	.L76
 1197              	.LVL75:
 1198              	.L77:
 418:../../../lib/pd2dsy/libdaisy/src/hid/disp/display.h ****                 {
 1199              		.loc 4 418 23 is_stmt 0 view .LVU252
 1200 00ce 06FA03F5 		lsl	r5, r6, r3
 418:../../../lib/pd2dsy/libdaisy/src/hid/disp/display.h ****                 {
 1201              		.loc 4 418 17 view .LVU253
 1202 00d2 2D04     		lsls	r5, r5, #16
 1203 00d4 ECD4     		bmi	.L95
 1204              	.LVL76:
 1205              	.LBB709:
 1206              	.LBI682:
  42:../../../lib/pd2dsy/libdaisy/src/hid/disp/oled_display.h ****     {
 1207              		.loc 2 42 10 is_stmt 1 view .LVU254
 1208              	.LBB701:
 1209              	.LBI683:
 252:../../../lib/pd2dsy/libdaisy/src/dev/oled_ssd130x.h ****     {
 1210              		.loc 3 252 10 view .LVU255
 1211              	.LBB696:
 254:../../../lib/pd2dsy/libdaisy/src/dev/oled_ssd130x.h ****             return;
 1212              		.loc 3 254 9 is_stmt 0 view .LVU256
 1213 00d6 7F29     		cmp	r1, #127
 1214 00d8 F4D8     		bhi	.L73
 1215 00da BEF13F0F 		cmp	lr, #63
 1216 00de F1D8     		bhi	.L73
 257:../../../lib/pd2dsy/libdaisy/src/dev/oled_ssd130x.h ****         else
 1217              		.loc 3 257 42 view .LVU257
 1218 00e0 1578     		ldrb	r5, [r2]	@ zero_extendqisi2
 256:../../../lib/pd2dsy/libdaisy/src/dev/oled_ssd130x.h ****             buffer_[x + (y / 8) * width] |= (1 << (y % 8));
 1219              		.loc 3 256 9 view .LVU258
 1220 00e2 002F     		cmp	r7, #0
 1221 00e4 EBD0     		beq	.L92
 1222              	.L75:
 1223              	.LVL77:
 1224              	.LBB691:
 1225              	.LBI685:
 252:../../../lib/pd2dsy/libdaisy/src/dev/oled_ssd130x.h ****     {
 1226              		.loc 3 252 10 is_stmt 1 view .LVU259
 252:../../../lib/pd2dsy/libdaisy/src/dev/oled_ssd130x.h ****     {
 1227              		.loc 3 252 10 is_stmt 0 view .LVU260
 1228              	.LBE691:
 1229              	.LBE696:
 1230              	.LBE701:
 1231              	.LBE709:
 416:../../../lib/pd2dsy/libdaisy/src/hid/disp/display.h ****             {
 1232              		.loc 4 416 13 view .LVU261
 1233 00e6 0133     		adds	r3, r3, #1
 1234              	.LVL78:
 1235              	.LBB710:
 1236              	.LBB702:
 1237              	.LBB697:
 1238              	.LBB692:
 1239              	.LBB688:
 259:../../../lib/pd2dsy/libdaisy/src/dev/oled_ssd130x.h ****     }
 1240              		.loc 3 259 42 view .LVU262
 1241 00e8 09EA0505 		and	r5, r9, r5
ARM GAS  /var/folders/fb/yfxt3z4538j6z0vjt03w70vc0000gn/T//cc0qjWS6.s 			page 50


 1242              	.LBE688:
 1243              	.LBE692:
 1244              	.LBE697:
 1245              	.LBE702:
 1246              	.LBE710:
 416:../../../lib/pd2dsy/libdaisy/src/hid/disp/display.h ****             {
 1247              		.loc 4 416 26 view .LVU263
 1248 00ec 0132     		adds	r2, r2, #1
 1249 00ee 0131     		adds	r1, r1, #1
 1250 00f0 9C42     		cmp	r4, r3
 1251              	.LBB711:
 1252              	.LBB703:
 1253              	.LBB698:
 1254              	.LBB693:
 1255              	.LBB689:
 259:../../../lib/pd2dsy/libdaisy/src/dev/oled_ssd130x.h ****     }
 1256              		.loc 3 259 42 view .LVU264
 1257 00f2 02F8015C 		strb	r5, [r2, #-1]
 259:../../../lib/pd2dsy/libdaisy/src/dev/oled_ssd130x.h ****     }
 1258              		.loc 3 259 42 view .LVU265
 1259              	.LBE689:
 1260              	.LBE693:
 1261              	.LBE698:
 1262              	.LBE703:
 1263              	.LBE711:
 416:../../../lib/pd2dsy/libdaisy/src/hid/disp/display.h ****             {
 1264              		.loc 4 416 13 is_stmt 1 view .LVU266
 1265              	.LVL79:
 416:../../../lib/pd2dsy/libdaisy/src/hid/disp/display.h ****             {
 1266              		.loc 4 416 26 view .LVU267
 1267 00f6 EAD1     		bne	.L77
 1268              	.LVL80:
 1269              	.L76:
 413:../../../lib/pd2dsy/libdaisy/src/hid/disp/display.h ****         {
 1270              		.loc 4 413 9 view .LVU268
 413:../../../lib/pd2dsy/libdaisy/src/hid/disp/display.h ****         {
 1271              		.loc 4 413 22 view .LVU269
 1272 00f8 5845     		cmp	r0, fp
 1273 00fa 0EF1010E 		add	lr, lr, #1
 1274 00fe C0D1     		bne	.L71
 1275              	.LVL81:
 1276              	.L70:
 1277              	.LBB712:
 1278              	.LBB713:
 173:../../../lib/pd2dsy/libdaisy/src/hid/disp/display.h ****         currentY_ = (y >= Height()) ? Height() - 1 : y;
 1279              		.loc 4 173 33 is_stmt 0 view .LVU270
 1280 0100 D8F80030 		ldr	r3, [r8]
 1281              	.LBE713:
 1282              	.LBE712:
 434:../../../lib/pd2dsy/libdaisy/src/hid/disp/display.h **** 
 1283              		.loc 4 434 18 view .LVU271
 1284 0104 5444     		add	r4, r4, r10
 1285 0106 2449     		ldr	r1, .L101
 1286              	.LBB719:
 1287              	.LBB714:
 173:../../../lib/pd2dsy/libdaisy/src/hid/disp/display.h ****         currentY_ = (y >= Height()) ? Height() - 1 : y;
 1288              		.loc 4 173 33 view .LVU272
ARM GAS  /var/folders/fb/yfxt3z4538j6z0vjt03w70vc0000gn/T//cc0qjWS6.s 			page 51


 1289 0108 DA68     		ldr	r2, [r3, #12]
 1290              	.LBE714:
 1291              	.LBE719:
 434:../../../lib/pd2dsy/libdaisy/src/hid/disp/display.h **** 
 1292              		.loc 4 434 18 view .LVU273
 1293 010a A4B2     		uxth	r4, r4
 1294              	.LVL82:
 1295              	.LBB720:
 1296              	.LBI712:
 171:../../../lib/pd2dsy/libdaisy/src/hid/disp/display.h ****     {
 1297              		.loc 4 171 10 is_stmt 1 view .LVU274
 1298              	.LBB715:
 173:../../../lib/pd2dsy/libdaisy/src/hid/disp/display.h ****         currentY_ = (y >= Height()) ? Height() - 1 : y;
 1299              		.loc 4 173 9 view .LVU275
 1300 010c 8A42     		cmp	r2, r1
 1301 010e 2DD1     		bne	.L96
 173:../../../lib/pd2dsy/libdaisy/src/hid/disp/display.h ****         currentY_ = (y >= Height()) ? Height() - 1 : y;
 1302              		.loc 4 173 33 is_stmt 0 view .LVU276
 1303 0110 8020     		movs	r0, #128
 1304              	.L78:
 173:../../../lib/pd2dsy/libdaisy/src/hid/disp/display.h ****         currentY_ = (y >= Height()) ? Height() - 1 : y;
 1305              		.loc 4 173 19 view .LVU277
 1306 0112 8442     		cmp	r4, r0
 1307 0114 1CD2     		bcs	.L97
 1308              	.LVL83:
 1309              	.L79:
 174:../../../lib/pd2dsy/libdaisy/src/hid/disp/display.h ****     }
 1310              		.loc 4 174 34 view .LVU278
 1311 0116 9B68     		ldr	r3, [r3, #8]
 1312 0118 204A     		ldr	r2, .L101+4
 173:../../../lib/pd2dsy/libdaisy/src/hid/disp/display.h ****         currentY_ = (y >= Height()) ? Height() - 1 : y;
 1313              		.loc 4 173 19 view .LVU279
 1314 011a A8F80440 		strh	r4, [r8, #4]	@ movhi
 174:../../../lib/pd2dsy/libdaisy/src/hid/disp/display.h ****     }
 1315              		.loc 4 174 9 is_stmt 1 view .LVU280
 1316 011e 9342     		cmp	r3, r2
 1317 0120 21D1     		bne	.L98
 174:../../../lib/pd2dsy/libdaisy/src/hid/disp/display.h ****     }
 1318              		.loc 4 174 34 is_stmt 0 view .LVU281
 1319 0122 4020     		movs	r0, #64
 1320              	.L81:
 174:../../../lib/pd2dsy/libdaisy/src/hid/disp/display.h ****     }
 1321              		.loc 4 174 19 view .LVU282
 1322 0124 019B     		ldr	r3, [sp, #4]
 1323 0126 8342     		cmp	r3, r0
 1324 0128 07D3     		bcc	.L82
 174:../../../lib/pd2dsy/libdaisy/src/hid/disp/display.h ****     }
 1325              		.loc 4 174 46 view .LVU283
 1326 012a D8F80030 		ldr	r3, [r8]
 1327 012e 1B4A     		ldr	r2, .L101+4
 1328 0130 9B68     		ldr	r3, [r3, #8]
 1329 0132 9342     		cmp	r3, r2
 1330 0134 29D1     		bne	.L99
 1331 0136 3F23     		movs	r3, #63
 1332 0138 0193     		str	r3, [sp, #4]
 1333              	.LVL84:
 1334              	.L82:
ARM GAS  /var/folders/fb/yfxt3z4538j6z0vjt03w70vc0000gn/T//cc0qjWS6.s 			page 52


 174:../../../lib/pd2dsy/libdaisy/src/hid/disp/display.h ****     }
 1335              		.loc 4 174 19 view .LVU284
 1336 013a DDE90003 		ldrd	r0, r3, [sp]
 1337 013e A8F80630 		strh	r3, [r8, #6]	@ movhi
 1338              	.LVL85:
 174:../../../lib/pd2dsy/libdaisy/src/hid/disp/display.h ****     }
 1339              		.loc 4 174 19 view .LVU285
 1340              	.LBE715:
 1341              	.LBE720:
 438:../../../lib/pd2dsy/libdaisy/src/hid/disp/display.h **** 
 1342              		.loc 4 438 5 view .LVU286
 1343 0142 05B0     		add	sp, sp, #20
 1344              		.cfi_remember_state
 1345              		.cfi_def_cfa_offset 36
 1346              		@ sp needed
 1347 0144 BDE8F08F 		pop	{r4, r5, r6, r7, r8, r9, r10, fp, pc}
 1348              	.LVL86:
 1349              	.L66:
 1350              		.cfi_restore_state
 402:../../../lib/pd2dsy/libdaisy/src/hid/disp/display.h **** 
 1351              		.loc 4 402 20 view .LVU287
 1352 0148 0020     		movs	r0, #0
 438:../../../lib/pd2dsy/libdaisy/src/hid/disp/display.h **** 
 1353              		.loc 4 438 5 view .LVU288
 1354 014a 05B0     		add	sp, sp, #20
 1355              		.cfi_remember_state
 1356              		.cfi_def_cfa_offset 36
 1357              		@ sp needed
 1358 014c BDE8F08F 		pop	{r4, r5, r6, r7, r8, r9, r10, fp, pc}
 1359              	.LVL87:
 1360              	.L97:
 1361              		.cfi_restore_state
 1362              	.LBB721:
 1363              	.LBB716:
 173:../../../lib/pd2dsy/libdaisy/src/hid/disp/display.h ****         currentY_ = (y >= Height()) ? Height() - 1 : y;
 1364              		.loc 4 173 44 view .LVU289
 1365 0150 DA68     		ldr	r2, [r3, #12]
 1366 0152 1149     		ldr	r1, .L101
 1367 0154 8A42     		cmp	r2, r1
 1368 0156 11D1     		bne	.L100
 1369 0158 7F24     		movs	r4, #127
 1370              	.LVL88:
 173:../../../lib/pd2dsy/libdaisy/src/hid/disp/display.h ****         currentY_ = (y >= Height()) ? Height() - 1 : y;
 1371              		.loc 4 173 44 view .LVU290
 1372 015a DCE7     		b	.L79
 1373              	.LVL89:
 1374              	.L93:
 173:../../../lib/pd2dsy/libdaisy/src/hid/disp/display.h ****         currentY_ = (y >= Height()) ? Height() - 1 : y;
 1375              		.loc 4 173 44 view .LVU291
 1376              	.LBE716:
 1377              	.LBE721:
 405:../../../lib/pd2dsy/libdaisy/src/hid/disp/display.h ****            || Height() < (currentY_ + font.FontHeight))
 1378              		.loc 4 405 17 view .LVU292
 1379 015c 9847     		blx	r3
 1380              	.LVL90:
 405:../../../lib/pd2dsy/libdaisy/src/hid/disp/display.h ****            || Height() < (currentY_ + font.FontHeight))
 1381              		.loc 4 405 17 view .LVU293
ARM GAS  /var/folders/fb/yfxt3z4538j6z0vjt03w70vc0000gn/T//cc0qjWS6.s 			page 53


 1382 015e 6AE7     		b	.L65
 1383              	.L94:
 406:../../../lib/pd2dsy/libdaisy/src/hid/disp/display.h ****         {
 1384              		.loc 4 406 21 discriminator 2 view .LVU294
 1385 0160 4046     		mov	r0, r8
 1386 0162 9847     		blx	r3
 1387              	.LVL91:
 1388 0164 75E7     		b	.L67
 1389              	.LVL92:
 1390              	.L98:
 1391              	.LBB722:
 1392              	.LBB717:
 174:../../../lib/pd2dsy/libdaisy/src/hid/disp/display.h ****     }
 1393              		.loc 4 174 33 view .LVU295
 1394 0166 4046     		mov	r0, r8
 1395 0168 9847     		blx	r3
 1396              	.LVL93:
 1397 016a DBE7     		b	.L81
 1398              	.LVL94:
 1399              	.L96:
 173:../../../lib/pd2dsy/libdaisy/src/hid/disp/display.h ****         currentY_ = (y >= Height()) ? Height() - 1 : y;
 1400              		.loc 4 173 32 view .LVU296
 1401 016c 4046     		mov	r0, r8
 1402 016e 9047     		blx	r2
 1403              	.LVL95:
 173:../../../lib/pd2dsy/libdaisy/src/hid/disp/display.h ****         currentY_ = (y >= Height()) ? Height() - 1 : y;
 1404              		.loc 4 173 44 view .LVU297
 1405 0170 D8F80030 		ldr	r3, [r8]
 1406 0174 CDE7     		b	.L78
 1407              	.LVL96:
 1408              	.L68:
 173:../../../lib/pd2dsy/libdaisy/src/hid/disp/display.h ****         currentY_ = (y >= Height()) ? Height() - 1 : y;
 1409              		.loc 4 173 44 view .LVU298
 1410              	.LBE717:
 1411              	.LBE722:
 434:../../../lib/pd2dsy/libdaisy/src/hid/disp/display.h **** 
 1412              		.loc 4 434 19 view .LVU299
 1413 0176 B8F804A0 		ldrh	r10, [r8, #4]
 1414 017a C1E7     		b	.L70
 1415              	.LVL97:
 1416              	.L100:
 1417              	.LBB723:
 1418              	.LBB718:
 173:../../../lib/pd2dsy/libdaisy/src/hid/disp/display.h ****         currentY_ = (y >= Height()) ? Height() - 1 : y;
 1419              		.loc 4 173 43 view .LVU300
 1420 017c 4046     		mov	r0, r8
 1421 017e 9047     		blx	r2
 1422              	.LVL98:
 173:../../../lib/pd2dsy/libdaisy/src/hid/disp/display.h ****         currentY_ = (y >= Height()) ? Height() - 1 : y;
 1423              		.loc 4 173 19 view .LVU301
 1424 0180 0138     		subs	r0, r0, #1
 174:../../../lib/pd2dsy/libdaisy/src/hid/disp/display.h ****     }
 1425              		.loc 4 174 34 view .LVU302
 1426 0182 D8F80030 		ldr	r3, [r8]
 173:../../../lib/pd2dsy/libdaisy/src/hid/disp/display.h ****         currentY_ = (y >= Height()) ? Height() - 1 : y;
 1427              		.loc 4 173 19 view .LVU303
 1428 0186 84B2     		uxth	r4, r0
ARM GAS  /var/folders/fb/yfxt3z4538j6z0vjt03w70vc0000gn/T//cc0qjWS6.s 			page 54


 1429              	.LVL99:
 173:../../../lib/pd2dsy/libdaisy/src/hid/disp/display.h ****         currentY_ = (y >= Height()) ? Height() - 1 : y;
 1430              		.loc 4 173 19 view .LVU304
 1431 0188 C5E7     		b	.L79
 1432              	.L99:
 174:../../../lib/pd2dsy/libdaisy/src/hid/disp/display.h ****     }
 1433              		.loc 4 174 45 view .LVU305
 1434 018a 4046     		mov	r0, r8
 1435 018c 9847     		blx	r3
 1436              	.LVL100:
 174:../../../lib/pd2dsy/libdaisy/src/hid/disp/display.h ****     }
 1437              		.loc 4 174 19 view .LVU306
 1438 018e 0138     		subs	r0, r0, #1
 1439 0190 83B2     		uxth	r3, r0
 1440 0192 0193     		str	r3, [sp, #4]
 1441              	.LVL101:
 174:../../../lib/pd2dsy/libdaisy/src/hid/disp/display.h ****     }
 1442              		.loc 4 174 19 view .LVU307
 1443 0194 D1E7     		b	.L82
 1444              	.L102:
 1445 0196 00BF     		.align	2
 1446              	.L101:
 1447 0198 00000000 		.word	_ZNK5daisy11OledDisplayINS_13SSD130xDriverILj128ELj64ENS_24SSD130x4WireSpiTransportEEEE5Widt
 1448 019c 00000000 		.word	_ZNK5daisy11OledDisplayINS_13SSD130xDriverILj128ELj64ENS_24SSD130x4WireSpiTransportEEEE6Heig
 1449              	.LBE718:
 1450              	.LBE723:
 1451              		.cfi_endproc
 1452              	.LFE3077:
 1454              		.section	.text._ZN5daisy25OneBitGraphicsDisplayImplINS_11OledDisplayINS_13SSD130xDriverILj128ELj64
 1455              		.align	1
 1456              		.p2align 2,,3
 1457              		.weak	_ZN5daisy25OneBitGraphicsDisplayImplINS_11OledDisplayINS_13SSD130xDriverILj128ELj64ENS_24SSD
 1458              		.syntax unified
 1459              		.thumb
 1460              		.thumb_func
 1462              	_ZN5daisy25OneBitGraphicsDisplayImplINS_11OledDisplayINS_13SSD130xDriverILj128ELj64ENS_24SSD130x4Wi
 1463              	.LVL102:
 1464              	.LFB3079:
 459:../../../lib/pd2dsy/libdaisy/src/hid/disp/display.h **** 
 460:../../../lib/pd2dsy/libdaisy/src/hid/disp/display.h ****     Rectangle WriteStringAligned(const char*    str,
 1465              		.loc 4 460 15 is_stmt 1 view -0
 1466              		.cfi_startproc
 1467              		@ args = 12, pretend = 0, frame = 32
 1468              		@ frame_needed = 0, uses_anonymous_args = 0
 1469              		.loc 4 460 15 is_stmt 0 view .LVU309
 1470 0000 2DE9F04F 		push	{r4, r5, r6, r7, r8, r9, r10, fp, lr}
 1471              		.cfi_def_cfa_offset 36
 1472              		.cfi_offset 4, -36
 1473              		.cfi_offset 5, -32
 1474              		.cfi_offset 6, -28
 1475              		.cfi_offset 7, -24
 1476              		.cfi_offset 8, -20
 1477              		.cfi_offset 9, -16
 1478              		.cfi_offset 10, -12
 1479              		.cfi_offset 11, -8
 1480              		.cfi_offset 14, -4
 1481 0004 89B0     		sub	sp, sp, #36
ARM GAS  /var/folders/fb/yfxt3z4538j6z0vjt03w70vc0000gn/T//cc0qjWS6.s 			page 55


 1482              		.cfi_def_cfa_offset 72
 1483              		.loc 4 460 15 view .LVU310
 1484 0006 1D46     		mov	r5, r3
 1485 0008 8846     		mov	r8, r1
 1486              	.LVL103:
 1487              	.LBB862:
 1488              	.LBI862:
 461:../../../lib/pd2dsy/libdaisy/src/hid/disp/display.h ****                                  const FontDef& font,
 462:../../../lib/pd2dsy/libdaisy/src/hid/disp/display.h ****                                  Rectangle      boundingBox,
 463:../../../lib/pd2dsy/libdaisy/src/hid/disp/display.h ****                                  Alignment      alignment,
 464:../../../lib/pd2dsy/libdaisy/src/hid/disp/display.h ****                                  bool           on) override
 465:../../../lib/pd2dsy/libdaisy/src/hid/disp/display.h ****     {
 466:../../../lib/pd2dsy/libdaisy/src/hid/disp/display.h ****         const auto alignedRect
 467:../../../lib/pd2dsy/libdaisy/src/hid/disp/display.h ****             = GetTextRect(str, font).AlignedWithin(boundingBox, alignment);
 468:../../../lib/pd2dsy/libdaisy/src/hid/disp/display.h ****         SetCursor(alignedRect.GetX(), alignedRect.GetY());
 469:../../../lib/pd2dsy/libdaisy/src/hid/disp/display.h ****         ((ChildType*)(this))->ChildType::WriteString(str, font, on);
 470:../../../lib/pd2dsy/libdaisy/src/hid/disp/display.h ****         return alignedRect;
 471:../../../lib/pd2dsy/libdaisy/src/hid/disp/display.h ****     }
 472:../../../lib/pd2dsy/libdaisy/src/hid/disp/display.h **** 
 473:../../../lib/pd2dsy/libdaisy/src/hid/disp/display.h ****   private:
 474:../../../lib/pd2dsy/libdaisy/src/hid/disp/display.h ****     uint32_t strlen(const char* string)
 475:../../../lib/pd2dsy/libdaisy/src/hid/disp/display.h ****     {
 476:../../../lib/pd2dsy/libdaisy/src/hid/disp/display.h ****         uint32_t result = 0;
 477:../../../lib/pd2dsy/libdaisy/src/hid/disp/display.h ****         while(*string++ != '\0')
 478:../../../lib/pd2dsy/libdaisy/src/hid/disp/display.h ****             result++;
 479:../../../lib/pd2dsy/libdaisy/src/hid/disp/display.h ****         return result;
 480:../../../lib/pd2dsy/libdaisy/src/hid/disp/display.h ****     }
 481:../../../lib/pd2dsy/libdaisy/src/hid/disp/display.h **** 
 482:../../../lib/pd2dsy/libdaisy/src/hid/disp/display.h ****     Rectangle GetTextRect(const char* text, const FontDef& font)
 1489              		.loc 4 482 15 is_stmt 1 view .LVU311
 1490              	.LBB863:
 1491              	.LBB864:
 1492              	.LBI864:
 474:../../../lib/pd2dsy/libdaisy/src/hid/disp/display.h ****     {
 1493              		.loc 4 474 14 view .LVU312
 1494              	.LBB865:
 477:../../../lib/pd2dsy/libdaisy/src/hid/disp/display.h ****             result++;
 1495              		.loc 4 477 25 view .LVU313
 1496              	.LBE865:
 1497              	.LBE864:
 1498              	.LBE863:
 1499              	.LBE862:
 460:../../../lib/pd2dsy/libdaisy/src/hid/disp/display.h ****                                  const FontDef& font,
 1500              		.loc 4 460 15 is_stmt 0 view .LVU314
 1501 000a 0690     		str	r0, [sp, #24]
 1502              	.LBB880:
 1503              	.LBB876:
 1504              	.LBB869:
 1505              	.LBB866:
 477:../../../lib/pd2dsy/libdaisy/src/hid/disp/display.h ****             result++;
 1506              		.loc 4 477 25 view .LVU315
 1507 000c 1046     		mov	r0, r2
 1508              	.LVL104:
 477:../../../lib/pd2dsy/libdaisy/src/hid/disp/display.h ****             result++;
 1509              		.loc 4 477 25 view .LVU316
 1510              	.LBE866:
 1511              	.LBE869:
ARM GAS  /var/folders/fb/yfxt3z4538j6z0vjt03w70vc0000gn/T//cc0qjWS6.s 			page 56


 1512              	.LBE876:
 1513              	.LBE880:
 460:../../../lib/pd2dsy/libdaisy/src/hid/disp/display.h ****                                  const FontDef& font,
 1514              		.loc 4 460 15 view .LVU317
 1515 000e 129C     		ldr	r4, [sp, #72]
 1516              	.LBB881:
 1517              	.LBB877:
 1518              	.LBB870:
 1519              	.LBB867:
 477:../../../lib/pd2dsy/libdaisy/src/hid/disp/display.h ****             result++;
 1520              		.loc 4 477 25 view .LVU318
 1521 0010 10F8013B 		ldrb	r3, [r0], #1	@ zero_extendqisi2
 1522              	.LVL105:
 477:../../../lib/pd2dsy/libdaisy/src/hid/disp/display.h ****             result++;
 1523              		.loc 4 477 25 view .LVU319
 1524              	.LBE867:
 1525              	.LBE870:
 1526              	.LBE877:
 1527              	.LBE881:
 460:../../../lib/pd2dsy/libdaisy/src/hid/disp/display.h ****                                  const FontDef& font,
 1528              		.loc 4 460 15 view .LVU320
 1529 0014 1399     		ldr	r1, [sp, #76]
 1530              	.LVL106:
 460:../../../lib/pd2dsy/libdaisy/src/hid/disp/display.h ****                                  const FontDef& font,
 1531              		.loc 4 460 15 view .LVU321
 1532 0016 9DF85060 		ldrb	r6, [sp, #80]	@ zero_extendqisi2
 1533 001a 0092     		str	r2, [sp]
 1534              	.LBB882:
 1535              	.LBB878:
 1536              	.LBB871:
 1537              	.LBB868:
 477:../../../lib/pd2dsy/libdaisy/src/hid/disp/display.h ****             result++;
 1538              		.loc 4 477 25 view .LVU322
 1539 001c 33B1     		cbz	r3, .L104
 476:../../../lib/pd2dsy/libdaisy/src/hid/disp/display.h ****         while(*string++ != '\0')
 1540              		.loc 4 476 18 view .LVU323
 1541 001e 0022     		movs	r2, #0
 1542              	.LVL107:
 1543              	.L105:
 477:../../../lib/pd2dsy/libdaisy/src/hid/disp/display.h ****             result++;
 1544              		.loc 4 477 25 view .LVU324
 1545 0020 10F8013B 		ldrb	r3, [r0], #1	@ zero_extendqisi2
 1546              	.LVL108:
 478:../../../lib/pd2dsy/libdaisy/src/hid/disp/display.h ****         return result;
 1547              		.loc 4 478 13 view .LVU325
 1548 0024 0132     		adds	r2, r2, #1
 1549              	.LVL109:
 477:../../../lib/pd2dsy/libdaisy/src/hid/disp/display.h ****             result++;
 1550              		.loc 4 477 25 is_stmt 1 view .LVU326
 1551 0026 002B     		cmp	r3, #0
 1552 0028 FAD1     		bne	.L105
 1553              	.LBE868:
 1554              	.LBE871:
 483:../../../lib/pd2dsy/libdaisy/src/hid/disp/display.h ****     {
 484:../../../lib/pd2dsy/libdaisy/src/hid/disp/display.h ****         const auto numChars = strlen(text);
 485:../../../lib/pd2dsy/libdaisy/src/hid/disp/display.h ****         return {int16_t(numChars * font.FontWidth), font.FontHeight};
 1555              		.loc 4 485 68 is_stmt 0 view .LVU327
ARM GAS  /var/folders/fb/yfxt3z4538j6z0vjt03w70vc0000gn/T//cc0qjWS6.s 			page 57


 1556 002a 93B2     		uxth	r3, r2
 1557              	.LVL110:
 1558              	.L104:
 1559              		.loc 4 485 68 view .LVU328
 1560 002c 2A78     		ldrb	r2, [r5]	@ zero_extendqisi2
 1561              		.loc 4 485 58 view .LVU329
 1562 002e 6878     		ldrb	r0, [r5, #1]	@ zero_extendqisi2
 1563              		.loc 4 485 68 view .LVU330
 1564 0030 12FB03F3 		smulbb	r3, r2, r3
 1565 0034 02B2     		sxth	r2, r0
 1566              	.LVL111:
 1567              	.LBB872:
 1568              	.LBI872:
 1569              		.file 16 "../../../lib/pd2dsy/libdaisy/src/hid/disp/graphics_common.h"
   1:../../../lib/pd2dsy/libdaisy/src/hid/disp/graphics_common.h **** #pragma once
   2:../../../lib/pd2dsy/libdaisy/src/hid/disp/graphics_common.h **** 
   3:../../../lib/pd2dsy/libdaisy/src/hid/disp/graphics_common.h **** #include <cstdint>
   4:../../../lib/pd2dsy/libdaisy/src/hid/disp/graphics_common.h **** 
   5:../../../lib/pd2dsy/libdaisy/src/hid/disp/graphics_common.h **** namespace daisy
   6:../../../lib/pd2dsy/libdaisy/src/hid/disp/graphics_common.h **** {
   7:../../../lib/pd2dsy/libdaisy/src/hid/disp/graphics_common.h **** /** Justifications */
   8:../../../lib/pd2dsy/libdaisy/src/hid/disp/graphics_common.h **** enum class Alignment
   9:../../../lib/pd2dsy/libdaisy/src/hid/disp/graphics_common.h **** {
  10:../../../lib/pd2dsy/libdaisy/src/hid/disp/graphics_common.h ****     centered,
  11:../../../lib/pd2dsy/libdaisy/src/hid/disp/graphics_common.h ****     topLeft,
  12:../../../lib/pd2dsy/libdaisy/src/hid/disp/graphics_common.h ****     topCentered,
  13:../../../lib/pd2dsy/libdaisy/src/hid/disp/graphics_common.h ****     topRight,
  14:../../../lib/pd2dsy/libdaisy/src/hid/disp/graphics_common.h ****     bottomLeft,
  15:../../../lib/pd2dsy/libdaisy/src/hid/disp/graphics_common.h ****     bottomCentered,
  16:../../../lib/pd2dsy/libdaisy/src/hid/disp/graphics_common.h ****     bottomRight,
  17:../../../lib/pd2dsy/libdaisy/src/hid/disp/graphics_common.h ****     centeredLeft,
  18:../../../lib/pd2dsy/libdaisy/src/hid/disp/graphics_common.h ****     centeredRight
  19:../../../lib/pd2dsy/libdaisy/src/hid/disp/graphics_common.h **** };
  20:../../../lib/pd2dsy/libdaisy/src/hid/disp/graphics_common.h **** 
  21:../../../lib/pd2dsy/libdaisy/src/hid/disp/graphics_common.h **** class Rectangle
  22:../../../lib/pd2dsy/libdaisy/src/hid/disp/graphics_common.h **** {
  23:../../../lib/pd2dsy/libdaisy/src/hid/disp/graphics_common.h ****   public:
  24:../../../lib/pd2dsy/libdaisy/src/hid/disp/graphics_common.h ****     Rectangle() : x_(0), y_(0), width_(0), height_(0) {}
  25:../../../lib/pd2dsy/libdaisy/src/hid/disp/graphics_common.h **** 
  26:../../../lib/pd2dsy/libdaisy/src/hid/disp/graphics_common.h ****     Rectangle(int16_t width, int16_t height)
 1570              		.loc 16 26 5 is_stmt 1 view .LVU331
 1571              	.LBB873:
 1572              	.LBI873:
  27:../../../lib/pd2dsy/libdaisy/src/hid/disp/graphics_common.h ****     : x_(0), y_(0), width_(max(0, width)), height_(max(0, height))
  28:../../../lib/pd2dsy/libdaisy/src/hid/disp/graphics_common.h ****     {
  29:../../../lib/pd2dsy/libdaisy/src/hid/disp/graphics_common.h ****     }
  30:../../../lib/pd2dsy/libdaisy/src/hid/disp/graphics_common.h **** 
  31:../../../lib/pd2dsy/libdaisy/src/hid/disp/graphics_common.h ****     Rectangle(int16_t x, int16_t y, int16_t width, int16_t height)
  32:../../../lib/pd2dsy/libdaisy/src/hid/disp/graphics_common.h ****     : x_(x), y_(y), width_(max(0, width)), height_(max(0, height))
  33:../../../lib/pd2dsy/libdaisy/src/hid/disp/graphics_common.h ****     {
  34:../../../lib/pd2dsy/libdaisy/src/hid/disp/graphics_common.h ****     }
  35:../../../lib/pd2dsy/libdaisy/src/hid/disp/graphics_common.h **** 
  36:../../../lib/pd2dsy/libdaisy/src/hid/disp/graphics_common.h ****     Rectangle(const Rectangle& other) { *this = other; }
  37:../../../lib/pd2dsy/libdaisy/src/hid/disp/graphics_common.h **** 
  38:../../../lib/pd2dsy/libdaisy/src/hid/disp/graphics_common.h ****     Rectangle& operator=(const Rectangle& other)
  39:../../../lib/pd2dsy/libdaisy/src/hid/disp/graphics_common.h ****     {
  40:../../../lib/pd2dsy/libdaisy/src/hid/disp/graphics_common.h ****         x_      = other.x_;
ARM GAS  /var/folders/fb/yfxt3z4538j6z0vjt03w70vc0000gn/T//cc0qjWS6.s 			page 58


  41:../../../lib/pd2dsy/libdaisy/src/hid/disp/graphics_common.h ****         y_      = other.y_;
  42:../../../lib/pd2dsy/libdaisy/src/hid/disp/graphics_common.h ****         width_  = other.width_;
  43:../../../lib/pd2dsy/libdaisy/src/hid/disp/graphics_common.h ****         height_ = other.height_;
  44:../../../lib/pd2dsy/libdaisy/src/hid/disp/graphics_common.h ****         return *this;
  45:../../../lib/pd2dsy/libdaisy/src/hid/disp/graphics_common.h ****     }
  46:../../../lib/pd2dsy/libdaisy/src/hid/disp/graphics_common.h **** 
  47:../../../lib/pd2dsy/libdaisy/src/hid/disp/graphics_common.h ****     bool operator==(const Rectangle& other) const
  48:../../../lib/pd2dsy/libdaisy/src/hid/disp/graphics_common.h ****     {
  49:../../../lib/pd2dsy/libdaisy/src/hid/disp/graphics_common.h ****         return (x_ == other.x_) && (y_ == other.y_) && (width_ == other.width_)
  50:../../../lib/pd2dsy/libdaisy/src/hid/disp/graphics_common.h ****                && (height_ == other.height_);
  51:../../../lib/pd2dsy/libdaisy/src/hid/disp/graphics_common.h ****     }
  52:../../../lib/pd2dsy/libdaisy/src/hid/disp/graphics_common.h ****     bool operator!=(const Rectangle& other) const { return !(*this == other); }
  53:../../../lib/pd2dsy/libdaisy/src/hid/disp/graphics_common.h **** 
  54:../../../lib/pd2dsy/libdaisy/src/hid/disp/graphics_common.h ****     bool IsEmpty() const { return (width_ <= 0) || (height_ <= 0); }
  55:../../../lib/pd2dsy/libdaisy/src/hid/disp/graphics_common.h **** 
  56:../../../lib/pd2dsy/libdaisy/src/hid/disp/graphics_common.h ****     int16_t GetX() const { return x_; }
  57:../../../lib/pd2dsy/libdaisy/src/hid/disp/graphics_common.h ****     int16_t GetY() const { return y_; }
  58:../../../lib/pd2dsy/libdaisy/src/hid/disp/graphics_common.h ****     int16_t GetWidth() const { return width_; }
  59:../../../lib/pd2dsy/libdaisy/src/hid/disp/graphics_common.h ****     int16_t GetHeight() const { return height_; }
  60:../../../lib/pd2dsy/libdaisy/src/hid/disp/graphics_common.h ****     int16_t GetRight() const { return x_ + width_; }
  61:../../../lib/pd2dsy/libdaisy/src/hid/disp/graphics_common.h ****     int16_t GetBottom() const { return y_ + height_; }
  62:../../../lib/pd2dsy/libdaisy/src/hid/disp/graphics_common.h ****     int16_t GetCenterX() const { return x_ + width_ / 2; }
  63:../../../lib/pd2dsy/libdaisy/src/hid/disp/graphics_common.h ****     int16_t GetCenterY() const { return y_ + height_ / 2; }
  64:../../../lib/pd2dsy/libdaisy/src/hid/disp/graphics_common.h **** 
  65:../../../lib/pd2dsy/libdaisy/src/hid/disp/graphics_common.h ****     Rectangle WithX(int16_t x) const { return {x, y_, width_, height_}; }
  66:../../../lib/pd2dsy/libdaisy/src/hid/disp/graphics_common.h ****     Rectangle WithY(int16_t y) const { return {x_, y, width_, height_}; }
  67:../../../lib/pd2dsy/libdaisy/src/hid/disp/graphics_common.h ****     Rectangle WithWidth(int16_t width) const
  68:../../../lib/pd2dsy/libdaisy/src/hid/disp/graphics_common.h ****     {
  69:../../../lib/pd2dsy/libdaisy/src/hid/disp/graphics_common.h ****         return {x_, y_, width, height_};
  70:../../../lib/pd2dsy/libdaisy/src/hid/disp/graphics_common.h ****     }
  71:../../../lib/pd2dsy/libdaisy/src/hid/disp/graphics_common.h ****     Rectangle WithHeight(int16_t height) const
  72:../../../lib/pd2dsy/libdaisy/src/hid/disp/graphics_common.h ****     {
  73:../../../lib/pd2dsy/libdaisy/src/hid/disp/graphics_common.h ****         return {x_, y_, width_, height};
  74:../../../lib/pd2dsy/libdaisy/src/hid/disp/graphics_common.h ****     }
  75:../../../lib/pd2dsy/libdaisy/src/hid/disp/graphics_common.h ****     Rectangle WithSize(int16_t width, int16_t height) const
  76:../../../lib/pd2dsy/libdaisy/src/hid/disp/graphics_common.h ****     {
  77:../../../lib/pd2dsy/libdaisy/src/hid/disp/graphics_common.h ****         return {x_, y_, width, height};
  78:../../../lib/pd2dsy/libdaisy/src/hid/disp/graphics_common.h ****     }
  79:../../../lib/pd2dsy/libdaisy/src/hid/disp/graphics_common.h ****     Rectangle WithWidthKeepingCenter(int16_t width) const
  80:../../../lib/pd2dsy/libdaisy/src/hid/disp/graphics_common.h ****     {
  81:../../../lib/pd2dsy/libdaisy/src/hid/disp/graphics_common.h ****         return Rectangle(x_, y_, width, height_)
  82:../../../lib/pd2dsy/libdaisy/src/hid/disp/graphics_common.h ****             .WithCenter(GetCenterX(), GetCenterY());
  83:../../../lib/pd2dsy/libdaisy/src/hid/disp/graphics_common.h ****     }
  84:../../../lib/pd2dsy/libdaisy/src/hid/disp/graphics_common.h ****     Rectangle WithHeightKeepingCenter(int16_t height) const
  85:../../../lib/pd2dsy/libdaisy/src/hid/disp/graphics_common.h ****     {
  86:../../../lib/pd2dsy/libdaisy/src/hid/disp/graphics_common.h ****         return Rectangle(x_, y_, width_, height)
  87:../../../lib/pd2dsy/libdaisy/src/hid/disp/graphics_common.h ****             .WithCenter(GetCenterX(), GetCenterY());
  88:../../../lib/pd2dsy/libdaisy/src/hid/disp/graphics_common.h ****     }
  89:../../../lib/pd2dsy/libdaisy/src/hid/disp/graphics_common.h ****     Rectangle WithSizeKeepingCenter(int16_t width, int16_t height) const
  90:../../../lib/pd2dsy/libdaisy/src/hid/disp/graphics_common.h ****     {
  91:../../../lib/pd2dsy/libdaisy/src/hid/disp/graphics_common.h ****         return Rectangle(x_, y_, width, height)
  92:../../../lib/pd2dsy/libdaisy/src/hid/disp/graphics_common.h ****             .WithCenter(GetCenterX(), GetCenterY());
  93:../../../lib/pd2dsy/libdaisy/src/hid/disp/graphics_common.h ****     }
  94:../../../lib/pd2dsy/libdaisy/src/hid/disp/graphics_common.h **** 
  95:../../../lib/pd2dsy/libdaisy/src/hid/disp/graphics_common.h ****     Rectangle Reduced(int16_t sizeToReduce) const
  96:../../../lib/pd2dsy/libdaisy/src/hid/disp/graphics_common.h ****     {
  97:../../../lib/pd2dsy/libdaisy/src/hid/disp/graphics_common.h ****         return {int16_t(x_ + sizeToReduce),
ARM GAS  /var/folders/fb/yfxt3z4538j6z0vjt03w70vc0000gn/T//cc0qjWS6.s 			page 59


  98:../../../lib/pd2dsy/libdaisy/src/hid/disp/graphics_common.h ****                 int16_t(y_ + sizeToReduce),
  99:../../../lib/pd2dsy/libdaisy/src/hid/disp/graphics_common.h ****                 int16_t(width_ - 2 * sizeToReduce),
 100:../../../lib/pd2dsy/libdaisy/src/hid/disp/graphics_common.h ****                 int16_t(height_ - 2 * sizeToReduce)};
 101:../../../lib/pd2dsy/libdaisy/src/hid/disp/graphics_common.h ****     }
 102:../../../lib/pd2dsy/libdaisy/src/hid/disp/graphics_common.h ****     Rectangle Reduced(int16_t xToReduce, int16_t yToReduce) const
 103:../../../lib/pd2dsy/libdaisy/src/hid/disp/graphics_common.h ****     {
 104:../../../lib/pd2dsy/libdaisy/src/hid/disp/graphics_common.h ****         return {int16_t(x_ + xToReduce),
 105:../../../lib/pd2dsy/libdaisy/src/hid/disp/graphics_common.h ****                 int16_t(y_ + yToReduce),
 106:../../../lib/pd2dsy/libdaisy/src/hid/disp/graphics_common.h ****                 int16_t(width_ - 2 * xToReduce),
 107:../../../lib/pd2dsy/libdaisy/src/hid/disp/graphics_common.h ****                 int16_t(height_ - 2 * yToReduce)};
 108:../../../lib/pd2dsy/libdaisy/src/hid/disp/graphics_common.h ****     }
 109:../../../lib/pd2dsy/libdaisy/src/hid/disp/graphics_common.h **** 
 110:../../../lib/pd2dsy/libdaisy/src/hid/disp/graphics_common.h ****     Rectangle Translated(int16_t x, int16_t y) const
 111:../../../lib/pd2dsy/libdaisy/src/hid/disp/graphics_common.h ****     {
 112:../../../lib/pd2dsy/libdaisy/src/hid/disp/graphics_common.h ****         return {int16_t(x_ + x), int16_t(y_ + y), width_, height_};
 113:../../../lib/pd2dsy/libdaisy/src/hid/disp/graphics_common.h ****     }
 114:../../../lib/pd2dsy/libdaisy/src/hid/disp/graphics_common.h **** 
 115:../../../lib/pd2dsy/libdaisy/src/hid/disp/graphics_common.h ****     Rectangle WithLeft(int16_t left) const
 116:../../../lib/pd2dsy/libdaisy/src/hid/disp/graphics_common.h ****     {
 117:../../../lib/pd2dsy/libdaisy/src/hid/disp/graphics_common.h ****         const auto newWidth = int16_t((x_ - left) + width_);
 118:../../../lib/pd2dsy/libdaisy/src/hid/disp/graphics_common.h ****         return {left, y_, newWidth, height_};
 119:../../../lib/pd2dsy/libdaisy/src/hid/disp/graphics_common.h ****     }
 120:../../../lib/pd2dsy/libdaisy/src/hid/disp/graphics_common.h **** 
 121:../../../lib/pd2dsy/libdaisy/src/hid/disp/graphics_common.h ****     Rectangle WithRight(int16_t right) const
 122:../../../lib/pd2dsy/libdaisy/src/hid/disp/graphics_common.h ****     {
 123:../../../lib/pd2dsy/libdaisy/src/hid/disp/graphics_common.h ****         const auto newWidth = int16_t(right - x_);
 124:../../../lib/pd2dsy/libdaisy/src/hid/disp/graphics_common.h ****         return {x_, y_, newWidth, height_};
 125:../../../lib/pd2dsy/libdaisy/src/hid/disp/graphics_common.h ****     }
 126:../../../lib/pd2dsy/libdaisy/src/hid/disp/graphics_common.h **** 
 127:../../../lib/pd2dsy/libdaisy/src/hid/disp/graphics_common.h ****     Rectangle WithTop(int16_t top) const
 128:../../../lib/pd2dsy/libdaisy/src/hid/disp/graphics_common.h ****     {
 129:../../../lib/pd2dsy/libdaisy/src/hid/disp/graphics_common.h ****         const auto newHeight = int16_t((y_ - top) + height_);
 130:../../../lib/pd2dsy/libdaisy/src/hid/disp/graphics_common.h ****         return {x_, top, width_, newHeight};
 131:../../../lib/pd2dsy/libdaisy/src/hid/disp/graphics_common.h ****     }
 132:../../../lib/pd2dsy/libdaisy/src/hid/disp/graphics_common.h **** 
 133:../../../lib/pd2dsy/libdaisy/src/hid/disp/graphics_common.h ****     Rectangle WithBottom(int16_t bottom) const
 134:../../../lib/pd2dsy/libdaisy/src/hid/disp/graphics_common.h ****     {
 135:../../../lib/pd2dsy/libdaisy/src/hid/disp/graphics_common.h ****         const auto newHeight = int16_t(bottom - y_);
 136:../../../lib/pd2dsy/libdaisy/src/hid/disp/graphics_common.h ****         return {x_, y_, width_, newHeight};
 137:../../../lib/pd2dsy/libdaisy/src/hid/disp/graphics_common.h ****     }
 138:../../../lib/pd2dsy/libdaisy/src/hid/disp/graphics_common.h **** 
 139:../../../lib/pd2dsy/libdaisy/src/hid/disp/graphics_common.h ****     Rectangle WithTrimmedLeft(int16_t pxToTrim) const
 140:../../../lib/pd2dsy/libdaisy/src/hid/disp/graphics_common.h ****     {
 141:../../../lib/pd2dsy/libdaisy/src/hid/disp/graphics_common.h ****         return {
 142:../../../lib/pd2dsy/libdaisy/src/hid/disp/graphics_common.h ****             int16_t(x_ + pxToTrim), y_, int16_t(width_ - pxToTrim), height_};
 143:../../../lib/pd2dsy/libdaisy/src/hid/disp/graphics_common.h ****     }
 144:../../../lib/pd2dsy/libdaisy/src/hid/disp/graphics_common.h **** 
 145:../../../lib/pd2dsy/libdaisy/src/hid/disp/graphics_common.h ****     Rectangle WithTrimmedRight(int16_t pxToTrim) const
 146:../../../lib/pd2dsy/libdaisy/src/hid/disp/graphics_common.h ****     {
 147:../../../lib/pd2dsy/libdaisy/src/hid/disp/graphics_common.h ****         return {x_, y_, int16_t(width_ - pxToTrim), height_};
 148:../../../lib/pd2dsy/libdaisy/src/hid/disp/graphics_common.h ****     }
 149:../../../lib/pd2dsy/libdaisy/src/hid/disp/graphics_common.h **** 
 150:../../../lib/pd2dsy/libdaisy/src/hid/disp/graphics_common.h ****     Rectangle WithTrimmedTop(int16_t pxToTrim) const
 151:../../../lib/pd2dsy/libdaisy/src/hid/disp/graphics_common.h ****     {
 152:../../../lib/pd2dsy/libdaisy/src/hid/disp/graphics_common.h ****         return {
 153:../../../lib/pd2dsy/libdaisy/src/hid/disp/graphics_common.h ****             x_, int16_t(y_ + pxToTrim), width_, int16_t(height_ - pxToTrim)};
 154:../../../lib/pd2dsy/libdaisy/src/hid/disp/graphics_common.h ****     }
ARM GAS  /var/folders/fb/yfxt3z4538j6z0vjt03w70vc0000gn/T//cc0qjWS6.s 			page 60


 155:../../../lib/pd2dsy/libdaisy/src/hid/disp/graphics_common.h **** 
 156:../../../lib/pd2dsy/libdaisy/src/hid/disp/graphics_common.h ****     Rectangle WithTrimmedBottom(int16_t pxToTrim) const
 157:../../../lib/pd2dsy/libdaisy/src/hid/disp/graphics_common.h ****     {
 158:../../../lib/pd2dsy/libdaisy/src/hid/disp/graphics_common.h ****         return {x_, y_, width_, int16_t(height_ - pxToTrim)};
 159:../../../lib/pd2dsy/libdaisy/src/hid/disp/graphics_common.h ****     }
 160:../../../lib/pd2dsy/libdaisy/src/hid/disp/graphics_common.h **** 
 161:../../../lib/pd2dsy/libdaisy/src/hid/disp/graphics_common.h ****     Rectangle WithCenterX(int16_t centerX) const
 162:../../../lib/pd2dsy/libdaisy/src/hid/disp/graphics_common.h ****     {
 163:../../../lib/pd2dsy/libdaisy/src/hid/disp/graphics_common.h ****         return {int16_t(x_ + centerX - GetCenterX()), y_, width_, height_};
 164:../../../lib/pd2dsy/libdaisy/src/hid/disp/graphics_common.h ****     }
 165:../../../lib/pd2dsy/libdaisy/src/hid/disp/graphics_common.h **** 
 166:../../../lib/pd2dsy/libdaisy/src/hid/disp/graphics_common.h ****     Rectangle WithCenterY(int16_t centerY) const
 167:../../../lib/pd2dsy/libdaisy/src/hid/disp/graphics_common.h ****     {
 168:../../../lib/pd2dsy/libdaisy/src/hid/disp/graphics_common.h ****         return {x_, int16_t(y_ + centerY - GetCenterY()), width_, height_};
 169:../../../lib/pd2dsy/libdaisy/src/hid/disp/graphics_common.h ****     }
 170:../../../lib/pd2dsy/libdaisy/src/hid/disp/graphics_common.h **** 
 171:../../../lib/pd2dsy/libdaisy/src/hid/disp/graphics_common.h ****     Rectangle WithCenter(int16_t centerX, int16_t centerY) const
 172:../../../lib/pd2dsy/libdaisy/src/hid/disp/graphics_common.h ****     {
 173:../../../lib/pd2dsy/libdaisy/src/hid/disp/graphics_common.h ****         return {int16_t(x_ + centerX - GetCenterX()),
 174:../../../lib/pd2dsy/libdaisy/src/hid/disp/graphics_common.h ****                 int16_t(y_ + centerY - GetCenterY()),
 175:../../../lib/pd2dsy/libdaisy/src/hid/disp/graphics_common.h ****                 width_,
 176:../../../lib/pd2dsy/libdaisy/src/hid/disp/graphics_common.h ****                 height_};
 177:../../../lib/pd2dsy/libdaisy/src/hid/disp/graphics_common.h ****     }
 178:../../../lib/pd2dsy/libdaisy/src/hid/disp/graphics_common.h **** 
 179:../../../lib/pd2dsy/libdaisy/src/hid/disp/graphics_common.h ****     Rectangle RemoveFromLeft(int16_t pxToRemove)
 180:../../../lib/pd2dsy/libdaisy/src/hid/disp/graphics_common.h ****     {
 181:../../../lib/pd2dsy/libdaisy/src/hid/disp/graphics_common.h ****         const auto result = this->WithWidth(min(pxToRemove, width_));
 182:../../../lib/pd2dsy/libdaisy/src/hid/disp/graphics_common.h ****         x_ += min(pxToRemove, width_);
 183:../../../lib/pd2dsy/libdaisy/src/hid/disp/graphics_common.h ****         width_ = max(int16_t(width_ - pxToRemove), 0);
 184:../../../lib/pd2dsy/libdaisy/src/hid/disp/graphics_common.h ****         return result;
 185:../../../lib/pd2dsy/libdaisy/src/hid/disp/graphics_common.h ****     }
 186:../../../lib/pd2dsy/libdaisy/src/hid/disp/graphics_common.h **** 
 187:../../../lib/pd2dsy/libdaisy/src/hid/disp/graphics_common.h ****     Rectangle RemoveFromRight(int16_t pxToRemove)
 188:../../../lib/pd2dsy/libdaisy/src/hid/disp/graphics_common.h ****     {
 189:../../../lib/pd2dsy/libdaisy/src/hid/disp/graphics_common.h ****         const auto canRemove = min(pxToRemove, width_);
 190:../../../lib/pd2dsy/libdaisy/src/hid/disp/graphics_common.h ****         width_ -= canRemove;
 191:../../../lib/pd2dsy/libdaisy/src/hid/disp/graphics_common.h ****         return {int16_t(x_ + width_), y_, canRemove, height_};
 192:../../../lib/pd2dsy/libdaisy/src/hid/disp/graphics_common.h ****     }
 193:../../../lib/pd2dsy/libdaisy/src/hid/disp/graphics_common.h **** 
 194:../../../lib/pd2dsy/libdaisy/src/hid/disp/graphics_common.h ****     Rectangle RemoveFromTop(int16_t pxToRemove)
 195:../../../lib/pd2dsy/libdaisy/src/hid/disp/graphics_common.h ****     {
 196:../../../lib/pd2dsy/libdaisy/src/hid/disp/graphics_common.h ****         const auto result = this->WithHeight(min(pxToRemove, height_));
 197:../../../lib/pd2dsy/libdaisy/src/hid/disp/graphics_common.h ****         y_ += min(pxToRemove, height_);
 198:../../../lib/pd2dsy/libdaisy/src/hid/disp/graphics_common.h ****         height_ = max(height_ - pxToRemove, 0);
 199:../../../lib/pd2dsy/libdaisy/src/hid/disp/graphics_common.h ****         return result;
 200:../../../lib/pd2dsy/libdaisy/src/hid/disp/graphics_common.h ****     }
 201:../../../lib/pd2dsy/libdaisy/src/hid/disp/graphics_common.h **** 
 202:../../../lib/pd2dsy/libdaisy/src/hid/disp/graphics_common.h ****     Rectangle RemoveFromBottom(int16_t pxToRemove)
 203:../../../lib/pd2dsy/libdaisy/src/hid/disp/graphics_common.h ****     {
 204:../../../lib/pd2dsy/libdaisy/src/hid/disp/graphics_common.h ****         const auto canRemove = min(pxToRemove, height_);
 205:../../../lib/pd2dsy/libdaisy/src/hid/disp/graphics_common.h ****         height_ -= canRemove;
 206:../../../lib/pd2dsy/libdaisy/src/hid/disp/graphics_common.h ****         return {x_, int16_t(y_ + height_), width_, canRemove};
 207:../../../lib/pd2dsy/libdaisy/src/hid/disp/graphics_common.h ****     }
 208:../../../lib/pd2dsy/libdaisy/src/hid/disp/graphics_common.h **** 
 209:../../../lib/pd2dsy/libdaisy/src/hid/disp/graphics_common.h ****     Rectangle AlignedWithin(const Rectangle& other, Alignment alignment) const
 210:../../../lib/pd2dsy/libdaisy/src/hid/disp/graphics_common.h ****     {
 211:../../../lib/pd2dsy/libdaisy/src/hid/disp/graphics_common.h ****         switch(alignment)
ARM GAS  /var/folders/fb/yfxt3z4538j6z0vjt03w70vc0000gn/T//cc0qjWS6.s 			page 61


 212:../../../lib/pd2dsy/libdaisy/src/hid/disp/graphics_common.h ****         {
 213:../../../lib/pd2dsy/libdaisy/src/hid/disp/graphics_common.h ****             case Alignment::topLeft:
 214:../../../lib/pd2dsy/libdaisy/src/hid/disp/graphics_common.h ****                 return {other.x_, other.y_, width_, height_};
 215:../../../lib/pd2dsy/libdaisy/src/hid/disp/graphics_common.h ****             case Alignment::topRight:
 216:../../../lib/pd2dsy/libdaisy/src/hid/disp/graphics_common.h ****                 return {int16_t(other.GetRight() - width_),
 217:../../../lib/pd2dsy/libdaisy/src/hid/disp/graphics_common.h ****                         other.y_,
 218:../../../lib/pd2dsy/libdaisy/src/hid/disp/graphics_common.h ****                         width_,
 219:../../../lib/pd2dsy/libdaisy/src/hid/disp/graphics_common.h ****                         height_};
 220:../../../lib/pd2dsy/libdaisy/src/hid/disp/graphics_common.h ****             case Alignment::topCentered:
 221:../../../lib/pd2dsy/libdaisy/src/hid/disp/graphics_common.h ****                 return {int16_t(x_ + (other.GetCenterX() - GetCenterX())),
 222:../../../lib/pd2dsy/libdaisy/src/hid/disp/graphics_common.h ****                         other.y_,
 223:../../../lib/pd2dsy/libdaisy/src/hid/disp/graphics_common.h ****                         width_,
 224:../../../lib/pd2dsy/libdaisy/src/hid/disp/graphics_common.h ****                         height_};
 225:../../../lib/pd2dsy/libdaisy/src/hid/disp/graphics_common.h ****             case Alignment::bottomLeft:
 226:../../../lib/pd2dsy/libdaisy/src/hid/disp/graphics_common.h ****                 return {other.x_,
 227:../../../lib/pd2dsy/libdaisy/src/hid/disp/graphics_common.h ****                         int16_t(other.GetBottom() - height_),
 228:../../../lib/pd2dsy/libdaisy/src/hid/disp/graphics_common.h ****                         width_,
 229:../../../lib/pd2dsy/libdaisy/src/hid/disp/graphics_common.h ****                         height_};
 230:../../../lib/pd2dsy/libdaisy/src/hid/disp/graphics_common.h ****             case Alignment::bottomRight:
 231:../../../lib/pd2dsy/libdaisy/src/hid/disp/graphics_common.h ****                 return {int16_t(other.GetRight() - width_),
 232:../../../lib/pd2dsy/libdaisy/src/hid/disp/graphics_common.h ****                         int16_t(other.GetBottom() - height_),
 233:../../../lib/pd2dsy/libdaisy/src/hid/disp/graphics_common.h ****                         width_,
 234:../../../lib/pd2dsy/libdaisy/src/hid/disp/graphics_common.h ****                         height_};
 235:../../../lib/pd2dsy/libdaisy/src/hid/disp/graphics_common.h ****             case Alignment::bottomCentered:
 236:../../../lib/pd2dsy/libdaisy/src/hid/disp/graphics_common.h ****                 return {int16_t(x_ + (other.GetCenterX() - GetCenterX())),
 237:../../../lib/pd2dsy/libdaisy/src/hid/disp/graphics_common.h ****                         int16_t(other.GetBottom() - height_),
 238:../../../lib/pd2dsy/libdaisy/src/hid/disp/graphics_common.h ****                         width_,
 239:../../../lib/pd2dsy/libdaisy/src/hid/disp/graphics_common.h ****                         height_};
 240:../../../lib/pd2dsy/libdaisy/src/hid/disp/graphics_common.h ****             case Alignment::centeredLeft:
 241:../../../lib/pd2dsy/libdaisy/src/hid/disp/graphics_common.h ****                 return {other.x_,
 242:../../../lib/pd2dsy/libdaisy/src/hid/disp/graphics_common.h ****                         int16_t(y_ + (other.GetCenterY() - GetCenterY())),
 243:../../../lib/pd2dsy/libdaisy/src/hid/disp/graphics_common.h ****                         width_,
 244:../../../lib/pd2dsy/libdaisy/src/hid/disp/graphics_common.h ****                         height_};
 245:../../../lib/pd2dsy/libdaisy/src/hid/disp/graphics_common.h ****             case Alignment::centeredRight:
 246:../../../lib/pd2dsy/libdaisy/src/hid/disp/graphics_common.h ****                 return {int16_t(other.GetRight() - width_),
 247:../../../lib/pd2dsy/libdaisy/src/hid/disp/graphics_common.h ****                         int16_t(y_ + (other.GetCenterY() - GetCenterY())),
 248:../../../lib/pd2dsy/libdaisy/src/hid/disp/graphics_common.h ****                         width_,
 249:../../../lib/pd2dsy/libdaisy/src/hid/disp/graphics_common.h ****                         height_};
 250:../../../lib/pd2dsy/libdaisy/src/hid/disp/graphics_common.h ****             case Alignment::centered:
 251:../../../lib/pd2dsy/libdaisy/src/hid/disp/graphics_common.h ****                 return {int16_t(x_ + (other.GetCenterX() - GetCenterX())),
 252:../../../lib/pd2dsy/libdaisy/src/hid/disp/graphics_common.h ****                         int16_t(y_ + (other.GetCenterY() - GetCenterY())),
 253:../../../lib/pd2dsy/libdaisy/src/hid/disp/graphics_common.h ****                         width_,
 254:../../../lib/pd2dsy/libdaisy/src/hid/disp/graphics_common.h ****                         height_};
 255:../../../lib/pd2dsy/libdaisy/src/hid/disp/graphics_common.h ****             default: return {};
 256:../../../lib/pd2dsy/libdaisy/src/hid/disp/graphics_common.h ****         }
 257:../../../lib/pd2dsy/libdaisy/src/hid/disp/graphics_common.h ****     }
 258:../../../lib/pd2dsy/libdaisy/src/hid/disp/graphics_common.h **** 
 259:../../../lib/pd2dsy/libdaisy/src/hid/disp/graphics_common.h ****   private:
 260:../../../lib/pd2dsy/libdaisy/src/hid/disp/graphics_common.h ****     int16_t x_, y_, width_, height_;
 261:../../../lib/pd2dsy/libdaisy/src/hid/disp/graphics_common.h ****     int16_t max(int16_t a, int16_t b) { return (a > b) ? a : b; }
 1573              		.loc 16 261 13 view .LVU332
 1574              	.LBE873:
 1575              	.LBE872:
 1576              	.LBE878:
 1577              	.LBE882:
 1578              		.loc 16 261 41 view .LVU333
 1579              	.LBB883:
ARM GAS  /var/folders/fb/yfxt3z4538j6z0vjt03w70vc0000gn/T//cc0qjWS6.s 			page 62


 1580              	.LBB879:
 1581              	.LBB875:
 1582              	.LBB874:
 1583              	.LBI874:
 1584              		.loc 16 261 13 view .LVU334
 1585              	.LBE874:
 1586              	.LBE875:
 1587              	.LBE879:
 1588              	.LBE883:
 1589              		.loc 16 261 41 view .LVU335
 1590              	.LBB884:
 1591              	.LBI884:
 209:../../../lib/pd2dsy/libdaisy/src/hid/disp/graphics_common.h ****     {
 1592              		.loc 16 209 15 view .LVU336
 1593              	.LBB885:
 211:../../../lib/pd2dsy/libdaisy/src/hid/disp/graphics_common.h ****         {
 1594              		.loc 16 211 9 view .LVU337
 1595 0036 1BB2     		sxth	r3, r3
 1596 0038 23EAE373 		bic	r3, r3, r3, asr #31
 1597 003c 0829     		cmp	r1, #8
 1598 003e 00F2A681 		bhi	.L106
 1599 0042 DFE811F0 		tbh	[pc, r1, lsl #1]
 1600              	.L108:
 1601 0046 0101     		.2byte	(.L116-.L108)/2
 1602 0048 1301     		.2byte	(.L115-.L108)/2
 1603 004a 1F01     		.2byte	(.L114-.L108)/2
 1604 004c 3301     		.2byte	(.L113-.L108)/2
 1605 004e 4101     		.2byte	(.L112-.L108)/2
 1606 0050 4F01     		.2byte	(.L111-.L108)/2
 1607 0052 6601     		.2byte	(.L110-.L108)/2
 1608 0054 6F01     		.2byte	(.L109-.L108)/2
 1609 0056 0900     		.2byte	(.L107-.L108)/2
 1610              		.p2align 1
 1611              	.L107:
 245:../../../lib/pd2dsy/libdaisy/src/hid/disp/graphics_common.h ****                 return {int16_t(other.GetRight() - width_),
 1612              		.loc 16 245 13 view .LVU338
 246:../../../lib/pd2dsy/libdaisy/src/hid/disp/graphics_common.h ****                         int16_t(y_ + (other.GetCenterY() - GetCenterY())),
 1613              		.loc 16 246 17 view .LVU339
 1614              	.LVL112:
 1615              	.LBB886:
 1616              	.LBI886:
  60:../../../lib/pd2dsy/libdaisy/src/hid/disp/graphics_common.h ****     int16_t GetBottom() const { return y_ + height_; }
 1617              		.loc 16 60 13 view .LVU340
 1618              	.LBB887:
  60:../../../lib/pd2dsy/libdaisy/src/hid/disp/graphics_common.h ****     int16_t GetBottom() const { return y_ + height_; }
 1619              		.loc 16 60 32 view .LVU341
  60:../../../lib/pd2dsy/libdaisy/src/hid/disp/graphics_common.h ****     int16_t GetBottom() const { return y_ + height_; }
 1620              		.loc 16 60 42 is_stmt 0 view .LVU342
 1621 0058 A188     		ldrh	r1, [r4, #4]
 1622              	.LVL113:
  60:../../../lib/pd2dsy/libdaisy/src/hid/disp/graphics_common.h ****     int16_t GetBottom() const { return y_ + height_; }
 1623              		.loc 16 60 42 view .LVU343
 1624 005a 2788     		ldrh	r7, [r4]
 1625 005c 0F44     		add	r7, r7, r1
 1626              	.LBE887:
 1627              	.LBE886:
 1628              	.LBB888:
ARM GAS  /var/folders/fb/yfxt3z4538j6z0vjt03w70vc0000gn/T//cc0qjWS6.s 			page 63


 1629              	.LBB889:
  63:../../../lib/pd2dsy/libdaisy/src/hid/disp/graphics_common.h **** 
 1630              		.loc 16 63 54 view .LVU344
 1631 005e B4F90610 		ldrsh	r1, [r4, #6]
 1632              	.LBE889:
 1633              	.LBE888:
 246:../../../lib/pd2dsy/libdaisy/src/hid/disp/graphics_common.h ****                         int16_t(y_ + (other.GetCenterY() - GetCenterY())),
 1634              		.loc 16 246 50 view .LVU345
 1635 0062 FF1A     		subs	r7, r7, r3
 1636              	.LBB893:
 1637              	.LBB890:
  63:../../../lib/pd2dsy/libdaisy/src/hid/disp/graphics_common.h **** 
 1638              		.loc 16 63 54 view .LVU346
 1639 0064 0029     		cmp	r1, #0
 1640              	.LBE890:
 1641              	.LBE893:
 246:../../../lib/pd2dsy/libdaisy/src/hid/disp/graphics_common.h ****                         int16_t(y_ + (other.GetCenterY() - GetCenterY())),
 1642              		.loc 16 246 50 view .LVU347
 1643 0066 BFB2     		uxth	r7, r7
 1644              	.LVL114:
 1645              	.LBB894:
 1646              	.LBI888:
  63:../../../lib/pd2dsy/libdaisy/src/hid/disp/graphics_common.h **** 
 1647              		.loc 16 63 13 is_stmt 1 view .LVU348
 1648              	.LBB891:
  63:../../../lib/pd2dsy/libdaisy/src/hid/disp/graphics_common.h **** 
 1649              		.loc 16 63 34 view .LVU349
  63:../../../lib/pd2dsy/libdaisy/src/hid/disp/graphics_common.h **** 
 1650              		.loc 16 63 34 is_stmt 0 view .LVU350
 1651              	.LBE891:
 1652              	.LBE894:
 1653              	.LBB895:
 1654              	.LBI895:
  63:../../../lib/pd2dsy/libdaisy/src/hid/disp/graphics_common.h **** 
 1655              		.loc 16 63 13 is_stmt 1 view .LVU351
 1656              	.LBB896:
  63:../../../lib/pd2dsy/libdaisy/src/hid/disp/graphics_common.h **** 
 1657              		.loc 16 63 34 view .LVU352
  63:../../../lib/pd2dsy/libdaisy/src/hid/disp/graphics_common.h **** 
 1658              		.loc 16 63 34 is_stmt 0 view .LVU353
 1659              	.LBE896:
 1660              	.LBE895:
 1661              	.LBB897:
 1662              	.LBB892:
  63:../../../lib/pd2dsy/libdaisy/src/hid/disp/graphics_common.h **** 
 1663              		.loc 16 63 54 view .LVU354
 1664 0068 C0F2FE80 		blt	.L179
 1665              	.L123:
  63:../../../lib/pd2dsy/libdaisy/src/hid/disp/graphics_common.h **** 
 1666              		.loc 16 63 54 view .LVU355
 1667              	.LBE892:
 1668              	.LBE897:
 1669              	.LBB898:
 1670              	.LBB899:
  63:../../../lib/pd2dsy/libdaisy/src/hid/disp/graphics_common.h **** 
 1671              		.loc 16 63 44 view .LVU356
 1672 006c 6488     		ldrh	r4, [r4, #2]
ARM GAS  /var/folders/fb/yfxt3z4538j6z0vjt03w70vc0000gn/T//cc0qjWS6.s 			page 64


 1673              	.LVL115:
  63:../../../lib/pd2dsy/libdaisy/src/hid/disp/graphics_common.h **** 
 1674              		.loc 16 63 44 view .LVU357
 1675              	.LBE899:
 1676              	.LBE898:
 1677              	.LBB905:
 1678              	.LBB906:
 1679              	.LBB907:
  32:../../../lib/pd2dsy/libdaisy/src/hid/disp/graphics_common.h ****     {
 1680              		.loc 16 32 66 view .LVU358
 1681 006e 0698     		ldr	r0, [sp, #24]
 1682              	.LBE907:
 1683              	.LBE906:
 1684              	.LBE905:
 1685              	.LBB918:
 1686              	.LBB900:
  63:../../../lib/pd2dsy/libdaisy/src/hid/disp/graphics_common.h **** 
 1687              		.loc 16 63 44 view .LVU359
 1688 0070 04EB6104 		add	r4, r4, r1, asr #1
 1689              	.LBE900:
 1690              	.LBE918:
 1691              	.LBB919:
 1692              	.LBB914:
 1693              	.LBB910:
  32:../../../lib/pd2dsy/libdaisy/src/hid/disp/graphics_common.h ****     {
 1694              		.loc 16 32 66 view .LVU360
 1695 0074 C280     		strh	r2, [r0, #6]	@ movhi
 1696              	.LBE910:
 1697              	.LBE914:
 1698              	.LBE919:
 252:../../../lib/pd2dsy/libdaisy/src/hid/disp/graphics_common.h ****                         width_,
 1699              		.loc 16 252 58 view .LVU361
 1700 0076 A4EB5202 		sub	r2, r4, r2, lsr #1
 1701              	.LBB920:
 1702              	.LBB915:
 1703              	.LBB911:
  32:../../../lib/pd2dsy/libdaisy/src/hid/disp/graphics_common.h ****     {
 1704              		.loc 16 32 66 view .LVU362
 1705 007a 8380     		strh	r3, [r0, #4]	@ movhi
 1706 007c 0780     		strh	r7, [r0]	@ movhi
 1707              	.LBE911:
 1708              	.LBE915:
 1709              	.LBE920:
 252:../../../lib/pd2dsy/libdaisy/src/hid/disp/graphics_common.h ****                         width_,
 1710              		.loc 16 252 58 view .LVU363
 1711 007e 94B2     		uxth	r4, r2
 1712              	.LVL116:
 1713              	.LBB921:
 1714              	.LBI905:
  31:../../../lib/pd2dsy/libdaisy/src/hid/disp/graphics_common.h ****     : x_(x), y_(y), width_(max(0, width)), height_(max(0, height))
 1715              		.loc 16 31 5 is_stmt 1 view .LVU364
 1716              	.LBB916:
 1717              	.LBB912:
  32:../../../lib/pd2dsy/libdaisy/src/hid/disp/graphics_common.h ****     {
 1718              		.loc 16 32 66 is_stmt 0 view .LVU365
 1719 0080 4480     		strh	r4, [r0, #2]	@ movhi
 1720              	.LVL117:
ARM GAS  /var/folders/fb/yfxt3z4538j6z0vjt03w70vc0000gn/T//cc0qjWS6.s 			page 65


 1721              	.LBB908:
 1722              	.LBI908:
 1723              		.loc 16 261 13 is_stmt 1 view .LVU366
 1724              	.LBE908:
 1725              	.LBE912:
 1726              	.LBE916:
 1727              	.LBE921:
 1728              	.LBE885:
 1729              	.LBE884:
 1730              		.loc 16 261 41 view .LVU367
 1731              	.LBB1110:
 1732              	.LBB1088:
 1733              	.LBB922:
 1734              	.LBB917:
 1735              	.LBB913:
 1736              	.LBB909:
 1737              	.LBI909:
 1738              		.loc 16 261 13 view .LVU368
 1739              	.LBE909:
 1740              	.LBE913:
 1741              	.LBE917:
 1742              	.LBE922:
 1743              	.LBE1088:
 1744              	.LBE1110:
 1745              		.loc 16 261 41 view .LVU369
 1746              	.L117:
  56:../../../lib/pd2dsy/libdaisy/src/hid/disp/graphics_common.h ****     int16_t GetY() const { return y_; }
 1747              		.loc 16 56 28 view .LVU370
  57:../../../lib/pd2dsy/libdaisy/src/hid/disp/graphics_common.h ****     int16_t GetWidth() const { return width_; }
 1748              		.loc 16 57 28 view .LVU371
 1749              	.LBB1111:
 1750              	.LBI1111:
 171:../../../lib/pd2dsy/libdaisy/src/hid/disp/display.h ****     {
 1751              		.loc 4 171 10 view .LVU372
 1752              	.LBB1112:
 173:../../../lib/pd2dsy/libdaisy/src/hid/disp/display.h ****         currentY_ = (y >= Height()) ? Height() - 1 : y;
 1753              		.loc 4 173 9 view .LVU373
 1754 0082 A64A     		ldr	r2, .L189
 173:../../../lib/pd2dsy/libdaisy/src/hid/disp/display.h ****         currentY_ = (y >= Height()) ? Height() - 1 : y;
 1755              		.loc 4 173 33 is_stmt 0 view .LVU374
 1756 0084 D8F80030 		ldr	r3, [r8]
 1757 0088 1146     		mov	r1, r2
 1758 008a 0192     		str	r2, [sp, #4]
 1759 008c DA68     		ldr	r2, [r3, #12]
 1760 008e 8A42     		cmp	r2, r1
 1761 0090 40F08B81 		bne	.L125
 1762 0094 8020     		movs	r0, #128
 1763              	.LVL118:
 1764              	.L126:
 173:../../../lib/pd2dsy/libdaisy/src/hid/disp/display.h ****         currentY_ = (y >= Height()) ? Height() - 1 : y;
 1765              		.loc 4 173 19 view .LVU375
 1766 0096 B842     		cmp	r0, r7
 1767 0098 05D8     		bhi	.L127
 173:../../../lib/pd2dsy/libdaisy/src/hid/disp/display.h ****         currentY_ = (y >= Height()) ? Height() - 1 : y;
 1768              		.loc 4 173 44 view .LVU376
 1769 009a DA68     		ldr	r2, [r3, #12]
 1770 009c 0199     		ldr	r1, [sp, #4]
ARM GAS  /var/folders/fb/yfxt3z4538j6z0vjt03w70vc0000gn/T//cc0qjWS6.s 			page 66


 1771 009e 8A42     		cmp	r2, r1
 1772 00a0 40F09881 		bne	.L180
 1773 00a4 7F27     		movs	r7, #127
 1774              	.L127:
 1775 00a6 9E4A     		ldr	r2, .L189+4
 174:../../../lib/pd2dsy/libdaisy/src/hid/disp/display.h ****     }
 1776              		.loc 4 174 34 view .LVU377
 1777 00a8 9B68     		ldr	r3, [r3, #8]
 173:../../../lib/pd2dsy/libdaisy/src/hid/disp/display.h ****         currentY_ = (y >= Height()) ? Height() - 1 : y;
 1778              		.loc 4 173 19 view .LVU378
 1779 00aa A8F80470 		strh	r7, [r8, #4]	@ movhi
 174:../../../lib/pd2dsy/libdaisy/src/hid/disp/display.h ****     }
 1780              		.loc 4 174 9 is_stmt 1 view .LVU379
 1781 00ae 9342     		cmp	r3, r2
 1782 00b0 0392     		str	r2, [sp, #12]
 1783 00b2 40F08781 		bne	.L157
 174:../../../lib/pd2dsy/libdaisy/src/hid/disp/display.h ****     }
 1784              		.loc 4 174 34 is_stmt 0 view .LVU380
 1785 00b6 4020     		movs	r0, #64
 1786              	.L129:
 174:../../../lib/pd2dsy/libdaisy/src/hid/disp/display.h ****     }
 1787              		.loc 4 174 19 view .LVU381
 1788 00b8 A042     		cmp	r0, r4
 1789 00ba 07D8     		bhi	.L131
 174:../../../lib/pd2dsy/libdaisy/src/hid/disp/display.h ****     }
 1790              		.loc 4 174 46 view .LVU382
 1791 00bc D8F80030 		ldr	r3, [r8]
 1792 00c0 039A     		ldr	r2, [sp, #12]
 1793 00c2 9B68     		ldr	r3, [r3, #8]
 1794 00c4 9342     		cmp	r3, r2
 1795 00c6 40F08081 		bne	.L181
 1796 00ca 3F24     		movs	r4, #63
 1797              	.L131:
 174:../../../lib/pd2dsy/libdaisy/src/hid/disp/display.h ****     }
 1798              		.loc 4 174 46 view .LVU383
 1799              	.LBE1112:
 1800              	.LBE1111:
 1801              	.LBB1116:
 1802              	.LBB1117:
 443:../../../lib/pd2dsy/libdaisy/src/hid/disp/display.h ****         {
 1803              		.loc 4 443 9 view .LVU384
 1804 00cc 009B     		ldr	r3, [sp]
 1805              	.LBE1117:
 1806              	.LBE1116:
 1807              	.LBB1165:
 1808              	.LBB1113:
 174:../../../lib/pd2dsy/libdaisy/src/hid/disp/display.h ****     }
 1809              		.loc 4 174 19 view .LVU385
 1810 00ce A8F80640 		strh	r4, [r8, #6]	@ movhi
 1811              	.LVL119:
 174:../../../lib/pd2dsy/libdaisy/src/hid/disp/display.h ****     }
 1812              		.loc 4 174 19 view .LVU386
 1813              	.LBE1113:
 1814              	.LBE1165:
 1815              	.LBB1166:
 1816              	.LBB1162:
 443:../../../lib/pd2dsy/libdaisy/src/hid/disp/display.h ****         {
ARM GAS  /var/folders/fb/yfxt3z4538j6z0vjt03w70vc0000gn/T//cc0qjWS6.s 			page 67


 1817              		.loc 4 443 9 view .LVU387
 1818 00d2 93F800B0 		ldrb	fp, [r3]	@ zero_extendqisi2
 1819 00d6 6B78     		ldrb	r3, [r5, #1]	@ zero_extendqisi2
 1820              	.LVL120:
 443:../../../lib/pd2dsy/libdaisy/src/hid/disp/display.h ****         {
 1821              		.loc 4 443 9 view .LVU388
 1822 00d8 2C78     		ldrb	r4, [r5]	@ zero_extendqisi2
 1823              	.LVL121:
 443:../../../lib/pd2dsy/libdaisy/src/hid/disp/display.h ****         {
 1824              		.loc 4 443 9 view .LVU389
 1825 00da 0493     		str	r3, [sp, #16]
 1826              	.LVL122:
 443:../../../lib/pd2dsy/libdaisy/src/hid/disp/display.h ****         {
 1827              		.loc 4 443 9 view .LVU390
 1828 00dc 6B68     		ldr	r3, [r5, #4]
 1829 00de 0793     		str	r3, [sp, #28]
 1830              	.LVL123:
 443:../../../lib/pd2dsy/libdaisy/src/hid/disp/display.h ****         {
 1831              		.loc 4 443 9 view .LVU391
 1832              	.LBE1162:
 1833              	.LBI1116:
 440:../../../lib/pd2dsy/libdaisy/src/hid/disp/display.h ****     {
 1834              		.loc 4 440 10 is_stmt 1 view .LVU392
 1835              	.LBB1163:
 443:../../../lib/pd2dsy/libdaisy/src/hid/disp/display.h ****         {
 1836              		.loc 4 443 9 view .LVU393
