ARM GAS  /var/folders/fb/yfxt3z4538j6z0vjt03w70vc0000gn/T//cc0qjWS6.s 			page 1


   1              		.cpu cortex-m7
   2              		.arch armv7e-m
   3              		.fpu fpv5-d16
   4              		.eabi_attribute 28, 1
   5              		.eabi_attribute 20, 1
   6              		.eabi_attribute 21, 1
   7              		.eabi_attribute 23, 3
   8              		.eabi_attribute 24, 1
   9              		.eabi_attribute 25, 1
  10              		.eabi_attribute 26, 1
  11              		.eabi_attribute 30, 2
  12              		.eabi_attribute 34, 1
  13              		.eabi_attribute 18, 4
  14              		.file	"HeavyDaisy_daisiSPI.cpp"
  15              		.text
  16              	.Ltext0:
  17              		.cfi_sections	.debug_frame
  18              		.section	.text._ZL8sendHookP21HeavyContextInterfacePKcmPK9HvMessage,"ax",%progbits
  19              		.align	1
  20              		.p2align 2,,3
  21              		.syntax unified
  22              		.thumb
  23              		.thumb_func
  25              	_ZL8sendHookP21HeavyContextInterfacePKcmPK9HvMessage:
  26              	.LVL0:
  27              	.LFB3003:
  28              		.file 1 "HeavyDaisy_daisiSPI.cpp"
   1:HeavyDaisy_daisiSPI.cpp **** /**
   2:HeavyDaisy_daisiSPI.cpp ****  * Copyright (c) 2023 Enzien Audio, Ltd.
   3:HeavyDaisy_daisiSPI.cpp ****  * 
   4:HeavyDaisy_daisiSPI.cpp ****  * Redistribution and use in source and binary forms, with or without modification,
   5:HeavyDaisy_daisiSPI.cpp ****  * are permitted provided that the following conditions are met:
   6:HeavyDaisy_daisiSPI.cpp ****  * 
   7:HeavyDaisy_daisiSPI.cpp ****  * 1. Redistributions of source code must retain the above copyright notice,
   8:HeavyDaisy_daisiSPI.cpp ****  *    this list of conditions, and the following disclaimer.
   9:HeavyDaisy_daisiSPI.cpp ****  * 
  10:HeavyDaisy_daisiSPI.cpp ****  * 2. Redistributions in binary form must reproduce the phrase "powered by heavy",
  11:HeavyDaisy_daisiSPI.cpp ****  *    the heavy logo, and a hyperlink to https://enzienaudio.com, all in a visible
  12:HeavyDaisy_daisiSPI.cpp ****  *    form.
  13:HeavyDaisy_daisiSPI.cpp ****  * 
  14:HeavyDaisy_daisiSPI.cpp ****  *   2.1 If the Application is distributed in a store system (for example,
  15:HeavyDaisy_daisiSPI.cpp ****  *       the Apple "App Store" or "Google Play"), the phrase "powered by heavy"
  16:HeavyDaisy_daisiSPI.cpp ****  *       shall be included in the app description or the copyright text as well as
  17:HeavyDaisy_daisiSPI.cpp ****  *       the in the app itself. The heavy logo will shall be visible in the app
  18:HeavyDaisy_daisiSPI.cpp ****  *       itself as well.
  19:HeavyDaisy_daisiSPI.cpp ****  * 
  20:HeavyDaisy_daisiSPI.cpp ****  * THIS SOFTWARE IS PROVIDED BY THE COPYRIGHT HOLDERS AND CONTRIBUTORS "AS IS"
  21:HeavyDaisy_daisiSPI.cpp ****  * AND ANY EXPRESS OR IMPLIED WARRANTIES, INCLUDING, BUT NOT LIMITED TO,
  22:HeavyDaisy_daisiSPI.cpp ****  * THE IMPLIED WARRANTIES OF MERCHANTABILITY AND FITNESS FOR A PARTICULAR PURPOSE
  23:HeavyDaisy_daisiSPI.cpp ****  * ARE DISCLAIMED. IN NO EVENT SHALL THE COPYRIGHT HOLDER OR CONTRIBUTORS BE LIABLE
  24:HeavyDaisy_daisiSPI.cpp ****  * FOR ANY DIRECT, INDIRECT, INCIDENTAL, SPECIAL, EXEMPLARY, OR CONSEQUENTIAL
  25:HeavyDaisy_daisiSPI.cpp ****  * DAMAGES (INCLUDING, BUT NOT LIMITED TO, PROCUREMENT OF SUBSTITUTE GOODS OR
  26:HeavyDaisy_daisiSPI.cpp ****  * SERVICES; LOSS OF USE, DATA, OR PROFITS; OR BUSINESS INTERRUPTION) HOWEVER
  27:HeavyDaisy_daisiSPI.cpp ****  * CAUSED AND ON ANY THEORY OF LIABILITY, WHETHER IN CONTRACT, STRICT LIABILITY,
  28:HeavyDaisy_daisiSPI.cpp ****  * OR TORT (INCLUDING NEGLIGENCE OR OTHERWISE) ARISING IN ANY WAY OUT OF THE USE OF
  29:HeavyDaisy_daisiSPI.cpp ****  * THIS SOFTWARE, EVEN IF ADVISED OF THE POSSIBILITY OF SUCH DAMAGE.
  30:HeavyDaisy_daisiSPI.cpp ****  * 
ARM GAS  /var/folders/fb/yfxt3z4538j6z0vjt03w70vc0000gn/T//cc0qjWS6.s 			page 2


  31:HeavyDaisy_daisiSPI.cpp ****  */
  32:HeavyDaisy_daisiSPI.cpp **** 
  33:HeavyDaisy_daisiSPI.cpp **** #include "Heavy_daisiSPI.h"
  34:HeavyDaisy_daisiSPI.cpp **** #include "Heavy_daisiSPI.hpp" 
  35:HeavyDaisy_daisiSPI.cpp **** #include "HeavyDaisy_daisiSPI.hpp"                                                                 
  36:HeavyDaisy_daisiSPI.cpp **** 
  37:HeavyDaisy_daisiSPI.cpp **** #define SAMPLE_RATE 48000.f
  38:HeavyDaisy_daisiSPI.cpp **** 
  39:HeavyDaisy_daisiSPI.cpp **** using namespace daisy;
  40:HeavyDaisy_daisiSPI.cpp **** 
  41:HeavyDaisy_daisiSPI.cpp **** json2daisy::DaisyPod hardware;
  42:HeavyDaisy_daisiSPI.cpp **** 
  43:HeavyDaisy_daisiSPI.cpp **** Heavy_daisiSPI hv(SAMPLE_RATE);
  44:HeavyDaisy_daisiSPI.cpp **** 
  45:HeavyDaisy_daisiSPI.cpp **** void audiocallback(daisy::AudioHandle::InputBuffer in, daisy::AudioHandle::OutputBuffer out, size_t
  46:HeavyDaisy_daisiSPI.cpp **** static void sendHook(HeavyContextInterface *c, const char *receiverName, uint32_t receiverHash, con
  47:HeavyDaisy_daisiSPI.cpp **** void CallbackWriteIn(Heavy_daisiSPI& hv);
  48:HeavyDaisy_daisiSPI.cpp **** void LoopWriteIn(Heavy_daisiSPI& hv);
  49:HeavyDaisy_daisiSPI.cpp **** void CallbackWriteOut();
  50:HeavyDaisy_daisiSPI.cpp **** void LoopWriteOut();
  51:HeavyDaisy_daisiSPI.cpp **** void PostProcess();
  52:HeavyDaisy_daisiSPI.cpp **** void Display();
  53:HeavyDaisy_daisiSPI.cpp **** 
  54:HeavyDaisy_daisiSPI.cpp **** 
  55:HeavyDaisy_daisiSPI.cpp **** int main(void)
  56:HeavyDaisy_daisiSPI.cpp **** {
  57:HeavyDaisy_daisiSPI.cpp ****   hardware.Init(true);
  58:HeavyDaisy_daisiSPI.cpp ****   hardware.StartAudio(audiocallback);
  59:HeavyDaisy_daisiSPI.cpp **** 
  60:HeavyDaisy_daisiSPI.cpp ****   hv.setSendHook(sendHook);
  61:HeavyDaisy_daisiSPI.cpp **** 
  62:HeavyDaisy_daisiSPI.cpp ****   for(;;)
  63:HeavyDaisy_daisiSPI.cpp ****   {
  64:HeavyDaisy_daisiSPI.cpp ****     hardware.LoopProcess();
  65:HeavyDaisy_daisiSPI.cpp ****     Display();
  66:HeavyDaisy_daisiSPI.cpp ****   }
  67:HeavyDaisy_daisiSPI.cpp **** }
  68:HeavyDaisy_daisiSPI.cpp **** 
  69:HeavyDaisy_daisiSPI.cpp **** /** The audio processing function. At the standard 48KHz sample rate and a block
  70:HeavyDaisy_daisiSPI.cpp ****  *  size of 48, this will fire every millisecond.
  71:HeavyDaisy_daisiSPI.cpp ****  */
  72:HeavyDaisy_daisiSPI.cpp **** void audiocallback(daisy::AudioHandle::InputBuffer in, daisy::AudioHandle::OutputBuffer out, size_t
  73:HeavyDaisy_daisiSPI.cpp **** {
  74:HeavyDaisy_daisiSPI.cpp ****   hv.process((float**)in, (float**)out, size);
  75:HeavyDaisy_daisiSPI.cpp ****   hardware.PostProcess();
  76:HeavyDaisy_daisiSPI.cpp **** }
  77:HeavyDaisy_daisiSPI.cpp **** 
  78:HeavyDaisy_daisiSPI.cpp **** /** Receives messages from PD and writes them to the appropriate 
  79:HeavyDaisy_daisiSPI.cpp ****  *  index in the `output_data` array, to be written later.
  80:HeavyDaisy_daisiSPI.cpp ****  */
  81:HeavyDaisy_daisiSPI.cpp **** static void sendHook(HeavyContextInterface *c, const char *receiverName, uint32_t receiverHash, con
  82:HeavyDaisy_daisiSPI.cpp **** {
  29              		.loc 1 82 1 view -0
  30              		.cfi_startproc
  31              		@ args = 0, pretend = 0, frame = 0
  32              		@ frame_needed = 0, uses_anonymous_args = 0
  33              		@ link register save eliminated.
ARM GAS  /var/folders/fb/yfxt3z4538j6z0vjt03w70vc0000gn/T//cc0qjWS6.s 			page 3


  83:HeavyDaisy_daisiSPI.cpp **** }
  34              		.loc 1 83 1 is_stmt 0 view .LVU1
  35 0000 7047     		bx	lr
  36              		.cfi_endproc
  37              	.LFE3003:
  39 0002 00BF     		.section	.text._ZN5daisy11OledDisplayINS_13SSD130xDriverILj128ELj64ENS_24SSD130x4WireSpiTransportE
  40              		.align	1
  41              		.p2align 2,,3
  42              		.weak	_ZN5daisy11OledDisplayINS_13SSD130xDriverILj128ELj64ENS_24SSD130x4WireSpiTransportEEEE4FillE
  43              		.syntax unified
  44              		.thumb
  45              		.thumb_func
  47              	_ZN5daisy11OledDisplayINS_13SSD130xDriverILj128ELj64ENS_24SSD130x4WireSpiTransportEEEE4FillEb:
  48              	.LVL1:
  49              	.LFB3037:
  50              		.file 2 "../../../lib/pd2dsy/libdaisy/src/hid/disp/oled_display.h"
   1:../../../lib/pd2dsy/libdaisy/src/hid/disp/oled_display.h **** #pragma once
   2:../../../lib/pd2dsy/libdaisy/src/hid/disp/oled_display.h **** #ifndef DSY_OLED_DISPLAY_H
   3:../../../lib/pd2dsy/libdaisy/src/hid/disp/oled_display.h **** #define DSY_OLED_DISPLAY_H /**< Macro */
   4:../../../lib/pd2dsy/libdaisy/src/hid/disp/oled_display.h **** 
   5:../../../lib/pd2dsy/libdaisy/src/hid/disp/oled_display.h **** #include "display.h"
   6:../../../lib/pd2dsy/libdaisy/src/hid/disp/oled_display.h **** 
   7:../../../lib/pd2dsy/libdaisy/src/hid/disp/oled_display.h **** namespace daisy
   8:../../../lib/pd2dsy/libdaisy/src/hid/disp/oled_display.h **** {
   9:../../../lib/pd2dsy/libdaisy/src/hid/disp/oled_display.h **** /** 
  10:../../../lib/pd2dsy/libdaisy/src/hid/disp/oled_display.h ****  * This class is for drawing to a monochrome OLED display. 
  11:../../../lib/pd2dsy/libdaisy/src/hid/disp/oled_display.h ****  * @ingroup device
  12:../../../lib/pd2dsy/libdaisy/src/hid/disp/oled_display.h **** */
  13:../../../lib/pd2dsy/libdaisy/src/hid/disp/oled_display.h **** template <typename DisplayDriver>
  14:../../../lib/pd2dsy/libdaisy/src/hid/disp/oled_display.h **** class OledDisplay : public OneBitGraphicsDisplayImpl<OledDisplay<DisplayDriver>>
  15:../../../lib/pd2dsy/libdaisy/src/hid/disp/oled_display.h **** {
  16:../../../lib/pd2dsy/libdaisy/src/hid/disp/oled_display.h ****   public:
  17:../../../lib/pd2dsy/libdaisy/src/hid/disp/oled_display.h ****     OledDisplay() {}
  18:../../../lib/pd2dsy/libdaisy/src/hid/disp/oled_display.h ****     virtual ~OledDisplay() {}
  19:../../../lib/pd2dsy/libdaisy/src/hid/disp/oled_display.h **** 
  20:../../../lib/pd2dsy/libdaisy/src/hid/disp/oled_display.h ****     struct Config
  21:../../../lib/pd2dsy/libdaisy/src/hid/disp/oled_display.h ****     {
  22:../../../lib/pd2dsy/libdaisy/src/hid/disp/oled_display.h ****         typename DisplayDriver::Config driver_config;
  23:../../../lib/pd2dsy/libdaisy/src/hid/disp/oled_display.h ****     };
  24:../../../lib/pd2dsy/libdaisy/src/hid/disp/oled_display.h **** 
  25:../../../lib/pd2dsy/libdaisy/src/hid/disp/oled_display.h ****     void Init(Config config) { driver_.Init(config.driver_config); }
  26:../../../lib/pd2dsy/libdaisy/src/hid/disp/oled_display.h **** 
  27:../../../lib/pd2dsy/libdaisy/src/hid/disp/oled_display.h ****     uint16_t Height() const override { return driver_.Height(); }
  28:../../../lib/pd2dsy/libdaisy/src/hid/disp/oled_display.h ****     uint16_t Width() const override { return driver_.Width(); }
  29:../../../lib/pd2dsy/libdaisy/src/hid/disp/oled_display.h **** 
  30:../../../lib/pd2dsy/libdaisy/src/hid/disp/oled_display.h ****     /** 
  31:../../../lib/pd2dsy/libdaisy/src/hid/disp/oled_display.h ****     Fills the entire display with either on/off.
  32:../../../lib/pd2dsy/libdaisy/src/hid/disp/oled_display.h ****     \param on Sets on or off.
  33:../../../lib/pd2dsy/libdaisy/src/hid/disp/oled_display.h ****     */
  34:../../../lib/pd2dsy/libdaisy/src/hid/disp/oled_display.h ****     void Fill(bool on) override { driver_.Fill(on); }
  51              		.loc 2 34 10 is_stmt 1 view -0
  52              		.cfi_startproc
  53              		@ args = 0, pretend = 0, frame = 0
  54              		@ frame_needed = 0, uses_anonymous_args = 0
  55              		@ link register save eliminated.
  56              	.LBB514:
  57              	.LBI514:
ARM GAS  /var/folders/fb/yfxt3z4538j6z0vjt03w70vc0000gn/T//cc0qjWS6.s 			page 4


  58              		.file 3 "../../../lib/pd2dsy/libdaisy/src/dev/oled_ssd130x.h"
   1:../../../lib/pd2dsy/libdaisy/src/dev/oled_ssd130x.h **** #pragma once
   2:../../../lib/pd2dsy/libdaisy/src/dev/oled_ssd130x.h **** #ifndef SA_OLED_SSD130X_H
   3:../../../lib/pd2dsy/libdaisy/src/dev/oled_ssd130x.h **** #define SA_OLED_SSD130X_H /**< & */
   4:../../../lib/pd2dsy/libdaisy/src/dev/oled_ssd130x.h **** 
   5:../../../lib/pd2dsy/libdaisy/src/dev/oled_ssd130x.h **** #include "per/i2c.h"
   6:../../../lib/pd2dsy/libdaisy/src/dev/oled_ssd130x.h **** #include "per/spi.h"
   7:../../../lib/pd2dsy/libdaisy/src/dev/oled_ssd130x.h **** #include "per/gpio.h"
   8:../../../lib/pd2dsy/libdaisy/src/dev/oled_ssd130x.h **** #include "sys/system.h"
   9:../../../lib/pd2dsy/libdaisy/src/dev/oled_ssd130x.h **** 
  10:../../../lib/pd2dsy/libdaisy/src/dev/oled_ssd130x.h **** namespace daisy
  11:../../../lib/pd2dsy/libdaisy/src/dev/oled_ssd130x.h **** {
  12:../../../lib/pd2dsy/libdaisy/src/dev/oled_ssd130x.h **** /**
  13:../../../lib/pd2dsy/libdaisy/src/dev/oled_ssd130x.h ****  * I2C Transport for SSD1306 / SSD1309 OLED display devices
  14:../../../lib/pd2dsy/libdaisy/src/dev/oled_ssd130x.h ****  */
  15:../../../lib/pd2dsy/libdaisy/src/dev/oled_ssd130x.h **** class SSD130xI2CTransport
  16:../../../lib/pd2dsy/libdaisy/src/dev/oled_ssd130x.h **** {
  17:../../../lib/pd2dsy/libdaisy/src/dev/oled_ssd130x.h ****   public:
  18:../../../lib/pd2dsy/libdaisy/src/dev/oled_ssd130x.h ****     struct Config
  19:../../../lib/pd2dsy/libdaisy/src/dev/oled_ssd130x.h ****     {
  20:../../../lib/pd2dsy/libdaisy/src/dev/oled_ssd130x.h ****         Config()
  21:../../../lib/pd2dsy/libdaisy/src/dev/oled_ssd130x.h ****         {
  22:../../../lib/pd2dsy/libdaisy/src/dev/oled_ssd130x.h ****             // Intialize using defaults
  23:../../../lib/pd2dsy/libdaisy/src/dev/oled_ssd130x.h ****             Defaults();
  24:../../../lib/pd2dsy/libdaisy/src/dev/oled_ssd130x.h ****         }
  25:../../../lib/pd2dsy/libdaisy/src/dev/oled_ssd130x.h ****         I2CHandle::Config i2c_config;
  26:../../../lib/pd2dsy/libdaisy/src/dev/oled_ssd130x.h ****         uint8_t           i2c_address;
  27:../../../lib/pd2dsy/libdaisy/src/dev/oled_ssd130x.h ****         void              Defaults()
  28:../../../lib/pd2dsy/libdaisy/src/dev/oled_ssd130x.h ****         {
  29:../../../lib/pd2dsy/libdaisy/src/dev/oled_ssd130x.h ****             i2c_config.periph         = I2CHandle::Config::Peripheral::I2C_1;
  30:../../../lib/pd2dsy/libdaisy/src/dev/oled_ssd130x.h ****             i2c_config.speed          = I2CHandle::Config::Speed::I2C_1MHZ;
  31:../../../lib/pd2dsy/libdaisy/src/dev/oled_ssd130x.h ****             i2c_config.mode           = I2CHandle::Config::Mode::I2C_MASTER;
  32:../../../lib/pd2dsy/libdaisy/src/dev/oled_ssd130x.h ****             i2c_config.pin_config.scl = {DSY_GPIOB, 8};
  33:../../../lib/pd2dsy/libdaisy/src/dev/oled_ssd130x.h ****             i2c_config.pin_config.sda = {DSY_GPIOB, 9};
  34:../../../lib/pd2dsy/libdaisy/src/dev/oled_ssd130x.h ****             i2c_address               = 0x3C;
  35:../../../lib/pd2dsy/libdaisy/src/dev/oled_ssd130x.h ****         }
  36:../../../lib/pd2dsy/libdaisy/src/dev/oled_ssd130x.h ****     };
  37:../../../lib/pd2dsy/libdaisy/src/dev/oled_ssd130x.h ****     void Init(const Config& config)
  38:../../../lib/pd2dsy/libdaisy/src/dev/oled_ssd130x.h ****     {
  39:../../../lib/pd2dsy/libdaisy/src/dev/oled_ssd130x.h ****         i2c_address_ = config.i2c_address;
  40:../../../lib/pd2dsy/libdaisy/src/dev/oled_ssd130x.h ****         i2c_.Init(config.i2c_config);
  41:../../../lib/pd2dsy/libdaisy/src/dev/oled_ssd130x.h ****     };
  42:../../../lib/pd2dsy/libdaisy/src/dev/oled_ssd130x.h ****     void SendCommand(uint8_t cmd)
  43:../../../lib/pd2dsy/libdaisy/src/dev/oled_ssd130x.h ****     {
  44:../../../lib/pd2dsy/libdaisy/src/dev/oled_ssd130x.h ****         uint8_t buf[2] = {0X00, cmd};
  45:../../../lib/pd2dsy/libdaisy/src/dev/oled_ssd130x.h ****         i2c_.TransmitBlocking(i2c_address_, buf, 2, 1000);
  46:../../../lib/pd2dsy/libdaisy/src/dev/oled_ssd130x.h ****     };
  47:../../../lib/pd2dsy/libdaisy/src/dev/oled_ssd130x.h **** 
  48:../../../lib/pd2dsy/libdaisy/src/dev/oled_ssd130x.h ****     void SendData(uint8_t* buff, size_t size)
  49:../../../lib/pd2dsy/libdaisy/src/dev/oled_ssd130x.h ****     {
  50:../../../lib/pd2dsy/libdaisy/src/dev/oled_ssd130x.h ****         for(size_t i = 0; i < size; i++)
  51:../../../lib/pd2dsy/libdaisy/src/dev/oled_ssd130x.h ****         {
  52:../../../lib/pd2dsy/libdaisy/src/dev/oled_ssd130x.h ****             uint8_t buf[2] = {0X40, buff[i]};
  53:../../../lib/pd2dsy/libdaisy/src/dev/oled_ssd130x.h ****             i2c_.TransmitBlocking(i2c_address_, buf, 2, 1000);
  54:../../../lib/pd2dsy/libdaisy/src/dev/oled_ssd130x.h ****         }
  55:../../../lib/pd2dsy/libdaisy/src/dev/oled_ssd130x.h ****     };
  56:../../../lib/pd2dsy/libdaisy/src/dev/oled_ssd130x.h **** 
ARM GAS  /var/folders/fb/yfxt3z4538j6z0vjt03w70vc0000gn/T//cc0qjWS6.s 			page 5


  57:../../../lib/pd2dsy/libdaisy/src/dev/oled_ssd130x.h ****   private:
  58:../../../lib/pd2dsy/libdaisy/src/dev/oled_ssd130x.h ****     daisy::I2CHandle i2c_;
  59:../../../lib/pd2dsy/libdaisy/src/dev/oled_ssd130x.h ****     uint8_t          i2c_address_;
  60:../../../lib/pd2dsy/libdaisy/src/dev/oled_ssd130x.h **** };
  61:../../../lib/pd2dsy/libdaisy/src/dev/oled_ssd130x.h **** 
  62:../../../lib/pd2dsy/libdaisy/src/dev/oled_ssd130x.h **** /**
  63:../../../lib/pd2dsy/libdaisy/src/dev/oled_ssd130x.h ****  * 4 Wire SPI Transport for SSD1306 / SSD1309 OLED display devices
  64:../../../lib/pd2dsy/libdaisy/src/dev/oled_ssd130x.h ****  */
  65:../../../lib/pd2dsy/libdaisy/src/dev/oled_ssd130x.h **** class SSD130x4WireSpiTransport
  66:../../../lib/pd2dsy/libdaisy/src/dev/oled_ssd130x.h **** {
  67:../../../lib/pd2dsy/libdaisy/src/dev/oled_ssd130x.h ****   public:
  68:../../../lib/pd2dsy/libdaisy/src/dev/oled_ssd130x.h ****     struct Config
  69:../../../lib/pd2dsy/libdaisy/src/dev/oled_ssd130x.h ****     {
  70:../../../lib/pd2dsy/libdaisy/src/dev/oled_ssd130x.h ****         Config()
  71:../../../lib/pd2dsy/libdaisy/src/dev/oled_ssd130x.h ****         {
  72:../../../lib/pd2dsy/libdaisy/src/dev/oled_ssd130x.h ****             // Initialize using defaults
  73:../../../lib/pd2dsy/libdaisy/src/dev/oled_ssd130x.h ****             Defaults();
  74:../../../lib/pd2dsy/libdaisy/src/dev/oled_ssd130x.h ****         }
  75:../../../lib/pd2dsy/libdaisy/src/dev/oled_ssd130x.h ****         SpiHandle::Config spi_config;
  76:../../../lib/pd2dsy/libdaisy/src/dev/oled_ssd130x.h ****         struct
  77:../../../lib/pd2dsy/libdaisy/src/dev/oled_ssd130x.h ****         {
  78:../../../lib/pd2dsy/libdaisy/src/dev/oled_ssd130x.h ****             dsy_gpio_pin dc;    /**< & */
  79:../../../lib/pd2dsy/libdaisy/src/dev/oled_ssd130x.h ****             dsy_gpio_pin reset; /**< & */
  80:../../../lib/pd2dsy/libdaisy/src/dev/oled_ssd130x.h ****         } pin_config;
  81:../../../lib/pd2dsy/libdaisy/src/dev/oled_ssd130x.h ****         void Defaults()
  82:../../../lib/pd2dsy/libdaisy/src/dev/oled_ssd130x.h ****         {
  83:../../../lib/pd2dsy/libdaisy/src/dev/oled_ssd130x.h ****             // SPI peripheral config
  84:../../../lib/pd2dsy/libdaisy/src/dev/oled_ssd130x.h ****             spi_config.periph = SpiHandle::Config::Peripheral::SPI_1;
  85:../../../lib/pd2dsy/libdaisy/src/dev/oled_ssd130x.h ****             spi_config.mode   = SpiHandle::Config::Mode::MASTER;
  86:../../../lib/pd2dsy/libdaisy/src/dev/oled_ssd130x.h ****             spi_config.direction
  87:../../../lib/pd2dsy/libdaisy/src/dev/oled_ssd130x.h ****                 = SpiHandle::Config::Direction::TWO_LINES_TX_ONLY;
  88:../../../lib/pd2dsy/libdaisy/src/dev/oled_ssd130x.h ****             spi_config.datasize       = 8;
  89:../../../lib/pd2dsy/libdaisy/src/dev/oled_ssd130x.h ****             spi_config.clock_polarity = SpiHandle::Config::ClockPolarity::LOW;
  90:../../../lib/pd2dsy/libdaisy/src/dev/oled_ssd130x.h ****             spi_config.clock_phase    = SpiHandle::Config::ClockPhase::ONE_EDGE;
  91:../../../lib/pd2dsy/libdaisy/src/dev/oled_ssd130x.h ****             spi_config.nss            = SpiHandle::Config::NSS::HARD_OUTPUT;
  92:../../../lib/pd2dsy/libdaisy/src/dev/oled_ssd130x.h ****             spi_config.baud_prescaler = SpiHandle::Config::BaudPrescaler::PS_8;
  93:../../../lib/pd2dsy/libdaisy/src/dev/oled_ssd130x.h ****             // SPI pin config
  94:../../../lib/pd2dsy/libdaisy/src/dev/oled_ssd130x.h ****             spi_config.pin_config.sclk = {DSY_GPIOG, 11};
  95:../../../lib/pd2dsy/libdaisy/src/dev/oled_ssd130x.h ****             spi_config.pin_config.miso = {DSY_GPIOX, 0};
  96:../../../lib/pd2dsy/libdaisy/src/dev/oled_ssd130x.h ****             spi_config.pin_config.mosi = {DSY_GPIOB, 5};
  97:../../../lib/pd2dsy/libdaisy/src/dev/oled_ssd130x.h ****             spi_config.pin_config.nss  = {DSY_GPIOG, 10};
  98:../../../lib/pd2dsy/libdaisy/src/dev/oled_ssd130x.h ****             // SSD130x control pin config
  99:../../../lib/pd2dsy/libdaisy/src/dev/oled_ssd130x.h ****             pin_config.dc    = {DSY_GPIOB, 4};
 100:../../../lib/pd2dsy/libdaisy/src/dev/oled_ssd130x.h ****             pin_config.reset = {DSY_GPIOB, 15};
 101:../../../lib/pd2dsy/libdaisy/src/dev/oled_ssd130x.h ****         }
 102:../../../lib/pd2dsy/libdaisy/src/dev/oled_ssd130x.h ****     };
 103:../../../lib/pd2dsy/libdaisy/src/dev/oled_ssd130x.h ****     void Init(const Config& config)
 104:../../../lib/pd2dsy/libdaisy/src/dev/oled_ssd130x.h ****     {
 105:../../../lib/pd2dsy/libdaisy/src/dev/oled_ssd130x.h ****         // Initialize both GPIO
 106:../../../lib/pd2dsy/libdaisy/src/dev/oled_ssd130x.h ****         pin_dc_.mode = DSY_GPIO_MODE_OUTPUT_PP;
 107:../../../lib/pd2dsy/libdaisy/src/dev/oled_ssd130x.h ****         pin_dc_.pin  = config.pin_config.dc;
 108:../../../lib/pd2dsy/libdaisy/src/dev/oled_ssd130x.h ****         dsy_gpio_init(&pin_dc_);
 109:../../../lib/pd2dsy/libdaisy/src/dev/oled_ssd130x.h ****         pin_reset_.mode = DSY_GPIO_MODE_OUTPUT_PP;
 110:../../../lib/pd2dsy/libdaisy/src/dev/oled_ssd130x.h ****         pin_reset_.pin  = config.pin_config.reset;
 111:../../../lib/pd2dsy/libdaisy/src/dev/oled_ssd130x.h ****         dsy_gpio_init(&pin_reset_);
 112:../../../lib/pd2dsy/libdaisy/src/dev/oled_ssd130x.h **** 
 113:../../../lib/pd2dsy/libdaisy/src/dev/oled_ssd130x.h ****         // Initialize SPI
ARM GAS  /var/folders/fb/yfxt3z4538j6z0vjt03w70vc0000gn/T//cc0qjWS6.s 			page 6


 114:../../../lib/pd2dsy/libdaisy/src/dev/oled_ssd130x.h ****         spi_.Init(config.spi_config);
 115:../../../lib/pd2dsy/libdaisy/src/dev/oled_ssd130x.h **** 
 116:../../../lib/pd2dsy/libdaisy/src/dev/oled_ssd130x.h ****         // Reset and Configure OLED.
 117:../../../lib/pd2dsy/libdaisy/src/dev/oled_ssd130x.h ****         dsy_gpio_write(&pin_reset_, 0);
 118:../../../lib/pd2dsy/libdaisy/src/dev/oled_ssd130x.h ****         System::Delay(10);
 119:../../../lib/pd2dsy/libdaisy/src/dev/oled_ssd130x.h ****         dsy_gpio_write(&pin_reset_, 1);
 120:../../../lib/pd2dsy/libdaisy/src/dev/oled_ssd130x.h ****         System::Delay(10);
 121:../../../lib/pd2dsy/libdaisy/src/dev/oled_ssd130x.h ****     };
 122:../../../lib/pd2dsy/libdaisy/src/dev/oled_ssd130x.h ****     void SendCommand(uint8_t cmd)
 123:../../../lib/pd2dsy/libdaisy/src/dev/oled_ssd130x.h ****     {
 124:../../../lib/pd2dsy/libdaisy/src/dev/oled_ssd130x.h ****         dsy_gpio_write(&pin_dc_, 0);
 125:../../../lib/pd2dsy/libdaisy/src/dev/oled_ssd130x.h ****         spi_.BlockingTransmit(&cmd, 1);
 126:../../../lib/pd2dsy/libdaisy/src/dev/oled_ssd130x.h ****     };
 127:../../../lib/pd2dsy/libdaisy/src/dev/oled_ssd130x.h **** 
 128:../../../lib/pd2dsy/libdaisy/src/dev/oled_ssd130x.h ****     void SendData(uint8_t* buff, size_t size)
 129:../../../lib/pd2dsy/libdaisy/src/dev/oled_ssd130x.h ****     {
 130:../../../lib/pd2dsy/libdaisy/src/dev/oled_ssd130x.h ****         dsy_gpio_write(&pin_dc_, 1);
 131:../../../lib/pd2dsy/libdaisy/src/dev/oled_ssd130x.h ****         spi_.BlockingTransmit(buff, size);
 132:../../../lib/pd2dsy/libdaisy/src/dev/oled_ssd130x.h ****     };
 133:../../../lib/pd2dsy/libdaisy/src/dev/oled_ssd130x.h **** 
 134:../../../lib/pd2dsy/libdaisy/src/dev/oled_ssd130x.h ****   private:
 135:../../../lib/pd2dsy/libdaisy/src/dev/oled_ssd130x.h ****     SpiHandle spi_;
 136:../../../lib/pd2dsy/libdaisy/src/dev/oled_ssd130x.h ****     dsy_gpio  pin_reset_;
 137:../../../lib/pd2dsy/libdaisy/src/dev/oled_ssd130x.h ****     dsy_gpio  pin_dc_;
 138:../../../lib/pd2dsy/libdaisy/src/dev/oled_ssd130x.h **** };
 139:../../../lib/pd2dsy/libdaisy/src/dev/oled_ssd130x.h **** 
 140:../../../lib/pd2dsy/libdaisy/src/dev/oled_ssd130x.h **** 
 141:../../../lib/pd2dsy/libdaisy/src/dev/oled_ssd130x.h **** /**
 142:../../../lib/pd2dsy/libdaisy/src/dev/oled_ssd130x.h ****  * A driver implementation for the SSD1306/SSD1309
 143:../../../lib/pd2dsy/libdaisy/src/dev/oled_ssd130x.h ****  */
 144:../../../lib/pd2dsy/libdaisy/src/dev/oled_ssd130x.h **** template <size_t width, size_t height, typename Transport>
 145:../../../lib/pd2dsy/libdaisy/src/dev/oled_ssd130x.h **** class SSD130xDriver
 146:../../../lib/pd2dsy/libdaisy/src/dev/oled_ssd130x.h **** {
 147:../../../lib/pd2dsy/libdaisy/src/dev/oled_ssd130x.h ****   public:
 148:../../../lib/pd2dsy/libdaisy/src/dev/oled_ssd130x.h ****     struct Config
 149:../../../lib/pd2dsy/libdaisy/src/dev/oled_ssd130x.h ****     {
 150:../../../lib/pd2dsy/libdaisy/src/dev/oled_ssd130x.h ****         typename Transport::Config transport_config;
 151:../../../lib/pd2dsy/libdaisy/src/dev/oled_ssd130x.h ****     };
 152:../../../lib/pd2dsy/libdaisy/src/dev/oled_ssd130x.h **** 
 153:../../../lib/pd2dsy/libdaisy/src/dev/oled_ssd130x.h ****     void Init(Config config)
 154:../../../lib/pd2dsy/libdaisy/src/dev/oled_ssd130x.h ****     {
 155:../../../lib/pd2dsy/libdaisy/src/dev/oled_ssd130x.h ****         transport_.Init(config.transport_config);
 156:../../../lib/pd2dsy/libdaisy/src/dev/oled_ssd130x.h **** 
 157:../../../lib/pd2dsy/libdaisy/src/dev/oled_ssd130x.h ****         // Init routine...
 158:../../../lib/pd2dsy/libdaisy/src/dev/oled_ssd130x.h **** 
 159:../../../lib/pd2dsy/libdaisy/src/dev/oled_ssd130x.h ****         // Display Off
 160:../../../lib/pd2dsy/libdaisy/src/dev/oled_ssd130x.h ****         transport_.SendCommand(0xaE);
 161:../../../lib/pd2dsy/libdaisy/src/dev/oled_ssd130x.h ****         // Dimension dependent commands...
 162:../../../lib/pd2dsy/libdaisy/src/dev/oled_ssd130x.h ****         switch(height)
 163:../../../lib/pd2dsy/libdaisy/src/dev/oled_ssd130x.h ****         {
 164:../../../lib/pd2dsy/libdaisy/src/dev/oled_ssd130x.h ****             case 16:
 165:../../../lib/pd2dsy/libdaisy/src/dev/oled_ssd130x.h ****                 // Display Clock Divide Ratio
 166:../../../lib/pd2dsy/libdaisy/src/dev/oled_ssd130x.h ****                 transport_.SendCommand(0xD5);
 167:../../../lib/pd2dsy/libdaisy/src/dev/oled_ssd130x.h ****                 transport_.SendCommand(0x60);
 168:../../../lib/pd2dsy/libdaisy/src/dev/oled_ssd130x.h ****                 // Multiplex Ratio
 169:../../../lib/pd2dsy/libdaisy/src/dev/oled_ssd130x.h ****                 transport_.SendCommand(0xA8);
 170:../../../lib/pd2dsy/libdaisy/src/dev/oled_ssd130x.h ****                 transport_.SendCommand(0x0F);
ARM GAS  /var/folders/fb/yfxt3z4538j6z0vjt03w70vc0000gn/T//cc0qjWS6.s 			page 7


 171:../../../lib/pd2dsy/libdaisy/src/dev/oled_ssd130x.h ****                 // COM Pins
 172:../../../lib/pd2dsy/libdaisy/src/dev/oled_ssd130x.h ****                 transport_.SendCommand(0xDA);
 173:../../../lib/pd2dsy/libdaisy/src/dev/oled_ssd130x.h ****                 transport_.SendCommand(0x02);
 174:../../../lib/pd2dsy/libdaisy/src/dev/oled_ssd130x.h ****                 break;
 175:../../../lib/pd2dsy/libdaisy/src/dev/oled_ssd130x.h ****             case 32:
 176:../../../lib/pd2dsy/libdaisy/src/dev/oled_ssd130x.h ****                 // Display Clock Divide Ratio
 177:../../../lib/pd2dsy/libdaisy/src/dev/oled_ssd130x.h ****                 transport_.SendCommand(0xD5);
 178:../../../lib/pd2dsy/libdaisy/src/dev/oled_ssd130x.h ****                 transport_.SendCommand(0x80);
 179:../../../lib/pd2dsy/libdaisy/src/dev/oled_ssd130x.h ****                 // Multiplex Ratio
 180:../../../lib/pd2dsy/libdaisy/src/dev/oled_ssd130x.h ****                 transport_.SendCommand(0xA8);
 181:../../../lib/pd2dsy/libdaisy/src/dev/oled_ssd130x.h ****                 transport_.SendCommand(0x1F);
 182:../../../lib/pd2dsy/libdaisy/src/dev/oled_ssd130x.h ****                 // COM Pins
 183:../../../lib/pd2dsy/libdaisy/src/dev/oled_ssd130x.h ****                 transport_.SendCommand(0xDA);
 184:../../../lib/pd2dsy/libdaisy/src/dev/oled_ssd130x.h ****                 if(width == 64)
 185:../../../lib/pd2dsy/libdaisy/src/dev/oled_ssd130x.h ****                 {
 186:../../../lib/pd2dsy/libdaisy/src/dev/oled_ssd130x.h ****                     transport_.SendCommand(0x12);
 187:../../../lib/pd2dsy/libdaisy/src/dev/oled_ssd130x.h ****                 }
 188:../../../lib/pd2dsy/libdaisy/src/dev/oled_ssd130x.h ****                 else
 189:../../../lib/pd2dsy/libdaisy/src/dev/oled_ssd130x.h ****                 {
 190:../../../lib/pd2dsy/libdaisy/src/dev/oled_ssd130x.h ****                     transport_.SendCommand(0x02);
 191:../../../lib/pd2dsy/libdaisy/src/dev/oled_ssd130x.h ****                 }
 192:../../../lib/pd2dsy/libdaisy/src/dev/oled_ssd130x.h **** 
 193:../../../lib/pd2dsy/libdaisy/src/dev/oled_ssd130x.h ****                 break;
 194:../../../lib/pd2dsy/libdaisy/src/dev/oled_ssd130x.h ****             case 48:
 195:../../../lib/pd2dsy/libdaisy/src/dev/oled_ssd130x.h ****                 // Display Clock Divide Ratio
 196:../../../lib/pd2dsy/libdaisy/src/dev/oled_ssd130x.h ****                 transport_.SendCommand(0xD5);
 197:../../../lib/pd2dsy/libdaisy/src/dev/oled_ssd130x.h ****                 transport_.SendCommand(0x80);
 198:../../../lib/pd2dsy/libdaisy/src/dev/oled_ssd130x.h ****                 // Multiplex Ratio
 199:../../../lib/pd2dsy/libdaisy/src/dev/oled_ssd130x.h ****                 transport_.SendCommand(0xA8);
 200:../../../lib/pd2dsy/libdaisy/src/dev/oled_ssd130x.h ****                 transport_.SendCommand(0x2F);
 201:../../../lib/pd2dsy/libdaisy/src/dev/oled_ssd130x.h ****                 // COM Pins
 202:../../../lib/pd2dsy/libdaisy/src/dev/oled_ssd130x.h ****                 transport_.SendCommand(0xDA);
 203:../../../lib/pd2dsy/libdaisy/src/dev/oled_ssd130x.h ****                 transport_.SendCommand(0x12);
 204:../../../lib/pd2dsy/libdaisy/src/dev/oled_ssd130x.h ****                 break;
 205:../../../lib/pd2dsy/libdaisy/src/dev/oled_ssd130x.h ****             default: // 128
 206:../../../lib/pd2dsy/libdaisy/src/dev/oled_ssd130x.h ****                 // Display Clock Divide Ratio
 207:../../../lib/pd2dsy/libdaisy/src/dev/oled_ssd130x.h ****                 transport_.SendCommand(0xD5);
 208:../../../lib/pd2dsy/libdaisy/src/dev/oled_ssd130x.h ****                 transport_.SendCommand(0x80);
 209:../../../lib/pd2dsy/libdaisy/src/dev/oled_ssd130x.h ****                 // Multiplex Ratio
 210:../../../lib/pd2dsy/libdaisy/src/dev/oled_ssd130x.h ****                 transport_.SendCommand(0xA8);
 211:../../../lib/pd2dsy/libdaisy/src/dev/oled_ssd130x.h ****                 transport_.SendCommand(0x3F);
 212:../../../lib/pd2dsy/libdaisy/src/dev/oled_ssd130x.h ****                 // COM Pins
 213:../../../lib/pd2dsy/libdaisy/src/dev/oled_ssd130x.h ****                 transport_.SendCommand(0xDA);
 214:../../../lib/pd2dsy/libdaisy/src/dev/oled_ssd130x.h ****                 transport_.SendCommand(0x12);
 215:../../../lib/pd2dsy/libdaisy/src/dev/oled_ssd130x.h ****                 break;
 216:../../../lib/pd2dsy/libdaisy/src/dev/oled_ssd130x.h ****         }
 217:../../../lib/pd2dsy/libdaisy/src/dev/oled_ssd130x.h **** 
 218:../../../lib/pd2dsy/libdaisy/src/dev/oled_ssd130x.h ****         // Display Offset
 219:../../../lib/pd2dsy/libdaisy/src/dev/oled_ssd130x.h ****         transport_.SendCommand(0xD3);
 220:../../../lib/pd2dsy/libdaisy/src/dev/oled_ssd130x.h ****         transport_.SendCommand(0x00);
 221:../../../lib/pd2dsy/libdaisy/src/dev/oled_ssd130x.h ****         // Start Line Address
 222:../../../lib/pd2dsy/libdaisy/src/dev/oled_ssd130x.h ****         transport_.SendCommand(0x40);
 223:../../../lib/pd2dsy/libdaisy/src/dev/oled_ssd130x.h ****         // Normal Display
 224:../../../lib/pd2dsy/libdaisy/src/dev/oled_ssd130x.h ****         transport_.SendCommand(0xA6);
 225:../../../lib/pd2dsy/libdaisy/src/dev/oled_ssd130x.h ****         // All On Resume
 226:../../../lib/pd2dsy/libdaisy/src/dev/oled_ssd130x.h ****         transport_.SendCommand(0xA4);
 227:../../../lib/pd2dsy/libdaisy/src/dev/oled_ssd130x.h ****         // Charge Pump
ARM GAS  /var/folders/fb/yfxt3z4538j6z0vjt03w70vc0000gn/T//cc0qjWS6.s 			page 8


 228:../../../lib/pd2dsy/libdaisy/src/dev/oled_ssd130x.h ****         transport_.SendCommand(0x8D);
 229:../../../lib/pd2dsy/libdaisy/src/dev/oled_ssd130x.h ****         transport_.SendCommand(0x14);
 230:../../../lib/pd2dsy/libdaisy/src/dev/oled_ssd130x.h ****         // Set Segment Remap
 231:../../../lib/pd2dsy/libdaisy/src/dev/oled_ssd130x.h ****         transport_.SendCommand(0xA1);
 232:../../../lib/pd2dsy/libdaisy/src/dev/oled_ssd130x.h ****         // COM Output Scan Direction
 233:../../../lib/pd2dsy/libdaisy/src/dev/oled_ssd130x.h ****         transport_.SendCommand(0xC8);
 234:../../../lib/pd2dsy/libdaisy/src/dev/oled_ssd130x.h ****         // Contrast Control
 235:../../../lib/pd2dsy/libdaisy/src/dev/oled_ssd130x.h ****         transport_.SendCommand(0x81);
 236:../../../lib/pd2dsy/libdaisy/src/dev/oled_ssd130x.h ****         transport_.SendCommand(0x8F);
 237:../../../lib/pd2dsy/libdaisy/src/dev/oled_ssd130x.h ****         // Pre Charge
 238:../../../lib/pd2dsy/libdaisy/src/dev/oled_ssd130x.h ****         transport_.SendCommand(0xD9);
 239:../../../lib/pd2dsy/libdaisy/src/dev/oled_ssd130x.h ****         transport_.SendCommand(0x25);
 240:../../../lib/pd2dsy/libdaisy/src/dev/oled_ssd130x.h ****         // VCOM Detect
 241:../../../lib/pd2dsy/libdaisy/src/dev/oled_ssd130x.h ****         transport_.SendCommand(0xDB);
 242:../../../lib/pd2dsy/libdaisy/src/dev/oled_ssd130x.h ****         transport_.SendCommand(0x34);
 243:../../../lib/pd2dsy/libdaisy/src/dev/oled_ssd130x.h **** 
 244:../../../lib/pd2dsy/libdaisy/src/dev/oled_ssd130x.h **** 
 245:../../../lib/pd2dsy/libdaisy/src/dev/oled_ssd130x.h ****         // Display On
 246:../../../lib/pd2dsy/libdaisy/src/dev/oled_ssd130x.h ****         transport_.SendCommand(0xAF); //--turn on oled panel
 247:../../../lib/pd2dsy/libdaisy/src/dev/oled_ssd130x.h ****     };
 248:../../../lib/pd2dsy/libdaisy/src/dev/oled_ssd130x.h **** 
 249:../../../lib/pd2dsy/libdaisy/src/dev/oled_ssd130x.h ****     size_t Width() const { return width; };
 250:../../../lib/pd2dsy/libdaisy/src/dev/oled_ssd130x.h ****     size_t Height() const { return height; };
 251:../../../lib/pd2dsy/libdaisy/src/dev/oled_ssd130x.h **** 
 252:../../../lib/pd2dsy/libdaisy/src/dev/oled_ssd130x.h ****     void DrawPixel(uint_fast8_t x, uint_fast8_t y, bool on)
 253:../../../lib/pd2dsy/libdaisy/src/dev/oled_ssd130x.h ****     {
 254:../../../lib/pd2dsy/libdaisy/src/dev/oled_ssd130x.h ****         if(x >= width || y >= height)
 255:../../../lib/pd2dsy/libdaisy/src/dev/oled_ssd130x.h ****             return;
 256:../../../lib/pd2dsy/libdaisy/src/dev/oled_ssd130x.h ****         if(on)
 257:../../../lib/pd2dsy/libdaisy/src/dev/oled_ssd130x.h ****             buffer_[x + (y / 8) * width] |= (1 << (y % 8));
 258:../../../lib/pd2dsy/libdaisy/src/dev/oled_ssd130x.h ****         else
 259:../../../lib/pd2dsy/libdaisy/src/dev/oled_ssd130x.h ****             buffer_[x + (y / 8) * width] &= ~(1 << (y % 8));
 260:../../../lib/pd2dsy/libdaisy/src/dev/oled_ssd130x.h ****     }
 261:../../../lib/pd2dsy/libdaisy/src/dev/oled_ssd130x.h **** 
 262:../../../lib/pd2dsy/libdaisy/src/dev/oled_ssd130x.h ****     void Fill(bool on)
  59              		.loc 3 262 10 view .LVU3
  60              	.LBB515:
 263:../../../lib/pd2dsy/libdaisy/src/dev/oled_ssd130x.h ****     {
 264:../../../lib/pd2dsy/libdaisy/src/dev/oled_ssd130x.h ****         for(size_t i = 0; i < sizeof(buffer_); i++)
  61              		.loc 3 264 29 view .LVU4
 265:../../../lib/pd2dsy/libdaisy/src/dev/oled_ssd130x.h ****         {
 266:../../../lib/pd2dsy/libdaisy/src/dev/oled_ssd130x.h ****             buffer_[i] = on ? 0xff : 0x00;
  62              		.loc 3 266 24 is_stmt 0 view .LVU5
  63 0000 4942     		rsbs	r1, r1, #0
  64              	.LVL2:
  65              		.loc 3 266 24 view .LVU6
  66 0002 4FF48062 		mov	r2, #1024
  67 0006 1430     		adds	r0, r0, #20
  68              	.LVL3:
  69              		.loc 3 266 24 view .LVU7
  70 0008 C9B2     		uxtb	r1, r1
  71 000a FFF7FEBF 		b	memset
  72              	.LVL4:
  73              		.loc 3 266 24 view .LVU8
  74              	.LBE515:
  75              	.LBE514:
  76              		.cfi_endproc
ARM GAS  /var/folders/fb/yfxt3z4538j6z0vjt03w70vc0000gn/T//cc0qjWS6.s 			page 9


  77              	.LFE3037:
  79 000e 00BF     		.section	.text._ZN5daisy11OledDisplayINS_13SSD130xDriverILj128ELj64ENS_24SSD130x4WireSpiTransportE
  80              		.align	1
  81              		.p2align 2,,3
  82              		.weak	_ZN5daisy11OledDisplayINS_13SSD130xDriverILj128ELj64ENS_24SSD130x4WireSpiTransportEEEED2Ev
  83              		.syntax unified
  84              		.thumb
  85              		.thumb_func
  87              	_ZN5daisy11OledDisplayINS_13SSD130xDriverILj128ELj64ENS_24SSD130x4WireSpiTransportEEEED2Ev:
  88              	.LVL5:
  89              	.LFB3049:
  18:../../../lib/pd2dsy/libdaisy/src/hid/disp/oled_display.h **** 
  90              		.loc 2 18 13 is_stmt 1 view -0
  91              		.cfi_startproc
  92              		@ args = 0, pretend = 0, frame = 0
  93              		@ frame_needed = 0, uses_anonymous_args = 0
  94              		@ link register save eliminated.
  95              	.LBB516:
  96              	.LBI516:
  97              		.file 4 "../../../lib/pd2dsy/libdaisy/src/hid/disp/display.h"
   1:../../../lib/pd2dsy/libdaisy/src/hid/disp/display.h **** #pragma once
   2:../../../lib/pd2dsy/libdaisy/src/hid/disp/display.h **** #ifndef DSY_DISPLAY_H
   3:../../../lib/pd2dsy/libdaisy/src/hid/disp/display.h **** #define DSY_DISPLAY_H /**< Macro */
   4:../../../lib/pd2dsy/libdaisy/src/hid/disp/display.h **** #include <cmath>
   5:../../../lib/pd2dsy/libdaisy/src/hid/disp/display.h **** #include "util/oled_fonts.h"
   6:../../../lib/pd2dsy/libdaisy/src/hid/disp/display.h **** #include "daisy_core.h"
   7:../../../lib/pd2dsy/libdaisy/src/hid/disp/display.h **** #include "graphics_common.h"
   8:../../../lib/pd2dsy/libdaisy/src/hid/disp/display.h **** 
   9:../../../lib/pd2dsy/libdaisy/src/hid/disp/display.h **** #ifndef deg2rad
  10:../../../lib/pd2dsy/libdaisy/src/hid/disp/display.h **** #define deg2rad(deg) ((deg)*3.141592 / 180.0)
  11:../../../lib/pd2dsy/libdaisy/src/hid/disp/display.h **** #endif
  12:../../../lib/pd2dsy/libdaisy/src/hid/disp/display.h **** 
  13:../../../lib/pd2dsy/libdaisy/src/hid/disp/display.h **** namespace daisy
  14:../../../lib/pd2dsy/libdaisy/src/hid/disp/display.h **** {
  15:../../../lib/pd2dsy/libdaisy/src/hid/disp/display.h **** /** 
  16:../../../lib/pd2dsy/libdaisy/src/hid/disp/display.h ****  * This interface is used as a base class for all types of 1bit-per-pixel
  17:../../../lib/pd2dsy/libdaisy/src/hid/disp/display.h ****  * graphics displays.
  18:../../../lib/pd2dsy/libdaisy/src/hid/disp/display.h **** */
  19:../../../lib/pd2dsy/libdaisy/src/hid/disp/display.h **** class OneBitGraphicsDisplay
  20:../../../lib/pd2dsy/libdaisy/src/hid/disp/display.h **** {
  21:../../../lib/pd2dsy/libdaisy/src/hid/disp/display.h ****   public:
  22:../../../lib/pd2dsy/libdaisy/src/hid/disp/display.h ****     OneBitGraphicsDisplay() {}
  23:../../../lib/pd2dsy/libdaisy/src/hid/disp/display.h ****     virtual ~OneBitGraphicsDisplay() {}
  24:../../../lib/pd2dsy/libdaisy/src/hid/disp/display.h **** 
  25:../../../lib/pd2dsy/libdaisy/src/hid/disp/display.h ****     virtual uint16_t Height() const = 0;
  26:../../../lib/pd2dsy/libdaisy/src/hid/disp/display.h ****     virtual uint16_t Width() const  = 0;
  27:../../../lib/pd2dsy/libdaisy/src/hid/disp/display.h **** 
  28:../../../lib/pd2dsy/libdaisy/src/hid/disp/display.h ****     Rectangle GetBounds() const
  29:../../../lib/pd2dsy/libdaisy/src/hid/disp/display.h ****     {
  30:../../../lib/pd2dsy/libdaisy/src/hid/disp/display.h ****         return Rectangle(int16_t(Width()), int16_t(Height()));
  31:../../../lib/pd2dsy/libdaisy/src/hid/disp/display.h ****     }
  32:../../../lib/pd2dsy/libdaisy/src/hid/disp/display.h **** 
  33:../../../lib/pd2dsy/libdaisy/src/hid/disp/display.h **** 
  34:../../../lib/pd2dsy/libdaisy/src/hid/disp/display.h ****     size_t CurrentX() { return currentX_; };
  35:../../../lib/pd2dsy/libdaisy/src/hid/disp/display.h ****     size_t CurrentY() { return currentY_; };
  36:../../../lib/pd2dsy/libdaisy/src/hid/disp/display.h **** 
  37:../../../lib/pd2dsy/libdaisy/src/hid/disp/display.h ****     /** 
ARM GAS  /var/folders/fb/yfxt3z4538j6z0vjt03w70vc0000gn/T//cc0qjWS6.s 			page 10


  38:../../../lib/pd2dsy/libdaisy/src/hid/disp/display.h ****     Fills the entire display with either on/off.
  39:../../../lib/pd2dsy/libdaisy/src/hid/disp/display.h ****     \param on Sets on or off.
  40:../../../lib/pd2dsy/libdaisy/src/hid/disp/display.h ****     */
  41:../../../lib/pd2dsy/libdaisy/src/hid/disp/display.h ****     virtual void Fill(bool on) = 0;
  42:../../../lib/pd2dsy/libdaisy/src/hid/disp/display.h **** 
  43:../../../lib/pd2dsy/libdaisy/src/hid/disp/display.h ****     /**
  44:../../../lib/pd2dsy/libdaisy/src/hid/disp/display.h ****     Sets the pixel at the specified coordinate to be on/off.
  45:../../../lib/pd2dsy/libdaisy/src/hid/disp/display.h ****     \param x   x Coordinate
  46:../../../lib/pd2dsy/libdaisy/src/hid/disp/display.h ****     \param y   y coordinate
  47:../../../lib/pd2dsy/libdaisy/src/hid/disp/display.h ****     \param on  on or off
  48:../../../lib/pd2dsy/libdaisy/src/hid/disp/display.h ****     */
  49:../../../lib/pd2dsy/libdaisy/src/hid/disp/display.h ****     virtual void DrawPixel(uint_fast8_t x, uint_fast8_t y, bool on) = 0;
  50:../../../lib/pd2dsy/libdaisy/src/hid/disp/display.h **** 
  51:../../../lib/pd2dsy/libdaisy/src/hid/disp/display.h ****     /**
  52:../../../lib/pd2dsy/libdaisy/src/hid/disp/display.h ****     Draws a line from (x1, y1) to (y1, y2)
  53:../../../lib/pd2dsy/libdaisy/src/hid/disp/display.h ****     \param x1  x Coordinate of the starting point
  54:../../../lib/pd2dsy/libdaisy/src/hid/disp/display.h ****     \param y1  y Coordinate of the starting point
  55:../../../lib/pd2dsy/libdaisy/src/hid/disp/display.h ****     \param x2  x Coordinate of the ending point
  56:../../../lib/pd2dsy/libdaisy/src/hid/disp/display.h ****     \param y2  y Coordinate of the ending point
  57:../../../lib/pd2dsy/libdaisy/src/hid/disp/display.h ****     \param on  on or off
  58:../../../lib/pd2dsy/libdaisy/src/hid/disp/display.h ****     */
  59:../../../lib/pd2dsy/libdaisy/src/hid/disp/display.h ****     virtual void DrawLine(uint_fast8_t x1,
  60:../../../lib/pd2dsy/libdaisy/src/hid/disp/display.h ****                           uint_fast8_t y1,
  61:../../../lib/pd2dsy/libdaisy/src/hid/disp/display.h ****                           uint_fast8_t x2,
  62:../../../lib/pd2dsy/libdaisy/src/hid/disp/display.h ****                           uint_fast8_t y2,
  63:../../../lib/pd2dsy/libdaisy/src/hid/disp/display.h ****                           bool         on)
  64:../../../lib/pd2dsy/libdaisy/src/hid/disp/display.h ****         = 0;
  65:../../../lib/pd2dsy/libdaisy/src/hid/disp/display.h **** 
  66:../../../lib/pd2dsy/libdaisy/src/hid/disp/display.h ****     /**
  67:../../../lib/pd2dsy/libdaisy/src/hid/disp/display.h ****     Draws a rectangle based on two coordinates.
  68:../../../lib/pd2dsy/libdaisy/src/hid/disp/display.h ****     \param x1 x Coordinate of the first point
  69:../../../lib/pd2dsy/libdaisy/src/hid/disp/display.h ****     \param y1 y Coordinate of the first point
  70:../../../lib/pd2dsy/libdaisy/src/hid/disp/display.h ****     \param x2 x Coordinate of the second point
  71:../../../lib/pd2dsy/libdaisy/src/hid/disp/display.h ****     \param y2 y Coordinate of the second point
  72:../../../lib/pd2dsy/libdaisy/src/hid/disp/display.h ****     \param on on or off
  73:../../../lib/pd2dsy/libdaisy/src/hid/disp/display.h ****     \param fill fill the rectangle or draw only the outline
  74:../../../lib/pd2dsy/libdaisy/src/hid/disp/display.h ****     */
  75:../../../lib/pd2dsy/libdaisy/src/hid/disp/display.h ****     virtual void DrawRect(uint_fast8_t x1,
  76:../../../lib/pd2dsy/libdaisy/src/hid/disp/display.h ****                           uint_fast8_t y1,
  77:../../../lib/pd2dsy/libdaisy/src/hid/disp/display.h ****                           uint_fast8_t x2,
  78:../../../lib/pd2dsy/libdaisy/src/hid/disp/display.h ****                           uint_fast8_t y2,
  79:../../../lib/pd2dsy/libdaisy/src/hid/disp/display.h ****                           bool         on,
  80:../../../lib/pd2dsy/libdaisy/src/hid/disp/display.h ****                           bool         fill = false)
  81:../../../lib/pd2dsy/libdaisy/src/hid/disp/display.h ****         = 0;
  82:../../../lib/pd2dsy/libdaisy/src/hid/disp/display.h **** 
  83:../../../lib/pd2dsy/libdaisy/src/hid/disp/display.h ****     /**
  84:../../../lib/pd2dsy/libdaisy/src/hid/disp/display.h ****     Draws a rectangle.
  85:../../../lib/pd2dsy/libdaisy/src/hid/disp/display.h ****     \param rect the rectangle
  86:../../../lib/pd2dsy/libdaisy/src/hid/disp/display.h ****     \param on   on or off
  87:../../../lib/pd2dsy/libdaisy/src/hid/disp/display.h ****     \param fill fill the rectangle or draw only the outline
  88:../../../lib/pd2dsy/libdaisy/src/hid/disp/display.h ****     */
  89:../../../lib/pd2dsy/libdaisy/src/hid/disp/display.h ****     void DrawRect(const Rectangle& rect, bool on, bool fill = false)
  90:../../../lib/pd2dsy/libdaisy/src/hid/disp/display.h ****     {
  91:../../../lib/pd2dsy/libdaisy/src/hid/disp/display.h ****         DrawRect(rect.GetX(),
  92:../../../lib/pd2dsy/libdaisy/src/hid/disp/display.h ****                  rect.GetY(),
  93:../../../lib/pd2dsy/libdaisy/src/hid/disp/display.h ****                  rect.GetRight(),
  94:../../../lib/pd2dsy/libdaisy/src/hid/disp/display.h ****                  rect.GetBottom(),
ARM GAS  /var/folders/fb/yfxt3z4538j6z0vjt03w70vc0000gn/T//cc0qjWS6.s 			page 11


  95:../../../lib/pd2dsy/libdaisy/src/hid/disp/display.h ****                  on,
  96:../../../lib/pd2dsy/libdaisy/src/hid/disp/display.h ****                  fill);
  97:../../../lib/pd2dsy/libdaisy/src/hid/disp/display.h ****     }
  98:../../../lib/pd2dsy/libdaisy/src/hid/disp/display.h **** 
  99:../../../lib/pd2dsy/libdaisy/src/hid/disp/display.h ****     /**
 100:../../../lib/pd2dsy/libdaisy/src/hid/disp/display.h ****     Draws an arc around the specified coordinate
 101:../../../lib/pd2dsy/libdaisy/src/hid/disp/display.h ****     \param x           x Coordinate of the center of the arc
 102:../../../lib/pd2dsy/libdaisy/src/hid/disp/display.h ****     \param y           y Coordinate of the center of the arc
 103:../../../lib/pd2dsy/libdaisy/src/hid/disp/display.h ****     \param radius      radius of the arc
 104:../../../lib/pd2dsy/libdaisy/src/hid/disp/display.h ****     \param start_angle angle where to start the arc
 105:../../../lib/pd2dsy/libdaisy/src/hid/disp/display.h ****     \param sweep       total angle of the arc
 106:../../../lib/pd2dsy/libdaisy/src/hid/disp/display.h ****     \param on  on or off
 107:../../../lib/pd2dsy/libdaisy/src/hid/disp/display.h ****     */
 108:../../../lib/pd2dsy/libdaisy/src/hid/disp/display.h ****     virtual void DrawArc(uint_fast8_t x,
 109:../../../lib/pd2dsy/libdaisy/src/hid/disp/display.h ****                          uint_fast8_t y,
 110:../../../lib/pd2dsy/libdaisy/src/hid/disp/display.h ****                          uint_fast8_t radius,
 111:../../../lib/pd2dsy/libdaisy/src/hid/disp/display.h ****                          int_fast16_t start_angle,
 112:../../../lib/pd2dsy/libdaisy/src/hid/disp/display.h ****                          int_fast16_t sweep,
 113:../../../lib/pd2dsy/libdaisy/src/hid/disp/display.h ****                          bool         on)
 114:../../../lib/pd2dsy/libdaisy/src/hid/disp/display.h ****         = 0;
 115:../../../lib/pd2dsy/libdaisy/src/hid/disp/display.h **** 
 116:../../../lib/pd2dsy/libdaisy/src/hid/disp/display.h ****     /**
 117:../../../lib/pd2dsy/libdaisy/src/hid/disp/display.h ****     Draws a circle around the specified coordinate
 118:../../../lib/pd2dsy/libdaisy/src/hid/disp/display.h ****     \param x           x Coordinate of the center of the circle
 119:../../../lib/pd2dsy/libdaisy/src/hid/disp/display.h ****     \param y           y Coordinate of the center of the circle
 120:../../../lib/pd2dsy/libdaisy/src/hid/disp/display.h ****     \param radius      radius of the circle
 121:../../../lib/pd2dsy/libdaisy/src/hid/disp/display.h ****     \param on  on or off
 122:../../../lib/pd2dsy/libdaisy/src/hid/disp/display.h ****     */
 123:../../../lib/pd2dsy/libdaisy/src/hid/disp/display.h ****     void
 124:../../../lib/pd2dsy/libdaisy/src/hid/disp/display.h ****     DrawCircle(uint_fast8_t x, uint_fast8_t y, uint_fast8_t radius, bool on)
 125:../../../lib/pd2dsy/libdaisy/src/hid/disp/display.h ****     {
 126:../../../lib/pd2dsy/libdaisy/src/hid/disp/display.h ****         DrawArc(x, y, radius, 0, 360, on);
 127:../../../lib/pd2dsy/libdaisy/src/hid/disp/display.h ****     };
 128:../../../lib/pd2dsy/libdaisy/src/hid/disp/display.h **** 
 129:../../../lib/pd2dsy/libdaisy/src/hid/disp/display.h ****     /** 
 130:../../../lib/pd2dsy/libdaisy/src/hid/disp/display.h ****     Writes the character with the specific FontDef
 131:../../../lib/pd2dsy/libdaisy/src/hid/disp/display.h ****     to the display buffer at the current Cursor position.
 132:../../../lib/pd2dsy/libdaisy/src/hid/disp/display.h ****     \param ch character to be written
 133:../../../lib/pd2dsy/libdaisy/src/hid/disp/display.h ****     \param font font to be written in
 134:../../../lib/pd2dsy/libdaisy/src/hid/disp/display.h ****     \param on    on or off
 135:../../../lib/pd2dsy/libdaisy/src/hid/disp/display.h ****     \return &
 136:../../../lib/pd2dsy/libdaisy/src/hid/disp/display.h ****     */
 137:../../../lib/pd2dsy/libdaisy/src/hid/disp/display.h ****     virtual char WriteChar(char ch, FontDef font, bool on) = 0;
 138:../../../lib/pd2dsy/libdaisy/src/hid/disp/display.h **** 
 139:../../../lib/pd2dsy/libdaisy/src/hid/disp/display.h ****     /** 
 140:../../../lib/pd2dsy/libdaisy/src/hid/disp/display.h ****     Similar to WriteChar, except it will handle an entire String.
 141:../../../lib/pd2dsy/libdaisy/src/hid/disp/display.h ****     Wrapping does not happen automatically, so the width
 142:../../../lib/pd2dsy/libdaisy/src/hid/disp/display.h ****     of the string must be kept within the dimensions of the screen.
 143:../../../lib/pd2dsy/libdaisy/src/hid/disp/display.h ****     \param str string to be written
 144:../../../lib/pd2dsy/libdaisy/src/hid/disp/display.h ****     \param font font to use
 145:../../../lib/pd2dsy/libdaisy/src/hid/disp/display.h ****     \param on  on or off
 146:../../../lib/pd2dsy/libdaisy/src/hid/disp/display.h ****     \return &
 147:../../../lib/pd2dsy/libdaisy/src/hid/disp/display.h ****     */
 148:../../../lib/pd2dsy/libdaisy/src/hid/disp/display.h ****     virtual char WriteString(const char* str, FontDef font, bool on) = 0;
 149:../../../lib/pd2dsy/libdaisy/src/hid/disp/display.h **** 
 150:../../../lib/pd2dsy/libdaisy/src/hid/disp/display.h ****     /** 
 151:../../../lib/pd2dsy/libdaisy/src/hid/disp/display.h ****     Similar to WriteString but justified within a bounding box.
ARM GAS  /var/folders/fb/yfxt3z4538j6z0vjt03w70vc0000gn/T//cc0qjWS6.s 			page 12


 152:../../../lib/pd2dsy/libdaisy/src/hid/disp/display.h ****     \param str          string to be written
 153:../../../lib/pd2dsy/libdaisy/src/hid/disp/display.h ****     \param font         font to use
 154:../../../lib/pd2dsy/libdaisy/src/hid/disp/display.h ****     \param boundingBox  the bounding box to draw the text in
 155:../../../lib/pd2dsy/libdaisy/src/hid/disp/display.h ****     \param alignment    the alignment to use
 156:../../../lib/pd2dsy/libdaisy/src/hid/disp/display.h ****     \param on           on or off
 157:../../../lib/pd2dsy/libdaisy/src/hid/disp/display.h ****     \return The rectangle that was drawn to
 158:../../../lib/pd2dsy/libdaisy/src/hid/disp/display.h ****     */
 159:../../../lib/pd2dsy/libdaisy/src/hid/disp/display.h ****     virtual Rectangle WriteStringAligned(const char*    str,
 160:../../../lib/pd2dsy/libdaisy/src/hid/disp/display.h ****                                          const FontDef& font,
 161:../../../lib/pd2dsy/libdaisy/src/hid/disp/display.h ****                                          Rectangle      boundingBox,
 162:../../../lib/pd2dsy/libdaisy/src/hid/disp/display.h ****                                          Alignment      alignment,
 163:../../../lib/pd2dsy/libdaisy/src/hid/disp/display.h ****                                          bool           on)
 164:../../../lib/pd2dsy/libdaisy/src/hid/disp/display.h ****         = 0;
 165:../../../lib/pd2dsy/libdaisy/src/hid/disp/display.h **** 
 166:../../../lib/pd2dsy/libdaisy/src/hid/disp/display.h ****     /** 
 167:../../../lib/pd2dsy/libdaisy/src/hid/disp/display.h ****     Moves the 'Cursor' position used for WriteChar, and WriteStr to the specified coordinate.
 168:../../../lib/pd2dsy/libdaisy/src/hid/disp/display.h ****     \param x x pos
 169:../../../lib/pd2dsy/libdaisy/src/hid/disp/display.h ****     \param y y pos
 170:../../../lib/pd2dsy/libdaisy/src/hid/disp/display.h ****     */
 171:../../../lib/pd2dsy/libdaisy/src/hid/disp/display.h ****     void SetCursor(uint16_t x, uint16_t y)
 172:../../../lib/pd2dsy/libdaisy/src/hid/disp/display.h ****     {
 173:../../../lib/pd2dsy/libdaisy/src/hid/disp/display.h ****         currentX_ = (x >= Width()) ? Width() - 1 : x;
 174:../../../lib/pd2dsy/libdaisy/src/hid/disp/display.h ****         currentY_ = (y >= Height()) ? Height() - 1 : y;
 175:../../../lib/pd2dsy/libdaisy/src/hid/disp/display.h ****     }
 176:../../../lib/pd2dsy/libdaisy/src/hid/disp/display.h **** 
 177:../../../lib/pd2dsy/libdaisy/src/hid/disp/display.h ****     /** 
 178:../../../lib/pd2dsy/libdaisy/src/hid/disp/display.h ****     Writes the current display buffer to the OLED device using SPI or I2C depending on 
 179:../../../lib/pd2dsy/libdaisy/src/hid/disp/display.h ****     how the object was initialized.
 180:../../../lib/pd2dsy/libdaisy/src/hid/disp/display.h ****     */
 181:../../../lib/pd2dsy/libdaisy/src/hid/disp/display.h ****     virtual void Update() = 0;
 182:../../../lib/pd2dsy/libdaisy/src/hid/disp/display.h **** 
 183:../../../lib/pd2dsy/libdaisy/src/hid/disp/display.h ****   protected:
 184:../../../lib/pd2dsy/libdaisy/src/hid/disp/display.h ****     uint16_t currentX_;
 185:../../../lib/pd2dsy/libdaisy/src/hid/disp/display.h ****     uint16_t currentY_;
 186:../../../lib/pd2dsy/libdaisy/src/hid/disp/display.h **** };
 187:../../../lib/pd2dsy/libdaisy/src/hid/disp/display.h **** 
 188:../../../lib/pd2dsy/libdaisy/src/hid/disp/display.h **** /** This class is intended as a intermediary class for your actual implementation of the OneBitGrap
 189:../../../lib/pd2dsy/libdaisy/src/hid/disp/display.h ****  *  interface. It uses the CRTP design pattern where the template argument is the child class. It p
 190:../../../lib/pd2dsy/libdaisy/src/hid/disp/display.h ****  *  implementations for most of the functions, except DrawPixel(), Update() and Fill(), which you'l
 191:../../../lib/pd2dsy/libdaisy/src/hid/disp/display.h ****  *  to provide in your child class.
 192:../../../lib/pd2dsy/libdaisy/src/hid/disp/display.h ****  *  The main goal of this class is to provide common drawing functions without relying on massive a
 193:../../../lib/pd2dsy/libdaisy/src/hid/disp/display.h ****  *  virtual function calls that would result in a performance loss. To achieve this, any drawing fu
 194:../../../lib/pd2dsy/libdaisy/src/hid/disp/display.h ****  *  is implemented here and internally calls other drawing functions (e.g. DrawRect() which interna
 195:../../../lib/pd2dsy/libdaisy/src/hid/disp/display.h ****  *  DrawPixel() and DrawLine()) makes these calls via the qualified name of these functions to expl
 196:../../../lib/pd2dsy/libdaisy/src/hid/disp/display.h ****  *  suppress the virtual dispatch mechanism like this:
 197:../../../lib/pd2dsy/libdaisy/src/hid/disp/display.h ****  * 
 198:../../../lib/pd2dsy/libdaisy/src/hid/disp/display.h ****  *      ChildType::DrawPixel(...); // no virtual function call; direct call into the child class fu
 199:../../../lib/pd2dsy/libdaisy/src/hid/disp/display.h ****  *  
 200:../../../lib/pd2dsy/libdaisy/src/hid/disp/display.h ****  *  To create a custom OneBitGraphicsDisplay implementation, you can 
 201:../../../lib/pd2dsy/libdaisy/src/hid/disp/display.h ****  *  A) inherit from OneBitGraphicsDisplay directly and provide all the drawing functions yourself
 202:../../../lib/pd2dsy/libdaisy/src/hid/disp/display.h ****  *  B) Inherit from OneBitGraphicsDisplayImpl and only provide DrawPixel(), Fill() and Update()
 203:../../../lib/pd2dsy/libdaisy/src/hid/disp/display.h ****  *     like this:
 204:../../../lib/pd2dsy/libdaisy/src/hid/disp/display.h ****  *  
 205:../../../lib/pd2dsy/libdaisy/src/hid/disp/display.h ****  *      class MyDisplayClass : public OneBitGraphicsDisplayImpl<MyDisplayClass> 
 206:../../../lib/pd2dsy/libdaisy/src/hid/disp/display.h ****  *      {
 207:../../../lib/pd2dsy/libdaisy/src/hid/disp/display.h ****  *      public:
 208:../../../lib/pd2dsy/libdaisy/src/hid/disp/display.h ****  *          void Fill() override { ... };
ARM GAS  /var/folders/fb/yfxt3z4538j6z0vjt03w70vc0000gn/T//cc0qjWS6.s 			page 13


 209:../../../lib/pd2dsy/libdaisy/src/hid/disp/display.h ****  *          void DrawPixel(uint_fast8_t x, uint_fast8_t y, bool on) override { ... };
 210:../../../lib/pd2dsy/libdaisy/src/hid/disp/display.h ****  *          void Update() override { ... }
 211:../../../lib/pd2dsy/libdaisy/src/hid/disp/display.h ****  *      };
 212:../../../lib/pd2dsy/libdaisy/src/hid/disp/display.h ****  *  
 213:../../../lib/pd2dsy/libdaisy/src/hid/disp/display.h ****  */
 214:../../../lib/pd2dsy/libdaisy/src/hid/disp/display.h **** template <class ChildType>
 215:../../../lib/pd2dsy/libdaisy/src/hid/disp/display.h **** class OneBitGraphicsDisplayImpl : public OneBitGraphicsDisplay
 216:../../../lib/pd2dsy/libdaisy/src/hid/disp/display.h **** {
 217:../../../lib/pd2dsy/libdaisy/src/hid/disp/display.h ****   public:
 218:../../../lib/pd2dsy/libdaisy/src/hid/disp/display.h ****     OneBitGraphicsDisplayImpl() {}
 219:../../../lib/pd2dsy/libdaisy/src/hid/disp/display.h ****     virtual ~OneBitGraphicsDisplayImpl() {}
  98              		.loc 4 219 13 view .LVU10
  99              	.LBB517:
 100              	.LBI517:
  23:../../../lib/pd2dsy/libdaisy/src/hid/disp/display.h **** 
 101              		.loc 4 23 13 view .LVU11
  23:../../../lib/pd2dsy/libdaisy/src/hid/disp/display.h **** 
 102              		.loc 4 23 13 is_stmt 0 view .LVU12
 103              	.LBE517:
 104              	.LBE516:
  18:../../../lib/pd2dsy/libdaisy/src/hid/disp/oled_display.h **** 
 105              		.loc 2 18 29 view .LVU13
 106 0000 7047     		bx	lr
 107              		.cfi_endproc
 108              	.LFE3049:
 110              		.weak	_ZN5daisy11OledDisplayINS_13SSD130xDriverILj128ELj64ENS_24SSD130x4WireSpiTransportEEEED1Ev
 111              		.thumb_set _ZN5daisy11OledDisplayINS_13SSD130xDriverILj128ELj64ENS_24SSD130x4WireSpiTransportEEEED
 112 0002 00BF     		.section	.text._ZN10json2daisy8DaisyPodD2Ev,"axG",%progbits,_ZN10json2daisy8DaisyPodD5Ev,comdat
 113              		.align	1
 114              		.p2align 2,,3
 115              		.weak	_ZN10json2daisy8DaisyPodD2Ev
 116              		.syntax unified
 117              		.thumb
 118              		.thumb_func
 120              	_ZN10json2daisy8DaisyPodD2Ev:
 121              	.LVL6:
 122              	.LFB3069:
 123              		.file 5 "source/HeavyDaisy_daisiSPI.hpp"
   1:source/HeavyDaisy_daisiSPI.hpp **** /*
   2:source/HeavyDaisy_daisiSPI.hpp ****  * MIT License
   3:source/HeavyDaisy_daisiSPI.hpp ****  * 
   4:source/HeavyDaisy_daisiSPI.hpp ****  * Copyright (c) 2021 Electrosmith
   5:source/HeavyDaisy_daisiSPI.hpp ****  * 
   6:source/HeavyDaisy_daisiSPI.hpp ****  * Permission is hereby granted, free of charge, to any person obtaining a copy
   7:source/HeavyDaisy_daisiSPI.hpp ****  * of this software and associated documentation files (the "Software"), to deal
   8:source/HeavyDaisy_daisiSPI.hpp ****  * in the Software without restriction, including without limitation the rights
   9:source/HeavyDaisy_daisiSPI.hpp ****  * to use, copy, modify, merge, publish, distribute, sublicense, and/or sell
  10:source/HeavyDaisy_daisiSPI.hpp ****  * copies of the Software, and to permit persons to whom the Software is
  11:source/HeavyDaisy_daisiSPI.hpp ****  * furnished to do so, subject to the following conditions:
  12:source/HeavyDaisy_daisiSPI.hpp ****  * 
  13:source/HeavyDaisy_daisiSPI.hpp ****  * The above copyright notice and this permission notice shall be included in all
  14:source/HeavyDaisy_daisiSPI.hpp ****  * copies or substantial portions of the Software.
  15:source/HeavyDaisy_daisiSPI.hpp ****  * 
  16:source/HeavyDaisy_daisiSPI.hpp ****  * THE SOFTWARE IS PROVIDED "AS IS", WITHOUT WARRANTY OF ANY KIND, EXPRESS OR
  17:source/HeavyDaisy_daisiSPI.hpp ****  * IMPLIED, INCLUDING BUT NOT LIMITED TO THE WARRANTIES OF MERCHANTABILITY,
  18:source/HeavyDaisy_daisiSPI.hpp ****  * FITNESS FOR A PARTICULAR PURPOSE AND NONINFRINGEMENT. IN NO EVENT SHALL THE
  19:source/HeavyDaisy_daisiSPI.hpp ****  * AUTHORS OR COPYRIGHT HOLDERS BE LIABLE FOR ANY CLAIM, DAMAGES OR OTHER
ARM GAS  /var/folders/fb/yfxt3z4538j6z0vjt03w70vc0000gn/T//cc0qjWS6.s 			page 14


  20:source/HeavyDaisy_daisiSPI.hpp ****  * LIABILITY, WHETHER IN AN ACTION OF CONTRACT, TORT OR OTHERWISE, ARISING FROM,
  21:source/HeavyDaisy_daisiSPI.hpp ****  * OUT OF OR IN CONNECTION WITH THE SOFTWARE OR THE USE OR OTHER DEALINGS IN THE
  22:source/HeavyDaisy_daisiSPI.hpp ****  * SOFTWARE.
  23:source/HeavyDaisy_daisiSPI.hpp ****  * 
  24:source/HeavyDaisy_daisiSPI.hpp ****  */
  25:source/HeavyDaisy_daisiSPI.hpp **** 
  26:source/HeavyDaisy_daisiSPI.hpp **** #ifndef __JSON2DAISY_POD_H__
  27:source/HeavyDaisy_daisiSPI.hpp **** #define __JSON2DAISY_POD_H__
  28:source/HeavyDaisy_daisiSPI.hpp **** 
  29:source/HeavyDaisy_daisiSPI.hpp **** #include "daisy_seed.h"
  30:source/HeavyDaisy_daisiSPI.hpp **** #include "dev/codec_ak4556.h"
  31:source/HeavyDaisy_daisiSPI.hpp **** #include "dev/oled_ssd130x.h"
  32:source/HeavyDaisy_daisiSPI.hpp **** 
  33:source/HeavyDaisy_daisiSPI.hpp **** #define ANALOG_COUNT 2
  34:source/HeavyDaisy_daisiSPI.hpp **** 
  35:source/HeavyDaisy_daisiSPI.hpp **** namespace json2daisy {
  36:source/HeavyDaisy_daisiSPI.hpp **** 
  37:source/HeavyDaisy_daisiSPI.hpp **** 
  38:source/HeavyDaisy_daisiSPI.hpp **** 
  39:source/HeavyDaisy_daisiSPI.hpp **** struct DaisyPod {
 124              		.loc 5 39 8 is_stmt 1 view -0
 125              		.cfi_startproc
 126              		@ args = 0, pretend = 0, frame = 0
 127              		@ frame_needed = 0, uses_anonymous_args = 0
 128              		@ link register save eliminated.
 129              	.LBB518:
 130              	.LBI518:
  18:../../../lib/pd2dsy/libdaisy/src/hid/disp/oled_display.h **** 
 131              		.loc 2 18 13 view .LVU15
 132              	.LBB519:
 133              	.LBI519:
 134              		.loc 4 219 13 view .LVU16
 135              	.LBB520:
 136              	.LBI520:
  23:../../../lib/pd2dsy/libdaisy/src/hid/disp/display.h **** 
 137              		.loc 4 23 13 view .LVU17
  23:../../../lib/pd2dsy/libdaisy/src/hid/disp/display.h **** 
 138              		.loc 4 23 13 is_stmt 0 view .LVU18
 139              	.LBE520:
 140              	.LBE519:
 141              	.LBE518:
 142              	.LBB521:
 143              	.LBI521:
 144              		.file 6 "../../../lib/pd2dsy/libdaisy/src/hid/switch.h"
   1:../../../lib/pd2dsy/libdaisy/src/hid/switch.h **** #pragma once
   2:../../../lib/pd2dsy/libdaisy/src/hid/switch.h **** #ifndef DSY_SWITCH_H
   3:../../../lib/pd2dsy/libdaisy/src/hid/switch.h **** #define DSY_SWITCH_H
   4:../../../lib/pd2dsy/libdaisy/src/hid/switch.h **** #include "daisy_core.h"
   5:../../../lib/pd2dsy/libdaisy/src/hid/switch.h **** #include "per/gpio.h"
   6:../../../lib/pd2dsy/libdaisy/src/hid/switch.h **** #include "sys/system.h"
   7:../../../lib/pd2dsy/libdaisy/src/hid/switch.h **** 
   8:../../../lib/pd2dsy/libdaisy/src/hid/switch.h **** namespace daisy
   9:../../../lib/pd2dsy/libdaisy/src/hid/switch.h **** {
  10:../../../lib/pd2dsy/libdaisy/src/hid/switch.h **** /** 
  11:../../../lib/pd2dsy/libdaisy/src/hid/switch.h ****     Generic Class for handling momentary/latching switches \n 
  12:../../../lib/pd2dsy/libdaisy/src/hid/switch.h ****     Inspired/influenced by Mutable Instruments (pichenettes) Switch classes
  13:../../../lib/pd2dsy/libdaisy/src/hid/switch.h ****     @author Stephen Hensley
ARM GAS  /var/folders/fb/yfxt3z4538j6z0vjt03w70vc0000gn/T//cc0qjWS6.s 			page 15


  14:../../../lib/pd2dsy/libdaisy/src/hid/switch.h ****     @date December 2019
  15:../../../lib/pd2dsy/libdaisy/src/hid/switch.h ****     @ingroup controls
  16:../../../lib/pd2dsy/libdaisy/src/hid/switch.h **** */
  17:../../../lib/pd2dsy/libdaisy/src/hid/switch.h **** class Switch
  18:../../../lib/pd2dsy/libdaisy/src/hid/switch.h **** {
  19:../../../lib/pd2dsy/libdaisy/src/hid/switch.h ****   public:
  20:../../../lib/pd2dsy/libdaisy/src/hid/switch.h ****     /** Specifies the expected behavior of the switch */
  21:../../../lib/pd2dsy/libdaisy/src/hid/switch.h ****     enum Type
  22:../../../lib/pd2dsy/libdaisy/src/hid/switch.h ****     {
  23:../../../lib/pd2dsy/libdaisy/src/hid/switch.h ****         TYPE_TOGGLE,    /**< & */
  24:../../../lib/pd2dsy/libdaisy/src/hid/switch.h ****         TYPE_MOMENTARY, /**< & */
  25:../../../lib/pd2dsy/libdaisy/src/hid/switch.h ****     };
  26:../../../lib/pd2dsy/libdaisy/src/hid/switch.h ****     /** Specifies whether the pressed is HIGH or LOW. */
  27:../../../lib/pd2dsy/libdaisy/src/hid/switch.h ****     enum Polarity
  28:../../../lib/pd2dsy/libdaisy/src/hid/switch.h ****     {
  29:../../../lib/pd2dsy/libdaisy/src/hid/switch.h ****         POLARITY_NORMAL,   /**< & */
  30:../../../lib/pd2dsy/libdaisy/src/hid/switch.h ****         POLARITY_INVERTED, /**< & */
  31:../../../lib/pd2dsy/libdaisy/src/hid/switch.h ****     };
  32:../../../lib/pd2dsy/libdaisy/src/hid/switch.h **** 
  33:../../../lib/pd2dsy/libdaisy/src/hid/switch.h ****     /** Specifies whether to use built-in Pull Up/Down resistors to hold button at a given state wh
  34:../../../lib/pd2dsy/libdaisy/src/hid/switch.h ****     enum Pull
  35:../../../lib/pd2dsy/libdaisy/src/hid/switch.h ****     {
  36:../../../lib/pd2dsy/libdaisy/src/hid/switch.h ****         PULL_UP,   /**< & */
  37:../../../lib/pd2dsy/libdaisy/src/hid/switch.h ****         PULL_DOWN, /**< & */
  38:../../../lib/pd2dsy/libdaisy/src/hid/switch.h ****         PULL_NONE, /**< & */
  39:../../../lib/pd2dsy/libdaisy/src/hid/switch.h ****     };
  40:../../../lib/pd2dsy/libdaisy/src/hid/switch.h **** 
  41:../../../lib/pd2dsy/libdaisy/src/hid/switch.h ****     Switch() {}
  42:../../../lib/pd2dsy/libdaisy/src/hid/switch.h ****     ~Switch() {}
 145              		.loc 6 42 5 is_stmt 1 view .LVU19
 146              		.loc 6 42 5 is_stmt 0 view .LVU20
 147              	.LBE521:
 148              	.LBB522:
 149              	.LBI522:
 150              		.loc 6 42 5 is_stmt 1 view .LVU21
 151              		.loc 6 42 5 is_stmt 0 view .LVU22
 152              	.LBE522:
 153              	.LBB523:
 154              	.LBI523:
 155              		.file 7 "../../../lib/pd2dsy/libdaisy/src/hid/rgb_led.h"
   1:../../../lib/pd2dsy/libdaisy/src/hid/rgb_led.h **** #pragma once
   2:../../../lib/pd2dsy/libdaisy/src/hid/rgb_led.h **** #ifndef DSY_RGB_LED_H
   3:../../../lib/pd2dsy/libdaisy/src/hid/rgb_led.h **** #define DSY_RGB_LED_H
   4:../../../lib/pd2dsy/libdaisy/src/hid/rgb_led.h **** #include "hid/led.h"
   5:../../../lib/pd2dsy/libdaisy/src/hid/rgb_led.h **** #include "util/color.h"
   6:../../../lib/pd2dsy/libdaisy/src/hid/rgb_led.h **** 
   7:../../../lib/pd2dsy/libdaisy/src/hid/rgb_led.h **** namespace daisy
   8:../../../lib/pd2dsy/libdaisy/src/hid/rgb_led.h **** {
   9:../../../lib/pd2dsy/libdaisy/src/hid/rgb_led.h **** /** @addtogroup feedback
  10:../../../lib/pd2dsy/libdaisy/src/hid/rgb_led.h ****     @{
  11:../../../lib/pd2dsy/libdaisy/src/hid/rgb_led.h **** */
  12:../../../lib/pd2dsy/libdaisy/src/hid/rgb_led.h **** 
  13:../../../lib/pd2dsy/libdaisy/src/hid/rgb_led.h **** /** 3x LEDs configured as an RGB for ease of use. */
  14:../../../lib/pd2dsy/libdaisy/src/hid/rgb_led.h **** class RgbLed
  15:../../../lib/pd2dsy/libdaisy/src/hid/rgb_led.h **** {
  16:../../../lib/pd2dsy/libdaisy/src/hid/rgb_led.h ****   public:
  17:../../../lib/pd2dsy/libdaisy/src/hid/rgb_led.h ****     RgbLed() {}
ARM GAS  /var/folders/fb/yfxt3z4538j6z0vjt03w70vc0000gn/T//cc0qjWS6.s 			page 16


  18:../../../lib/pd2dsy/libdaisy/src/hid/rgb_led.h ****     ~RgbLed() {}
 156              		.loc 7 18 5 is_stmt 1 view .LVU23
 157              	.LBB524:
 158              	.LBI524:
 159              		.file 8 "../../../lib/pd2dsy/libdaisy/src/hid/led.h"
   1:../../../lib/pd2dsy/libdaisy/src/hid/led.h **** 
   2:../../../lib/pd2dsy/libdaisy/src/hid/led.h **** #pragma once
   3:../../../lib/pd2dsy/libdaisy/src/hid/led.h **** #ifndef DSY_LED_H
   4:../../../lib/pd2dsy/libdaisy/src/hid/led.h **** #define DSY_LED_H
   5:../../../lib/pd2dsy/libdaisy/src/hid/led.h **** #include "daisy_core.h"
   6:../../../lib/pd2dsy/libdaisy/src/hid/led.h **** #include "per/gpio.h"
   7:../../../lib/pd2dsy/libdaisy/src/hid/led.h **** 
   8:../../../lib/pd2dsy/libdaisy/src/hid/led.h **** /* TODO - Get this set up to work with the dev_leddriver stuff as well
   9:../../../lib/pd2dsy/libdaisy/src/hid/led.h **** - Setup Hardware PWM for pins that have it
  10:../../../lib/pd2dsy/libdaisy/src/hid/led.h **** */
  11:../../../lib/pd2dsy/libdaisy/src/hid/led.h **** 
  12:../../../lib/pd2dsy/libdaisy/src/hid/led.h **** namespace daisy
  13:../../../lib/pd2dsy/libdaisy/src/hid/led.h **** {
  14:../../../lib/pd2dsy/libdaisy/src/hid/led.h **** /**
  15:../../../lib/pd2dsy/libdaisy/src/hid/led.h ****     @brief LED Class providing simple Software PWM ability, etc \n 
  16:../../../lib/pd2dsy/libdaisy/src/hid/led.h ****     Eventually this will work with hardware PWM, and external LED Driver devices as well.
  17:../../../lib/pd2dsy/libdaisy/src/hid/led.h ****     @author shensley
  18:../../../lib/pd2dsy/libdaisy/src/hid/led.h ****     @date March 2020
  19:../../../lib/pd2dsy/libdaisy/src/hid/led.h ****     @ingroup feedback
  20:../../../lib/pd2dsy/libdaisy/src/hid/led.h **** */
  21:../../../lib/pd2dsy/libdaisy/src/hid/led.h **** class Led
  22:../../../lib/pd2dsy/libdaisy/src/hid/led.h **** {
  23:../../../lib/pd2dsy/libdaisy/src/hid/led.h ****   public:
  24:../../../lib/pd2dsy/libdaisy/src/hid/led.h ****     Led() {}
  25:../../../lib/pd2dsy/libdaisy/src/hid/led.h ****     ~Led() {}
 160              		.loc 8 25 5 view .LVU24
 161              		.loc 8 25 5 is_stmt 0 view .LVU25
 162              	.LBE524:
 163              	.LBB525:
 164              	.LBI525:
 165              		.loc 8 25 5 is_stmt 1 view .LVU26
 166              		.loc 8 25 5 is_stmt 0 view .LVU27
 167              	.LBE525:
 168              	.LBB526:
 169              	.LBI526:
 170              		.loc 8 25 5 is_stmt 1 view .LVU28
 171              		.loc 8 25 5 is_stmt 0 view .LVU29
 172              	.LBE526:
 173              	.LBE523:
 174              	.LBB527:
 175              	.LBI527:
 176              		.loc 7 18 5 is_stmt 1 view .LVU30
 177              	.LBB528:
 178              	.LBI528:
 179              		.loc 8 25 5 view .LVU31
 180              		.loc 8 25 5 is_stmt 0 view .LVU32
 181              	.LBE528:
 182              	.LBB529:
 183              	.LBI529:
 184              		.loc 8 25 5 is_stmt 1 view .LVU33
 185              		.loc 8 25 5 is_stmt 0 view .LVU34
 186              	.LBE529:
ARM GAS  /var/folders/fb/yfxt3z4538j6z0vjt03w70vc0000gn/T//cc0qjWS6.s 			page 17


 187              	.LBB530:
 188              	.LBI530:
 189              		.loc 8 25 5 is_stmt 1 view .LVU35
 190              		.loc 8 25 5 is_stmt 0 view .LVU36
 191              	.LBE530:
 192              	.LBE527:
 193              	.LBB531:
 194              	.LBI531:
 195              		.file 9 "../../../lib/pd2dsy/libdaisy/src/hid/encoder.h"
   1:../../../lib/pd2dsy/libdaisy/src/hid/encoder.h **** #pragma once
   2:../../../lib/pd2dsy/libdaisy/src/hid/encoder.h **** #ifndef DSY_ENCODER_H
   3:../../../lib/pd2dsy/libdaisy/src/hid/encoder.h **** #define DSY_ENCODER_H
   4:../../../lib/pd2dsy/libdaisy/src/hid/encoder.h **** #include "daisy_core.h"
   5:../../../lib/pd2dsy/libdaisy/src/hid/encoder.h **** #include "per/gpio.h"
   6:../../../lib/pd2dsy/libdaisy/src/hid/encoder.h **** #include "hid/switch.h"
   7:../../../lib/pd2dsy/libdaisy/src/hid/encoder.h **** 
   8:../../../lib/pd2dsy/libdaisy/src/hid/encoder.h **** namespace daisy
   9:../../../lib/pd2dsy/libdaisy/src/hid/encoder.h **** {
  10:../../../lib/pd2dsy/libdaisy/src/hid/encoder.h **** /** 
  11:../../../lib/pd2dsy/libdaisy/src/hid/encoder.h ****     @brief Generic Class for handling Quadrature Encoders \n 
  12:../../../lib/pd2dsy/libdaisy/src/hid/encoder.h ****     Inspired/influenced by Mutable Instruments (pichenettes) Encoder classes
  13:../../../lib/pd2dsy/libdaisy/src/hid/encoder.h ****     @author Stephen Hensley
  14:../../../lib/pd2dsy/libdaisy/src/hid/encoder.h ****     @date December 2019
  15:../../../lib/pd2dsy/libdaisy/src/hid/encoder.h ****     @ingroup controls
  16:../../../lib/pd2dsy/libdaisy/src/hid/encoder.h **** */
  17:../../../lib/pd2dsy/libdaisy/src/hid/encoder.h **** class Encoder
  18:../../../lib/pd2dsy/libdaisy/src/hid/encoder.h **** {
  19:../../../lib/pd2dsy/libdaisy/src/hid/encoder.h ****   public:
  20:../../../lib/pd2dsy/libdaisy/src/hid/encoder.h ****     Encoder() {}
  21:../../../lib/pd2dsy/libdaisy/src/hid/encoder.h ****     ~Encoder() {}
 196              		.loc 9 21 5 is_stmt 1 view .LVU37
 197              	.LBB532:
 198              	.LBI532:
 199              		.loc 6 42 5 view .LVU38
 200              		.loc 6 42 5 is_stmt 0 view .LVU39
 201              	.LBE532:
 202              	.LBE531:
 203              	.LBB533:
 204              	.LBI533:
 205              		.file 10 "../../../lib/pd2dsy/libdaisy/src/hid/ctrl.h"
   1:../../../lib/pd2dsy/libdaisy/src/hid/ctrl.h **** #pragma once
   2:../../../lib/pd2dsy/libdaisy/src/hid/ctrl.h **** #ifndef DSY_KNOB_H
   3:../../../lib/pd2dsy/libdaisy/src/hid/ctrl.h **** #define DSY_KNOB_H /**< & */
   4:../../../lib/pd2dsy/libdaisy/src/hid/ctrl.h **** #include <stdint.h>
   5:../../../lib/pd2dsy/libdaisy/src/hid/ctrl.h **** 
   6:../../../lib/pd2dsy/libdaisy/src/hid/ctrl.h **** #ifdef __cplusplus
   7:../../../lib/pd2dsy/libdaisy/src/hid/ctrl.h **** namespace daisy
   8:../../../lib/pd2dsy/libdaisy/src/hid/ctrl.h **** {
   9:../../../lib/pd2dsy/libdaisy/src/hid/ctrl.h **** /**
  10:../../../lib/pd2dsy/libdaisy/src/hid/ctrl.h ****     @brief Hardware Interface for control inputs \n 
  11:../../../lib/pd2dsy/libdaisy/src/hid/ctrl.h ****     Primarily designed for ADC input controls such as \n 
  12:../../../lib/pd2dsy/libdaisy/src/hid/ctrl.h ****     potentiometers, and control voltage. \n 
  13:../../../lib/pd2dsy/libdaisy/src/hid/ctrl.h ****     @author Stephen Hensley
  14:../../../lib/pd2dsy/libdaisy/src/hid/ctrl.h ****     @date November 2019
  15:../../../lib/pd2dsy/libdaisy/src/hid/ctrl.h ****     @ingroup controls
  16:../../../lib/pd2dsy/libdaisy/src/hid/ctrl.h **** */
  17:../../../lib/pd2dsy/libdaisy/src/hid/ctrl.h **** class AnalogControl
ARM GAS  /var/folders/fb/yfxt3z4538j6z0vjt03w70vc0000gn/T//cc0qjWS6.s 			page 18


  18:../../../lib/pd2dsy/libdaisy/src/hid/ctrl.h **** {
  19:../../../lib/pd2dsy/libdaisy/src/hid/ctrl.h ****   public:
  20:../../../lib/pd2dsy/libdaisy/src/hid/ctrl.h ****     /** Constructor */
  21:../../../lib/pd2dsy/libdaisy/src/hid/ctrl.h ****     AnalogControl() {}
  22:../../../lib/pd2dsy/libdaisy/src/hid/ctrl.h ****     /** destructor */
  23:../../../lib/pd2dsy/libdaisy/src/hid/ctrl.h ****     ~AnalogControl() {}
 206              		.loc 10 23 5 is_stmt 1 view .LVU40
 207              		.loc 10 23 5 is_stmt 0 view .LVU41
 208              	.LBE533:
 209              	.LBB534:
 210              	.LBI534:
 211              		.loc 10 23 5 is_stmt 1 view .LVU42
 212              		.loc 10 23 5 is_stmt 0 view .LVU43
 213              	.LBE534:
 214              	.LBB535:
 215              	.LBI535:
 216              		.file 11 "../../../lib/pd2dsy/libdaisy/src/daisy_seed.h"
   1:../../../lib/pd2dsy/libdaisy/src/daisy_seed.h **** #pragma once
   2:../../../lib/pd2dsy/libdaisy/src/daisy_seed.h **** #ifndef DSY_SEED_H
   3:../../../lib/pd2dsy/libdaisy/src/daisy_seed.h **** #define DSY_SEED_H
   4:../../../lib/pd2dsy/libdaisy/src/daisy_seed.h **** 
   5:../../../lib/pd2dsy/libdaisy/src/daisy_seed.h **** #include "daisy.h"
   6:../../../lib/pd2dsy/libdaisy/src/daisy_seed.h **** 
   7:../../../lib/pd2dsy/libdaisy/src/daisy_seed.h **** //Uncomment this out if you're still using the rev2 hardware
   8:../../../lib/pd2dsy/libdaisy/src/daisy_seed.h **** //#define SEED_REV2
   9:../../../lib/pd2dsy/libdaisy/src/daisy_seed.h **** 
  10:../../../lib/pd2dsy/libdaisy/src/daisy_seed.h **** namespace daisy
  11:../../../lib/pd2dsy/libdaisy/src/daisy_seed.h **** {
  12:../../../lib/pd2dsy/libdaisy/src/daisy_seed.h **** /**
  13:../../../lib/pd2dsy/libdaisy/src/daisy_seed.h ****    @brief This is the higher-level interface for the Daisy board. \n 
  14:../../../lib/pd2dsy/libdaisy/src/daisy_seed.h ****     All basic peripheral configuration/initialization is setup here. \n
  15:../../../lib/pd2dsy/libdaisy/src/daisy_seed.h **** 
  16:../../../lib/pd2dsy/libdaisy/src/daisy_seed.h ****    @ingroup boards
  17:../../../lib/pd2dsy/libdaisy/src/daisy_seed.h **** */
  18:../../../lib/pd2dsy/libdaisy/src/daisy_seed.h **** class DaisySeed
  19:../../../lib/pd2dsy/libdaisy/src/daisy_seed.h **** {
  20:../../../lib/pd2dsy/libdaisy/src/daisy_seed.h ****   public:
  21:../../../lib/pd2dsy/libdaisy/src/daisy_seed.h ****     DaisySeed() {}
  22:../../../lib/pd2dsy/libdaisy/src/daisy_seed.h ****     ~DaisySeed() {}
 217              		.loc 11 22 5 is_stmt 1 view .LVU44
 218              	.LBB536:
 219              	.LBI536:
 220              		.file 12 "../../../lib/pd2dsy/libdaisy/src/sys/system.h"
   1:../../../lib/pd2dsy/libdaisy/src/sys/system.h **** #ifndef DSY_SYSTEM_H
   2:../../../lib/pd2dsy/libdaisy/src/sys/system.h **** #define DSY_SYSTEM_H
   3:../../../lib/pd2dsy/libdaisy/src/sys/system.h **** 
   4:../../../lib/pd2dsy/libdaisy/src/sys/system.h **** #ifndef UNIT_TEST // for unit tests, a dummy implementation is provided below
   5:../../../lib/pd2dsy/libdaisy/src/sys/system.h **** 
   6:../../../lib/pd2dsy/libdaisy/src/sys/system.h **** #include <cstdint>
   7:../../../lib/pd2dsy/libdaisy/src/sys/system.h **** #include "per/tim.h"
   8:../../../lib/pd2dsy/libdaisy/src/sys/system.h **** 
   9:../../../lib/pd2dsy/libdaisy/src/sys/system.h **** namespace daisy
  10:../../../lib/pd2dsy/libdaisy/src/sys/system.h **** {
  11:../../../lib/pd2dsy/libdaisy/src/sys/system.h **** /** A handle for interacting with the Core System. 
  12:../../../lib/pd2dsy/libdaisy/src/sys/system.h ****  ** This includes the Clock tree, MPU, global DMA initialization,
  13:../../../lib/pd2dsy/libdaisy/src/sys/system.h ****  ** cache handling, and any other necessary global initiailzation
  14:../../../lib/pd2dsy/libdaisy/src/sys/system.h ****  **
ARM GAS  /var/folders/fb/yfxt3z4538j6z0vjt03w70vc0000gn/T//cc0qjWS6.s 			page 19


  15:../../../lib/pd2dsy/libdaisy/src/sys/system.h ****  ** @author shensley
  16:../../../lib/pd2dsy/libdaisy/src/sys/system.h ****  ** @ingroup system
  17:../../../lib/pd2dsy/libdaisy/src/sys/system.h ****  */
  18:../../../lib/pd2dsy/libdaisy/src/sys/system.h **** class System
  19:../../../lib/pd2dsy/libdaisy/src/sys/system.h **** {
  20:../../../lib/pd2dsy/libdaisy/src/sys/system.h ****   public:
  21:../../../lib/pd2dsy/libdaisy/src/sys/system.h ****     /** Contains settings for initializing the System */
  22:../../../lib/pd2dsy/libdaisy/src/sys/system.h ****     struct Config
  23:../../../lib/pd2dsy/libdaisy/src/sys/system.h ****     {
  24:../../../lib/pd2dsy/libdaisy/src/sys/system.h ****         /** Specifies the system clock frequency that feeds APB/AHB clocks, etc. */
  25:../../../lib/pd2dsy/libdaisy/src/sys/system.h ****         enum class SysClkFreq
  26:../../../lib/pd2dsy/libdaisy/src/sys/system.h ****         {
  27:../../../lib/pd2dsy/libdaisy/src/sys/system.h ****             FREQ_400MHZ,
  28:../../../lib/pd2dsy/libdaisy/src/sys/system.h ****             FREQ_480MHZ,
  29:../../../lib/pd2dsy/libdaisy/src/sys/system.h ****         };
  30:../../../lib/pd2dsy/libdaisy/src/sys/system.h **** 
  31:../../../lib/pd2dsy/libdaisy/src/sys/system.h ****         /** Method to call on the struct to set to defaults
  32:../../../lib/pd2dsy/libdaisy/src/sys/system.h ****          ** CPU Freq set to 400MHz
  33:../../../lib/pd2dsy/libdaisy/src/sys/system.h ****          ** Cache Enabled 
  34:../../../lib/pd2dsy/libdaisy/src/sys/system.h ****          ** */
  35:../../../lib/pd2dsy/libdaisy/src/sys/system.h ****         void Defaults()
  36:../../../lib/pd2dsy/libdaisy/src/sys/system.h ****         {
  37:../../../lib/pd2dsy/libdaisy/src/sys/system.h ****             cpu_freq    = SysClkFreq::FREQ_400MHZ;
  38:../../../lib/pd2dsy/libdaisy/src/sys/system.h ****             use_dcache  = true;
  39:../../../lib/pd2dsy/libdaisy/src/sys/system.h ****             use_icache  = true;
  40:../../../lib/pd2dsy/libdaisy/src/sys/system.h ****             skip_clocks = false;
  41:../../../lib/pd2dsy/libdaisy/src/sys/system.h ****         }
  42:../../../lib/pd2dsy/libdaisy/src/sys/system.h **** 
  43:../../../lib/pd2dsy/libdaisy/src/sys/system.h ****         /** Method to call on the struct to set to boost mode:
  44:../../../lib/pd2dsy/libdaisy/src/sys/system.h ****          ** CPU Freq set to 480MHz
  45:../../../lib/pd2dsy/libdaisy/src/sys/system.h ****          ** Cache Enabled 
  46:../../../lib/pd2dsy/libdaisy/src/sys/system.h ****          ** */
  47:../../../lib/pd2dsy/libdaisy/src/sys/system.h ****         void Boost()
  48:../../../lib/pd2dsy/libdaisy/src/sys/system.h ****         {
  49:../../../lib/pd2dsy/libdaisy/src/sys/system.h ****             cpu_freq    = SysClkFreq::FREQ_480MHZ;
  50:../../../lib/pd2dsy/libdaisy/src/sys/system.h ****             use_dcache  = true;
  51:../../../lib/pd2dsy/libdaisy/src/sys/system.h ****             use_icache  = true;
  52:../../../lib/pd2dsy/libdaisy/src/sys/system.h ****             skip_clocks = false;
  53:../../../lib/pd2dsy/libdaisy/src/sys/system.h ****         }
  54:../../../lib/pd2dsy/libdaisy/src/sys/system.h **** 
  55:../../../lib/pd2dsy/libdaisy/src/sys/system.h ****         SysClkFreq cpu_freq;
  56:../../../lib/pd2dsy/libdaisy/src/sys/system.h ****         bool       use_dcache;
  57:../../../lib/pd2dsy/libdaisy/src/sys/system.h ****         bool       use_icache;
  58:../../../lib/pd2dsy/libdaisy/src/sys/system.h ****         bool       skip_clocks;
  59:../../../lib/pd2dsy/libdaisy/src/sys/system.h ****     };
  60:../../../lib/pd2dsy/libdaisy/src/sys/system.h **** 
  61:../../../lib/pd2dsy/libdaisy/src/sys/system.h ****     /** Describes the different regions of memory available to the Daisy
  62:../../../lib/pd2dsy/libdaisy/src/sys/system.h ****      * 
  63:../../../lib/pd2dsy/libdaisy/src/sys/system.h ****      */
  64:../../../lib/pd2dsy/libdaisy/src/sys/system.h ****     enum MemoryRegion
  65:../../../lib/pd2dsy/libdaisy/src/sys/system.h ****     {
  66:../../../lib/pd2dsy/libdaisy/src/sys/system.h ****         INTERNAL_FLASH = 0,
  67:../../../lib/pd2dsy/libdaisy/src/sys/system.h ****         ITCMRAM,
  68:../../../lib/pd2dsy/libdaisy/src/sys/system.h ****         DTCMRAM,
  69:../../../lib/pd2dsy/libdaisy/src/sys/system.h ****         SRAM_D1,
  70:../../../lib/pd2dsy/libdaisy/src/sys/system.h ****         SRAM_D2,
  71:../../../lib/pd2dsy/libdaisy/src/sys/system.h ****         SRAM_D3,
ARM GAS  /var/folders/fb/yfxt3z4538j6z0vjt03w70vc0000gn/T//cc0qjWS6.s 			page 20


  72:../../../lib/pd2dsy/libdaisy/src/sys/system.h ****         SDRAM,
  73:../../../lib/pd2dsy/libdaisy/src/sys/system.h ****         QSPI,
  74:../../../lib/pd2dsy/libdaisy/src/sys/system.h ****         INVALID_ADDRESS,
  75:../../../lib/pd2dsy/libdaisy/src/sys/system.h ****     };
  76:../../../lib/pd2dsy/libdaisy/src/sys/system.h **** 
  77:../../../lib/pd2dsy/libdaisy/src/sys/system.h ****     System() {}
  78:../../../lib/pd2dsy/libdaisy/src/sys/system.h ****     ~System() {}
 221              		.loc 12 78 5 view .LVU45
 222              		.loc 12 78 5 is_stmt 0 view .LVU46
 223              	.LBE536:
 224              	.LBB537:
 225              	.LBI537:
 226              		.file 13 "../../../lib/pd2dsy/libdaisy/src/hid/usb.h"
   1:../../../lib/pd2dsy/libdaisy/src/hid/usb.h **** #pragma once
   2:../../../lib/pd2dsy/libdaisy/src/hid/usb.h **** #ifndef DSY_HID_USB_H
   3:../../../lib/pd2dsy/libdaisy/src/hid/usb.h **** #define DSY_HID_USB_H
   4:../../../lib/pd2dsy/libdaisy/src/hid/usb.h **** #include <stdint.h>
   5:../../../lib/pd2dsy/libdaisy/src/hid/usb.h **** #include <stdlib.h>
   6:../../../lib/pd2dsy/libdaisy/src/hid/usb.h **** 
   7:../../../lib/pd2dsy/libdaisy/src/hid/usb.h **** namespace daisy
   8:../../../lib/pd2dsy/libdaisy/src/hid/usb.h **** /** @addtogroup human_interface
   9:../../../lib/pd2dsy/libdaisy/src/hid/usb.h ****     @{
  10:../../../lib/pd2dsy/libdaisy/src/hid/usb.h **** */
  11:../../../lib/pd2dsy/libdaisy/src/hid/usb.h **** 
  12:../../../lib/pd2dsy/libdaisy/src/hid/usb.h **** {
  13:../../../lib/pd2dsy/libdaisy/src/hid/usb.h **** /** 
  14:../../../lib/pd2dsy/libdaisy/src/hid/usb.h ****     @brief Interface for initializing and using the USB Peripherals on the daisy
  15:../../../lib/pd2dsy/libdaisy/src/hid/usb.h ****     @author Stephen Hensley
  16:../../../lib/pd2dsy/libdaisy/src/hid/usb.h ****     @date December 2019
  17:../../../lib/pd2dsy/libdaisy/src/hid/usb.h **** */
  18:../../../lib/pd2dsy/libdaisy/src/hid/usb.h **** class UsbHandle
  19:../../../lib/pd2dsy/libdaisy/src/hid/usb.h **** {
  20:../../../lib/pd2dsy/libdaisy/src/hid/usb.h ****   public:
  21:../../../lib/pd2dsy/libdaisy/src/hid/usb.h ****     /** Return values for USBHandle Functions */
  22:../../../lib/pd2dsy/libdaisy/src/hid/usb.h ****     enum class Result
  23:../../../lib/pd2dsy/libdaisy/src/hid/usb.h ****     {
  24:../../../lib/pd2dsy/libdaisy/src/hid/usb.h ****         OK,
  25:../../../lib/pd2dsy/libdaisy/src/hid/usb.h ****         ERR,
  26:../../../lib/pd2dsy/libdaisy/src/hid/usb.h ****     };
  27:../../../lib/pd2dsy/libdaisy/src/hid/usb.h **** 
  28:../../../lib/pd2dsy/libdaisy/src/hid/usb.h ****     /** Specified which of the two USB Peripherals to initialize. */
  29:../../../lib/pd2dsy/libdaisy/src/hid/usb.h ****     enum UsbPeriph
  30:../../../lib/pd2dsy/libdaisy/src/hid/usb.h ****     {
  31:../../../lib/pd2dsy/libdaisy/src/hid/usb.h ****         FS_INTERNAL, /**< Internal pin */
  32:../../../lib/pd2dsy/libdaisy/src/hid/usb.h ****         FS_EXTERNAL, /**< FS External D+ pin is Pin 38 (GPIO32). FS External D- pin is Pin 37 (GPIO
  33:../../../lib/pd2dsy/libdaisy/src/hid/usb.h ****         FS_BOTH,     /**< Both */
  34:../../../lib/pd2dsy/libdaisy/src/hid/usb.h ****     };
  35:../../../lib/pd2dsy/libdaisy/src/hid/usb.h **** 
  36:../../../lib/pd2dsy/libdaisy/src/hid/usb.h **** 
  37:../../../lib/pd2dsy/libdaisy/src/hid/usb.h ****     /** Function called upon reception of a buffer */
  38:../../../lib/pd2dsy/libdaisy/src/hid/usb.h ****     typedef void (*ReceiveCallback)(uint8_t* buff, uint32_t* len);
  39:../../../lib/pd2dsy/libdaisy/src/hid/usb.h **** 
  40:../../../lib/pd2dsy/libdaisy/src/hid/usb.h ****     UsbHandle() {}
  41:../../../lib/pd2dsy/libdaisy/src/hid/usb.h **** 
  42:../../../lib/pd2dsy/libdaisy/src/hid/usb.h ****     ~UsbHandle() {}
 227              		.loc 13 42 5 is_stmt 1 view .LVU47
 228              		.loc 13 42 5 is_stmt 0 view .LVU48
ARM GAS  /var/folders/fb/yfxt3z4538j6z0vjt03w70vc0000gn/T//cc0qjWS6.s 			page 21


 229              	.LBE537:
 230              	.LBB538:
 231              	.LBI538:
 232              		.file 14 "../../../lib/pd2dsy/libdaisy/src/per/adc.h"
   1:../../../lib/pd2dsy/libdaisy/src/per/adc.h **** #pragma once
   2:../../../lib/pd2dsy/libdaisy/src/per/adc.h **** #ifndef DSY_ADC_H
   3:../../../lib/pd2dsy/libdaisy/src/per/adc.h **** #define DSY_ADC_H /**< Macro */
   4:../../../lib/pd2dsy/libdaisy/src/per/adc.h **** #include <stdint.h>
   5:../../../lib/pd2dsy/libdaisy/src/per/adc.h **** #include <stdlib.h>
   6:../../../lib/pd2dsy/libdaisy/src/per/adc.h **** #include "daisy_core.h"
   7:../../../lib/pd2dsy/libdaisy/src/per/adc.h **** #include "per/gpio.h"
   8:../../../lib/pd2dsy/libdaisy/src/per/adc.h **** 
   9:../../../lib/pd2dsy/libdaisy/src/per/adc.h **** #define DSY_ADC_MAX_CHANNELS 16 /**< Maximum number of ADC channels */
  10:../../../lib/pd2dsy/libdaisy/src/per/adc.h **** 
  11:../../../lib/pd2dsy/libdaisy/src/per/adc.h **** namespace daisy
  12:../../../lib/pd2dsy/libdaisy/src/per/adc.h **** {
  13:../../../lib/pd2dsy/libdaisy/src/per/adc.h **** /** @addtogroup per_analog
  14:../../../lib/pd2dsy/libdaisy/src/per/adc.h ****     @{
  15:../../../lib/pd2dsy/libdaisy/src/per/adc.h **** */
  16:../../../lib/pd2dsy/libdaisy/src/per/adc.h **** 
  17:../../../lib/pd2dsy/libdaisy/src/per/adc.h **** /* While there may not be many configuration options here,
  18:../../../lib/pd2dsy/libdaisy/src/per/adc.h **** using a struct like this allows us to add more configuration
  19:../../../lib/pd2dsy/libdaisy/src/per/adc.h **** later without breaking existing functionality.
  20:../../../lib/pd2dsy/libdaisy/src/per/adc.h **** */
  21:../../../lib/pd2dsy/libdaisy/src/per/adc.h **** 
  22:../../../lib/pd2dsy/libdaisy/src/per/adc.h **** /** @brief   Configuration Structure for an ADC Channel 
  23:../../../lib/pd2dsy/libdaisy/src/per/adc.h ****  *  @details This can be used to configure a a single input, 
  24:../../../lib/pd2dsy/libdaisy/src/per/adc.h ****  *           or a multiplexed input, allowing up to 8 inputs on 
  25:../../../lib/pd2dsy/libdaisy/src/per/adc.h ****  *           one channel.
  26:../../../lib/pd2dsy/libdaisy/src/per/adc.h ****  *  @note    Sharing data lines to multiple muxes _is_ possible, but
  27:../../../lib/pd2dsy/libdaisy/src/per/adc.h ****  *           each channel sharing data lines must be set to the maximum
  28:../../../lib/pd2dsy/libdaisy/src/per/adc.h ****  *           number of channels, even if some multiplexers have fewer
  29:../../../lib/pd2dsy/libdaisy/src/per/adc.h ****  *           inputs connected.
  30:../../../lib/pd2dsy/libdaisy/src/per/adc.h **** */
  31:../../../lib/pd2dsy/libdaisy/src/per/adc.h **** struct AdcChannelConfig
  32:../../../lib/pd2dsy/libdaisy/src/per/adc.h **** {
  33:../../../lib/pd2dsy/libdaisy/src/per/adc.h ****     /** Which pin to use for multiplexing */
  34:../../../lib/pd2dsy/libdaisy/src/per/adc.h ****     enum MuxPin
  35:../../../lib/pd2dsy/libdaisy/src/per/adc.h ****     {
  36:../../../lib/pd2dsy/libdaisy/src/per/adc.h ****         MUX_SEL_0,    /**< & */
  37:../../../lib/pd2dsy/libdaisy/src/per/adc.h ****         MUX_SEL_1,    /**< & */
  38:../../../lib/pd2dsy/libdaisy/src/per/adc.h ****         MUX_SEL_2,    /**< & */
  39:../../../lib/pd2dsy/libdaisy/src/per/adc.h ****         MUX_SEL_LAST, /**< & */
  40:../../../lib/pd2dsy/libdaisy/src/per/adc.h ****     };
  41:../../../lib/pd2dsy/libdaisy/src/per/adc.h **** 
  42:../../../lib/pd2dsy/libdaisy/src/per/adc.h ****     /** Initializes a single ADC pin as an ADC. 
  43:../../../lib/pd2dsy/libdaisy/src/per/adc.h ****     \param pin Pin to init.
  44:../../../lib/pd2dsy/libdaisy/src/per/adc.h ****      */
  45:../../../lib/pd2dsy/libdaisy/src/per/adc.h ****     void InitSingle(dsy_gpio_pin pin);
  46:../../../lib/pd2dsy/libdaisy/src/per/adc.h **** 
  47:../../../lib/pd2dsy/libdaisy/src/per/adc.h ****     /** 
  48:../../../lib/pd2dsy/libdaisy/src/per/adc.h ****     Initializes a single ADC pin as a Multiplexed ADC.
  49:../../../lib/pd2dsy/libdaisy/src/per/adc.h ****     Requires a CD405X Multiplexer connected to the pin.
  50:../../../lib/pd2dsy/libdaisy/src/per/adc.h ****     You only need to supply the mux pins that are required,
  51:../../../lib/pd2dsy/libdaisy/src/per/adc.h ****     e.g. a 4052 mux would only require mux_0 and mux_1.
  52:../../../lib/pd2dsy/libdaisy/src/per/adc.h ****     Internal Callbacks handle the pin addressing.
  53:../../../lib/pd2dsy/libdaisy/src/per/adc.h ****     \param mux_channels must be 1-8
ARM GAS  /var/folders/fb/yfxt3z4538j6z0vjt03w70vc0000gn/T//cc0qjWS6.s 			page 22


  54:../../../lib/pd2dsy/libdaisy/src/per/adc.h ****     \param mux_0 First mux pin
  55:../../../lib/pd2dsy/libdaisy/src/per/adc.h ****     \param mux_1 Second mux pin
  56:../../../lib/pd2dsy/libdaisy/src/per/adc.h ****     \param mux_2 Third mux pin
  57:../../../lib/pd2dsy/libdaisy/src/per/adc.h ****     \param adc_pin &
  58:../../../lib/pd2dsy/libdaisy/src/per/adc.h ****     */
  59:../../../lib/pd2dsy/libdaisy/src/per/adc.h ****     void InitMux(dsy_gpio_pin adc_pin,
  60:../../../lib/pd2dsy/libdaisy/src/per/adc.h ****                  size_t       mux_channels,
  61:../../../lib/pd2dsy/libdaisy/src/per/adc.h ****                  dsy_gpio_pin mux_0,
  62:../../../lib/pd2dsy/libdaisy/src/per/adc.h ****                  dsy_gpio_pin mux_1 = {DSY_GPIOX, 0},
  63:../../../lib/pd2dsy/libdaisy/src/per/adc.h ****                  dsy_gpio_pin mux_2 = {DSY_GPIOX, 0});
  64:../../../lib/pd2dsy/libdaisy/src/per/adc.h **** 
  65:../../../lib/pd2dsy/libdaisy/src/per/adc.h ****     dsy_gpio pin_;                   /**< & */
  66:../../../lib/pd2dsy/libdaisy/src/per/adc.h ****     dsy_gpio mux_pin_[MUX_SEL_LAST]; /**< & */
  67:../../../lib/pd2dsy/libdaisy/src/per/adc.h ****     uint8_t  mux_channels_;          /**< & */
  68:../../../lib/pd2dsy/libdaisy/src/per/adc.h **** };
  69:../../../lib/pd2dsy/libdaisy/src/per/adc.h **** 
  70:../../../lib/pd2dsy/libdaisy/src/per/adc.h **** /**
  71:../../../lib/pd2dsy/libdaisy/src/per/adc.h ****    @brief Handler for analog to digital conversion
  72:../../../lib/pd2dsy/libdaisy/src/per/adc.h **** */
  73:../../../lib/pd2dsy/libdaisy/src/per/adc.h **** class AdcHandle
  74:../../../lib/pd2dsy/libdaisy/src/per/adc.h **** {
  75:../../../lib/pd2dsy/libdaisy/src/per/adc.h ****   public:
  76:../../../lib/pd2dsy/libdaisy/src/per/adc.h ****     /** Supported oversampling amounts */
  77:../../../lib/pd2dsy/libdaisy/src/per/adc.h ****     enum OverSampling
  78:../../../lib/pd2dsy/libdaisy/src/per/adc.h ****     {
  79:../../../lib/pd2dsy/libdaisy/src/per/adc.h ****         OVS_NONE, /**< & */
  80:../../../lib/pd2dsy/libdaisy/src/per/adc.h ****         OVS_4,    /**< & */
  81:../../../lib/pd2dsy/libdaisy/src/per/adc.h ****         OVS_8,    /**< & */
  82:../../../lib/pd2dsy/libdaisy/src/per/adc.h ****         OVS_16,   /**< & */
  83:../../../lib/pd2dsy/libdaisy/src/per/adc.h ****         OVS_32,   /**< & */
  84:../../../lib/pd2dsy/libdaisy/src/per/adc.h ****         OVS_64,   /**< & */
  85:../../../lib/pd2dsy/libdaisy/src/per/adc.h ****         OVS_128,  /**< & */
  86:../../../lib/pd2dsy/libdaisy/src/per/adc.h ****         OVS_256,  /**< & */
  87:../../../lib/pd2dsy/libdaisy/src/per/adc.h ****         OVS_512,  /**< & */
  88:../../../lib/pd2dsy/libdaisy/src/per/adc.h ****         OVS_1024, /**< & */
  89:../../../lib/pd2dsy/libdaisy/src/per/adc.h ****         OVS_LAST, /**< & */
  90:../../../lib/pd2dsy/libdaisy/src/per/adc.h ****     };
  91:../../../lib/pd2dsy/libdaisy/src/per/adc.h **** 
  92:../../../lib/pd2dsy/libdaisy/src/per/adc.h ****     AdcHandle() {}
  93:../../../lib/pd2dsy/libdaisy/src/per/adc.h ****     ~AdcHandle() {}
 233              		.loc 14 93 5 is_stmt 1 view .LVU49
 234              		.loc 14 93 5 is_stmt 0 view .LVU50
 235              	.LBE538:
 236              	.LBB539:
 237              	.LBI539:
 238              		.file 15 "../../../lib/pd2dsy/libdaisy/src/hid/audio.h"
   1:../../../lib/pd2dsy/libdaisy/src/hid/audio.h **** #ifndef DSY_AUDIO_H
   2:../../../lib/pd2dsy/libdaisy/src/hid/audio.h **** #define DSY_AUDIO_H /**< & */
   3:../../../lib/pd2dsy/libdaisy/src/hid/audio.h **** 
   4:../../../lib/pd2dsy/libdaisy/src/hid/audio.h **** #include "per/sai.h"
   5:../../../lib/pd2dsy/libdaisy/src/hid/audio.h **** 
   6:../../../lib/pd2dsy/libdaisy/src/hid/audio.h **** namespace daisy
   7:../../../lib/pd2dsy/libdaisy/src/hid/audio.h **** {
   8:../../../lib/pd2dsy/libdaisy/src/hid/audio.h **** /** @brief Audio Engine Handle
   9:../../../lib/pd2dsy/libdaisy/src/hid/audio.h ****  *  @ingroup audio 
  10:../../../lib/pd2dsy/libdaisy/src/hid/audio.h ****  *  @details This class allows for higher level access to an audio engine.
  11:../../../lib/pd2dsy/libdaisy/src/hid/audio.h ****  *           If you're using a SOM like the DaisySeed or DaisyPatchSM (or any 
ARM GAS  /var/folders/fb/yfxt3z4538j6z0vjt03w70vc0000gn/T//cc0qjWS6.s 			page 23


  12:../../../lib/pd2dsy/libdaisy/src/hid/audio.h ****  *            board that includes one of those objects) then the intialization
  13:../../../lib/pd2dsy/libdaisy/src/hid/audio.h ****  *            is already taken  care of.
  14:../../../lib/pd2dsy/libdaisy/src/hid/audio.h ****  *           If you're setting up your own custom hardware, or need to make changes
  15:../../../lib/pd2dsy/libdaisy/src/hid/audio.h ****  *           you will have to take the following steps:
  16:../../../lib/pd2dsy/libdaisy/src/hid/audio.h ****  *             1. Create and Initialize an SaiHandle or two depending on your requirements
  17:../../../lib/pd2dsy/libdaisy/src/hid/audio.h ****  *             2. Initialize the Audio Handle with the desired settings and the Initialized SaiHand
  18:../../../lib/pd2dsy/libdaisy/src/hid/audio.h ****  *             3. If the connected codec requires special configuration or initialization, do so
  19:../../../lib/pd2dsy/libdaisy/src/hid/audio.h ****  *             4. Write a callback method using either the AudioCallback or the InterleavingAudioCa
  20:../../../lib/pd2dsy/libdaisy/src/hid/audio.h ****  *             5. Start the Audio using one of the StartAudio function
  21:../../../lib/pd2dsy/libdaisy/src/hid/audio.h ****  */
  22:../../../lib/pd2dsy/libdaisy/src/hid/audio.h **** class AudioHandle
  23:../../../lib/pd2dsy/libdaisy/src/hid/audio.h **** {
  24:../../../lib/pd2dsy/libdaisy/src/hid/audio.h ****   public:
  25:../../../lib/pd2dsy/libdaisy/src/hid/audio.h ****     /** Manually configurable details about the Audio Engine */
  26:../../../lib/pd2dsy/libdaisy/src/hid/audio.h ****     /** TODO: Figure out how to get samplerate in here. */
  27:../../../lib/pd2dsy/libdaisy/src/hid/audio.h ****     struct Config
  28:../../../lib/pd2dsy/libdaisy/src/hid/audio.h ****     {
  29:../../../lib/pd2dsy/libdaisy/src/hid/audio.h ****         /** number of samples to process per callback */
  30:../../../lib/pd2dsy/libdaisy/src/hid/audio.h ****         size_t blocksize;
  31:../../../lib/pd2dsy/libdaisy/src/hid/audio.h **** 
  32:../../../lib/pd2dsy/libdaisy/src/hid/audio.h ****         /**< Sample rate of audio */
  33:../../../lib/pd2dsy/libdaisy/src/hid/audio.h ****         SaiHandle::Config::SampleRate samplerate;
  34:../../../lib/pd2dsy/libdaisy/src/hid/audio.h **** 
  35:../../../lib/pd2dsy/libdaisy/src/hid/audio.h ****         /** factor for adjustment before and after callback for hardware that may have extra headro
  36:../../../lib/pd2dsy/libdaisy/src/hid/audio.h ****         float postgain;
  37:../../../lib/pd2dsy/libdaisy/src/hid/audio.h **** 
  38:../../../lib/pd2dsy/libdaisy/src/hid/audio.h ****         /** factor for additional one-sided compensation to audio path for hardware that may
  39:../../../lib/pd2dsy/libdaisy/src/hid/audio.h ****          *  have unequal input/output ranges
  40:../../../lib/pd2dsy/libdaisy/src/hid/audio.h ****          */
  41:../../../lib/pd2dsy/libdaisy/src/hid/audio.h ****         float output_compensation;
  42:../../../lib/pd2dsy/libdaisy/src/hid/audio.h **** 
  43:../../../lib/pd2dsy/libdaisy/src/hid/audio.h ****         /** Sets default values for config struct */
  44:../../../lib/pd2dsy/libdaisy/src/hid/audio.h ****         Config()
  45:../../../lib/pd2dsy/libdaisy/src/hid/audio.h ****         : blocksize(48),
  46:../../../lib/pd2dsy/libdaisy/src/hid/audio.h ****           samplerate(SaiHandle::Config::SampleRate::SAI_48KHZ),
  47:../../../lib/pd2dsy/libdaisy/src/hid/audio.h ****           postgain(1.f),
  48:../../../lib/pd2dsy/libdaisy/src/hid/audio.h ****           output_compensation(1.f)
  49:../../../lib/pd2dsy/libdaisy/src/hid/audio.h ****         {
  50:../../../lib/pd2dsy/libdaisy/src/hid/audio.h ****         }
  51:../../../lib/pd2dsy/libdaisy/src/hid/audio.h ****     };
  52:../../../lib/pd2dsy/libdaisy/src/hid/audio.h **** 
  53:../../../lib/pd2dsy/libdaisy/src/hid/audio.h ****     enum class Result
  54:../../../lib/pd2dsy/libdaisy/src/hid/audio.h ****     {
  55:../../../lib/pd2dsy/libdaisy/src/hid/audio.h ****         OK,
  56:../../../lib/pd2dsy/libdaisy/src/hid/audio.h ****         ERR,
  57:../../../lib/pd2dsy/libdaisy/src/hid/audio.h ****     };
  58:../../../lib/pd2dsy/libdaisy/src/hid/audio.h **** 
  59:../../../lib/pd2dsy/libdaisy/src/hid/audio.h ****     /** Non-Interleaving input buffer
  60:../../../lib/pd2dsy/libdaisy/src/hid/audio.h ****      * Buffer arranged by float[chn][sample] 
  61:../../../lib/pd2dsy/libdaisy/src/hid/audio.h ****      * const so that the user can't modify the input
  62:../../../lib/pd2dsy/libdaisy/src/hid/audio.h ****      */
  63:../../../lib/pd2dsy/libdaisy/src/hid/audio.h ****     typedef const float* const* InputBuffer;
  64:../../../lib/pd2dsy/libdaisy/src/hid/audio.h **** 
  65:../../../lib/pd2dsy/libdaisy/src/hid/audio.h ****     /** Non-Interleaving output buffer
  66:../../../lib/pd2dsy/libdaisy/src/hid/audio.h ****      * Arranged by float[chn][sample] 
  67:../../../lib/pd2dsy/libdaisy/src/hid/audio.h ****      */
  68:../../../lib/pd2dsy/libdaisy/src/hid/audio.h ****     typedef float** OutputBuffer;
ARM GAS  /var/folders/fb/yfxt3z4538j6z0vjt03w70vc0000gn/T//cc0qjWS6.s 			page 24


  69:../../../lib/pd2dsy/libdaisy/src/hid/audio.h **** 
  70:../../../lib/pd2dsy/libdaisy/src/hid/audio.h ****     /** Type for a Non-Interleaving audio callback 
  71:../../../lib/pd2dsy/libdaisy/src/hid/audio.h ****      * Non-Interleaving audio callbacks in daisy will be of this type
  72:../../../lib/pd2dsy/libdaisy/src/hid/audio.h ****      */
  73:../../../lib/pd2dsy/libdaisy/src/hid/audio.h ****     typedef void (*AudioCallback)(InputBuffer  in,
  74:../../../lib/pd2dsy/libdaisy/src/hid/audio.h ****                                   OutputBuffer out,
  75:../../../lib/pd2dsy/libdaisy/src/hid/audio.h ****                                   size_t       size);
  76:../../../lib/pd2dsy/libdaisy/src/hid/audio.h **** 
  77:../../../lib/pd2dsy/libdaisy/src/hid/audio.h ****     /** Interleaving Input buffer
  78:../../../lib/pd2dsy/libdaisy/src/hid/audio.h ****      ** audio is prepared as { L0, R0, L1, R1, . . . LN, RN }]
  79:../../../lib/pd2dsy/libdaisy/src/hid/audio.h ****      ** this is const, as the user shouldn't modify it
  80:../../../lib/pd2dsy/libdaisy/src/hid/audio.h ****     */
  81:../../../lib/pd2dsy/libdaisy/src/hid/audio.h ****     typedef const float* InterleavingInputBuffer;
  82:../../../lib/pd2dsy/libdaisy/src/hid/audio.h **** 
  83:../../../lib/pd2dsy/libdaisy/src/hid/audio.h ****     /** Interleaving Output buffer 
  84:../../../lib/pd2dsy/libdaisy/src/hid/audio.h ****      ** audio is prepared as { L0, R0, L1, R1, . . . LN, RN }
  85:../../../lib/pd2dsy/libdaisy/src/hid/audio.h ****     */
  86:../../../lib/pd2dsy/libdaisy/src/hid/audio.h ****     typedef float* InterleavingOutputBuffer;
  87:../../../lib/pd2dsy/libdaisy/src/hid/audio.h **** 
  88:../../../lib/pd2dsy/libdaisy/src/hid/audio.h ****     /** Interleaving Audio Callback 
  89:../../../lib/pd2dsy/libdaisy/src/hid/audio.h ****      * Interleaving audio callbacks in daisy must be of this type
  90:../../../lib/pd2dsy/libdaisy/src/hid/audio.h ****      */
  91:../../../lib/pd2dsy/libdaisy/src/hid/audio.h ****     typedef void (*InterleavingAudioCallback)(InterleavingInputBuffer  in,
  92:../../../lib/pd2dsy/libdaisy/src/hid/audio.h ****                                               InterleavingOutputBuffer out,
  93:../../../lib/pd2dsy/libdaisy/src/hid/audio.h ****                                               size_t                   size);
  94:../../../lib/pd2dsy/libdaisy/src/hid/audio.h **** 
  95:../../../lib/pd2dsy/libdaisy/src/hid/audio.h ****     AudioHandle() : pimpl_(nullptr) {}
  96:../../../lib/pd2dsy/libdaisy/src/hid/audio.h ****     ~AudioHandle() {}
 239              		.loc 15 96 5 is_stmt 1 view .LVU51
 240              		.loc 15 96 5 is_stmt 0 view .LVU52
 241              	.LBE539:
 242              	.LBE535:
 243              		.loc 5 39 8 view .LVU53
 244 0000 7047     		bx	lr
 245              		.cfi_endproc
 246              	.LFE3069:
 248              		.weak	_ZN10json2daisy8DaisyPodD1Ev
 249              		.thumb_set _ZN10json2daisy8DaisyPodD1Ev,_ZN10json2daisy8DaisyPodD2Ev
 250 0002 00BF     		.section	.text._ZNK5daisy11OledDisplayINS_13SSD130xDriverILj128ELj64ENS_24SSD130x4WireSpiTransport
 251              		.align	1
 252              		.p2align 2,,3
 253              		.weak	_ZNK5daisy11OledDisplayINS_13SSD130xDriverILj128ELj64ENS_24SSD130x4WireSpiTransportEEEE6Heig
 254              		.syntax unified
 255              		.thumb
 256              		.thumb_func
 258              	_ZNK5daisy11OledDisplayINS_13SSD130xDriverILj128ELj64ENS_24SSD130x4WireSpiTransportEEEE6HeightEv:
 259              	.LVL7:
 260              	.LFB3071:
  27:../../../lib/pd2dsy/libdaisy/src/hid/disp/oled_display.h ****     uint16_t Width() const override { return driver_.Width(); }
 261              		.loc 2 27 14 is_stmt 1 view -0
 262              		.cfi_startproc
 263              		@ args = 0, pretend = 0, frame = 0
 264              		@ frame_needed = 0, uses_anonymous_args = 0
 265              		@ link register save eliminated.
  27:../../../lib/pd2dsy/libdaisy/src/hid/disp/oled_display.h ****     uint16_t Width() const override { return driver_.Width(); }
 266              		.loc 2 27 65 is_stmt 0 view .LVU55
 267 0000 4020     		movs	r0, #64
ARM GAS  /var/folders/fb/yfxt3z4538j6z0vjt03w70vc0000gn/T//cc0qjWS6.s 			page 25


 268              	.LVL8:
  27:../../../lib/pd2dsy/libdaisy/src/hid/disp/oled_display.h ****     uint16_t Width() const override { return driver_.Width(); }
 269              		.loc 2 27 65 view .LVU56
 270 0002 7047     		bx	lr
 271              		.cfi_endproc
 272              	.LFE3071:
 274              		.section	.text._ZNK5daisy11OledDisplayINS_13SSD130xDriverILj128ELj64ENS_24SSD130x4WireSpiTransport
 275              		.align	1
 276              		.p2align 2,,3
 277              		.weak	_ZNK5daisy11OledDisplayINS_13SSD130xDriverILj128ELj64ENS_24SSD130x4WireSpiTransportEEEE5Widt
 278              		.syntax unified
 279              		.thumb
 280              		.thumb_func
 282              	_ZNK5daisy11OledDisplayINS_13SSD130xDriverILj128ELj64ENS_24SSD130x4WireSpiTransportEEEE5WidthEv:
 283              	.LVL9:
 284              	.LFB3072:
  28:../../../lib/pd2dsy/libdaisy/src/hid/disp/oled_display.h **** 
 285              		.loc 2 28 14 is_stmt 1 view -0
 286              		.cfi_startproc
 287              		@ args = 0, pretend = 0, frame = 0
 288              		@ frame_needed = 0, uses_anonymous_args = 0
 289              		@ link register save eliminated.
  28:../../../lib/pd2dsy/libdaisy/src/hid/disp/oled_display.h **** 
 290              		.loc 2 28 63 is_stmt 0 view .LVU58
 291 0000 8020     		movs	r0, #128
 292              	.LVL10:
  28:../../../lib/pd2dsy/libdaisy/src/hid/disp/oled_display.h **** 
 293              		.loc 2 28 63 view .LVU59
 294 0002 7047     		bx	lr
 295              		.cfi_endproc
 296              	.LFE3072:
 298              		.section	.text._ZN5daisy11OledDisplayINS_13SSD130xDriverILj128ELj64ENS_24SSD130x4WireSpiTransportE
 299              		.align	1
 300              		.p2align 2,,3
 301              		.weak	_ZN5daisy11OledDisplayINS_13SSD130xDriverILj128ELj64ENS_24SSD130x4WireSpiTransportEEEED0Ev
 302              		.syntax unified
 303              		.thumb
 304              		.thumb_func
 306              	_ZN5daisy11OledDisplayINS_13SSD130xDriverILj128ELj64ENS_24SSD130x4WireSpiTransportEEEED0Ev:
 307              	.LVL11:
 308              	.LFB3051:
  18:../../../lib/pd2dsy/libdaisy/src/hid/disp/oled_display.h **** 
 309              		.loc 2 18 13 is_stmt 1 view -0
 310              		.cfi_startproc
 311              		@ args = 0, pretend = 0, frame = 0
 312              		@ frame_needed = 0, uses_anonymous_args = 0
  18:../../../lib/pd2dsy/libdaisy/src/hid/disp/oled_display.h **** 
 313              		.loc 2 18 13 is_stmt 0 view .LVU61
 314 0000 10B5     		push	{r4, lr}
 315              		.cfi_def_cfa_offset 8
 316              		.cfi_offset 4, -8
 317              		.cfi_offset 14, -4
  18:../../../lib/pd2dsy/libdaisy/src/hid/disp/oled_display.h **** 
 318              		.loc 2 18 13 view .LVU62
 319 0002 0446     		mov	r4, r0
 320              	.LVL12:
 321              	.LBB540:
ARM GAS  /var/folders/fb/yfxt3z4538j6z0vjt03w70vc0000gn/T//cc0qjWS6.s 			page 26


 322              	.LBI540:
  18:../../../lib/pd2dsy/libdaisy/src/hid/disp/oled_display.h **** 
 323              		.loc 2 18 13 is_stmt 1 view .LVU63
 324              	.LBB541:
 325              	.LBI541:
 326              		.loc 4 219 13 view .LVU64
 327              	.LBB542:
 328              	.LBI542:
  23:../../../lib/pd2dsy/libdaisy/src/hid/disp/display.h **** 
 329              		.loc 4 23 13 view .LVU65
  23:../../../lib/pd2dsy/libdaisy/src/hid/disp/display.h **** 
 330              		.loc 4 23 13 is_stmt 0 view .LVU66
 331              	.LBE542:
 332              	.LBE541:
 333              	.LBE540:
  18:../../../lib/pd2dsy/libdaisy/src/hid/disp/oled_display.h **** 
 334              		.loc 2 18 29 view .LVU67
 335 0004 40F21441 		movw	r1, #1044
 336 0008 FFF7FEFF 		bl	_ZdlPvj
 337              	.LVL13:
  18:../../../lib/pd2dsy/libdaisy/src/hid/disp/oled_display.h **** 
 338              		.loc 2 18 29 view .LVU68
 339 000c 2046     		mov	r0, r4
 340 000e 10BD     		pop	{r4, pc}
  18:../../../lib/pd2dsy/libdaisy/src/hid/disp/oled_display.h **** 
 341              		.loc 2 18 29 view .LVU69
 342              		.cfi_endproc
 343              	.LFE3051:
 345              		.section	.text._ZN5daisy11OledDisplayINS_13SSD130xDriverILj128ELj64ENS_24SSD130x4WireSpiTransportE
 346              		.align	1
 347              		.p2align 2,,3
 348              		.weak	_ZN5daisy11OledDisplayINS_13SSD130xDriverILj128ELj64ENS_24SSD130x4WireSpiTransportEEEE6Updat
 349              		.syntax unified
 350              		.thumb
 351              		.thumb_func
 353              	_ZN5daisy11OledDisplayINS_13SSD130xDriverILj128ELj64ENS_24SSD130x4WireSpiTransportEEEE6UpdateEv:
 354              	.LVL14:
 355              	.LFB3038:
  35:../../../lib/pd2dsy/libdaisy/src/hid/disp/oled_display.h **** 
  36:../../../lib/pd2dsy/libdaisy/src/hid/disp/oled_display.h ****     /**
  37:../../../lib/pd2dsy/libdaisy/src/hid/disp/oled_display.h ****     Sets the pixel at the specified coordinate to be on/off.
  38:../../../lib/pd2dsy/libdaisy/src/hid/disp/oled_display.h ****     \param x   x Coordinate
  39:../../../lib/pd2dsy/libdaisy/src/hid/disp/oled_display.h ****     \param y   y coordinate
  40:../../../lib/pd2dsy/libdaisy/src/hid/disp/oled_display.h ****     \param on  on or off
  41:../../../lib/pd2dsy/libdaisy/src/hid/disp/oled_display.h ****     */
  42:../../../lib/pd2dsy/libdaisy/src/hid/disp/oled_display.h ****     void DrawPixel(uint_fast8_t x, uint_fast8_t y, bool on) override
  43:../../../lib/pd2dsy/libdaisy/src/hid/disp/oled_display.h ****     {
  44:../../../lib/pd2dsy/libdaisy/src/hid/disp/oled_display.h ****         driver_.DrawPixel(x, y, on);
  45:../../../lib/pd2dsy/libdaisy/src/hid/disp/oled_display.h ****     }
  46:../../../lib/pd2dsy/libdaisy/src/hid/disp/oled_display.h **** 
  47:../../../lib/pd2dsy/libdaisy/src/hid/disp/oled_display.h ****     /** 
  48:../../../lib/pd2dsy/libdaisy/src/hid/disp/oled_display.h ****     Writes the current display buffer to the OLED device using SPI or I2C depending on 
  49:../../../lib/pd2dsy/libdaisy/src/hid/disp/oled_display.h ****     how the object was initialized.
  50:../../../lib/pd2dsy/libdaisy/src/hid/disp/oled_display.h ****     */
  51:../../../lib/pd2dsy/libdaisy/src/hid/disp/oled_display.h ****     void Update() override { driver_.Update(); }
 356              		.loc 2 51 10 is_stmt 1 view -0
 357              		.cfi_startproc
ARM GAS  /var/folders/fb/yfxt3z4538j6z0vjt03w70vc0000gn/T//cc0qjWS6.s 			page 27


 358              		@ args = 0, pretend = 0, frame = 8
 359              		@ frame_needed = 0, uses_anonymous_args = 0
 360              	.LBB553:
 361              	.LBI553:
 267:../../../lib/pd2dsy/libdaisy/src/dev/oled_ssd130x.h ****         }
 268:../../../lib/pd2dsy/libdaisy/src/dev/oled_ssd130x.h ****     };
 269:../../../lib/pd2dsy/libdaisy/src/dev/oled_ssd130x.h **** 
 270:../../../lib/pd2dsy/libdaisy/src/dev/oled_ssd130x.h ****     /**
 271:../../../lib/pd2dsy/libdaisy/src/dev/oled_ssd130x.h ****      * Update the display 
 272:../../../lib/pd2dsy/libdaisy/src/dev/oled_ssd130x.h ****     */
 273:../../../lib/pd2dsy/libdaisy/src/dev/oled_ssd130x.h ****     void Update()
 362              		.loc 3 273 10 view .LVU71
 363              	.LBB554:
 274:../../../lib/pd2dsy/libdaisy/src/dev/oled_ssd130x.h ****     {
 275:../../../lib/pd2dsy/libdaisy/src/dev/oled_ssd130x.h ****         uint8_t i;
 276:../../../lib/pd2dsy/libdaisy/src/dev/oled_ssd130x.h ****         uint8_t high_column_addr;
 277:../../../lib/pd2dsy/libdaisy/src/dev/oled_ssd130x.h ****         switch(height)
 278:../../../lib/pd2dsy/libdaisy/src/dev/oled_ssd130x.h ****         {
 279:../../../lib/pd2dsy/libdaisy/src/dev/oled_ssd130x.h ****             case 32: high_column_addr = 0x12; break;
 280:../../../lib/pd2dsy/libdaisy/src/dev/oled_ssd130x.h **** 
 281:../../../lib/pd2dsy/libdaisy/src/dev/oled_ssd130x.h ****             default: high_column_addr = 0x10; break;
 282:../../../lib/pd2dsy/libdaisy/src/dev/oled_ssd130x.h ****         }
 283:../../../lib/pd2dsy/libdaisy/src/dev/oled_ssd130x.h ****         for(i = 0; i < (height / 8); i++)
 364              		.loc 3 283 22 view .LVU72
 365              	.LBE554:
 366              	.LBE553:
 367              		.loc 2 51 10 is_stmt 0 view .LVU73
 368 0000 2DE9F041 		push	{r4, r5, r6, r7, r8, lr}
 369              		.cfi_def_cfa_offset 24
 370              		.cfi_offset 4, -24
 371              		.cfi_offset 5, -20
 372              		.cfi_offset 6, -16
 373              		.cfi_offset 7, -12
 374              		.cfi_offset 8, -8
 375              		.cfi_offset 14, -4
 376              	.LBB576:
 377              	.LBB574:
 378              	.LBB555:
 379              	.LBB556:
 125:../../../lib/pd2dsy/libdaisy/src/dev/oled_ssd130x.h ****     };
 380              		.loc 3 125 30 view .LVU74
 381 0004 B024     		movs	r4, #176
 382              	.LBE556:
 383              	.LBE555:
 384              	.LBE574:
 385              	.LBE576:
 386              		.loc 2 51 10 view .LVU75
 387 0006 82B0     		sub	sp, sp, #8
 388              		.cfi_def_cfa_offset 32
 389              	.LBB577:
 390              	.LBB575:
 391              	.LBB561:
 392              	.LBB557:
 124:../../../lib/pd2dsy/libdaisy/src/dev/oled_ssd130x.h ****         spi_.BlockingTransmit(&cmd, 1);
 393              		.loc 3 124 24 view .LVU76
 394 0008 00F10806 		add	r6, r0, #8
 395 000c 00F11005 		add	r5, r0, #16
ARM GAS  /var/folders/fb/yfxt3z4538j6z0vjt03w70vc0000gn/T//cc0qjWS6.s 			page 28


 396 0010 00F11408 		add	r8, r0, #20
 397              	.LVL15:
 398              	.L11:
 124:../../../lib/pd2dsy/libdaisy/src/dev/oled_ssd130x.h ****         spi_.BlockingTransmit(&cmd, 1);
 399              		.loc 3 124 24 view .LVU77
 400 0014 0027     		movs	r7, #0
 124:../../../lib/pd2dsy/libdaisy/src/dev/oled_ssd130x.h ****         spi_.BlockingTransmit(&cmd, 1);
 401              		.loc 3 124 23 view .LVU78
 402 0016 2846     		mov	r0, r5
 403 0018 8DF80740 		strb	r4, [sp, #7]
 404              	.LVL16:
 124:../../../lib/pd2dsy/libdaisy/src/dev/oled_ssd130x.h ****         spi_.BlockingTransmit(&cmd, 1);
 405              		.loc 3 124 23 view .LVU79
 406              	.LBE557:
 407              	.LBI555:
 122:../../../lib/pd2dsy/libdaisy/src/dev/oled_ssd130x.h ****     {
 408              		.loc 3 122 10 is_stmt 1 view .LVU80
 409              	.LBB558:
 124:../../../lib/pd2dsy/libdaisy/src/dev/oled_ssd130x.h ****         spi_.BlockingTransmit(&cmd, 1);
 410              		.loc 3 124 9 view .LVU81
 411              	.LBE558:
 412              	.LBE561:
 413              		.loc 3 283 22 is_stmt 0 view .LVU82
 414 001c 0134     		adds	r4, r4, #1
 415              	.LVL17:
 416              	.LBB562:
 417              	.LBB559:
 124:../../../lib/pd2dsy/libdaisy/src/dev/oled_ssd130x.h ****         spi_.BlockingTransmit(&cmd, 1);
 418              		.loc 3 124 23 view .LVU83
 419 001e 3946     		mov	r1, r7
 420 0020 FFF7FEFF 		bl	dsy_gpio_write
 421              	.LVL18:
 125:../../../lib/pd2dsy/libdaisy/src/dev/oled_ssd130x.h ****     };
 422              		.loc 3 125 9 is_stmt 1 view .LVU84
 125:../../../lib/pd2dsy/libdaisy/src/dev/oled_ssd130x.h ****     };
 423              		.loc 3 125 30 is_stmt 0 view .LVU85
 424 0024 6423     		movs	r3, #100
 425 0026 0122     		movs	r2, #1
 426 0028 0DF10701 		add	r1, sp, #7
 427 002c 3046     		mov	r0, r6
 428              	.LBE559:
 429              	.LBE562:
 430              		.loc 3 283 22 view .LVU86
 431 002e E4B2     		uxtb	r4, r4
 432              	.LBB563:
 433              	.LBB560:
 125:../../../lib/pd2dsy/libdaisy/src/dev/oled_ssd130x.h ****     };
 434              		.loc 3 125 30 view .LVU87
 435 0030 FFF7FEFF 		bl	_ZN5daisy9SpiHandle16BlockingTransmitEPhjm
 436              	.LVL19:
 125:../../../lib/pd2dsy/libdaisy/src/dev/oled_ssd130x.h ****     };
 437              		.loc 3 125 30 view .LVU88
 438              	.LBE560:
 439              	.LBE563:
 440              	.LBB564:
 441              	.LBB565:
 124:../../../lib/pd2dsy/libdaisy/src/dev/oled_ssd130x.h ****         spi_.BlockingTransmit(&cmd, 1);
ARM GAS  /var/folders/fb/yfxt3z4538j6z0vjt03w70vc0000gn/T//cc0qjWS6.s 			page 29


 442              		.loc 3 124 23 view .LVU89
 443 0034 3946     		mov	r1, r7
 444 0036 2846     		mov	r0, r5
 445 0038 8DF80770 		strb	r7, [sp, #7]
 446              	.LVL20:
 124:../../../lib/pd2dsy/libdaisy/src/dev/oled_ssd130x.h ****         spi_.BlockingTransmit(&cmd, 1);
 447              		.loc 3 124 23 view .LVU90
 448              	.LBE565:
 449              	.LBI564:
 122:../../../lib/pd2dsy/libdaisy/src/dev/oled_ssd130x.h ****     {
 450              		.loc 3 122 10 is_stmt 1 view .LVU91
 451              	.LBB566:
 124:../../../lib/pd2dsy/libdaisy/src/dev/oled_ssd130x.h ****         spi_.BlockingTransmit(&cmd, 1);
 452              		.loc 3 124 9 view .LVU92
 124:../../../lib/pd2dsy/libdaisy/src/dev/oled_ssd130x.h ****         spi_.BlockingTransmit(&cmd, 1);
 453              		.loc 3 124 23 is_stmt 0 view .LVU93
 454 003c FFF7FEFF 		bl	dsy_gpio_write
 455              	.LVL21:
 125:../../../lib/pd2dsy/libdaisy/src/dev/oled_ssd130x.h ****     };
 456              		.loc 3 125 9 is_stmt 1 view .LVU94
 125:../../../lib/pd2dsy/libdaisy/src/dev/oled_ssd130x.h ****     };
 457              		.loc 3 125 30 is_stmt 0 view .LVU95
 458 0040 0122     		movs	r2, #1
 459 0042 6423     		movs	r3, #100
 460 0044 0DF10701 		add	r1, sp, #7
 461 0048 3046     		mov	r0, r6
 462 004a FFF7FEFF 		bl	_ZN5daisy9SpiHandle16BlockingTransmitEPhjm
 463              	.LVL22:
 125:../../../lib/pd2dsy/libdaisy/src/dev/oled_ssd130x.h ****     };
 464              		.loc 3 125 30 view .LVU96
 465 004e 1023     		movs	r3, #16
 466              	.LBE566:
 467              	.LBE564:
 468              	.LBB567:
 469              	.LBB568:
 124:../../../lib/pd2dsy/libdaisy/src/dev/oled_ssd130x.h ****         spi_.BlockingTransmit(&cmd, 1);
 470              		.loc 3 124 23 view .LVU97
 471 0050 3946     		mov	r1, r7
 472 0052 2846     		mov	r0, r5
 473 0054 8DF80730 		strb	r3, [sp, #7]
 474              	.LVL23:
 124:../../../lib/pd2dsy/libdaisy/src/dev/oled_ssd130x.h ****         spi_.BlockingTransmit(&cmd, 1);
 475              		.loc 3 124 23 view .LVU98
 476              	.LBE568:
 477              	.LBI567:
 122:../../../lib/pd2dsy/libdaisy/src/dev/oled_ssd130x.h ****     {
 478              		.loc 3 122 10 is_stmt 1 view .LVU99
 479              	.LBB569:
 124:../../../lib/pd2dsy/libdaisy/src/dev/oled_ssd130x.h ****         spi_.BlockingTransmit(&cmd, 1);
 480              		.loc 3 124 9 view .LVU100
 124:../../../lib/pd2dsy/libdaisy/src/dev/oled_ssd130x.h ****         spi_.BlockingTransmit(&cmd, 1);
 481              		.loc 3 124 23 is_stmt 0 view .LVU101
 482 0058 FFF7FEFF 		bl	dsy_gpio_write
 483              	.LVL24:
 125:../../../lib/pd2dsy/libdaisy/src/dev/oled_ssd130x.h ****     };
 484              		.loc 3 125 9 is_stmt 1 view .LVU102
 125:../../../lib/pd2dsy/libdaisy/src/dev/oled_ssd130x.h ****     };
ARM GAS  /var/folders/fb/yfxt3z4538j6z0vjt03w70vc0000gn/T//cc0qjWS6.s 			page 30


 485              		.loc 3 125 30 is_stmt 0 view .LVU103
 486 005c 6423     		movs	r3, #100
 487 005e 0122     		movs	r2, #1
 488 0060 0DF10701 		add	r1, sp, #7
 489 0064 3046     		mov	r0, r6
 490 0066 FFF7FEFF 		bl	_ZN5daisy9SpiHandle16BlockingTransmitEPhjm
 491              	.LVL25:
 125:../../../lib/pd2dsy/libdaisy/src/dev/oled_ssd130x.h ****     };
 492              		.loc 3 125 30 view .LVU104
 493              	.LBE569:
 494              	.LBE567:
 495              	.LBB570:
 496              	.LBI570:
 128:../../../lib/pd2dsy/libdaisy/src/dev/oled_ssd130x.h ****     {
 497              		.loc 3 128 10 is_stmt 1 view .LVU105
 498              	.LBB571:
 130:../../../lib/pd2dsy/libdaisy/src/dev/oled_ssd130x.h ****         spi_.BlockingTransmit(buff, size);
 499              		.loc 3 130 9 view .LVU106
 130:../../../lib/pd2dsy/libdaisy/src/dev/oled_ssd130x.h ****         spi_.BlockingTransmit(buff, size);
 500              		.loc 3 130 23 is_stmt 0 view .LVU107
 501 006a 0121     		movs	r1, #1
 502 006c 2846     		mov	r0, r5
 503 006e FFF7FEFF 		bl	dsy_gpio_write
 504              	.LVL26:
 131:../../../lib/pd2dsy/libdaisy/src/dev/oled_ssd130x.h ****     };
 505              		.loc 3 131 9 is_stmt 1 view .LVU108
 131:../../../lib/pd2dsy/libdaisy/src/dev/oled_ssd130x.h ****     };
 506              		.loc 3 131 30 is_stmt 0 view .LVU109
 507 0072 8022     		movs	r2, #128
 508 0074 4146     		mov	r1, r8
 509 0076 6423     		movs	r3, #100
 510 0078 3046     		mov	r0, r6
 511              	.LBE571:
 512              	.LBE570:
 513              		.loc 3 283 22 view .LVU110
 514 007a 9044     		add	r8, r8, r2
 515              	.LVL27:
 516              	.LBB573:
 517              	.LBB572:
 131:../../../lib/pd2dsy/libdaisy/src/dev/oled_ssd130x.h ****     };
 518              		.loc 3 131 30 view .LVU111
 519 007c FFF7FEFF 		bl	_ZN5daisy9SpiHandle16BlockingTransmitEPhjm
 520              	.LVL28:
 131:../../../lib/pd2dsy/libdaisy/src/dev/oled_ssd130x.h ****     };
 521              		.loc 3 131 30 view .LVU112
 522              	.LBE572:
 523              	.LBE573:
 524              		.loc 3 283 9 is_stmt 1 view .LVU113
 525              		.loc 3 283 22 view .LVU114
 526 0080 B82C     		cmp	r4, #184
 527 0082 C7D1     		bne	.L11
 528              	.LBE575:
 529              	.LBE577:
 530              		.loc 2 51 48 is_stmt 0 view .LVU115
 531 0084 02B0     		add	sp, sp, #8
 532              		.cfi_def_cfa_offset 24
 533              		@ sp needed
ARM GAS  /var/folders/fb/yfxt3z4538j6z0vjt03w70vc0000gn/T//cc0qjWS6.s 			page 31


 534 0086 BDE8F081 		pop	{r4, r5, r6, r7, r8, pc}
 535              		.loc 2 51 48 view .LVU116
 536              		.cfi_endproc
 537              	.LFE3038:
 539 008a 00BF     		.section	.text._ZN5daisy25OneBitGraphicsDisplayImplINS_11OledDisplayINS_13SSD130xDriverILj128ELj64
 540              		.align	1
 541              		.p2align 2,,3
 542              		.weak	_ZN5daisy25OneBitGraphicsDisplayImplINS_11OledDisplayINS_13SSD130xDriverILj128ELj64ENS_24SSD
 543              		.syntax unified
 544              		.thumb
 545              		.thumb_func
 547              	_ZN5daisy25OneBitGraphicsDisplayImplINS_11OledDisplayINS_13SSD130xDriverILj128ELj64ENS_24SSD130x4Wi
 548              	.LVL29:
 549              	.LFB3078:
 220:../../../lib/pd2dsy/libdaisy/src/hid/disp/display.h **** 
 221:../../../lib/pd2dsy/libdaisy/src/hid/disp/display.h ****     void DrawLine(uint_fast8_t x1,
 222:../../../lib/pd2dsy/libdaisy/src/hid/disp/display.h ****                   uint_fast8_t y1,
 223:../../../lib/pd2dsy/libdaisy/src/hid/disp/display.h ****                   uint_fast8_t x2,
 224:../../../lib/pd2dsy/libdaisy/src/hid/disp/display.h ****                   uint_fast8_t y2,
 225:../../../lib/pd2dsy/libdaisy/src/hid/disp/display.h ****                   bool         on) override
 226:../../../lib/pd2dsy/libdaisy/src/hid/disp/display.h ****     {
 227:../../../lib/pd2dsy/libdaisy/src/hid/disp/display.h ****         int_fast16_t deltaX = abs((int_fast16_t)x2 - (int_fast16_t)x1);
 228:../../../lib/pd2dsy/libdaisy/src/hid/disp/display.h ****         int_fast16_t deltaY = abs((int_fast16_t)y2 - (int_fast16_t)y1);
 229:../../../lib/pd2dsy/libdaisy/src/hid/disp/display.h ****         int_fast16_t signX  = ((x1 < x2) ? 1 : -1);
 230:../../../lib/pd2dsy/libdaisy/src/hid/disp/display.h ****         int_fast16_t signY  = ((y1 < y2) ? 1 : -1);
 231:../../../lib/pd2dsy/libdaisy/src/hid/disp/display.h ****         int_fast16_t error  = deltaX - deltaY;
 232:../../../lib/pd2dsy/libdaisy/src/hid/disp/display.h ****         int_fast16_t error2;
 233:../../../lib/pd2dsy/libdaisy/src/hid/disp/display.h **** 
 234:../../../lib/pd2dsy/libdaisy/src/hid/disp/display.h ****         // If we write "ChildType::DrawPixel(x2, y2, on);", we end up with
 235:../../../lib/pd2dsy/libdaisy/src/hid/disp/display.h ****         // all sorts of weird compiler errors when the Child class is a template
 236:../../../lib/pd2dsy/libdaisy/src/hid/disp/display.h ****         // class. The only way around this is to use this very verbose syntax:
 237:../../../lib/pd2dsy/libdaisy/src/hid/disp/display.h ****         ((ChildType*)(this))->ChildType::DrawPixel(x2, y2, on);
 238:../../../lib/pd2dsy/libdaisy/src/hid/disp/display.h **** 
 239:../../../lib/pd2dsy/libdaisy/src/hid/disp/display.h ****         while((x1 != x2) || (y1 != y2))
 240:../../../lib/pd2dsy/libdaisy/src/hid/disp/display.h ****         {
 241:../../../lib/pd2dsy/libdaisy/src/hid/disp/display.h ****             ((ChildType*)(this))->ChildType::DrawPixel(x1, y1, on);
 242:../../../lib/pd2dsy/libdaisy/src/hid/disp/display.h ****             error2 = error * 2;
 243:../../../lib/pd2dsy/libdaisy/src/hid/disp/display.h ****             if(error2 > -deltaY)
 244:../../../lib/pd2dsy/libdaisy/src/hid/disp/display.h ****             {
 245:../../../lib/pd2dsy/libdaisy/src/hid/disp/display.h ****                 error -= deltaY;
 246:../../../lib/pd2dsy/libdaisy/src/hid/disp/display.h ****                 x1 += signX;
 247:../../../lib/pd2dsy/libdaisy/src/hid/disp/display.h ****             }
 248:../../../lib/pd2dsy/libdaisy/src/hid/disp/display.h **** 
 249:../../../lib/pd2dsy/libdaisy/src/hid/disp/display.h ****             if(error2 < deltaX)
 250:../../../lib/pd2dsy/libdaisy/src/hid/disp/display.h ****             {
 251:../../../lib/pd2dsy/libdaisy/src/hid/disp/display.h ****                 error += deltaX;
 252:../../../lib/pd2dsy/libdaisy/src/hid/disp/display.h ****                 y1 += signY;
 253:../../../lib/pd2dsy/libdaisy/src/hid/disp/display.h ****             }
 254:../../../lib/pd2dsy/libdaisy/src/hid/disp/display.h ****         }
 255:../../../lib/pd2dsy/libdaisy/src/hid/disp/display.h ****     }
 256:../../../lib/pd2dsy/libdaisy/src/hid/disp/display.h **** 
 257:../../../lib/pd2dsy/libdaisy/src/hid/disp/display.h ****     void DrawRect(uint_fast8_t x1,
 258:../../../lib/pd2dsy/libdaisy/src/hid/disp/display.h ****                   uint_fast8_t y1,
 259:../../../lib/pd2dsy/libdaisy/src/hid/disp/display.h ****                   uint_fast8_t x2,
 260:../../../lib/pd2dsy/libdaisy/src/hid/disp/display.h ****                   uint_fast8_t y2,
 261:../../../lib/pd2dsy/libdaisy/src/hid/disp/display.h ****                   bool         on,
 262:../../../lib/pd2dsy/libdaisy/src/hid/disp/display.h ****                   bool         fill = false) override
ARM GAS  /var/folders/fb/yfxt3z4538j6z0vjt03w70vc0000gn/T//cc0qjWS6.s 			page 32


 263:../../../lib/pd2dsy/libdaisy/src/hid/disp/display.h ****     {
 264:../../../lib/pd2dsy/libdaisy/src/hid/disp/display.h ****         if(fill)
 265:../../../lib/pd2dsy/libdaisy/src/hid/disp/display.h ****         {
 266:../../../lib/pd2dsy/libdaisy/src/hid/disp/display.h ****             for(uint_fast8_t x = x1; x <= x2; x++)
 267:../../../lib/pd2dsy/libdaisy/src/hid/disp/display.h ****             {
 268:../../../lib/pd2dsy/libdaisy/src/hid/disp/display.h ****                 for(uint_fast8_t y = y1; y <= y2; y++)
 269:../../../lib/pd2dsy/libdaisy/src/hid/disp/display.h ****                 {
 270:../../../lib/pd2dsy/libdaisy/src/hid/disp/display.h ****                     ((ChildType*)(this))->ChildType::DrawPixel(x, y, on);
 271:../../../lib/pd2dsy/libdaisy/src/hid/disp/display.h ****                 }
 272:../../../lib/pd2dsy/libdaisy/src/hid/disp/display.h ****             }
 273:../../../lib/pd2dsy/libdaisy/src/hid/disp/display.h ****         }
 274:../../../lib/pd2dsy/libdaisy/src/hid/disp/display.h ****         else
 275:../../../lib/pd2dsy/libdaisy/src/hid/disp/display.h ****         {
 276:../../../lib/pd2dsy/libdaisy/src/hid/disp/display.h ****             ((ChildType*)(this))->ChildType::DrawLine(x1, y1, x2, y1, on);
 277:../../../lib/pd2dsy/libdaisy/src/hid/disp/display.h ****             ((ChildType*)(this))->ChildType::DrawLine(x2, y1, x2, y2, on);
 278:../../../lib/pd2dsy/libdaisy/src/hid/disp/display.h ****             ((ChildType*)(this))->ChildType::DrawLine(x2, y2, x1, y2, on);
 279:../../../lib/pd2dsy/libdaisy/src/hid/disp/display.h ****             ((ChildType*)(this))->ChildType::DrawLine(x1, y2, x1, y1, on);
 280:../../../lib/pd2dsy/libdaisy/src/hid/disp/display.h ****         }
 281:../../../lib/pd2dsy/libdaisy/src/hid/disp/display.h ****     }
 282:../../../lib/pd2dsy/libdaisy/src/hid/disp/display.h **** 
 283:../../../lib/pd2dsy/libdaisy/src/hid/disp/display.h ****     void DrawArc(uint_fast8_t x,
 284:../../../lib/pd2dsy/libdaisy/src/hid/disp/display.h ****                  uint_fast8_t y,
 285:../../../lib/pd2dsy/libdaisy/src/hid/disp/display.h ****                  uint_fast8_t radius,
 286:../../../lib/pd2dsy/libdaisy/src/hid/disp/display.h ****                  int_fast16_t start_angle,
 287:../../../lib/pd2dsy/libdaisy/src/hid/disp/display.h ****                  int_fast16_t sweep,
 288:../../../lib/pd2dsy/libdaisy/src/hid/disp/display.h ****                  bool         on) override
 289:../../../lib/pd2dsy/libdaisy/src/hid/disp/display.h ****     {
 290:../../../lib/pd2dsy/libdaisy/src/hid/disp/display.h ****         // Values to calculate the circle
 291:../../../lib/pd2dsy/libdaisy/src/hid/disp/display.h ****         int_fast16_t t_x, t_y, err, e2;
 292:../../../lib/pd2dsy/libdaisy/src/hid/disp/display.h **** 
 293:../../../lib/pd2dsy/libdaisy/src/hid/disp/display.h ****         // Temporary values to speed up comparisons
 294:../../../lib/pd2dsy/libdaisy/src/hid/disp/display.h ****         float t_sxy, t_syx, t_sxny, t_synx;
 295:../../../lib/pd2dsy/libdaisy/src/hid/disp/display.h ****         float t_exy, t_eyx, t_exny, t_eynx;
 296:../../../lib/pd2dsy/libdaisy/src/hid/disp/display.h **** 
 297:../../../lib/pd2dsy/libdaisy/src/hid/disp/display.h ****         float start_angle_rad, end_angle_rad;
 298:../../../lib/pd2dsy/libdaisy/src/hid/disp/display.h ****         float start_x, start_y, end_x, end_y;
 299:../../../lib/pd2dsy/libdaisy/src/hid/disp/display.h **** 
 300:../../../lib/pd2dsy/libdaisy/src/hid/disp/display.h ****         bool d1, d2, d3, d4;
 301:../../../lib/pd2dsy/libdaisy/src/hid/disp/display.h **** 
 302:../../../lib/pd2dsy/libdaisy/src/hid/disp/display.h ****         d1 = d2 = d3 = d4 = true;
 303:../../../lib/pd2dsy/libdaisy/src/hid/disp/display.h **** 
 304:../../../lib/pd2dsy/libdaisy/src/hid/disp/display.h ****         bool circle = false;
 305:../../../lib/pd2dsy/libdaisy/src/hid/disp/display.h **** 
 306:../../../lib/pd2dsy/libdaisy/src/hid/disp/display.h ****         if(sweep < 0)
 307:../../../lib/pd2dsy/libdaisy/src/hid/disp/display.h ****         {
 308:../../../lib/pd2dsy/libdaisy/src/hid/disp/display.h ****             start_angle += sweep;
 309:../../../lib/pd2dsy/libdaisy/src/hid/disp/display.h ****             sweep = -sweep;
 310:../../../lib/pd2dsy/libdaisy/src/hid/disp/display.h ****         }
 311:../../../lib/pd2dsy/libdaisy/src/hid/disp/display.h **** 
 312:../../../lib/pd2dsy/libdaisy/src/hid/disp/display.h ****         start_angle_rad = deg2rad(start_angle);
 313:../../../lib/pd2dsy/libdaisy/src/hid/disp/display.h ****         end_angle_rad   = deg2rad(start_angle + sweep);
 314:../../../lib/pd2dsy/libdaisy/src/hid/disp/display.h **** 
 315:../../../lib/pd2dsy/libdaisy/src/hid/disp/display.h ****         start_x = cos(start_angle_rad) * radius;
 316:../../../lib/pd2dsy/libdaisy/src/hid/disp/display.h ****         start_y = -sin(start_angle_rad) * radius;
 317:../../../lib/pd2dsy/libdaisy/src/hid/disp/display.h ****         end_x   = cos(end_angle_rad) * radius;
 318:../../../lib/pd2dsy/libdaisy/src/hid/disp/display.h ****         end_y   = -sin(end_angle_rad) * radius;
 319:../../../lib/pd2dsy/libdaisy/src/hid/disp/display.h **** 
ARM GAS  /var/folders/fb/yfxt3z4538j6z0vjt03w70vc0000gn/T//cc0qjWS6.s 			page 33


 320:../../../lib/pd2dsy/libdaisy/src/hid/disp/display.h ****         // Check if start and endpoint are very near
 321:../../../lib/pd2dsy/libdaisy/src/hid/disp/display.h ****         if((end_x - start_x) * (end_x - start_x)
 322:../../../lib/pd2dsy/libdaisy/src/hid/disp/display.h ****                + (end_y - start_y) * (end_y - start_y)
 323:../../../lib/pd2dsy/libdaisy/src/hid/disp/display.h ****            < 2.0f)
 324:../../../lib/pd2dsy/libdaisy/src/hid/disp/display.h ****         {
 325:../../../lib/pd2dsy/libdaisy/src/hid/disp/display.h ****             if(sweep > 180)
 326:../../../lib/pd2dsy/libdaisy/src/hid/disp/display.h ****                 circle = true;
 327:../../../lib/pd2dsy/libdaisy/src/hid/disp/display.h ****             else
 328:../../../lib/pd2dsy/libdaisy/src/hid/disp/display.h ****                 // Nothing to draw
 329:../../../lib/pd2dsy/libdaisy/src/hid/disp/display.h ****                 return;
 330:../../../lib/pd2dsy/libdaisy/src/hid/disp/display.h ****         }
 331:../../../lib/pd2dsy/libdaisy/src/hid/disp/display.h **** 
 332:../../../lib/pd2dsy/libdaisy/src/hid/disp/display.h ****         t_x = -radius;
 333:../../../lib/pd2dsy/libdaisy/src/hid/disp/display.h ****         t_y = 0;
 334:../../../lib/pd2dsy/libdaisy/src/hid/disp/display.h ****         err = 2 - 2 * radius;
 335:../../../lib/pd2dsy/libdaisy/src/hid/disp/display.h **** 
 336:../../../lib/pd2dsy/libdaisy/src/hid/disp/display.h ****         do
 337:../../../lib/pd2dsy/libdaisy/src/hid/disp/display.h ****         {
 338:../../../lib/pd2dsy/libdaisy/src/hid/disp/display.h ****             if(!circle)
 339:../../../lib/pd2dsy/libdaisy/src/hid/disp/display.h ****             {
 340:../../../lib/pd2dsy/libdaisy/src/hid/disp/display.h ****                 t_sxy  = start_x * t_y;
 341:../../../lib/pd2dsy/libdaisy/src/hid/disp/display.h ****                 t_syx  = start_y * t_x;
 342:../../../lib/pd2dsy/libdaisy/src/hid/disp/display.h ****                 t_sxny = start_x * -t_y;
 343:../../../lib/pd2dsy/libdaisy/src/hid/disp/display.h ****                 t_synx = start_y * -t_x;
 344:../../../lib/pd2dsy/libdaisy/src/hid/disp/display.h ****                 t_exy  = end_x * t_y;
 345:../../../lib/pd2dsy/libdaisy/src/hid/disp/display.h ****                 t_eyx  = end_y * t_x;
 346:../../../lib/pd2dsy/libdaisy/src/hid/disp/display.h ****                 t_exny = end_x * -t_y;
 347:../../../lib/pd2dsy/libdaisy/src/hid/disp/display.h ****                 t_eynx = end_y * -t_x;
 348:../../../lib/pd2dsy/libdaisy/src/hid/disp/display.h **** 
 349:../../../lib/pd2dsy/libdaisy/src/hid/disp/display.h ****                 if(sweep > 180)
 350:../../../lib/pd2dsy/libdaisy/src/hid/disp/display.h ****                 {
 351:../../../lib/pd2dsy/libdaisy/src/hid/disp/display.h ****                     d1 = (t_sxy - t_synx < 0 || t_exy - t_eynx > 0);
 352:../../../lib/pd2dsy/libdaisy/src/hid/disp/display.h ****                     d2 = (t_sxy - t_syx < 0 || t_exy - t_eyx > 0);
 353:../../../lib/pd2dsy/libdaisy/src/hid/disp/display.h ****                     d3 = (t_sxny - t_syx < 0 || t_exny - t_eyx > 0);
 354:../../../lib/pd2dsy/libdaisy/src/hid/disp/display.h ****                     d4 = (t_sxny - t_synx < 0 || t_exny - t_eynx > 0);
 355:../../../lib/pd2dsy/libdaisy/src/hid/disp/display.h ****                 }
 356:../../../lib/pd2dsy/libdaisy/src/hid/disp/display.h ****                 else
 357:../../../lib/pd2dsy/libdaisy/src/hid/disp/display.h ****                 {
 358:../../../lib/pd2dsy/libdaisy/src/hid/disp/display.h ****                     d1 = (t_sxy - t_synx < 0 && t_exy - t_eynx > 0);
 359:../../../lib/pd2dsy/libdaisy/src/hid/disp/display.h ****                     d2 = (t_sxy - t_syx < 0 && t_exy - t_eyx > 0);
 360:../../../lib/pd2dsy/libdaisy/src/hid/disp/display.h ****                     d3 = (t_sxny - t_syx < 0 && t_exny - t_eyx > 0);
 361:../../../lib/pd2dsy/libdaisy/src/hid/disp/display.h ****                     d4 = (t_sxny - t_synx < 0 && t_exny - t_eynx > 0);
 362:../../../lib/pd2dsy/libdaisy/src/hid/disp/display.h ****                 }
 363:../../../lib/pd2dsy/libdaisy/src/hid/disp/display.h ****             }
 364:../../../lib/pd2dsy/libdaisy/src/hid/disp/display.h **** 
 365:../../../lib/pd2dsy/libdaisy/src/hid/disp/display.h ****             if(d1)
 366:../../../lib/pd2dsy/libdaisy/src/hid/disp/display.h ****                 ((ChildType*)(this))
 367:../../../lib/pd2dsy/libdaisy/src/hid/disp/display.h ****                     ->ChildType::DrawPixel(x - t_x, y + t_y, on);
 368:../../../lib/pd2dsy/libdaisy/src/hid/disp/display.h ****             if(d2)
 369:../../../lib/pd2dsy/libdaisy/src/hid/disp/display.h ****                 ((ChildType*)(this))
 370:../../../lib/pd2dsy/libdaisy/src/hid/disp/display.h ****                     ->ChildType::DrawPixel(x + t_x, y + t_y, on);
 371:../../../lib/pd2dsy/libdaisy/src/hid/disp/display.h ****             if(d3)
 372:../../../lib/pd2dsy/libdaisy/src/hid/disp/display.h ****                 ((ChildType*)(this))
 373:../../../lib/pd2dsy/libdaisy/src/hid/disp/display.h ****                     ->ChildType::DrawPixel(x + t_x, y - t_y, on);
 374:../../../lib/pd2dsy/libdaisy/src/hid/disp/display.h ****             if(d4)
 375:../../../lib/pd2dsy/libdaisy/src/hid/disp/display.h ****                 ((ChildType*)(this))
 376:../../../lib/pd2dsy/libdaisy/src/hid/disp/display.h ****                     ->ChildType::DrawPixel(x - t_x, y - t_y, on);
ARM GAS  /var/folders/fb/yfxt3z4538j6z0vjt03w70vc0000gn/T//cc0qjWS6.s 			page 34


 377:../../../lib/pd2dsy/libdaisy/src/hid/disp/display.h **** 
 378:../../../lib/pd2dsy/libdaisy/src/hid/disp/display.h ****             e2 = err;
 379:../../../lib/pd2dsy/libdaisy/src/hid/disp/display.h ****             if(e2 <= t_y)
 380:../../../lib/pd2dsy/libdaisy/src/hid/disp/display.h ****             {
 381:../../../lib/pd2dsy/libdaisy/src/hid/disp/display.h ****                 t_y++;
 382:../../../lib/pd2dsy/libdaisy/src/hid/disp/display.h ****                 err = err + (t_y * 2 + 1);
 383:../../../lib/pd2dsy/libdaisy/src/hid/disp/display.h ****                 if(-t_x == t_y && e2 <= t_x)
 384:../../../lib/pd2dsy/libdaisy/src/hid/disp/display.h ****                 {
 385:../../../lib/pd2dsy/libdaisy/src/hid/disp/display.h ****                     e2 = 0;
 386:../../../lib/pd2dsy/libdaisy/src/hid/disp/display.h ****                 }
 387:../../../lib/pd2dsy/libdaisy/src/hid/disp/display.h ****             }
 388:../../../lib/pd2dsy/libdaisy/src/hid/disp/display.h ****             if(e2 > t_x)
 389:../../../lib/pd2dsy/libdaisy/src/hid/disp/display.h ****             {
 390:../../../lib/pd2dsy/libdaisy/src/hid/disp/display.h ****                 t_x++;
 391:../../../lib/pd2dsy/libdaisy/src/hid/disp/display.h ****                 err = err + (t_x * 2 + 1);
 392:../../../lib/pd2dsy/libdaisy/src/hid/disp/display.h ****             }
 393:../../../lib/pd2dsy/libdaisy/src/hid/disp/display.h ****         } while(t_x <= 0);
 394:../../../lib/pd2dsy/libdaisy/src/hid/disp/display.h ****     }
 395:../../../lib/pd2dsy/libdaisy/src/hid/disp/display.h **** 
 396:../../../lib/pd2dsy/libdaisy/src/hid/disp/display.h ****     char WriteChar(char ch, FontDef font, bool on) override
 397:../../../lib/pd2dsy/libdaisy/src/hid/disp/display.h ****     {
 398:../../../lib/pd2dsy/libdaisy/src/hid/disp/display.h ****         uint32_t i, b, j;
 399:../../../lib/pd2dsy/libdaisy/src/hid/disp/display.h **** 
 400:../../../lib/pd2dsy/libdaisy/src/hid/disp/display.h ****         // Check if character is valid
 401:../../../lib/pd2dsy/libdaisy/src/hid/disp/display.h ****         if(ch < 32 || ch > 126)
 402:../../../lib/pd2dsy/libdaisy/src/hid/disp/display.h ****             return 0;
 403:../../../lib/pd2dsy/libdaisy/src/hid/disp/display.h **** 
 404:../../../lib/pd2dsy/libdaisy/src/hid/disp/display.h ****         // Check remaining space on current line
 405:../../../lib/pd2dsy/libdaisy/src/hid/disp/display.h ****         if(Width() < (currentX_ + font.FontWidth)
 406:../../../lib/pd2dsy/libdaisy/src/hid/disp/display.h ****            || Height() < (currentY_ + font.FontHeight))
 407:../../../lib/pd2dsy/libdaisy/src/hid/disp/display.h ****         {
 408:../../../lib/pd2dsy/libdaisy/src/hid/disp/display.h ****             // Not enough space on current line
 409:../../../lib/pd2dsy/libdaisy/src/hid/disp/display.h ****             return 0;
 410:../../../lib/pd2dsy/libdaisy/src/hid/disp/display.h ****         }
 411:../../../lib/pd2dsy/libdaisy/src/hid/disp/display.h **** 
 412:../../../lib/pd2dsy/libdaisy/src/hid/disp/display.h ****         // Use the font to write
 413:../../../lib/pd2dsy/libdaisy/src/hid/disp/display.h ****         for(i = 0; i < font.FontHeight; i++)
 414:../../../lib/pd2dsy/libdaisy/src/hid/disp/display.h ****         {
 415:../../../lib/pd2dsy/libdaisy/src/hid/disp/display.h ****             b = font.data[(ch - 32) * font.FontHeight + i];
 416:../../../lib/pd2dsy/libdaisy/src/hid/disp/display.h ****             for(j = 0; j < font.FontWidth; j++)
 417:../../../lib/pd2dsy/libdaisy/src/hid/disp/display.h ****             {
 418:../../../lib/pd2dsy/libdaisy/src/hid/disp/display.h ****                 if((b << j) & 0x8000)
 419:../../../lib/pd2dsy/libdaisy/src/hid/disp/display.h ****                 {
 420:../../../lib/pd2dsy/libdaisy/src/hid/disp/display.h ****                     ((ChildType*)(this))
 421:../../../lib/pd2dsy/libdaisy/src/hid/disp/display.h ****                         ->ChildType::DrawPixel(
 422:../../../lib/pd2dsy/libdaisy/src/hid/disp/display.h ****                             currentX_ + j, (currentY_ + i), on);
 423:../../../lib/pd2dsy/libdaisy/src/hid/disp/display.h ****                 }
 424:../../../lib/pd2dsy/libdaisy/src/hid/disp/display.h ****                 else
 425:../../../lib/pd2dsy/libdaisy/src/hid/disp/display.h ****                 {
 426:../../../lib/pd2dsy/libdaisy/src/hid/disp/display.h ****                     ((ChildType*)(this))
 427:../../../lib/pd2dsy/libdaisy/src/hid/disp/display.h ****                         ->ChildType::DrawPixel(
 428:../../../lib/pd2dsy/libdaisy/src/hid/disp/display.h ****                             currentX_ + j, (currentY_ + i), !on);
 429:../../../lib/pd2dsy/libdaisy/src/hid/disp/display.h ****                 }
 430:../../../lib/pd2dsy/libdaisy/src/hid/disp/display.h ****             }
 431:../../../lib/pd2dsy/libdaisy/src/hid/disp/display.h ****         }
 432:../../../lib/pd2dsy/libdaisy/src/hid/disp/display.h **** 
 433:../../../lib/pd2dsy/libdaisy/src/hid/disp/display.h ****         // The current space is now taken
ARM GAS  /var/folders/fb/yfxt3z4538j6z0vjt03w70vc0000gn/T//cc0qjWS6.s 			page 35


 434:../../../lib/pd2dsy/libdaisy/src/hid/disp/display.h ****         SetCursor(currentX_ + font.FontWidth, currentY_);
 435:../../../lib/pd2dsy/libdaisy/src/hid/disp/display.h **** 
 436:../../../lib/pd2dsy/libdaisy/src/hid/disp/display.h ****         // Return written char for validation
 437:../../../lib/pd2dsy/libdaisy/src/hid/disp/display.h ****         return ch;
 438:../../../lib/pd2dsy/libdaisy/src/hid/disp/display.h ****     }
 439:../../../lib/pd2dsy/libdaisy/src/hid/disp/display.h **** 
 440:../../../lib/pd2dsy/libdaisy/src/hid/disp/display.h ****     char WriteString(const char* str, FontDef font, bool on) override
 550              		.loc 4 440 10 is_stmt 1 view -0
 551              		.cfi_startproc
 552              		@ args = 4, pretend = 0, frame = 32
 553              		@ frame_needed = 0, uses_anonymous_args = 0
 554              		.loc 4 440 10 is_stmt 0 view .LVU118
 555 0000 2DE9F04F 		push	{r4, r5, r6, r7, r8, r9, r10, fp, lr}
 556              		.cfi_def_cfa_offset 36
 557              		.cfi_offset 4, -36
 558              		.cfi_offset 5, -32
 559              		.cfi_offset 6, -28
 560              		.cfi_offset 7, -24
 561              		.cfi_offset 8, -20
 562              		.cfi_offset 9, -16
 563              		.cfi_offset 10, -12
 564              		.cfi_offset 11, -8
 565              		.cfi_offset 14, -4
 566 0004 89B0     		sub	sp, sp, #36
 567              		.cfi_def_cfa_offset 72
 568              		.loc 4 440 10 view .LVU119
 569 0006 08AC     		add	r4, sp, #32
 570 0008 9DF84870 		ldrb	r7, [sp, #72]	@ zero_extendqisi2
 571 000c 0191     		str	r1, [sp, #4]
 572 000e 04E90C00 		stmdb	r4, {r2, r3}
 441:../../../lib/pd2dsy/libdaisy/src/hid/disp/display.h ****     {
 442:../../../lib/pd2dsy/libdaisy/src/hid/disp/display.h ****         // Write until null-byte
 443:../../../lib/pd2dsy/libdaisy/src/hid/disp/display.h ****         while(*str)
 573              		.loc 4 443 9 is_stmt 1 view .LVU120
 574 0012 0B78     		ldrb	r3, [r1]	@ zero_extendqisi2
 575 0014 002B     		cmp	r3, #0
 576 0016 00F0AB80 		beq	.L38
 577 001a 1A46     		mov	r2, r3
 578 001c 9DF81880 		ldrb	r8, [sp, #24]	@ zero_extendqisi2
 579 0020 9DF81930 		ldrb	r3, [sp, #25]	@ zero_extendqisi2
 580 0024 0646     		mov	r6, r0
 581 0026 4546     		mov	r5, r8
 582 0028 9046     		mov	r8, r2
 583 002a 0393     		str	r3, [sp, #12]
 584 002c 079B     		ldr	r3, [sp, #28]
 585 002e 0593     		str	r3, [sp, #20]
 586              	.LVL30:
 587              	.L39:
 588              	.LBB606:
 589              	.LBI606:
 396:../../../lib/pd2dsy/libdaisy/src/hid/disp/display.h ****     {
 590              		.loc 4 396 10 view .LVU121
 591              	.LBB607:
 401:../../../lib/pd2dsy/libdaisy/src/hid/disp/display.h ****             return 0;
 592              		.loc 4 401 20 is_stmt 0 view .LVU122
 593 0030 A8F12004 		sub	r4, r8, #32
 401:../../../lib/pd2dsy/libdaisy/src/hid/disp/display.h ****             return 0;
ARM GAS  /var/folders/fb/yfxt3z4538j6z0vjt03w70vc0000gn/T//cc0qjWS6.s 			page 36


 594              		.loc 4 401 9 view .LVU123
 595 0034 E3B2     		uxtb	r3, r4
 596 0036 5E2B     		cmp	r3, #94
 597 0038 00F29E80 		bhi	.L20
 405:../../../lib/pd2dsy/libdaisy/src/hid/disp/display.h ****            || Height() < (currentY_ + font.FontHeight))
 598              		.loc 4 405 17 view .LVU124
 599 003c 3368     		ldr	r3, [r6]
 600 003e 5E4A     		ldr	r2, .L60
 601 0040 DB68     		ldr	r3, [r3, #12]
 602 0042 9342     		cmp	r3, r2
 603 0044 40F09B80 		bne	.L53
 604 0048 8020     		movs	r0, #128
 605              	.L19:
 405:../../../lib/pd2dsy/libdaisy/src/hid/disp/display.h ****            || Height() < (currentY_ + font.FontHeight))
 606              		.loc 4 405 23 view .LVU125
 607 004a B388     		ldrh	r3, [r6, #4]
 405:../../../lib/pd2dsy/libdaisy/src/hid/disp/display.h ****            || Height() < (currentY_ + font.FontHeight))
 608              		.loc 4 405 33 view .LVU126
 609 004c 2B44     		add	r3, r3, r5
 406:../../../lib/pd2dsy/libdaisy/src/hid/disp/display.h ****         {
 610              		.loc 4 406 12 view .LVU127
 611 004e 8342     		cmp	r3, r0
 612 0050 00F39280 		bgt	.L20
 406:../../../lib/pd2dsy/libdaisy/src/hid/disp/display.h ****         {
 613              		.loc 4 406 21 view .LVU128
 614 0054 3368     		ldr	r3, [r6]
 615 0056 594A     		ldr	r2, .L60+4
 616 0058 9B68     		ldr	r3, [r3, #8]
 617 005a 9342     		cmp	r3, r2
 618 005c 40F09280 		bne	.L54
 619 0060 4020     		movs	r0, #64
 620              	.L21:
 406:../../../lib/pd2dsy/libdaisy/src/hid/disp/display.h ****         {
 621              		.loc 4 406 27 view .LVU129
 622 0062 F188     		ldrh	r1, [r6, #6]
 406:../../../lib/pd2dsy/libdaisy/src/hid/disp/display.h ****         {
 623              		.loc 4 406 37 view .LVU130
 624 0064 039A     		ldr	r2, [sp, #12]
 406:../../../lib/pd2dsy/libdaisy/src/hid/disp/display.h ****         {
 625              		.loc 4 406 27 view .LVU131
 626 0066 0291     		str	r1, [sp, #8]
 406:../../../lib/pd2dsy/libdaisy/src/hid/disp/display.h ****         {
 627              		.loc 4 406 37 view .LVU132
 628 0068 8B18     		adds	r3, r1, r2
 406:../../../lib/pd2dsy/libdaisy/src/hid/disp/display.h ****         {
 629              		.loc 4 406 12 view .LVU133
 630 006a 8342     		cmp	r3, r0
 631 006c 00F38480 		bgt	.L20
 632              	.LVL31:
 413:../../../lib/pd2dsy/libdaisy/src/hid/disp/display.h ****         {
 633              		.loc 4 413 22 is_stmt 1 view .LVU134
 634 0070 002A     		cmp	r2, #0
 635 0072 00F09180 		beq	.L22
 415:../../../lib/pd2dsy/libdaisy/src/hid/disp/display.h ****             for(j = 0; j < font.FontWidth; j++)
 636              		.loc 4 415 37 is_stmt 0 view .LVU135
 637 0076 02FB04F4 		mul	r4, r2, r4
 638 007a 6FF00049 		mvn	r9, #-2147483648
ARM GAS  /var/folders/fb/yfxt3z4538j6z0vjt03w70vc0000gn/T//cc0qjWS6.s 			page 37


 639 007e 059B     		ldr	r3, [sp, #20]
 640 0080 A144     		add	r9, r9, r4
 641 0082 1444     		add	r4, r4, r2
 434:../../../lib/pd2dsy/libdaisy/src/hid/disp/display.h **** 
 642              		.loc 4 434 19 view .LVU136
 643 0084 B6F804B0 		ldrh	fp, [r6, #4]
 644 0088 03EB4909 		add	r9, r3, r9, lsl #1
 645 008c 023B     		subs	r3, r3, #2
 646 008e CDF81080 		str	r8, [sp, #16]
 647 0092 03EB4403 		add	r3, r3, r4, lsl #1
 648 0096 0C46     		mov	r4, r1
 649 0098 9A46     		mov	r10, r3
 650              	.LVL32:
 651              	.L25:
 415:../../../lib/pd2dsy/libdaisy/src/hid/disp/display.h ****             for(j = 0; j < font.FontWidth; j++)
 652              		.loc 4 415 15 view .LVU137
 653 009a 39F802CF 		ldrh	ip, [r9, #2]!
 654              	.LVL33:
 416:../../../lib/pd2dsy/libdaisy/src/hid/disp/display.h ****             {
 655              		.loc 4 416 26 is_stmt 1 view .LVU138
 656 009e A5B3     		cbz	r5, .L30
 657              	.LBB608:
 658              	.LBB609:
 659              	.LBB610:
 660              	.LBB611:
 661              	.LBB612:
 259:../../../lib/pd2dsy/libdaisy/src/dev/oled_ssd130x.h ****     }
 662              		.loc 3 259 55 is_stmt 0 view .LVU139
 663 00a0 04F00703 		and	r3, r4, #7
 259:../../../lib/pd2dsy/libdaisy/src/dev/oled_ssd130x.h ****     }
 664              		.loc 3 259 49 view .LVU140
 665 00a4 4FF0010E 		mov	lr, #1
 259:../../../lib/pd2dsy/libdaisy/src/dev/oled_ssd130x.h ****     }
 666              		.loc 3 259 28 view .LVU141
 667 00a8 E208     		lsrs	r2, r4, #3
 668 00aa 5946     		mov	r1, fp
 259:../../../lib/pd2dsy/libdaisy/src/dev/oled_ssd130x.h ****     }
 669              		.loc 3 259 49 view .LVU142
 670 00ac 0EFA03FE 		lsl	lr, lr, r3
 671 00b0 0BF11403 		add	r3, fp, #20
 259:../../../lib/pd2dsy/libdaisy/src/dev/oled_ssd130x.h ****     }
 672              		.loc 3 259 42 view .LVU143
 673 00b4 4FFA8EFE 		sxtb	lr, lr
 674 00b8 03EBC212 		add	r2, r3, r2, lsl #7
 675              	.LBE612:
 676              	.LBE611:
 677              	.LBE610:
 678              	.LBE609:
 679              	.LBE608:
 416:../../../lib/pd2dsy/libdaisy/src/hid/disp/display.h ****             {
 680              		.loc 4 416 19 view .LVU144
 681 00bc 0023     		movs	r3, #0
 682              	.LBB630:
 683              	.LBB625:
 684              	.LBB620:
 685              	.LBB616:
 686              	.LBB613:
ARM GAS  /var/folders/fb/yfxt3z4538j6z0vjt03w70vc0000gn/T//cc0qjWS6.s 			page 38


 259:../../../lib/pd2dsy/libdaisy/src/dev/oled_ssd130x.h ****     }
 687              		.loc 3 259 42 view .LVU145
 688 00be 6FEA0E08 		mvn	r8, lr
 689 00c2 3244     		add	r2, r2, r6
 690 00c4 0DE0     		b	.L31
 691              	.LVL34:
 692              	.L55:
 259:../../../lib/pd2dsy/libdaisy/src/dev/oled_ssd130x.h ****     }
 693              		.loc 3 259 42 view .LVU146
 694              	.LBE613:
 695              	.LBE616:
 696              	.LBE620:
 697              	.LBE625:
 698              	.LBE630:
 699              	.LBB631:
 700              	.LBI631:
  42:../../../lib/pd2dsy/libdaisy/src/hid/disp/oled_display.h ****     {
 701              		.loc 2 42 10 is_stmt 1 view .LVU147
 702              	.LBB632:
 703              	.LBI632:
 252:../../../lib/pd2dsy/libdaisy/src/dev/oled_ssd130x.h ****     {
 704              		.loc 3 252 10 view .LVU148
 705              	.LBB633:
 254:../../../lib/pd2dsy/libdaisy/src/dev/oled_ssd130x.h ****             return;
 706              		.loc 3 254 9 is_stmt 0 view .LVU149
 707 00c6 7F29     		cmp	r1, #127
 708 00c8 06D8     		bhi	.L27
 709 00ca 3F2C     		cmp	r4, #63
 710 00cc 04D8     		bhi	.L27
 257:../../../lib/pd2dsy/libdaisy/src/dev/oled_ssd130x.h ****         else
 711              		.loc 3 257 42 view .LVU150
 712 00ce 1078     		ldrb	r0, [r2]	@ zero_extendqisi2
 256:../../../lib/pd2dsy/libdaisy/src/dev/oled_ssd130x.h ****             buffer_[x + (y / 8) * width] |= (1 << (y % 8));
 713              		.loc 3 256 9 view .LVU151
 714 00d0 97B1     		cbz	r7, .L29
 715              	.L52:
 256:../../../lib/pd2dsy/libdaisy/src/dev/oled_ssd130x.h ****             buffer_[x + (y / 8) * width] |= (1 << (y % 8));
 716              		.loc 3 256 9 view .LVU152
 717              	.LBE633:
 718              	.LBE632:
 719              	.LBE631:
 720              	.LBB634:
 721              	.LBB626:
 722              	.LBB621:
 257:../../../lib/pd2dsy/libdaisy/src/dev/oled_ssd130x.h ****         else
 723              		.loc 3 257 42 view .LVU153
 724 00d2 4EEA0000 		orr	r0, lr, r0
 725 00d6 1070     		strb	r0, [r2]
 726              	.L27:
 727              	.LBE621:
 728              	.LBE626:
 729              	.LBE634:
 416:../../../lib/pd2dsy/libdaisy/src/hid/disp/display.h ****             {
 730              		.loc 4 416 13 is_stmt 1 view .LVU154
 731 00d8 0133     		adds	r3, r3, #1
 732              	.LVL35:
 416:../../../lib/pd2dsy/libdaisy/src/hid/disp/display.h ****             {
ARM GAS  /var/folders/fb/yfxt3z4538j6z0vjt03w70vc0000gn/T//cc0qjWS6.s 			page 39


 733              		.loc 4 416 26 view .LVU155
 734 00da 0132     		adds	r2, r2, #1
 735 00dc 0131     		adds	r1, r1, #1
 736 00de AB42     		cmp	r3, r5
 737 00e0 13D0     		beq	.L30
 738              	.LVL36:
 739              	.L31:
 418:../../../lib/pd2dsy/libdaisy/src/hid/disp/display.h ****                 {
 740              		.loc 4 418 23 is_stmt 0 view .LVU156
 741 00e2 0CFA03F0 		lsl	r0, ip, r3
 418:../../../lib/pd2dsy/libdaisy/src/hid/disp/display.h ****                 {
 742              		.loc 4 418 17 view .LVU157
 743 00e6 0004     		lsls	r0, r0, #16
 744 00e8 EDD4     		bmi	.L55
 745              	.LVL37:
 746              	.LBB635:
 747              	.LBI608:
  42:../../../lib/pd2dsy/libdaisy/src/hid/disp/oled_display.h ****     {
 748              		.loc 2 42 10 is_stmt 1 view .LVU158
 749              	.LBB627:
 750              	.LBI609:
 252:../../../lib/pd2dsy/libdaisy/src/dev/oled_ssd130x.h ****     {
 751              		.loc 3 252 10 view .LVU159
 752              	.LBB622:
 254:../../../lib/pd2dsy/libdaisy/src/dev/oled_ssd130x.h ****             return;
 753              		.loc 3 254 9 is_stmt 0 view .LVU160
 754 00ea 7F29     		cmp	r1, #127
 755 00ec F4D8     		bhi	.L27
 756 00ee 3F2C     		cmp	r4, #63
 757 00f0 F2D8     		bhi	.L27
 257:../../../lib/pd2dsy/libdaisy/src/dev/oled_ssd130x.h ****         else
 758              		.loc 3 257 42 view .LVU161
 759 00f2 1078     		ldrb	r0, [r2]	@ zero_extendqisi2
 256:../../../lib/pd2dsy/libdaisy/src/dev/oled_ssd130x.h ****             buffer_[x + (y / 8) * width] |= (1 << (y % 8));
 760              		.loc 3 256 9 view .LVU162
 761 00f4 002F     		cmp	r7, #0
 762 00f6 ECD0     		beq	.L52
 763              	.L29:
 764              	.LVL38:
 765              	.LBB617:
 766              	.LBI611:
 252:../../../lib/pd2dsy/libdaisy/src/dev/oled_ssd130x.h ****     {
 767              		.loc 3 252 10 is_stmt 1 view .LVU163
 252:../../../lib/pd2dsy/libdaisy/src/dev/oled_ssd130x.h ****     {
 768              		.loc 3 252 10 is_stmt 0 view .LVU164
 769              	.LBE617:
 770              	.LBE622:
 771              	.LBE627:
 772              	.LBE635:
 416:../../../lib/pd2dsy/libdaisy/src/hid/disp/display.h ****             {
 773              		.loc 4 416 13 view .LVU165
 774 00f8 0133     		adds	r3, r3, #1
 775              	.LVL39:
 776              	.LBB636:
 777              	.LBB628:
 778              	.LBB623:
 779              	.LBB618:
ARM GAS  /var/folders/fb/yfxt3z4538j6z0vjt03w70vc0000gn/T//cc0qjWS6.s 			page 40


 780              	.LBB614:
 259:../../../lib/pd2dsy/libdaisy/src/dev/oled_ssd130x.h ****     }
 781              		.loc 3 259 42 view .LVU166
 782 00fa 08EA0000 		and	r0, r8, r0
 783              	.LBE614:
 784              	.LBE618:
 785              	.LBE623:
 786              	.LBE628:
 787              	.LBE636:
 416:../../../lib/pd2dsy/libdaisy/src/hid/disp/display.h ****             {
 788              		.loc 4 416 26 view .LVU167
 789 00fe 0132     		adds	r2, r2, #1
 790 0100 0131     		adds	r1, r1, #1
 791 0102 AB42     		cmp	r3, r5
 792              	.LBB637:
 793              	.LBB629:
 794              	.LBB624:
 795              	.LBB619:
 796              	.LBB615:
 259:../../../lib/pd2dsy/libdaisy/src/dev/oled_ssd130x.h ****     }
 797              		.loc 3 259 42 view .LVU168
 798 0104 02F8010C 		strb	r0, [r2, #-1]
 259:../../../lib/pd2dsy/libdaisy/src/dev/oled_ssd130x.h ****     }
 799              		.loc 3 259 42 view .LVU169
 800              	.LBE615:
 801              	.LBE619:
 802              	.LBE624:
 803              	.LBE629:
 804              	.LBE637:
 416:../../../lib/pd2dsy/libdaisy/src/hid/disp/display.h ****             {
 805              		.loc 4 416 13 is_stmt 1 view .LVU170
 806              	.LVL40:
 416:../../../lib/pd2dsy/libdaisy/src/hid/disp/display.h ****             {
 807              		.loc 4 416 26 view .LVU171
 808 0108 EBD1     		bne	.L31
 809              	.LVL41:
 810              	.L30:
 413:../../../lib/pd2dsy/libdaisy/src/hid/disp/display.h ****         {
 811              		.loc 4 413 9 view .LVU172
 413:../../../lib/pd2dsy/libdaisy/src/hid/disp/display.h ****         {
 812              		.loc 4 413 22 view .LVU173
 813 010a D145     		cmp	r9, r10
 814 010c 04F10104 		add	r4, r4, #1
 815 0110 C3D1     		bne	.L25
 816 0112 DDF81080 		ldr	r8, [sp, #16]
 817              	.LVL42:
 818              	.L24:
 819              	.LBB638:
 820              	.LBB639:
 173:../../../lib/pd2dsy/libdaisy/src/hid/disp/display.h ****         currentY_ = (y >= Height()) ? Height() - 1 : y;
 821              		.loc 4 173 33 is_stmt 0 view .LVU174
 822 0116 3268     		ldr	r2, [r6]
 823              	.LBE639:
 824              	.LBE638:
 434:../../../lib/pd2dsy/libdaisy/src/hid/disp/display.h **** 
 825              		.loc 4 434 18 view .LVU175
 826 0118 0BEB0504 		add	r4, fp, r5
ARM GAS  /var/folders/fb/yfxt3z4538j6z0vjt03w70vc0000gn/T//cc0qjWS6.s 			page 41


 827 011c 2649     		ldr	r1, .L60
 828              	.LBB644:
 829              	.LBB640:
 173:../../../lib/pd2dsy/libdaisy/src/hid/disp/display.h ****         currentY_ = (y >= Height()) ? Height() - 1 : y;
 830              		.loc 4 173 33 view .LVU176
 831 011e D368     		ldr	r3, [r2, #12]
 832              	.LBE640:
 833              	.LBE644:
 434:../../../lib/pd2dsy/libdaisy/src/hid/disp/display.h **** 
 834              		.loc 4 434 18 view .LVU177
 835 0120 A4B2     		uxth	r4, r4
 836              	.LVL43:
 837              	.LBB645:
 838              	.LBI638:
 171:../../../lib/pd2dsy/libdaisy/src/hid/disp/display.h ****     {
 839              		.loc 4 171 10 is_stmt 1 view .LVU178
 840              	.LBB641:
 173:../../../lib/pd2dsy/libdaisy/src/hid/disp/display.h ****         currentY_ = (y >= Height()) ? Height() - 1 : y;
 841              		.loc 4 173 9 view .LVU179
 842 0122 8B42     		cmp	r3, r1
 843 0124 34D1     		bne	.L56
 173:../../../lib/pd2dsy/libdaisy/src/hid/disp/display.h ****         currentY_ = (y >= Height()) ? Height() - 1 : y;
 844              		.loc 4 173 33 is_stmt 0 view .LVU180
 845 0126 8020     		movs	r0, #128
 846              	.L32:
 173:../../../lib/pd2dsy/libdaisy/src/hid/disp/display.h ****         currentY_ = (y >= Height()) ? Height() - 1 : y;
 847              		.loc 4 173 19 view .LVU181
 848 0128 8442     		cmp	r4, r0
 849 012a 04D3     		bcc	.L33
 173:../../../lib/pd2dsy/libdaisy/src/hid/disp/display.h ****         currentY_ = (y >= Height()) ? Height() - 1 : y;
 850              		.loc 4 173 44 view .LVU182
 851 012c D368     		ldr	r3, [r2, #12]
 852 012e 2249     		ldr	r1, .L60
 853 0130 8B42     		cmp	r3, r1
 854 0132 3AD1     		bne	.L57
 855 0134 7F24     		movs	r4, #127
 856              	.LVL44:
 857              	.L33:
 174:../../../lib/pd2dsy/libdaisy/src/hid/disp/display.h ****     }
 858              		.loc 4 174 34 view .LVU183
 859 0136 9368     		ldr	r3, [r2, #8]
 860 0138 204A     		ldr	r2, .L60+4
 173:../../../lib/pd2dsy/libdaisy/src/hid/disp/display.h ****         currentY_ = (y >= Height()) ? Height() - 1 : y;
 861              		.loc 4 173 19 view .LVU184
 862 013a B480     		strh	r4, [r6, #4]	@ movhi
 174:../../../lib/pd2dsy/libdaisy/src/hid/disp/display.h ****     }
 863              		.loc 4 174 9 is_stmt 1 view .LVU185
 864 013c 9342     		cmp	r3, r2
 865 013e 24D1     		bne	.L58
 174:../../../lib/pd2dsy/libdaisy/src/hid/disp/display.h ****     }
 866              		.loc 4 174 34 is_stmt 0 view .LVU186
 867 0140 4020     		movs	r0, #64
 868              	.L35:
 174:../../../lib/pd2dsy/libdaisy/src/hid/disp/display.h ****     }
 869              		.loc 4 174 19 view .LVU187
 870 0142 029B     		ldr	r3, [sp, #8]
 871 0144 8342     		cmp	r3, r0
ARM GAS  /var/folders/fb/yfxt3z4538j6z0vjt03w70vc0000gn/T//cc0qjWS6.s 			page 42


 872 0146 06D3     		bcc	.L36
 174:../../../lib/pd2dsy/libdaisy/src/hid/disp/display.h ****     }
 873              		.loc 4 174 46 view .LVU188
 874 0148 3368     		ldr	r3, [r6]
 875 014a 1C4A     		ldr	r2, .L60+4
 876 014c 9B68     		ldr	r3, [r3, #8]
 877 014e 9342     		cmp	r3, r2
 878 0150 25D1     		bne	.L59
 879 0152 3F23     		movs	r3, #63
 880 0154 0293     		str	r3, [sp, #8]
 881              	.LVL45:
 882              	.L36:
 174:../../../lib/pd2dsy/libdaisy/src/hid/disp/display.h ****     }
 883              		.loc 4 174 19 view .LVU189
 884 0156 029B     		ldr	r3, [sp, #8]
 885 0158 F380     		strh	r3, [r6, #6]	@ movhi
 886              	.LVL46:
 887              	.L18:
 174:../../../lib/pd2dsy/libdaisy/src/hid/disp/display.h ****     }
 888              		.loc 4 174 19 view .LVU190
 889              	.LBE641:
 890              	.LBE645:
 891              	.LBE607:
 892              	.LBE606:
 444:../../../lib/pd2dsy/libdaisy/src/hid/disp/display.h ****         {
 445:../../../lib/pd2dsy/libdaisy/src/hid/disp/display.h ****             if(((ChildType*)(this))->ChildType::WriteChar(*str, font, on)
 446:../../../lib/pd2dsy/libdaisy/src/hid/disp/display.h ****                != *str)
 893              		.loc 4 446 16 view .LVU191
 894 015a 019B     		ldr	r3, [sp, #4]
 895 015c 1878     		ldrb	r0, [r3]	@ zero_extendqisi2
 445:../../../lib/pd2dsy/libdaisy/src/hid/disp/display.h ****                != *str)
 896              		.loc 4 445 13 view .LVU192
 897 015e 4045     		cmp	r0, r8
 898 0160 07D1     		bne	.L16
 899              	.LVL47:
 443:../../../lib/pd2dsy/libdaisy/src/hid/disp/display.h ****         {
 900              		.loc 4 443 9 is_stmt 1 view .LVU193
 901 0162 13F8018F 		ldrb	r8, [r3, #1]!	@ zero_extendqisi2
 902              	.LVL48:
 443:../../../lib/pd2dsy/libdaisy/src/hid/disp/display.h ****         {
 903              		.loc 4 443 9 is_stmt 0 view .LVU194
 904 0166 0193     		str	r3, [sp, #4]
 905 0168 B8F1000F 		cmp	r8, #0
 906 016c 7FF460AF 		bne	.L39
 907              	.LVL49:
 908              	.L38:
 909              	.LBB650:
 910              	.LBB648:
 402:../../../lib/pd2dsy/libdaisy/src/hid/disp/display.h **** 
 911              		.loc 4 402 20 view .LVU195
 912 0170 0020     		movs	r0, #0
 913              	.L16:
 914              	.LBE648:
 915              	.LBE650:
 447:../../../lib/pd2dsy/libdaisy/src/hid/disp/display.h ****             {
 448:../../../lib/pd2dsy/libdaisy/src/hid/disp/display.h ****                 // Char could not be written
 449:../../../lib/pd2dsy/libdaisy/src/hid/disp/display.h ****                 return *str;
ARM GAS  /var/folders/fb/yfxt3z4538j6z0vjt03w70vc0000gn/T//cc0qjWS6.s 			page 43


 450:../../../lib/pd2dsy/libdaisy/src/hid/disp/display.h ****             }
 451:../../../lib/pd2dsy/libdaisy/src/hid/disp/display.h **** 
 452:../../../lib/pd2dsy/libdaisy/src/hid/disp/display.h ****             // Next char
 453:../../../lib/pd2dsy/libdaisy/src/hid/disp/display.h ****             str++;
 454:../../../lib/pd2dsy/libdaisy/src/hid/disp/display.h ****         }
 455:../../../lib/pd2dsy/libdaisy/src/hid/disp/display.h **** 
 456:../../../lib/pd2dsy/libdaisy/src/hid/disp/display.h ****         // Everything ok
 457:../../../lib/pd2dsy/libdaisy/src/hid/disp/display.h ****         return *str;
 458:../../../lib/pd2dsy/libdaisy/src/hid/disp/display.h ****     }
 916              		.loc 4 458 5 view .LVU196
 917 0172 09B0     		add	sp, sp, #36
 918              		.cfi_remember_state
 919              		.cfi_def_cfa_offset 36
 920              		@ sp needed
 921 0174 BDE8F08F 		pop	{r4, r5, r6, r7, r8, r9, r10, fp, pc}
 922              	.LVL50:
 923              	.L20:
 924              		.cfi_restore_state
 925              	.LBB651:
 926              	.LBB649:
 402:../../../lib/pd2dsy/libdaisy/src/hid/disp/display.h **** 
 927              		.loc 4 402 20 view .LVU197
 928 0178 4FF00008 		mov	r8, #0
 929              	.LVL51:
 402:../../../lib/pd2dsy/libdaisy/src/hid/disp/display.h **** 
 930              		.loc 4 402 20 view .LVU198
 931 017c EDE7     		b	.L18
 932              	.LVL52:
 933              	.L53:
 405:../../../lib/pd2dsy/libdaisy/src/hid/disp/display.h ****            || Height() < (currentY_ + font.FontHeight))
 934              		.loc 4 405 17 view .LVU199
 935 017e 3046     		mov	r0, r6
 936 0180 9847     		blx	r3
 937              	.LVL53:
 938 0182 62E7     		b	.L19
 939              	.L54:
 406:../../../lib/pd2dsy/libdaisy/src/hid/disp/display.h ****         {
 940              		.loc 4 406 21 view .LVU200
 941 0184 3046     		mov	r0, r6
 942 0186 9847     		blx	r3
 943              	.LVL54:
 944 0188 6BE7     		b	.L21
 945              	.LVL55:
 946              	.L58:
 947              	.LBB646:
 948              	.LBB642:
 174:../../../lib/pd2dsy/libdaisy/src/hid/disp/display.h ****     }
 949              		.loc 4 174 33 view .LVU201
 950 018a 3046     		mov	r0, r6
 951 018c 9847     		blx	r3
 952              	.LVL56:
 953 018e D8E7     		b	.L35
 954              	.LVL57:
 955              	.L56:
 173:../../../lib/pd2dsy/libdaisy/src/hid/disp/display.h ****         currentY_ = (y >= Height()) ? Height() - 1 : y;
 956              		.loc 4 173 32 view .LVU202
 957 0190 3046     		mov	r0, r6
ARM GAS  /var/folders/fb/yfxt3z4538j6z0vjt03w70vc0000gn/T//cc0qjWS6.s 			page 44


 958 0192 9847     		blx	r3
 959              	.LVL58:
 173:../../../lib/pd2dsy/libdaisy/src/hid/disp/display.h ****         currentY_ = (y >= Height()) ? Height() - 1 : y;
 960              		.loc 4 173 44 view .LVU203
 961 0194 3268     		ldr	r2, [r6]
 962 0196 C7E7     		b	.L32
 963              	.LVL59:
 964              	.L22:
 173:../../../lib/pd2dsy/libdaisy/src/hid/disp/display.h ****         currentY_ = (y >= Height()) ? Height() - 1 : y;
 965              		.loc 4 173 44 view .LVU204
 966              	.LBE642:
 967              	.LBE646:
 434:../../../lib/pd2dsy/libdaisy/src/hid/disp/display.h **** 
 968              		.loc 4 434 19 view .LVU205
 969 0198 B6F804B0 		ldrh	fp, [r6, #4]
 970 019c BBE7     		b	.L24
 971              	.LVL60:
 972              	.L59:
 973              	.LBB647:
 974              	.LBB643:
 174:../../../lib/pd2dsy/libdaisy/src/hid/disp/display.h ****     }
 975              		.loc 4 174 45 view .LVU206
 976 019e 3046     		mov	r0, r6
 977 01a0 9847     		blx	r3
 978              	.LVL61:
 174:../../../lib/pd2dsy/libdaisy/src/hid/disp/display.h ****     }
 979              		.loc 4 174 19 view .LVU207
 980 01a2 0138     		subs	r0, r0, #1
 981 01a4 83B2     		uxth	r3, r0
 982 01a6 0293     		str	r3, [sp, #8]
 983              	.LVL62:
 174:../../../lib/pd2dsy/libdaisy/src/hid/disp/display.h ****     }
 984              		.loc 4 174 19 view .LVU208
 985 01a8 D5E7     		b	.L36
 986              	.LVL63:
 987              	.L57:
 173:../../../lib/pd2dsy/libdaisy/src/hid/disp/display.h ****         currentY_ = (y >= Height()) ? Height() - 1 : y;
 988              		.loc 4 173 43 view .LVU209
 989 01aa 3046     		mov	r0, r6
 990 01ac 9847     		blx	r3
 991              	.LVL64:
 173:../../../lib/pd2dsy/libdaisy/src/hid/disp/display.h ****         currentY_ = (y >= Height()) ? Height() - 1 : y;
 992              		.loc 4 173 19 view .LVU210
 993 01ae 0138     		subs	r0, r0, #1
 174:../../../lib/pd2dsy/libdaisy/src/hid/disp/display.h ****     }
 994              		.loc 4 174 34 view .LVU211
 995 01b0 3268     		ldr	r2, [r6]
 173:../../../lib/pd2dsy/libdaisy/src/hid/disp/display.h ****         currentY_ = (y >= Height()) ? Height() - 1 : y;
 996              		.loc 4 173 19 view .LVU212
 997 01b2 84B2     		uxth	r4, r0
 998              	.LVL65:
 173:../../../lib/pd2dsy/libdaisy/src/hid/disp/display.h ****         currentY_ = (y >= Height()) ? Height() - 1 : y;
 999              		.loc 4 173 19 view .LVU213
 1000 01b4 BFE7     		b	.L33
 1001              	.L61:
 1002 01b6 00BF     		.align	2
 1003              	.L60:
ARM GAS  /var/folders/fb/yfxt3z4538j6z0vjt03w70vc0000gn/T//cc0qjWS6.s 			page 45


 1004 01b8 00000000 		.word	_ZNK5daisy11OledDisplayINS_13SSD130xDriverILj128ELj64ENS_24SSD130x4WireSpiTransportEEEE5Widt
 1005 01bc 00000000 		.word	_ZNK5daisy11OledDisplayINS_13SSD130xDriverILj128ELj64ENS_24SSD130x4WireSpiTransportEEEE6Heig
 1006              	.LBE643:
 1007              	.LBE647:
 1008              	.LBE649:
 1009              	.LBE651:
 1010              		.cfi_endproc
 1011              	.LFE3078:
 1013              		.section	.text._ZN5daisy25OneBitGraphicsDisplayImplINS_11OledDisplayINS_13SSD130xDriverILj128ELj64
 1014              		.align	1
 1015              		.p2align 2,,3
 1016              		.weak	_ZN5daisy25OneBitGraphicsDisplayImplINS_11OledDisplayINS_13SSD130xDriverILj128ELj64ENS_24SSD
 1017              		.syntax unified
 1018              		.thumb
 1019              		.thumb_func
 1021              	_ZN5daisy25OneBitGraphicsDisplayImplINS_11OledDisplayINS_13SSD130xDriverILj128ELj64ENS_24SSD130x4Wi
 1022              	.LVL66:
 1023              	.LFB3077:
 396:../../../lib/pd2dsy/libdaisy/src/hid/disp/display.h ****     {
 1024              		.loc 4 396 10 is_stmt 1 view -0
 1025              		.cfi_startproc
 1026              		@ args = 4, pretend = 0, frame = 16
 1027              		@ frame_needed = 0, uses_anonymous_args = 0
 396:../../../lib/pd2dsy/libdaisy/src/hid/disp/display.h ****     {
 1028              		.loc 4 396 10 is_stmt 0 view .LVU215
 1029 0000 2DE9F04F 		push	{r4, r5, r6, r7, r8, r9, r10, fp, lr}
 1030              		.cfi_def_cfa_offset 36
 1031              		.cfi_offset 4, -36
 1032              		.cfi_offset 5, -32
 1033              		.cfi_offset 6, -28
 1034              		.cfi_offset 7, -24
 1035              		.cfi_offset 8, -20
 1036              		.cfi_offset 9, -16
 1037              		.cfi_offset 10, -12
 1038              		.cfi_offset 11, -8
 1039              		.cfi_offset 14, -4
 1040 0004 85B0     		sub	sp, sp, #20
 1041              		.cfi_def_cfa_offset 56
 1042              	.LVL67:
 401:../../../lib/pd2dsy/libdaisy/src/hid/disp/display.h ****             return 0;
 1043              		.loc 4 401 20 view .LVU216
 1044 0006 A1F12005 		sub	r5, r1, #32
 396:../../../lib/pd2dsy/libdaisy/src/hid/disp/display.h ****     {
 1045              		.loc 4 396 10 view .LVU217
 1046 000a 04AC     		add	r4, sp, #16
 1047 000c 9DF83870 		ldrb	r7, [sp, #56]	@ zero_extendqisi2
 1048 0010 0091     		str	r1, [sp]
 1049 0012 04E90C00 		stmdb	r4, {r2, r3}
 1050              	.LVL68:
 401:../../../lib/pd2dsy/libdaisy/src/hid/disp/display.h ****             return 0;
 1051              		.loc 4 401 9 view .LVU218
 1052 0016 EBB2     		uxtb	r3, r5
 1053 0018 5E2B     		cmp	r3, #94
 1054 001a 00F29580 		bhi	.L66
 405:../../../lib/pd2dsy/libdaisy/src/hid/disp/display.h ****            || Height() < (currentY_ + font.FontHeight))
 1055              		.loc 4 405 17 view .LVU219
 1056 001e 0368     		ldr	r3, [r0]
ARM GAS  /var/folders/fb/yfxt3z4538j6z0vjt03w70vc0000gn/T//cc0qjWS6.s 			page 46


 1057 0020 8046     		mov	r8, r0
 1058 0022 5D4A     		ldr	r2, .L101
 1059 0024 DB68     		ldr	r3, [r3, #12]
 1060 0026 9DF80840 		ldrb	r4, [sp, #8]	@ zero_extendqisi2
 1061 002a 9342     		cmp	r3, r2
 1062 002c 9DF80960 		ldrb	r6, [sp, #9]	@ zero_extendqisi2
 1063 0030 40F09480 		bne	.L93
 1064 0034 8020     		movs	r0, #128
 1065              	.LVL69:
 1066              	.L65:
 405:../../../lib/pd2dsy/libdaisy/src/hid/disp/display.h ****            || Height() < (currentY_ + font.FontHeight))
 1067              		.loc 4 405 23 view .LVU220
 1068 0036 B8F80430 		ldrh	r3, [r8, #4]
 405:../../../lib/pd2dsy/libdaisy/src/hid/disp/display.h ****            || Height() < (currentY_ + font.FontHeight))
 1069              		.loc 4 405 33 view .LVU221
 1070 003a 2344     		add	r3, r3, r4
 406:../../../lib/pd2dsy/libdaisy/src/hid/disp/display.h ****         {
 1071              		.loc 4 406 12 view .LVU222
 1072 003c 8342     		cmp	r3, r0
 1073 003e 00F38380 		bgt	.L66
 406:../../../lib/pd2dsy/libdaisy/src/hid/disp/display.h ****         {
 1074              		.loc 4 406 21 discriminator 2 view .LVU223
 1075 0042 D8F80030 		ldr	r3, [r8]
 1076 0046 554A     		ldr	r2, .L101+4
 1077 0048 9B68     		ldr	r3, [r3, #8]
 1078 004a 9342     		cmp	r3, r2
 1079 004c 40F08880 		bne	.L94
 406:../../../lib/pd2dsy/libdaisy/src/hid/disp/display.h ****         {
 1080              		.loc 4 406 21 view .LVU224
 1081 0050 4020     		movs	r0, #64
 1082              	.L67:
 406:../../../lib/pd2dsy/libdaisy/src/hid/disp/display.h ****         {
 1083              		.loc 4 406 27 discriminator 2 view .LVU225
 1084 0052 B8F80620 		ldrh	r2, [r8, #6]
 406:../../../lib/pd2dsy/libdaisy/src/hid/disp/display.h ****         {
 1085              		.loc 4 406 37 discriminator 2 view .LVU226
 1086 0056 9319     		adds	r3, r2, r6
 406:../../../lib/pd2dsy/libdaisy/src/hid/disp/display.h ****         {
 1087              		.loc 4 406 27 discriminator 2 view .LVU227
 1088 0058 0192     		str	r2, [sp, #4]
 406:../../../lib/pd2dsy/libdaisy/src/hid/disp/display.h ****         {
 1089              		.loc 4 406 12 discriminator 2 view .LVU228
 1090 005a 8342     		cmp	r3, r0
 1091 005c 74DC     		bgt	.L66
 1092              	.LVL70:
 413:../../../lib/pd2dsy/libdaisy/src/hid/disp/display.h ****         {
 1093              		.loc 4 413 22 is_stmt 1 view .LVU229
 1094 005e 002E     		cmp	r6, #0
 1095 0060 00F08980 		beq	.L68
 415:../../../lib/pd2dsy/libdaisy/src/hid/disp/display.h ****             for(j = 0; j < font.FontWidth; j++)
 1096              		.loc 4 415 37 is_stmt 0 view .LVU230
 1097 0064 06FB05F5 		mul	r5, r6, r5
 1098 0068 6FF00040 		mvn	r0, #-2147483648
 415:../../../lib/pd2dsy/libdaisy/src/hid/disp/display.h ****             for(j = 0; j < font.FontWidth; j++)
 1099              		.loc 4 415 22 view .LVU231
 1100 006c 039B     		ldr	r3, [sp, #12]
 1101 006e 9646     		mov	lr, r2
ARM GAS  /var/folders/fb/yfxt3z4538j6z0vjt03w70vc0000gn/T//cc0qjWS6.s 			page 47


 1102 0070 2844     		add	r0, r0, r5
 1103 0072 2E44     		add	r6, r6, r5
 434:../../../lib/pd2dsy/libdaisy/src/hid/disp/display.h **** 
 1104              		.loc 4 434 19 view .LVU232
 1105 0074 B8F804A0 		ldrh	r10, [r8, #4]
 1106 0078 03EB4000 		add	r0, r3, r0, lsl #1
 1107 007c 023B     		subs	r3, r3, #2
 1108 007e 03EB460B 		add	fp, r3, r6, lsl #1
 1109              	.LVL71:
 1110              	.L71:
 415:../../../lib/pd2dsy/libdaisy/src/hid/disp/display.h ****             for(j = 0; j < font.FontWidth; j++)
 1111              		.loc 4 415 15 view .LVU233
 1112 0082 30F8026F 		ldrh	r6, [r0, #2]!
 1113              	.LVL72:
 416:../../../lib/pd2dsy/libdaisy/src/hid/disp/display.h ****             {
 1114              		.loc 4 416 26 is_stmt 1 view .LVU234
 1115 0086 BCB3     		cbz	r4, .L76
 1116              	.LBB682:
 1117              	.LBB683:
 1118              	.LBB684:
 1119              	.LBB685:
 1120              	.LBB686:
 259:../../../lib/pd2dsy/libdaisy/src/dev/oled_ssd130x.h ****     }
 1121              		.loc 3 259 55 is_stmt 0 view .LVU235
 1122 0088 0EF00703 		and	r3, lr, #7
 259:../../../lib/pd2dsy/libdaisy/src/dev/oled_ssd130x.h ****     }
 1123              		.loc 3 259 49 view .LVU236
 1124 008c 4FF0010C 		mov	ip, #1
 259:../../../lib/pd2dsy/libdaisy/src/dev/oled_ssd130x.h ****     }
 1125              		.loc 3 259 28 view .LVU237
 1126 0090 4FEADE02 		lsr	r2, lr, #3
 1127 0094 5146     		mov	r1, r10
 259:../../../lib/pd2dsy/libdaisy/src/dev/oled_ssd130x.h ****     }
 1128              		.loc 3 259 49 view .LVU238
 1129 0096 0CFA03FC 		lsl	ip, ip, r3
 1130 009a 0AF11403 		add	r3, r10, #20
 259:../../../lib/pd2dsy/libdaisy/src/dev/oled_ssd130x.h ****     }
 1131              		.loc 3 259 42 view .LVU239
 1132 009e 4FFA8CFC 		sxtb	ip, ip
 1133 00a2 03EBC212 		add	r2, r3, r2, lsl #7
 1134              	.LBE686:
 1135              	.LBE685:
 1136              	.LBE684:
 1137              	.LBE683:
 1138              	.LBE682:
 416:../../../lib/pd2dsy/libdaisy/src/hid/disp/display.h ****             {
 1139              		.loc 4 416 19 view .LVU240
 1140 00a6 0023     		movs	r3, #0
 1141              	.LBB704:
 1142              	.LBB699:
 1143              	.LBB694:
 1144              	.LBB690:
 1145              	.LBB687:
 259:../../../lib/pd2dsy/libdaisy/src/dev/oled_ssd130x.h ****     }
 1146              		.loc 3 259 42 view .LVU241
 1147 00a8 6FEA0C09 		mvn	r9, ip
 1148 00ac 4244     		add	r2, r2, r8
ARM GAS  /var/folders/fb/yfxt3z4538j6z0vjt03w70vc0000gn/T//cc0qjWS6.s 			page 48


 1149 00ae 0EE0     		b	.L77
 1150              	.LVL73:
 1151              	.L95:
 259:../../../lib/pd2dsy/libdaisy/src/dev/oled_ssd130x.h ****     }
 1152              		.loc 3 259 42 view .LVU242
 1153              	.LBE687:
 1154              	.LBE690:
 1155              	.LBE694:
 1156              	.LBE699:
 1157              	.LBE704:
 1158              	.LBB705:
 1159              	.LBI705:
  42:../../../lib/pd2dsy/libdaisy/src/hid/disp/oled_display.h ****     {
 1160              		.loc 2 42 10 is_stmt 1 view .LVU243
 1161              	.LBB706:
 1162              	.LBI706:
 252:../../../lib/pd2dsy/libdaisy/src/dev/oled_ssd130x.h ****     {
 1163              		.loc 3 252 10 view .LVU244
 1164              	.LBB707:
 254:../../../lib/pd2dsy/libdaisy/src/dev/oled_ssd130x.h ****             return;
 1165              		.loc 3 254 9 is_stmt 0 view .LVU245
 1166 00b0 7F29     		cmp	r1, #127
 1167 00b2 07D8     		bhi	.L73
 1168 00b4 BEF13F0F 		cmp	lr, #63
 1169 00b8 04D8     		bhi	.L73
 257:../../../lib/pd2dsy/libdaisy/src/dev/oled_ssd130x.h ****         else
 1170              		.loc 3 257 42 view .LVU246
 1171 00ba 1578     		ldrb	r5, [r2]	@ zero_extendqisi2
 256:../../../lib/pd2dsy/libdaisy/src/dev/oled_ssd130x.h ****             buffer_[x + (y / 8) * width] |= (1 << (y % 8));
 1172              		.loc 3 256 9 view .LVU247
 1173 00bc 9FB1     		cbz	r7, .L75
 1174              	.L92:
 256:../../../lib/pd2dsy/libdaisy/src/dev/oled_ssd130x.h ****             buffer_[x + (y / 8) * width] |= (1 << (y % 8));
 1175              		.loc 3 256 9 view .LVU248
 1176              	.LBE707:
 1177              	.LBE706:
 1178              	.LBE705:
 1179              	.LBB708:
 1180              	.LBB700:
 1181              	.LBB695:
 257:../../../lib/pd2dsy/libdaisy/src/dev/oled_ssd130x.h ****         else
 1182              		.loc 3 257 42 view .LVU249
 1183 00be 4CEA0505 		orr	r5, ip, r5
 1184 00c2 1570     		strb	r5, [r2]
 1185              	.L73:
 1186              	.LBE695:
 1187              	.LBE700:
 1188              	.LBE708:
 416:../../../lib/pd2dsy/libdaisy/src/hid/disp/display.h ****             {
 1189              		.loc 4 416 13 is_stmt 1 discriminator 2 view .LVU250
 1190 00c4 0133     		adds	r3, r3, #1
 1191              	.LVL74:
 416:../../../lib/pd2dsy/libdaisy/src/hid/disp/display.h ****             {
 1192              		.loc 4 416 26 discriminator 2 view .LVU251
 1193 00c6 0132     		adds	r2, r2, #1
 1194 00c8 0131     		adds	r1, r1, #1
 1195 00ca 9C42     		cmp	r4, r3
ARM GAS  /var/folders/fb/yfxt3z4538j6z0vjt03w70vc0000gn/T//cc0qjWS6.s 			page 49


 1196 00cc 14D0     		beq	.L76
 1197              	.LVL75:
 1198              	.L77:
 418:../../../lib/pd2dsy/libdaisy/src/hid/disp/display.h ****                 {
 1199              		.loc 4 418 23 is_stmt 0 view .LVU252
 1200 00ce 06FA03F5 		lsl	r5, r6, r3
 418:../../../lib/pd2dsy/libdaisy/src/hid/disp/display.h ****                 {
 1201              		.loc 4 418 17 view .LVU253
 1202 00d2 2D04     		lsls	r5, r5, #16
 1203 00d4 ECD4     		bmi	.L95
 1204              	.LVL76:
 1205              	.LBB709:
 1206              	.LBI682:
  42:../../../lib/pd2dsy/libdaisy/src/hid/disp/oled_display.h ****     {
 1207              		.loc 2 42 10 is_stmt 1 view .LVU254
 1208              	.LBB701:
 1209              	.LBI683:
 252:../../../lib/pd2dsy/libdaisy/src/dev/oled_ssd130x.h ****     {
 1210              		.loc 3 252 10 view .LVU255
 1211              	.LBB696:
 254:../../../lib/pd2dsy/libdaisy/src/dev/oled_ssd130x.h ****             return;
 1212              		.loc 3 254 9 is_stmt 0 view .LVU256
 1213 00d6 7F29     		cmp	r1, #127
 1214 00d8 F4D8     		bhi	.L73
 1215 00da BEF13F0F 		cmp	lr, #63
 1216 00de F1D8     		bhi	.L73
 257:../../../lib/pd2dsy/libdaisy/src/dev/oled_ssd130x.h ****         else
 1217              		.loc 3 257 42 view .LVU257
 1218 00e0 1578     		ldrb	r5, [r2]	@ zero_extendqisi2
 256:../../../lib/pd2dsy/libdaisy/src/dev/oled_ssd130x.h ****             buffer_[x + (y / 8) * width] |= (1 << (y % 8));
 1219              		.loc 3 256 9 view .LVU258
 1220 00e2 002F     		cmp	r7, #0
 1221 00e4 EBD0     		beq	.L92
 1222              	.L75:
 1223              	.LVL77:
 1224              	.LBB691:
 1225              	.LBI685:
 252:../../../lib/pd2dsy/libdaisy/src/dev/oled_ssd130x.h ****     {
 1226              		.loc 3 252 10 is_stmt 1 view .LVU259
 252:../../../lib/pd2dsy/libdaisy/src/dev/oled_ssd130x.h ****     {
 1227              		.loc 3 252 10 is_stmt 0 view .LVU260
 1228              	.LBE691:
 1229              	.LBE696:
 1230              	.LBE701:
 1231              	.LBE709:
 416:../../../lib/pd2dsy/libdaisy/src/hid/disp/display.h ****             {
 1232              		.loc 4 416 13 view .LVU261
 1233 00e6 0133     		adds	r3, r3, #1
 1234              	.LVL78:
 1235              	.LBB710:
 1236              	.LBB702:
 1237              	.LBB697:
 1238              	.LBB692:
 1239              	.LBB688:
 259:../../../lib/pd2dsy/libdaisy/src/dev/oled_ssd130x.h ****     }
 1240              		.loc 3 259 42 view .LVU262
 1241 00e8 09EA0505 		and	r5, r9, r5
ARM GAS  /var/folders/fb/yfxt3z4538j6z0vjt03w70vc0000gn/T//cc0qjWS6.s 			page 50


 1242              	.LBE688:
 1243              	.LBE692:
 1244              	.LBE697:
 1245              	.LBE702:
 1246              	.LBE710:
 416:../../../lib/pd2dsy/libdaisy/src/hid/disp/display.h ****             {
 1247              		.loc 4 416 26 view .LVU263
 1248 00ec 0132     		adds	r2, r2, #1
 1249 00ee 0131     		adds	r1, r1, #1
 1250 00f0 9C42     		cmp	r4, r3
 1251              	.LBB711:
 1252              	.LBB703:
 1253              	.LBB698:
 1254              	.LBB693:
 1255              	.LBB689:
 259:../../../lib/pd2dsy/libdaisy/src/dev/oled_ssd130x.h ****     }
 1256              		.loc 3 259 42 view .LVU264
 1257 00f2 02F8015C 		strb	r5, [r2, #-1]
 259:../../../lib/pd2dsy/libdaisy/src/dev/oled_ssd130x.h ****     }
 1258              		.loc 3 259 42 view .LVU265
 1259              	.LBE689:
 1260              	.LBE693:
 1261              	.LBE698:
 1262              	.LBE703:
 1263              	.LBE711:
 416:../../../lib/pd2dsy/libdaisy/src/hid/disp/display.h ****             {
 1264              		.loc 4 416 13 is_stmt 1 view .LVU266
 1265              	.LVL79:
 416:../../../lib/pd2dsy/libdaisy/src/hid/disp/display.h ****             {
 1266              		.loc 4 416 26 view .LVU267
 1267 00f6 EAD1     		bne	.L77
 1268              	.LVL80:
 1269              	.L76:
 413:../../../lib/pd2dsy/libdaisy/src/hid/disp/display.h ****         {
 1270              		.loc 4 413 9 view .LVU268
 413:../../../lib/pd2dsy/libdaisy/src/hid/disp/display.h ****         {
 1271              		.loc 4 413 22 view .LVU269
 1272 00f8 5845     		cmp	r0, fp
 1273 00fa 0EF1010E 		add	lr, lr, #1
 1274 00fe C0D1     		bne	.L71
 1275              	.LVL81:
 1276              	.L70:
 1277              	.LBB712:
 1278              	.LBB713:
 173:../../../lib/pd2dsy/libdaisy/src/hid/disp/display.h ****         currentY_ = (y >= Height()) ? Height() - 1 : y;
 1279              		.loc 4 173 33 is_stmt 0 view .LVU270
 1280 0100 D8F80030 		ldr	r3, [r8]
 1281              	.LBE713:
 1282              	.LBE712:
 434:../../../lib/pd2dsy/libdaisy/src/hid/disp/display.h **** 
 1283              		.loc 4 434 18 view .LVU271
 1284 0104 5444     		add	r4, r4, r10
 1285 0106 2449     		ldr	r1, .L101
 1286              	.LBB719:
 1287              	.LBB714:
 173:../../../lib/pd2dsy/libdaisy/src/hid/disp/display.h ****         currentY_ = (y >= Height()) ? Height() - 1 : y;
 1288              		.loc 4 173 33 view .LVU272
ARM GAS  /var/folders/fb/yfxt3z4538j6z0vjt03w70vc0000gn/T//cc0qjWS6.s 			page 51


 1289 0108 DA68     		ldr	r2, [r3, #12]
 1290              	.LBE714:
 1291              	.LBE719:
 434:../../../lib/pd2dsy/libdaisy/src/hid/disp/display.h **** 
 1292              		.loc 4 434 18 view .LVU273
 1293 010a A4B2     		uxth	r4, r4
 1294              	.LVL82:
 1295              	.LBB720:
 1296              	.LBI712:
 171:../../../lib/pd2dsy/libdaisy/src/hid/disp/display.h ****     {
 1297              		.loc 4 171 10 is_stmt 1 view .LVU274
 1298              	.LBB715:
 173:../../../lib/pd2dsy/libdaisy/src/hid/disp/display.h ****         currentY_ = (y >= Height()) ? Height() - 1 : y;
 1299              		.loc 4 173 9 view .LVU275
 1300 010c 8A42     		cmp	r2, r1
 1301 010e 2DD1     		bne	.L96
 173:../../../lib/pd2dsy/libdaisy/src/hid/disp/display.h ****         currentY_ = (y >= Height()) ? Height() - 1 : y;
 1302              		.loc 4 173 33 is_stmt 0 view .LVU276
 1303 0110 8020     		movs	r0, #128
 1304              	.L78:
 173:../../../lib/pd2dsy/libdaisy/src/hid/disp/display.h ****         currentY_ = (y >= Height()) ? Height() - 1 : y;
 1305              		.loc 4 173 19 view .LVU277
 1306 0112 8442     		cmp	r4, r0
 1307 0114 1CD2     		bcs	.L97
 1308              	.LVL83:
 1309              	.L79:
 174:../../../lib/pd2dsy/libdaisy/src/hid/disp/display.h ****     }
 1310              		.loc 4 174 34 view .LVU278
 1311 0116 9B68     		ldr	r3, [r3, #8]
 1312 0118 204A     		ldr	r2, .L101+4
 173:../../../lib/pd2dsy/libdaisy/src/hid/disp/display.h ****         currentY_ = (y >= Height()) ? Height() - 1 : y;
 1313              		.loc 4 173 19 view .LVU279
 1314 011a A8F80440 		strh	r4, [r8, #4]	@ movhi
 174:../../../lib/pd2dsy/libdaisy/src/hid/disp/display.h ****     }
 1315              		.loc 4 174 9 is_stmt 1 view .LVU280
 1316 011e 9342     		cmp	r3, r2
 1317 0120 21D1     		bne	.L98
 174:../../../lib/pd2dsy/libdaisy/src/hid/disp/display.h ****     }
 1318              		.loc 4 174 34 is_stmt 0 view .LVU281
 1319 0122 4020     		movs	r0, #64
 1320              	.L81:
 174:../../../lib/pd2dsy/libdaisy/src/hid/disp/display.h ****     }
 1321              		.loc 4 174 19 view .LVU282
 1322 0124 019B     		ldr	r3, [sp, #4]
 1323 0126 8342     		cmp	r3, r0
 1324 0128 07D3     		bcc	.L82
 174:../../../lib/pd2dsy/libdaisy/src/hid/disp/display.h ****     }
 1325              		.loc 4 174 46 view .LVU283
 1326 012a D8F80030 		ldr	r3, [r8]
 1327 012e 1B4A     		ldr	r2, .L101+4
 1328 0130 9B68     		ldr	r3, [r3, #8]
 1329 0132 9342     		cmp	r3, r2
 1330 0134 29D1     		bne	.L99
 1331 0136 3F23     		movs	r3, #63
 1332 0138 0193     		str	r3, [sp, #4]
 1333              	.LVL84:
 1334              	.L82:
ARM GAS  /var/folders/fb/yfxt3z4538j6z0vjt03w70vc0000gn/T//cc0qjWS6.s 			page 52


 174:../../../lib/pd2dsy/libdaisy/src/hid/disp/display.h ****     }
 1335              		.loc 4 174 19 view .LVU284
 1336 013a DDE90003 		ldrd	r0, r3, [sp]
 1337 013e A8F80630 		strh	r3, [r8, #6]	@ movhi
 1338              	.LVL85:
 174:../../../lib/pd2dsy/libdaisy/src/hid/disp/display.h ****     }
 1339              		.loc 4 174 19 view .LVU285
 1340              	.LBE715:
 1341              	.LBE720:
 438:../../../lib/pd2dsy/libdaisy/src/hid/disp/display.h **** 
 1342              		.loc 4 438 5 view .LVU286
 1343 0142 05B0     		add	sp, sp, #20
 1344              		.cfi_remember_state
 1345              		.cfi_def_cfa_offset 36
 1346              		@ sp needed
 1347 0144 BDE8F08F 		pop	{r4, r5, r6, r7, r8, r9, r10, fp, pc}
 1348              	.LVL86:
 1349              	.L66:
 1350              		.cfi_restore_state
 402:../../../lib/pd2dsy/libdaisy/src/hid/disp/display.h **** 
 1351              		.loc 4 402 20 view .LVU287
 1352 0148 0020     		movs	r0, #0
 438:../../../lib/pd2dsy/libdaisy/src/hid/disp/display.h **** 
 1353              		.loc 4 438 5 view .LVU288
 1354 014a 05B0     		add	sp, sp, #20
 1355              		.cfi_remember_state
 1356              		.cfi_def_cfa_offset 36
 1357              		@ sp needed
 1358 014c BDE8F08F 		pop	{r4, r5, r6, r7, r8, r9, r10, fp, pc}
 1359              	.LVL87:
 1360              	.L97:
 1361              		.cfi_restore_state
 1362              	.LBB721:
 1363              	.LBB716:
 173:../../../lib/pd2dsy/libdaisy/src/hid/disp/display.h ****         currentY_ = (y >= Height()) ? Height() - 1 : y;
 1364              		.loc 4 173 44 view .LVU289
 1365 0150 DA68     		ldr	r2, [r3, #12]
 1366 0152 1149     		ldr	r1, .L101
 1367 0154 8A42     		cmp	r2, r1
 1368 0156 11D1     		bne	.L100
 1369 0158 7F24     		movs	r4, #127
 1370              	.LVL88:
 173:../../../lib/pd2dsy/libdaisy/src/hid/disp/display.h ****         currentY_ = (y >= Height()) ? Height() - 1 : y;
 1371              		.loc 4 173 44 view .LVU290
 1372 015a DCE7     		b	.L79
 1373              	.LVL89:
 1374              	.L93:
 173:../../../lib/pd2dsy/libdaisy/src/hid/disp/display.h ****         currentY_ = (y >= Height()) ? Height() - 1 : y;
 1375              		.loc 4 173 44 view .LVU291
 1376              	.LBE716:
 1377              	.LBE721:
 405:../../../lib/pd2dsy/libdaisy/src/hid/disp/display.h ****            || Height() < (currentY_ + font.FontHeight))
 1378              		.loc 4 405 17 view .LVU292
 1379 015c 9847     		blx	r3
 1380              	.LVL90:
 405:../../../lib/pd2dsy/libdaisy/src/hid/disp/display.h ****            || Height() < (currentY_ + font.FontHeight))
 1381              		.loc 4 405 17 view .LVU293
ARM GAS  /var/folders/fb/yfxt3z4538j6z0vjt03w70vc0000gn/T//cc0qjWS6.s 			page 53


 1382 015e 6AE7     		b	.L65
 1383              	.L94:
 406:../../../lib/pd2dsy/libdaisy/src/hid/disp/display.h ****         {
 1384              		.loc 4 406 21 discriminator 2 view .LVU294
 1385 0160 4046     		mov	r0, r8
 1386 0162 9847     		blx	r3
 1387              	.LVL91:
 1388 0164 75E7     		b	.L67
 1389              	.LVL92:
 1390              	.L98:
 1391              	.LBB722:
 1392              	.LBB717:
 174:../../../lib/pd2dsy/libdaisy/src/hid/disp/display.h ****     }
 1393              		.loc 4 174 33 view .LVU295
 1394 0166 4046     		mov	r0, r8
 1395 0168 9847     		blx	r3
 1396              	.LVL93:
 1397 016a DBE7     		b	.L81
 1398              	.LVL94:
 1399              	.L96:
 173:../../../lib/pd2dsy/libdaisy/src/hid/disp/display.h ****         currentY_ = (y >= Height()) ? Height() - 1 : y;
 1400              		.loc 4 173 32 view .LVU296
 1401 016c 4046     		mov	r0, r8
 1402 016e 9047     		blx	r2
 1403              	.LVL95:
 173:../../../lib/pd2dsy/libdaisy/src/hid/disp/display.h ****         currentY_ = (y >= Height()) ? Height() - 1 : y;
 1404              		.loc 4 173 44 view .LVU297
 1405 0170 D8F80030 		ldr	r3, [r8]
 1406 0174 CDE7     		b	.L78
 1407              	.LVL96:
 1408              	.L68:
 173:../../../lib/pd2dsy/libdaisy/src/hid/disp/display.h ****         currentY_ = (y >= Height()) ? Height() - 1 : y;
 1409              		.loc 4 173 44 view .LVU298
 1410              	.LBE717:
 1411              	.LBE722:
 434:../../../lib/pd2dsy/libdaisy/src/hid/disp/display.h **** 
 1412              		.loc 4 434 19 view .LVU299
 1413 0176 B8F804A0 		ldrh	r10, [r8, #4]
 1414 017a C1E7     		b	.L70
 1415              	.LVL97:
 1416              	.L100:
 1417              	.LBB723:
 1418              	.LBB718:
 173:../../../lib/pd2dsy/libdaisy/src/hid/disp/display.h ****         currentY_ = (y >= Height()) ? Height() - 1 : y;
 1419              		.loc 4 173 43 view .LVU300
 1420 017c 4046     		mov	r0, r8
 1421 017e 9047     		blx	r2
 1422              	.LVL98:
 173:../../../lib/pd2dsy/libdaisy/src/hid/disp/display.h ****         currentY_ = (y >= Height()) ? Height() - 1 : y;
 1423              		.loc 4 173 19 view .LVU301
 1424 0180 0138     		subs	r0, r0, #1
 174:../../../lib/pd2dsy/libdaisy/src/hid/disp/display.h ****     }
 1425              		.loc 4 174 34 view .LVU302
 1426 0182 D8F80030 		ldr	r3, [r8]
 173:../../../lib/pd2dsy/libdaisy/src/hid/disp/display.h ****         currentY_ = (y >= Height()) ? Height() - 1 : y;
 1427              		.loc 4 173 19 view .LVU303
 1428 0186 84B2     		uxth	r4, r0
ARM GAS  /var/folders/fb/yfxt3z4538j6z0vjt03w70vc0000gn/T//cc0qjWS6.s 			page 54


 1429              	.LVL99:
 173:../../../lib/pd2dsy/libdaisy/src/hid/disp/display.h ****         currentY_ = (y >= Height()) ? Height() - 1 : y;
 1430              		.loc 4 173 19 view .LVU304
 1431 0188 C5E7     		b	.L79
 1432              	.L99:
 174:../../../lib/pd2dsy/libdaisy/src/hid/disp/display.h ****     }
 1433              		.loc 4 174 45 view .LVU305
 1434 018a 4046     		mov	r0, r8
 1435 018c 9847     		blx	r3
 1436              	.LVL100:
 174:../../../lib/pd2dsy/libdaisy/src/hid/disp/display.h ****     }
 1437              		.loc 4 174 19 view .LVU306
 1438 018e 0138     		subs	r0, r0, #1
 1439 0190 83B2     		uxth	r3, r0
 1440 0192 0193     		str	r3, [sp, #4]
 1441              	.LVL101:
 174:../../../lib/pd2dsy/libdaisy/src/hid/disp/display.h ****     }
 1442              		.loc 4 174 19 view .LVU307
 1443 0194 D1E7     		b	.L82
 1444              	.L102:
 1445 0196 00BF     		.align	2
 1446              	.L101:
 1447 0198 00000000 		.word	_ZNK5daisy11OledDisplayINS_13SSD130xDriverILj128ELj64ENS_24SSD130x4WireSpiTransportEEEE5Widt
 1448 019c 00000000 		.word	_ZNK5daisy11OledDisplayINS_13SSD130xDriverILj128ELj64ENS_24SSD130x4WireSpiTransportEEEE6Heig
 1449              	.LBE718:
 1450              	.LBE723:
 1451              		.cfi_endproc
 1452              	.LFE3077:
 1454              		.section	.text._ZN5daisy25OneBitGraphicsDisplayImplINS_11OledDisplayINS_13SSD130xDriverILj128ELj64
 1455              		.align	1
 1456              		.p2align 2,,3
 1457              		.weak	_ZN5daisy25OneBitGraphicsDisplayImplINS_11OledDisplayINS_13SSD130xDriverILj128ELj64ENS_24SSD
 1458              		.syntax unified
 1459              		.thumb
 1460              		.thumb_func
 1462              	_ZN5daisy25OneBitGraphicsDisplayImplINS_11OledDisplayINS_13SSD130xDriverILj128ELj64ENS_24SSD130x4Wi
 1463              	.LVL102:
 1464              	.LFB3079:
 459:../../../lib/pd2dsy/libdaisy/src/hid/disp/display.h **** 
 460:../../../lib/pd2dsy/libdaisy/src/hid/disp/display.h ****     Rectangle WriteStringAligned(const char*    str,
 1465              		.loc 4 460 15 is_stmt 1 view -0
 1466              		.cfi_startproc
 1467              		@ args = 12, pretend = 0, frame = 32
 1468              		@ frame_needed = 0, uses_anonymous_args = 0
 1469              		.loc 4 460 15 is_stmt 0 view .LVU309
 1470 0000 2DE9F04F 		push	{r4, r5, r6, r7, r8, r9, r10, fp, lr}
 1471              		.cfi_def_cfa_offset 36
 1472              		.cfi_offset 4, -36
 1473              		.cfi_offset 5, -32
 1474              		.cfi_offset 6, -28
 1475              		.cfi_offset 7, -24
 1476              		.cfi_offset 8, -20
 1477              		.cfi_offset 9, -16
 1478              		.cfi_offset 10, -12
 1479              		.cfi_offset 11, -8
 1480              		.cfi_offset 14, -4
 1481 0004 89B0     		sub	sp, sp, #36
ARM GAS  /var/folders/fb/yfxt3z4538j6z0vjt03w70vc0000gn/T//cc0qjWS6.s 			page 55


 1482              		.cfi_def_cfa_offset 72
 1483              		.loc 4 460 15 view .LVU310
 1484 0006 1D46     		mov	r5, r3
 1485 0008 8846     		mov	r8, r1
 1486              	.LVL103:
 1487              	.LBB862:
 1488              	.LBI862:
 461:../../../lib/pd2dsy/libdaisy/src/hid/disp/display.h ****                                  const FontDef& font,
 462:../../../lib/pd2dsy/libdaisy/src/hid/disp/display.h ****                                  Rectangle      boundingBox,
 463:../../../lib/pd2dsy/libdaisy/src/hid/disp/display.h ****                                  Alignment      alignment,
 464:../../../lib/pd2dsy/libdaisy/src/hid/disp/display.h ****                                  bool           on) override
 465:../../../lib/pd2dsy/libdaisy/src/hid/disp/display.h ****     {
 466:../../../lib/pd2dsy/libdaisy/src/hid/disp/display.h ****         const auto alignedRect
 467:../../../lib/pd2dsy/libdaisy/src/hid/disp/display.h ****             = GetTextRect(str, font).AlignedWithin(boundingBox, alignment);
 468:../../../lib/pd2dsy/libdaisy/src/hid/disp/display.h ****         SetCursor(alignedRect.GetX(), alignedRect.GetY());
 469:../../../lib/pd2dsy/libdaisy/src/hid/disp/display.h ****         ((ChildType*)(this))->ChildType::WriteString(str, font, on);
 470:../../../lib/pd2dsy/libdaisy/src/hid/disp/display.h ****         return alignedRect;
 471:../../../lib/pd2dsy/libdaisy/src/hid/disp/display.h ****     }
 472:../../../lib/pd2dsy/libdaisy/src/hid/disp/display.h **** 
 473:../../../lib/pd2dsy/libdaisy/src/hid/disp/display.h ****   private:
 474:../../../lib/pd2dsy/libdaisy/src/hid/disp/display.h ****     uint32_t strlen(const char* string)
 475:../../../lib/pd2dsy/libdaisy/src/hid/disp/display.h ****     {
 476:../../../lib/pd2dsy/libdaisy/src/hid/disp/display.h ****         uint32_t result = 0;
 477:../../../lib/pd2dsy/libdaisy/src/hid/disp/display.h ****         while(*string++ != '\0')
 478:../../../lib/pd2dsy/libdaisy/src/hid/disp/display.h ****             result++;
 479:../../../lib/pd2dsy/libdaisy/src/hid/disp/display.h ****         return result;
 480:../../../lib/pd2dsy/libdaisy/src/hid/disp/display.h ****     }
 481:../../../lib/pd2dsy/libdaisy/src/hid/disp/display.h **** 
 482:../../../lib/pd2dsy/libdaisy/src/hid/disp/display.h ****     Rectangle GetTextRect(const char* text, const FontDef& font)
 1489              		.loc 4 482 15 is_stmt 1 view .LVU311
 1490              	.LBB863:
 1491              	.LBB864:
 1492              	.LBI864:
 474:../../../lib/pd2dsy/libdaisy/src/hid/disp/display.h ****     {
 1493              		.loc 4 474 14 view .LVU312
 1494              	.LBB865:
 477:../../../lib/pd2dsy/libdaisy/src/hid/disp/display.h ****             result++;
 1495              		.loc 4 477 25 view .LVU313
 1496              	.LBE865:
 1497              	.LBE864:
 1498              	.LBE863:
 1499              	.LBE862:
 460:../../../lib/pd2dsy/libdaisy/src/hid/disp/display.h ****                                  const FontDef& font,
 1500              		.loc 4 460 15 is_stmt 0 view .LVU314
 1501 000a 0690     		str	r0, [sp, #24]
 1502              	.LBB880:
 1503              	.LBB876:
 1504              	.LBB869:
 1505              	.LBB866:
 477:../../../lib/pd2dsy/libdaisy/src/hid/disp/display.h ****             result++;
 1506              		.loc 4 477 25 view .LVU315
 1507 000c 1046     		mov	r0, r2
 1508              	.LVL104:
 477:../../../lib/pd2dsy/libdaisy/src/hid/disp/display.h ****             result++;
 1509              		.loc 4 477 25 view .LVU316
 1510              	.LBE866:
 1511              	.LBE869:
ARM GAS  /var/folders/fb/yfxt3z4538j6z0vjt03w70vc0000gn/T//cc0qjWS6.s 			page 56


 1512              	.LBE876:
 1513              	.LBE880:
 460:../../../lib/pd2dsy/libdaisy/src/hid/disp/display.h ****                                  const FontDef& font,
 1514              		.loc 4 460 15 view .LVU317
 1515 000e 129C     		ldr	r4, [sp, #72]
 1516              	.LBB881:
 1517              	.LBB877:
 1518              	.LBB870:
 1519              	.LBB867:
 477:../../../lib/pd2dsy/libdaisy/src/hid/disp/display.h ****             result++;
 1520              		.loc 4 477 25 view .LVU318
 1521 0010 10F8013B 		ldrb	r3, [r0], #1	@ zero_extendqisi2
 1522              	.LVL105:
 477:../../../lib/pd2dsy/libdaisy/src/hid/disp/display.h ****             result++;
 1523              		.loc 4 477 25 view .LVU319
 1524              	.LBE867:
 1525              	.LBE870:
 1526              	.LBE877:
 1527              	.LBE881:
 460:../../../lib/pd2dsy/libdaisy/src/hid/disp/display.h ****                                  const FontDef& font,
 1528              		.loc 4 460 15 view .LVU320
 1529 0014 1399     		ldr	r1, [sp, #76]
 1530              	.LVL106:
 460:../../../lib/pd2dsy/libdaisy/src/hid/disp/display.h ****                                  const FontDef& font,
 1531              		.loc 4 460 15 view .LVU321
 1532 0016 9DF85060 		ldrb	r6, [sp, #80]	@ zero_extendqisi2
 1533 001a 0092     		str	r2, [sp]
 1534              	.LBB882:
 1535              	.LBB878:
 1536              	.LBB871:
 1537              	.LBB868:
 477:../../../lib/pd2dsy/libdaisy/src/hid/disp/display.h ****             result++;
 1538              		.loc 4 477 25 view .LVU322
 1539 001c 33B1     		cbz	r3, .L104
 476:../../../lib/pd2dsy/libdaisy/src/hid/disp/display.h ****         while(*string++ != '\0')
 1540              		.loc 4 476 18 view .LVU323
 1541 001e 0022     		movs	r2, #0
 1542              	.LVL107:
 1543              	.L105:
 477:../../../lib/pd2dsy/libdaisy/src/hid/disp/display.h ****             result++;
 1544              		.loc 4 477 25 view .LVU324
 1545 0020 10F8013B 		ldrb	r3, [r0], #1	@ zero_extendqisi2
 1546              	.LVL108:
 478:../../../lib/pd2dsy/libdaisy/src/hid/disp/display.h ****         return result;
 1547              		.loc 4 478 13 view .LVU325
 1548 0024 0132     		adds	r2, r2, #1
 1549              	.LVL109:
 477:../../../lib/pd2dsy/libdaisy/src/hid/disp/display.h ****             result++;
 1550              		.loc 4 477 25 is_stmt 1 view .LVU326
 1551 0026 002B     		cmp	r3, #0
 1552 0028 FAD1     		bne	.L105
 1553              	.LBE868:
 1554              	.LBE871:
 483:../../../lib/pd2dsy/libdaisy/src/hid/disp/display.h ****     {
 484:../../../lib/pd2dsy/libdaisy/src/hid/disp/display.h ****         const auto numChars = strlen(text);
 485:../../../lib/pd2dsy/libdaisy/src/hid/disp/display.h ****         return {int16_t(numChars * font.FontWidth), font.FontHeight};
 1555              		.loc 4 485 68 is_stmt 0 view .LVU327
ARM GAS  /var/folders/fb/yfxt3z4538j6z0vjt03w70vc0000gn/T//cc0qjWS6.s 			page 57


 1556 002a 93B2     		uxth	r3, r2
 1557              	.LVL110:
 1558              	.L104:
 1559              		.loc 4 485 68 view .LVU328
 1560 002c 2A78     		ldrb	r2, [r5]	@ zero_extendqisi2
 1561              		.loc 4 485 58 view .LVU329
 1562 002e 6878     		ldrb	r0, [r5, #1]	@ zero_extendqisi2
 1563              		.loc 4 485 68 view .LVU330
 1564 0030 12FB03F3 		smulbb	r3, r2, r3
 1565 0034 02B2     		sxth	r2, r0
 1566              	.LVL111:
 1567              	.LBB872:
 1568              	.LBI872:
 1569              		.file 16 "../../../lib/pd2dsy/libdaisy/src/hid/disp/graphics_common.h"
   1:../../../lib/pd2dsy/libdaisy/src/hid/disp/graphics_common.h **** #pragma once
   2:../../../lib/pd2dsy/libdaisy/src/hid/disp/graphics_common.h **** 
   3:../../../lib/pd2dsy/libdaisy/src/hid/disp/graphics_common.h **** #include <cstdint>
   4:../../../lib/pd2dsy/libdaisy/src/hid/disp/graphics_common.h **** 
   5:../../../lib/pd2dsy/libdaisy/src/hid/disp/graphics_common.h **** namespace daisy
   6:../../../lib/pd2dsy/libdaisy/src/hid/disp/graphics_common.h **** {
   7:../../../lib/pd2dsy/libdaisy/src/hid/disp/graphics_common.h **** /** Justifications */
   8:../../../lib/pd2dsy/libdaisy/src/hid/disp/graphics_common.h **** enum class Alignment
   9:../../../lib/pd2dsy/libdaisy/src/hid/disp/graphics_common.h **** {
  10:../../../lib/pd2dsy/libdaisy/src/hid/disp/graphics_common.h ****     centered,
  11:../../../lib/pd2dsy/libdaisy/src/hid/disp/graphics_common.h ****     topLeft,
  12:../../../lib/pd2dsy/libdaisy/src/hid/disp/graphics_common.h ****     topCentered,
  13:../../../lib/pd2dsy/libdaisy/src/hid/disp/graphics_common.h ****     topRight,
  14:../../../lib/pd2dsy/libdaisy/src/hid/disp/graphics_common.h ****     bottomLeft,
  15:../../../lib/pd2dsy/libdaisy/src/hid/disp/graphics_common.h ****     bottomCentered,
  16:../../../lib/pd2dsy/libdaisy/src/hid/disp/graphics_common.h ****     bottomRight,
  17:../../../lib/pd2dsy/libdaisy/src/hid/disp/graphics_common.h ****     centeredLeft,
  18:../../../lib/pd2dsy/libdaisy/src/hid/disp/graphics_common.h ****     centeredRight
  19:../../../lib/pd2dsy/libdaisy/src/hid/disp/graphics_common.h **** };
  20:../../../lib/pd2dsy/libdaisy/src/hid/disp/graphics_common.h **** 
  21:../../../lib/pd2dsy/libdaisy/src/hid/disp/graphics_common.h **** class Rectangle
  22:../../../lib/pd2dsy/libdaisy/src/hid/disp/graphics_common.h **** {
  23:../../../lib/pd2dsy/libdaisy/src/hid/disp/graphics_common.h ****   public:
  24:../../../lib/pd2dsy/libdaisy/src/hid/disp/graphics_common.h ****     Rectangle() : x_(0), y_(0), width_(0), height_(0) {}
  25:../../../lib/pd2dsy/libdaisy/src/hid/disp/graphics_common.h **** 
  26:../../../lib/pd2dsy/libdaisy/src/hid/disp/graphics_common.h ****     Rectangle(int16_t width, int16_t height)
 1570              		.loc 16 26 5 is_stmt 1 view .LVU331
 1571              	.LBB873:
 1572              	.LBI873:
  27:../../../lib/pd2dsy/libdaisy/src/hid/disp/graphics_common.h ****     : x_(0), y_(0), width_(max(0, width)), height_(max(0, height))
  28:../../../lib/pd2dsy/libdaisy/src/hid/disp/graphics_common.h ****     {
  29:../../../lib/pd2dsy/libdaisy/src/hid/disp/graphics_common.h ****     }
  30:../../../lib/pd2dsy/libdaisy/src/hid/disp/graphics_common.h **** 
  31:../../../lib/pd2dsy/libdaisy/src/hid/disp/graphics_common.h ****     Rectangle(int16_t x, int16_t y, int16_t width, int16_t height)
  32:../../../lib/pd2dsy/libdaisy/src/hid/disp/graphics_common.h ****     : x_(x), y_(y), width_(max(0, width)), height_(max(0, height))
  33:../../../lib/pd2dsy/libdaisy/src/hid/disp/graphics_common.h ****     {
  34:../../../lib/pd2dsy/libdaisy/src/hid/disp/graphics_common.h ****     }
  35:../../../lib/pd2dsy/libdaisy/src/hid/disp/graphics_common.h **** 
  36:../../../lib/pd2dsy/libdaisy/src/hid/disp/graphics_common.h ****     Rectangle(const Rectangle& other) { *this = other; }
  37:../../../lib/pd2dsy/libdaisy/src/hid/disp/graphics_common.h **** 
  38:../../../lib/pd2dsy/libdaisy/src/hid/disp/graphics_common.h ****     Rectangle& operator=(const Rectangle& other)
  39:../../../lib/pd2dsy/libdaisy/src/hid/disp/graphics_common.h ****     {
  40:../../../lib/pd2dsy/libdaisy/src/hid/disp/graphics_common.h ****         x_      = other.x_;
ARM GAS  /var/folders/fb/yfxt3z4538j6z0vjt03w70vc0000gn/T//cc0qjWS6.s 			page 58


  41:../../../lib/pd2dsy/libdaisy/src/hid/disp/graphics_common.h ****         y_      = other.y_;
  42:../../../lib/pd2dsy/libdaisy/src/hid/disp/graphics_common.h ****         width_  = other.width_;
  43:../../../lib/pd2dsy/libdaisy/src/hid/disp/graphics_common.h ****         height_ = other.height_;
  44:../../../lib/pd2dsy/libdaisy/src/hid/disp/graphics_common.h ****         return *this;
  45:../../../lib/pd2dsy/libdaisy/src/hid/disp/graphics_common.h ****     }
  46:../../../lib/pd2dsy/libdaisy/src/hid/disp/graphics_common.h **** 
  47:../../../lib/pd2dsy/libdaisy/src/hid/disp/graphics_common.h ****     bool operator==(const Rectangle& other) const
  48:../../../lib/pd2dsy/libdaisy/src/hid/disp/graphics_common.h ****     {
  49:../../../lib/pd2dsy/libdaisy/src/hid/disp/graphics_common.h ****         return (x_ == other.x_) && (y_ == other.y_) && (width_ == other.width_)
  50:../../../lib/pd2dsy/libdaisy/src/hid/disp/graphics_common.h ****                && (height_ == other.height_);
  51:../../../lib/pd2dsy/libdaisy/src/hid/disp/graphics_common.h ****     }
  52:../../../lib/pd2dsy/libdaisy/src/hid/disp/graphics_common.h ****     bool operator!=(const Rectangle& other) const { return !(*this == other); }
  53:../../../lib/pd2dsy/libdaisy/src/hid/disp/graphics_common.h **** 
  54:../../../lib/pd2dsy/libdaisy/src/hid/disp/graphics_common.h ****     bool IsEmpty() const { return (width_ <= 0) || (height_ <= 0); }
  55:../../../lib/pd2dsy/libdaisy/src/hid/disp/graphics_common.h **** 
  56:../../../lib/pd2dsy/libdaisy/src/hid/disp/graphics_common.h ****     int16_t GetX() const { return x_; }
  57:../../../lib/pd2dsy/libdaisy/src/hid/disp/graphics_common.h ****     int16_t GetY() const { return y_; }
  58:../../../lib/pd2dsy/libdaisy/src/hid/disp/graphics_common.h ****     int16_t GetWidth() const { return width_; }
  59:../../../lib/pd2dsy/libdaisy/src/hid/disp/graphics_common.h ****     int16_t GetHeight() const { return height_; }
  60:../../../lib/pd2dsy/libdaisy/src/hid/disp/graphics_common.h ****     int16_t GetRight() const { return x_ + width_; }
  61:../../../lib/pd2dsy/libdaisy/src/hid/disp/graphics_common.h ****     int16_t GetBottom() const { return y_ + height_; }
  62:../../../lib/pd2dsy/libdaisy/src/hid/disp/graphics_common.h ****     int16_t GetCenterX() const { return x_ + width_ / 2; }
  63:../../../lib/pd2dsy/libdaisy/src/hid/disp/graphics_common.h ****     int16_t GetCenterY() const { return y_ + height_ / 2; }
  64:../../../lib/pd2dsy/libdaisy/src/hid/disp/graphics_common.h **** 
  65:../../../lib/pd2dsy/libdaisy/src/hid/disp/graphics_common.h ****     Rectangle WithX(int16_t x) const { return {x, y_, width_, height_}; }
  66:../../../lib/pd2dsy/libdaisy/src/hid/disp/graphics_common.h ****     Rectangle WithY(int16_t y) const { return {x_, y, width_, height_}; }
  67:../../../lib/pd2dsy/libdaisy/src/hid/disp/graphics_common.h ****     Rectangle WithWidth(int16_t width) const
  68:../../../lib/pd2dsy/libdaisy/src/hid/disp/graphics_common.h ****     {
  69:../../../lib/pd2dsy/libdaisy/src/hid/disp/graphics_common.h ****         return {x_, y_, width, height_};
  70:../../../lib/pd2dsy/libdaisy/src/hid/disp/graphics_common.h ****     }
  71:../../../lib/pd2dsy/libdaisy/src/hid/disp/graphics_common.h ****     Rectangle WithHeight(int16_t height) const
  72:../../../lib/pd2dsy/libdaisy/src/hid/disp/graphics_common.h ****     {
  73:../../../lib/pd2dsy/libdaisy/src/hid/disp/graphics_common.h ****         return {x_, y_, width_, height};
  74:../../../lib/pd2dsy/libdaisy/src/hid/disp/graphics_common.h ****     }
  75:../../../lib/pd2dsy/libdaisy/src/hid/disp/graphics_common.h ****     Rectangle WithSize(int16_t width, int16_t height) const
  76:../../../lib/pd2dsy/libdaisy/src/hid/disp/graphics_common.h ****     {
  77:../../../lib/pd2dsy/libdaisy/src/hid/disp/graphics_common.h ****         return {x_, y_, width, height};
  78:../../../lib/pd2dsy/libdaisy/src/hid/disp/graphics_common.h ****     }
  79:../../../lib/pd2dsy/libdaisy/src/hid/disp/graphics_common.h ****     Rectangle WithWidthKeepingCenter(int16_t width) const
  80:../../../lib/pd2dsy/libdaisy/src/hid/disp/graphics_common.h ****     {
  81:../../../lib/pd2dsy/libdaisy/src/hid/disp/graphics_common.h ****         return Rectangle(x_, y_, width, height_)
  82:../../../lib/pd2dsy/libdaisy/src/hid/disp/graphics_common.h ****             .WithCenter(GetCenterX(), GetCenterY());
  83:../../../lib/pd2dsy/libdaisy/src/hid/disp/graphics_common.h ****     }
  84:../../../lib/pd2dsy/libdaisy/src/hid/disp/graphics_common.h ****     Rectangle WithHeightKeepingCenter(int16_t height) const
  85:../../../lib/pd2dsy/libdaisy/src/hid/disp/graphics_common.h ****     {
  86:../../../lib/pd2dsy/libdaisy/src/hid/disp/graphics_common.h ****         return Rectangle(x_, y_, width_, height)
  87:../../../lib/pd2dsy/libdaisy/src/hid/disp/graphics_common.h ****             .WithCenter(GetCenterX(), GetCenterY());
  88:../../../lib/pd2dsy/libdaisy/src/hid/disp/graphics_common.h ****     }
  89:../../../lib/pd2dsy/libdaisy/src/hid/disp/graphics_common.h ****     Rectangle WithSizeKeepingCenter(int16_t width, int16_t height) const
  90:../../../lib/pd2dsy/libdaisy/src/hid/disp/graphics_common.h ****     {
  91:../../../lib/pd2dsy/libdaisy/src/hid/disp/graphics_common.h ****         return Rectangle(x_, y_, width, height)
  92:../../../lib/pd2dsy/libdaisy/src/hid/disp/graphics_common.h ****             .WithCenter(GetCenterX(), GetCenterY());
  93:../../../lib/pd2dsy/libdaisy/src/hid/disp/graphics_common.h ****     }
  94:../../../lib/pd2dsy/libdaisy/src/hid/disp/graphics_common.h **** 
  95:../../../lib/pd2dsy/libdaisy/src/hid/disp/graphics_common.h ****     Rectangle Reduced(int16_t sizeToReduce) const
  96:../../../lib/pd2dsy/libdaisy/src/hid/disp/graphics_common.h ****     {
  97:../../../lib/pd2dsy/libdaisy/src/hid/disp/graphics_common.h ****         return {int16_t(x_ + sizeToReduce),
ARM GAS  /var/folders/fb/yfxt3z4538j6z0vjt03w70vc0000gn/T//cc0qjWS6.s 			page 59


  98:../../../lib/pd2dsy/libdaisy/src/hid/disp/graphics_common.h ****                 int16_t(y_ + sizeToReduce),
  99:../../../lib/pd2dsy/libdaisy/src/hid/disp/graphics_common.h ****                 int16_t(width_ - 2 * sizeToReduce),
 100:../../../lib/pd2dsy/libdaisy/src/hid/disp/graphics_common.h ****                 int16_t(height_ - 2 * sizeToReduce)};
 101:../../../lib/pd2dsy/libdaisy/src/hid/disp/graphics_common.h ****     }
 102:../../../lib/pd2dsy/libdaisy/src/hid/disp/graphics_common.h ****     Rectangle Reduced(int16_t xToReduce, int16_t yToReduce) const
 103:../../../lib/pd2dsy/libdaisy/src/hid/disp/graphics_common.h ****     {
 104:../../../lib/pd2dsy/libdaisy/src/hid/disp/graphics_common.h ****         return {int16_t(x_ + xToReduce),
 105:../../../lib/pd2dsy/libdaisy/src/hid/disp/graphics_common.h ****                 int16_t(y_ + yToReduce),
 106:../../../lib/pd2dsy/libdaisy/src/hid/disp/graphics_common.h ****                 int16_t(width_ - 2 * xToReduce),
 107:../../../lib/pd2dsy/libdaisy/src/hid/disp/graphics_common.h ****                 int16_t(height_ - 2 * yToReduce)};
 108:../../../lib/pd2dsy/libdaisy/src/hid/disp/graphics_common.h ****     }
 109:../../../lib/pd2dsy/libdaisy/src/hid/disp/graphics_common.h **** 
 110:../../../lib/pd2dsy/libdaisy/src/hid/disp/graphics_common.h ****     Rectangle Translated(int16_t x, int16_t y) const
 111:../../../lib/pd2dsy/libdaisy/src/hid/disp/graphics_common.h ****     {
 112:../../../lib/pd2dsy/libdaisy/src/hid/disp/graphics_common.h ****         return {int16_t(x_ + x), int16_t(y_ + y), width_, height_};
 113:../../../lib/pd2dsy/libdaisy/src/hid/disp/graphics_common.h ****     }
 114:../../../lib/pd2dsy/libdaisy/src/hid/disp/graphics_common.h **** 
 115:../../../lib/pd2dsy/libdaisy/src/hid/disp/graphics_common.h ****     Rectangle WithLeft(int16_t left) const
 116:../../../lib/pd2dsy/libdaisy/src/hid/disp/graphics_common.h ****     {
 117:../../../lib/pd2dsy/libdaisy/src/hid/disp/graphics_common.h ****         const auto newWidth = int16_t((x_ - left) + width_);
 118:../../../lib/pd2dsy/libdaisy/src/hid/disp/graphics_common.h ****         return {left, y_, newWidth, height_};
 119:../../../lib/pd2dsy/libdaisy/src/hid/disp/graphics_common.h ****     }
 120:../../../lib/pd2dsy/libdaisy/src/hid/disp/graphics_common.h **** 
 121:../../../lib/pd2dsy/libdaisy/src/hid/disp/graphics_common.h ****     Rectangle WithRight(int16_t right) const
 122:../../../lib/pd2dsy/libdaisy/src/hid/disp/graphics_common.h ****     {
 123:../../../lib/pd2dsy/libdaisy/src/hid/disp/graphics_common.h ****         const auto newWidth = int16_t(right - x_);
 124:../../../lib/pd2dsy/libdaisy/src/hid/disp/graphics_common.h ****         return {x_, y_, newWidth, height_};
 125:../../../lib/pd2dsy/libdaisy/src/hid/disp/graphics_common.h ****     }
 126:../../../lib/pd2dsy/libdaisy/src/hid/disp/graphics_common.h **** 
 127:../../../lib/pd2dsy/libdaisy/src/hid/disp/graphics_common.h ****     Rectangle WithTop(int16_t top) const
 128:../../../lib/pd2dsy/libdaisy/src/hid/disp/graphics_common.h ****     {
 129:../../../lib/pd2dsy/libdaisy/src/hid/disp/graphics_common.h ****         const auto newHeight = int16_t((y_ - top) + height_);
 130:../../../lib/pd2dsy/libdaisy/src/hid/disp/graphics_common.h ****         return {x_, top, width_, newHeight};
 131:../../../lib/pd2dsy/libdaisy/src/hid/disp/graphics_common.h ****     }
 132:../../../lib/pd2dsy/libdaisy/src/hid/disp/graphics_common.h **** 
 133:../../../lib/pd2dsy/libdaisy/src/hid/disp/graphics_common.h ****     Rectangle WithBottom(int16_t bottom) const
 134:../../../lib/pd2dsy/libdaisy/src/hid/disp/graphics_common.h ****     {
 135:../../../lib/pd2dsy/libdaisy/src/hid/disp/graphics_common.h ****         const auto newHeight = int16_t(bottom - y_);
 136:../../../lib/pd2dsy/libdaisy/src/hid/disp/graphics_common.h ****         return {x_, y_, width_, newHeight};
 137:../../../lib/pd2dsy/libdaisy/src/hid/disp/graphics_common.h ****     }
 138:../../../lib/pd2dsy/libdaisy/src/hid/disp/graphics_common.h **** 
 139:../../../lib/pd2dsy/libdaisy/src/hid/disp/graphics_common.h ****     Rectangle WithTrimmedLeft(int16_t pxToTrim) const
 140:../../../lib/pd2dsy/libdaisy/src/hid/disp/graphics_common.h ****     {
 141:../../../lib/pd2dsy/libdaisy/src/hid/disp/graphics_common.h ****         return {
 142:../../../lib/pd2dsy/libdaisy/src/hid/disp/graphics_common.h ****             int16_t(x_ + pxToTrim), y_, int16_t(width_ - pxToTrim), height_};
 143:../../../lib/pd2dsy/libdaisy/src/hid/disp/graphics_common.h ****     }
 144:../../../lib/pd2dsy/libdaisy/src/hid/disp/graphics_common.h **** 
 145:../../../lib/pd2dsy/libdaisy/src/hid/disp/graphics_common.h ****     Rectangle WithTrimmedRight(int16_t pxToTrim) const
 146:../../../lib/pd2dsy/libdaisy/src/hid/disp/graphics_common.h ****     {
 147:../../../lib/pd2dsy/libdaisy/src/hid/disp/graphics_common.h ****         return {x_, y_, int16_t(width_ - pxToTrim), height_};
 148:../../../lib/pd2dsy/libdaisy/src/hid/disp/graphics_common.h ****     }
 149:../../../lib/pd2dsy/libdaisy/src/hid/disp/graphics_common.h **** 
 150:../../../lib/pd2dsy/libdaisy/src/hid/disp/graphics_common.h ****     Rectangle WithTrimmedTop(int16_t pxToTrim) const
 151:../../../lib/pd2dsy/libdaisy/src/hid/disp/graphics_common.h ****     {
 152:../../../lib/pd2dsy/libdaisy/src/hid/disp/graphics_common.h ****         return {
 153:../../../lib/pd2dsy/libdaisy/src/hid/disp/graphics_common.h ****             x_, int16_t(y_ + pxToTrim), width_, int16_t(height_ - pxToTrim)};
 154:../../../lib/pd2dsy/libdaisy/src/hid/disp/graphics_common.h ****     }
ARM GAS  /var/folders/fb/yfxt3z4538j6z0vjt03w70vc0000gn/T//cc0qjWS6.s 			page 60


 155:../../../lib/pd2dsy/libdaisy/src/hid/disp/graphics_common.h **** 
 156:../../../lib/pd2dsy/libdaisy/src/hid/disp/graphics_common.h ****     Rectangle WithTrimmedBottom(int16_t pxToTrim) const
 157:../../../lib/pd2dsy/libdaisy/src/hid/disp/graphics_common.h ****     {
 158:../../../lib/pd2dsy/libdaisy/src/hid/disp/graphics_common.h ****         return {x_, y_, width_, int16_t(height_ - pxToTrim)};
 159:../../../lib/pd2dsy/libdaisy/src/hid/disp/graphics_common.h ****     }
 160:../../../lib/pd2dsy/libdaisy/src/hid/disp/graphics_common.h **** 
 161:../../../lib/pd2dsy/libdaisy/src/hid/disp/graphics_common.h ****     Rectangle WithCenterX(int16_t centerX) const
 162:../../../lib/pd2dsy/libdaisy/src/hid/disp/graphics_common.h ****     {
 163:../../../lib/pd2dsy/libdaisy/src/hid/disp/graphics_common.h ****         return {int16_t(x_ + centerX - GetCenterX()), y_, width_, height_};
 164:../../../lib/pd2dsy/libdaisy/src/hid/disp/graphics_common.h ****     }
 165:../../../lib/pd2dsy/libdaisy/src/hid/disp/graphics_common.h **** 
 166:../../../lib/pd2dsy/libdaisy/src/hid/disp/graphics_common.h ****     Rectangle WithCenterY(int16_t centerY) const
 167:../../../lib/pd2dsy/libdaisy/src/hid/disp/graphics_common.h ****     {
 168:../../../lib/pd2dsy/libdaisy/src/hid/disp/graphics_common.h ****         return {x_, int16_t(y_ + centerY - GetCenterY()), width_, height_};
 169:../../../lib/pd2dsy/libdaisy/src/hid/disp/graphics_common.h ****     }
 170:../../../lib/pd2dsy/libdaisy/src/hid/disp/graphics_common.h **** 
 171:../../../lib/pd2dsy/libdaisy/src/hid/disp/graphics_common.h ****     Rectangle WithCenter(int16_t centerX, int16_t centerY) const
 172:../../../lib/pd2dsy/libdaisy/src/hid/disp/graphics_common.h ****     {
 173:../../../lib/pd2dsy/libdaisy/src/hid/disp/graphics_common.h ****         return {int16_t(x_ + centerX - GetCenterX()),
 174:../../../lib/pd2dsy/libdaisy/src/hid/disp/graphics_common.h ****                 int16_t(y_ + centerY - GetCenterY()),
 175:../../../lib/pd2dsy/libdaisy/src/hid/disp/graphics_common.h ****                 width_,
 176:../../../lib/pd2dsy/libdaisy/src/hid/disp/graphics_common.h ****                 height_};
 177:../../../lib/pd2dsy/libdaisy/src/hid/disp/graphics_common.h ****     }
 178:../../../lib/pd2dsy/libdaisy/src/hid/disp/graphics_common.h **** 
 179:../../../lib/pd2dsy/libdaisy/src/hid/disp/graphics_common.h ****     Rectangle RemoveFromLeft(int16_t pxToRemove)
 180:../../../lib/pd2dsy/libdaisy/src/hid/disp/graphics_common.h ****     {
 181:../../../lib/pd2dsy/libdaisy/src/hid/disp/graphics_common.h ****         const auto result = this->WithWidth(min(pxToRemove, width_));
 182:../../../lib/pd2dsy/libdaisy/src/hid/disp/graphics_common.h ****         x_ += min(pxToRemove, width_);
 183:../../../lib/pd2dsy/libdaisy/src/hid/disp/graphics_common.h ****         width_ = max(int16_t(width_ - pxToRemove), 0);
 184:../../../lib/pd2dsy/libdaisy/src/hid/disp/graphics_common.h ****         return result;
 185:../../../lib/pd2dsy/libdaisy/src/hid/disp/graphics_common.h ****     }
 186:../../../lib/pd2dsy/libdaisy/src/hid/disp/graphics_common.h **** 
 187:../../../lib/pd2dsy/libdaisy/src/hid/disp/graphics_common.h ****     Rectangle RemoveFromRight(int16_t pxToRemove)
 188:../../../lib/pd2dsy/libdaisy/src/hid/disp/graphics_common.h ****     {
 189:../../../lib/pd2dsy/libdaisy/src/hid/disp/graphics_common.h ****         const auto canRemove = min(pxToRemove, width_);
 190:../../../lib/pd2dsy/libdaisy/src/hid/disp/graphics_common.h ****         width_ -= canRemove;
 191:../../../lib/pd2dsy/libdaisy/src/hid/disp/graphics_common.h ****         return {int16_t(x_ + width_), y_, canRemove, height_};
 192:../../../lib/pd2dsy/libdaisy/src/hid/disp/graphics_common.h ****     }
 193:../../../lib/pd2dsy/libdaisy/src/hid/disp/graphics_common.h **** 
 194:../../../lib/pd2dsy/libdaisy/src/hid/disp/graphics_common.h ****     Rectangle RemoveFromTop(int16_t pxToRemove)
 195:../../../lib/pd2dsy/libdaisy/src/hid/disp/graphics_common.h ****     {
 196:../../../lib/pd2dsy/libdaisy/src/hid/disp/graphics_common.h ****         const auto result = this->WithHeight(min(pxToRemove, height_));
 197:../../../lib/pd2dsy/libdaisy/src/hid/disp/graphics_common.h ****         y_ += min(pxToRemove, height_);
 198:../../../lib/pd2dsy/libdaisy/src/hid/disp/graphics_common.h ****         height_ = max(height_ - pxToRemove, 0);
 199:../../../lib/pd2dsy/libdaisy/src/hid/disp/graphics_common.h ****         return result;
 200:../../../lib/pd2dsy/libdaisy/src/hid/disp/graphics_common.h ****     }
 201:../../../lib/pd2dsy/libdaisy/src/hid/disp/graphics_common.h **** 
 202:../../../lib/pd2dsy/libdaisy/src/hid/disp/graphics_common.h ****     Rectangle RemoveFromBottom(int16_t pxToRemove)
 203:../../../lib/pd2dsy/libdaisy/src/hid/disp/graphics_common.h ****     {
 204:../../../lib/pd2dsy/libdaisy/src/hid/disp/graphics_common.h ****         const auto canRemove = min(pxToRemove, height_);
 205:../../../lib/pd2dsy/libdaisy/src/hid/disp/graphics_common.h ****         height_ -= canRemove;
 206:../../../lib/pd2dsy/libdaisy/src/hid/disp/graphics_common.h ****         return {x_, int16_t(y_ + height_), width_, canRemove};
 207:../../../lib/pd2dsy/libdaisy/src/hid/disp/graphics_common.h ****     }
 208:../../../lib/pd2dsy/libdaisy/src/hid/disp/graphics_common.h **** 
 209:../../../lib/pd2dsy/libdaisy/src/hid/disp/graphics_common.h ****     Rectangle AlignedWithin(const Rectangle& other, Alignment alignment) const
 210:../../../lib/pd2dsy/libdaisy/src/hid/disp/graphics_common.h ****     {
 211:../../../lib/pd2dsy/libdaisy/src/hid/disp/graphics_common.h ****         switch(alignment)
ARM GAS  /var/folders/fb/yfxt3z4538j6z0vjt03w70vc0000gn/T//cc0qjWS6.s 			page 61


 212:../../../lib/pd2dsy/libdaisy/src/hid/disp/graphics_common.h ****         {
 213:../../../lib/pd2dsy/libdaisy/src/hid/disp/graphics_common.h ****             case Alignment::topLeft:
 214:../../../lib/pd2dsy/libdaisy/src/hid/disp/graphics_common.h ****                 return {other.x_, other.y_, width_, height_};
 215:../../../lib/pd2dsy/libdaisy/src/hid/disp/graphics_common.h ****             case Alignment::topRight:
 216:../../../lib/pd2dsy/libdaisy/src/hid/disp/graphics_common.h ****                 return {int16_t(other.GetRight() - width_),
 217:../../../lib/pd2dsy/libdaisy/src/hid/disp/graphics_common.h ****                         other.y_,
 218:../../../lib/pd2dsy/libdaisy/src/hid/disp/graphics_common.h ****                         width_,
 219:../../../lib/pd2dsy/libdaisy/src/hid/disp/graphics_common.h ****                         height_};
 220:../../../lib/pd2dsy/libdaisy/src/hid/disp/graphics_common.h ****             case Alignment::topCentered:
 221:../../../lib/pd2dsy/libdaisy/src/hid/disp/graphics_common.h ****                 return {int16_t(x_ + (other.GetCenterX() - GetCenterX())),
 222:../../../lib/pd2dsy/libdaisy/src/hid/disp/graphics_common.h ****                         other.y_,
 223:../../../lib/pd2dsy/libdaisy/src/hid/disp/graphics_common.h ****                         width_,
 224:../../../lib/pd2dsy/libdaisy/src/hid/disp/graphics_common.h ****                         height_};
 225:../../../lib/pd2dsy/libdaisy/src/hid/disp/graphics_common.h ****             case Alignment::bottomLeft:
 226:../../../lib/pd2dsy/libdaisy/src/hid/disp/graphics_common.h ****                 return {other.x_,
 227:../../../lib/pd2dsy/libdaisy/src/hid/disp/graphics_common.h ****                         int16_t(other.GetBottom() - height_),
 228:../../../lib/pd2dsy/libdaisy/src/hid/disp/graphics_common.h ****                         width_,
 229:../../../lib/pd2dsy/libdaisy/src/hid/disp/graphics_common.h ****                         height_};
 230:../../../lib/pd2dsy/libdaisy/src/hid/disp/graphics_common.h ****             case Alignment::bottomRight:
 231:../../../lib/pd2dsy/libdaisy/src/hid/disp/graphics_common.h ****                 return {int16_t(other.GetRight() - width_),
 232:../../../lib/pd2dsy/libdaisy/src/hid/disp/graphics_common.h ****                         int16_t(other.GetBottom() - height_),
 233:../../../lib/pd2dsy/libdaisy/src/hid/disp/graphics_common.h ****                         width_,
 234:../../../lib/pd2dsy/libdaisy/src/hid/disp/graphics_common.h ****                         height_};
 235:../../../lib/pd2dsy/libdaisy/src/hid/disp/graphics_common.h ****             case Alignment::bottomCentered:
 236:../../../lib/pd2dsy/libdaisy/src/hid/disp/graphics_common.h ****                 return {int16_t(x_ + (other.GetCenterX() - GetCenterX())),
 237:../../../lib/pd2dsy/libdaisy/src/hid/disp/graphics_common.h ****                         int16_t(other.GetBottom() - height_),
 238:../../../lib/pd2dsy/libdaisy/src/hid/disp/graphics_common.h ****                         width_,
 239:../../../lib/pd2dsy/libdaisy/src/hid/disp/graphics_common.h ****                         height_};
 240:../../../lib/pd2dsy/libdaisy/src/hid/disp/graphics_common.h ****             case Alignment::centeredLeft:
 241:../../../lib/pd2dsy/libdaisy/src/hid/disp/graphics_common.h ****                 return {other.x_,
 242:../../../lib/pd2dsy/libdaisy/src/hid/disp/graphics_common.h ****                         int16_t(y_ + (other.GetCenterY() - GetCenterY())),
 243:../../../lib/pd2dsy/libdaisy/src/hid/disp/graphics_common.h ****                         width_,
 244:../../../lib/pd2dsy/libdaisy/src/hid/disp/graphics_common.h ****                         height_};
 245:../../../lib/pd2dsy/libdaisy/src/hid/disp/graphics_common.h ****             case Alignment::centeredRight:
 246:../../../lib/pd2dsy/libdaisy/src/hid/disp/graphics_common.h ****                 return {int16_t(other.GetRight() - width_),
 247:../../../lib/pd2dsy/libdaisy/src/hid/disp/graphics_common.h ****                         int16_t(y_ + (other.GetCenterY() - GetCenterY())),
 248:../../../lib/pd2dsy/libdaisy/src/hid/disp/graphics_common.h ****                         width_,
 249:../../../lib/pd2dsy/libdaisy/src/hid/disp/graphics_common.h ****                         height_};
 250:../../../lib/pd2dsy/libdaisy/src/hid/disp/graphics_common.h ****             case Alignment::centered:
 251:../../../lib/pd2dsy/libdaisy/src/hid/disp/graphics_common.h ****                 return {int16_t(x_ + (other.GetCenterX() - GetCenterX())),
 252:../../../lib/pd2dsy/libdaisy/src/hid/disp/graphics_common.h ****                         int16_t(y_ + (other.GetCenterY() - GetCenterY())),
 253:../../../lib/pd2dsy/libdaisy/src/hid/disp/graphics_common.h ****                         width_,
 254:../../../lib/pd2dsy/libdaisy/src/hid/disp/graphics_common.h ****                         height_};
 255:../../../lib/pd2dsy/libdaisy/src/hid/disp/graphics_common.h ****             default: return {};
 256:../../../lib/pd2dsy/libdaisy/src/hid/disp/graphics_common.h ****         }
 257:../../../lib/pd2dsy/libdaisy/src/hid/disp/graphics_common.h ****     }
 258:../../../lib/pd2dsy/libdaisy/src/hid/disp/graphics_common.h **** 
 259:../../../lib/pd2dsy/libdaisy/src/hid/disp/graphics_common.h ****   private:
 260:../../../lib/pd2dsy/libdaisy/src/hid/disp/graphics_common.h ****     int16_t x_, y_, width_, height_;
 261:../../../lib/pd2dsy/libdaisy/src/hid/disp/graphics_common.h ****     int16_t max(int16_t a, int16_t b) { return (a > b) ? a : b; }
 1573              		.loc 16 261 13 view .LVU332
 1574              	.LBE873:
 1575              	.LBE872:
 1576              	.LBE878:
 1577              	.LBE882:
 1578              		.loc 16 261 41 view .LVU333
 1579              	.LBB883:
ARM GAS  /var/folders/fb/yfxt3z4538j6z0vjt03w70vc0000gn/T//cc0qjWS6.s 			page 62


 1580              	.LBB879:
 1581              	.LBB875:
 1582              	.LBB874:
 1583              	.LBI874:
 1584              		.loc 16 261 13 view .LVU334
 1585              	.LBE874:
 1586              	.LBE875:
 1587              	.LBE879:
 1588              	.LBE883:
 1589              		.loc 16 261 41 view .LVU335
 1590              	.LBB884:
 1591              	.LBI884:
 209:../../../lib/pd2dsy/libdaisy/src/hid/disp/graphics_common.h ****     {
 1592              		.loc 16 209 15 view .LVU336
 1593              	.LBB885:
 211:../../../lib/pd2dsy/libdaisy/src/hid/disp/graphics_common.h ****         {
 1594              		.loc 16 211 9 view .LVU337
 1595 0036 1BB2     		sxth	r3, r3
 1596 0038 23EAE373 		bic	r3, r3, r3, asr #31
 1597 003c 0829     		cmp	r1, #8
 1598 003e 00F2A681 		bhi	.L106
 1599 0042 DFE811F0 		tbh	[pc, r1, lsl #1]
 1600              	.L108:
 1601 0046 0101     		.2byte	(.L116-.L108)/2
 1602 0048 1301     		.2byte	(.L115-.L108)/2
 1603 004a 1F01     		.2byte	(.L114-.L108)/2
 1604 004c 3301     		.2byte	(.L113-.L108)/2
 1605 004e 4101     		.2byte	(.L112-.L108)/2
 1606 0050 4F01     		.2byte	(.L111-.L108)/2
 1607 0052 6601     		.2byte	(.L110-.L108)/2
 1608 0054 6F01     		.2byte	(.L109-.L108)/2
 1609 0056 0900     		.2byte	(.L107-.L108)/2
 1610              		.p2align 1
 1611              	.L107:
 245:../../../lib/pd2dsy/libdaisy/src/hid/disp/graphics_common.h ****                 return {int16_t(other.GetRight() - width_),
 1612              		.loc 16 245 13 view .LVU338
 246:../../../lib/pd2dsy/libdaisy/src/hid/disp/graphics_common.h ****                         int16_t(y_ + (other.GetCenterY() - GetCenterY())),
 1613              		.loc 16 246 17 view .LVU339
 1614              	.LVL112:
 1615              	.LBB886:
 1616              	.LBI886:
  60:../../../lib/pd2dsy/libdaisy/src/hid/disp/graphics_common.h ****     int16_t GetBottom() const { return y_ + height_; }
 1617              		.loc 16 60 13 view .LVU340
 1618              	.LBB887:
  60:../../../lib/pd2dsy/libdaisy/src/hid/disp/graphics_common.h ****     int16_t GetBottom() const { return y_ + height_; }
 1619              		.loc 16 60 32 view .LVU341
  60:../../../lib/pd2dsy/libdaisy/src/hid/disp/graphics_common.h ****     int16_t GetBottom() const { return y_ + height_; }
 1620              		.loc 16 60 42 is_stmt 0 view .LVU342
 1621 0058 A188     		ldrh	r1, [r4, #4]
 1622              	.LVL113:
  60:../../../lib/pd2dsy/libdaisy/src/hid/disp/graphics_common.h ****     int16_t GetBottom() const { return y_ + height_; }
 1623              		.loc 16 60 42 view .LVU343
 1624 005a 2788     		ldrh	r7, [r4]
 1625 005c 0F44     		add	r7, r7, r1
 1626              	.LBE887:
 1627              	.LBE886:
 1628              	.LBB888:
ARM GAS  /var/folders/fb/yfxt3z4538j6z0vjt03w70vc0000gn/T//cc0qjWS6.s 			page 63


 1629              	.LBB889:
  63:../../../lib/pd2dsy/libdaisy/src/hid/disp/graphics_common.h **** 
 1630              		.loc 16 63 54 view .LVU344
 1631 005e B4F90610 		ldrsh	r1, [r4, #6]
 1632              	.LBE889:
 1633              	.LBE888:
 246:../../../lib/pd2dsy/libdaisy/src/hid/disp/graphics_common.h ****                         int16_t(y_ + (other.GetCenterY() - GetCenterY())),
 1634              		.loc 16 246 50 view .LVU345
 1635 0062 FF1A     		subs	r7, r7, r3
 1636              	.LBB893:
 1637              	.LBB890:
  63:../../../lib/pd2dsy/libdaisy/src/hid/disp/graphics_common.h **** 
 1638              		.loc 16 63 54 view .LVU346
 1639 0064 0029     		cmp	r1, #0
 1640              	.LBE890:
 1641              	.LBE893:
 246:../../../lib/pd2dsy/libdaisy/src/hid/disp/graphics_common.h ****                         int16_t(y_ + (other.GetCenterY() - GetCenterY())),
 1642              		.loc 16 246 50 view .LVU347
 1643 0066 BFB2     		uxth	r7, r7
 1644              	.LVL114:
 1645              	.LBB894:
 1646              	.LBI888:
  63:../../../lib/pd2dsy/libdaisy/src/hid/disp/graphics_common.h **** 
 1647              		.loc 16 63 13 is_stmt 1 view .LVU348
 1648              	.LBB891:
  63:../../../lib/pd2dsy/libdaisy/src/hid/disp/graphics_common.h **** 
 1649              		.loc 16 63 34 view .LVU349
  63:../../../lib/pd2dsy/libdaisy/src/hid/disp/graphics_common.h **** 
 1650              		.loc 16 63 34 is_stmt 0 view .LVU350
 1651              	.LBE891:
 1652              	.LBE894:
 1653              	.LBB895:
 1654              	.LBI895:
  63:../../../lib/pd2dsy/libdaisy/src/hid/disp/graphics_common.h **** 
 1655              		.loc 16 63 13 is_stmt 1 view .LVU351
 1656              	.LBB896:
  63:../../../lib/pd2dsy/libdaisy/src/hid/disp/graphics_common.h **** 
 1657              		.loc 16 63 34 view .LVU352
  63:../../../lib/pd2dsy/libdaisy/src/hid/disp/graphics_common.h **** 
 1658              		.loc 16 63 34 is_stmt 0 view .LVU353
 1659              	.LBE896:
 1660              	.LBE895:
 1661              	.LBB897:
 1662              	.LBB892:
  63:../../../lib/pd2dsy/libdaisy/src/hid/disp/graphics_common.h **** 
 1663              		.loc 16 63 54 view .LVU354
 1664 0068 C0F2FE80 		blt	.L179
 1665              	.L123:
  63:../../../lib/pd2dsy/libdaisy/src/hid/disp/graphics_common.h **** 
 1666              		.loc 16 63 54 view .LVU355
 1667              	.LBE892:
 1668              	.LBE897:
 1669              	.LBB898:
 1670              	.LBB899:
  63:../../../lib/pd2dsy/libdaisy/src/hid/disp/graphics_common.h **** 
 1671              		.loc 16 63 44 view .LVU356
 1672 006c 6488     		ldrh	r4, [r4, #2]
ARM GAS  /var/folders/fb/yfxt3z4538j6z0vjt03w70vc0000gn/T//cc0qjWS6.s 			page 64


 1673              	.LVL115:
  63:../../../lib/pd2dsy/libdaisy/src/hid/disp/graphics_common.h **** 
 1674              		.loc 16 63 44 view .LVU357
 1675              	.LBE899:
 1676              	.LBE898:
 1677              	.LBB905:
 1678              	.LBB906:
 1679              	.LBB907:
  32:../../../lib/pd2dsy/libdaisy/src/hid/disp/graphics_common.h ****     {
 1680              		.loc 16 32 66 view .LVU358
 1681 006e 0698     		ldr	r0, [sp, #24]
 1682              	.LBE907:
 1683              	.LBE906:
 1684              	.LBE905:
 1685              	.LBB918:
 1686              	.LBB900:
  63:../../../lib/pd2dsy/libdaisy/src/hid/disp/graphics_common.h **** 
 1687              		.loc 16 63 44 view .LVU359
 1688 0070 04EB6104 		add	r4, r4, r1, asr #1
 1689              	.LBE900:
 1690              	.LBE918:
 1691              	.LBB919:
 1692              	.LBB914:
 1693              	.LBB910:
  32:../../../lib/pd2dsy/libdaisy/src/hid/disp/graphics_common.h ****     {
 1694              		.loc 16 32 66 view .LVU360
 1695 0074 C280     		strh	r2, [r0, #6]	@ movhi
 1696              	.LBE910:
 1697              	.LBE914:
 1698              	.LBE919:
 252:../../../lib/pd2dsy/libdaisy/src/hid/disp/graphics_common.h ****                         width_,
 1699              		.loc 16 252 58 view .LVU361
 1700 0076 A4EB5202 		sub	r2, r4, r2, lsr #1
 1701              	.LBB920:
 1702              	.LBB915:
 1703              	.LBB911:
  32:../../../lib/pd2dsy/libdaisy/src/hid/disp/graphics_common.h ****     {
 1704              		.loc 16 32 66 view .LVU362
 1705 007a 8380     		strh	r3, [r0, #4]	@ movhi
 1706 007c 0780     		strh	r7, [r0]	@ movhi
 1707              	.LBE911:
 1708              	.LBE915:
 1709              	.LBE920:
 252:../../../lib/pd2dsy/libdaisy/src/hid/disp/graphics_common.h ****                         width_,
 1710              		.loc 16 252 58 view .LVU363
 1711 007e 94B2     		uxth	r4, r2
 1712              	.LVL116:
 1713              	.LBB921:
 1714              	.LBI905:
  31:../../../lib/pd2dsy/libdaisy/src/hid/disp/graphics_common.h ****     : x_(x), y_(y), width_(max(0, width)), height_(max(0, height))
 1715              		.loc 16 31 5 is_stmt 1 view .LVU364
 1716              	.LBB916:
 1717              	.LBB912:
  32:../../../lib/pd2dsy/libdaisy/src/hid/disp/graphics_common.h ****     {
 1718              		.loc 16 32 66 is_stmt 0 view .LVU365
 1719 0080 4480     		strh	r4, [r0, #2]	@ movhi
 1720              	.LVL117:
ARM GAS  /var/folders/fb/yfxt3z4538j6z0vjt03w70vc0000gn/T//cc0qjWS6.s 			page 65


 1721              	.LBB908:
 1722              	.LBI908:
 1723              		.loc 16 261 13 is_stmt 1 view .LVU366
 1724              	.LBE908:
 1725              	.LBE912:
 1726              	.LBE916:
 1727              	.LBE921:
 1728              	.LBE885:
 1729              	.LBE884:
 1730              		.loc 16 261 41 view .LVU367
 1731              	.LBB1110:
 1732              	.LBB1088:
 1733              	.LBB922:
 1734              	.LBB917:
 1735              	.LBB913:
 1736              	.LBB909:
 1737              	.LBI909:
 1738              		.loc 16 261 13 view .LVU368
 1739              	.LBE909:
 1740              	.LBE913:
 1741              	.LBE917:
 1742              	.LBE922:
 1743              	.LBE1088:
 1744              	.LBE1110:
 1745              		.loc 16 261 41 view .LVU369
 1746              	.L117:
  56:../../../lib/pd2dsy/libdaisy/src/hid/disp/graphics_common.h ****     int16_t GetY() const { return y_; }
 1747              		.loc 16 56 28 view .LVU370
  57:../../../lib/pd2dsy/libdaisy/src/hid/disp/graphics_common.h ****     int16_t GetWidth() const { return width_; }
 1748              		.loc 16 57 28 view .LVU371
 1749              	.LBB1111:
 1750              	.LBI1111:
 171:../../../lib/pd2dsy/libdaisy/src/hid/disp/display.h ****     {
 1751              		.loc 4 171 10 view .LVU372
 1752              	.LBB1112:
 173:../../../lib/pd2dsy/libdaisy/src/hid/disp/display.h ****         currentY_ = (y >= Height()) ? Height() - 1 : y;
 1753              		.loc 4 173 9 view .LVU373
 1754 0082 A64A     		ldr	r2, .L189
 173:../../../lib/pd2dsy/libdaisy/src/hid/disp/display.h ****         currentY_ = (y >= Height()) ? Height() - 1 : y;
 1755              		.loc 4 173 33 is_stmt 0 view .LVU374
 1756 0084 D8F80030 		ldr	r3, [r8]
 1757 0088 1146     		mov	r1, r2
 1758 008a 0192     		str	r2, [sp, #4]
 1759 008c DA68     		ldr	r2, [r3, #12]
 1760 008e 8A42     		cmp	r2, r1
 1761 0090 40F08B81 		bne	.L125
 1762 0094 8020     		movs	r0, #128
 1763              	.LVL118:
 1764              	.L126:
 173:../../../lib/pd2dsy/libdaisy/src/hid/disp/display.h ****         currentY_ = (y >= Height()) ? Height() - 1 : y;
 1765              		.loc 4 173 19 view .LVU375
 1766 0096 B842     		cmp	r0, r7
 1767 0098 05D8     		bhi	.L127
 173:../../../lib/pd2dsy/libdaisy/src/hid/disp/display.h ****         currentY_ = (y >= Height()) ? Height() - 1 : y;
 1768              		.loc 4 173 44 view .LVU376
 1769 009a DA68     		ldr	r2, [r3, #12]
 1770 009c 0199     		ldr	r1, [sp, #4]
ARM GAS  /var/folders/fb/yfxt3z4538j6z0vjt03w70vc0000gn/T//cc0qjWS6.s 			page 66


 1771 009e 8A42     		cmp	r2, r1
 1772 00a0 40F09881 		bne	.L180
 1773 00a4 7F27     		movs	r7, #127
 1774              	.L127:
 1775 00a6 9E4A     		ldr	r2, .L189+4
 174:../../../lib/pd2dsy/libdaisy/src/hid/disp/display.h ****     }
 1776              		.loc 4 174 34 view .LVU377
 1777 00a8 9B68     		ldr	r3, [r3, #8]
 173:../../../lib/pd2dsy/libdaisy/src/hid/disp/display.h ****         currentY_ = (y >= Height()) ? Height() - 1 : y;
 1778              		.loc 4 173 19 view .LVU378
 1779 00aa A8F80470 		strh	r7, [r8, #4]	@ movhi
 174:../../../lib/pd2dsy/libdaisy/src/hid/disp/display.h ****     }
 1780              		.loc 4 174 9 is_stmt 1 view .LVU379
 1781 00ae 9342     		cmp	r3, r2
 1782 00b0 0392     		str	r2, [sp, #12]
 1783 00b2 40F08781 		bne	.L157
 174:../../../lib/pd2dsy/libdaisy/src/hid/disp/display.h ****     }
 1784              		.loc 4 174 34 is_stmt 0 view .LVU380
 1785 00b6 4020     		movs	r0, #64
 1786              	.L129:
 174:../../../lib/pd2dsy/libdaisy/src/hid/disp/display.h ****     }
 1787              		.loc 4 174 19 view .LVU381
 1788 00b8 A042     		cmp	r0, r4
 1789 00ba 07D8     		bhi	.L131
 174:../../../lib/pd2dsy/libdaisy/src/hid/disp/display.h ****     }
 1790              		.loc 4 174 46 view .LVU382
 1791 00bc D8F80030 		ldr	r3, [r8]
 1792 00c0 039A     		ldr	r2, [sp, #12]
 1793 00c2 9B68     		ldr	r3, [r3, #8]
 1794 00c4 9342     		cmp	r3, r2
 1795 00c6 40F08081 		bne	.L181
 1796 00ca 3F24     		movs	r4, #63
 1797              	.L131:
 174:../../../lib/pd2dsy/libdaisy/src/hid/disp/display.h ****     }
 1798              		.loc 4 174 46 view .LVU383
 1799              	.LBE1112:
 1800              	.LBE1111:
 1801              	.LBB1116:
 1802              	.LBB1117:
 443:../../../lib/pd2dsy/libdaisy/src/hid/disp/display.h ****         {
 1803              		.loc 4 443 9 view .LVU384
 1804 00cc 009B     		ldr	r3, [sp]
 1805              	.LBE1117:
 1806              	.LBE1116:
 1807              	.LBB1165:
 1808              	.LBB1113:
 174:../../../lib/pd2dsy/libdaisy/src/hid/disp/display.h ****     }
 1809              		.loc 4 174 19 view .LVU385
 1810 00ce A8F80640 		strh	r4, [r8, #6]	@ movhi
 1811              	.LVL119:
 174:../../../lib/pd2dsy/libdaisy/src/hid/disp/display.h ****     }
 1812              		.loc 4 174 19 view .LVU386
 1813              	.LBE1113:
 1814              	.LBE1165:
 1815              	.LBB1166:
 1816              	.LBB1162:
 443:../../../lib/pd2dsy/libdaisy/src/hid/disp/display.h ****         {
ARM GAS  /var/folders/fb/yfxt3z4538j6z0vjt03w70vc0000gn/T//cc0qjWS6.s 			page 67


 1817              		.loc 4 443 9 view .LVU387
 1818 00d2 93F800B0 		ldrb	fp, [r3]	@ zero_extendqisi2
 1819 00d6 6B78     		ldrb	r3, [r5, #1]	@ zero_extendqisi2
 1820              	.LVL120:
 443:../../../lib/pd2dsy/libdaisy/src/hid/disp/display.h ****         {
 1821              		.loc 4 443 9 view .LVU388
 1822 00d8 2C78     		ldrb	r4, [r5]	@ zero_extendqisi2
 1823              	.LVL121:
 443:../../../lib/pd2dsy/libdaisy/src/hid/disp/display.h ****         {
 1824              		.loc 4 443 9 view .LVU389
 1825 00da 0493     		str	r3, [sp, #16]
 1826              	.LVL122:
 443:../../../lib/pd2dsy/libdaisy/src/hid/disp/display.h ****         {
 1827              		.loc 4 443 9 view .LVU390
 1828 00dc 6B68     		ldr	r3, [r5, #4]
 1829 00de 0793     		str	r3, [sp, #28]
 1830              	.LVL123:
 443:../../../lib/pd2dsy/libdaisy/src/hid/disp/display.h ****         {
 1831              		.loc 4 443 9 view .LVU391
 1832              	.LBE1162:
 1833              	.LBI1116:
 440:../../../lib/pd2dsy/libdaisy/src/hid/disp/display.h ****     {
 1834              		.loc 4 440 10 is_stmt 1 view .LVU392
 1835              	.LBB1163:
 443:../../../lib/pd2dsy/libdaisy/src/hid/disp/display.h ****         {
 1836              		.loc 4 443 9 view .LVU393
 1837 00e0 BBF1000F 		cmp	fp, #0
 1838 00e4 00F0AC80 		beq	.L103
 1839              	.LVL124:
 1840              	.L133:
 1841              	.LBB1118:
 1842              	.LBI1118:
 396:../../../lib/pd2dsy/libdaisy/src/hid/disp/display.h ****     {
 1843              		.loc 4 396 10 view .LVU394
 1844              	.LBB1119:
 401:../../../lib/pd2dsy/libdaisy/src/hid/disp/display.h ****             return 0;
 1845              		.loc 4 401 20 is_stmt 0 view .LVU395
 1846 00e8 ABF12005 		sub	r5, fp, #32
 401:../../../lib/pd2dsy/libdaisy/src/hid/disp/display.h ****             return 0;
 1847              		.loc 4 401 9 view .LVU396
 1848 00ec EBB2     		uxtb	r3, r5
 1849 00ee 5E2B     		cmp	r3, #94
 1850 00f0 00F22C81 		bhi	.L137
 405:../../../lib/pd2dsy/libdaisy/src/hid/disp/display.h ****            || Height() < (currentY_ + font.FontHeight))
 1851              		.loc 4 405 17 view .LVU397
 1852 00f4 D8F80030 		ldr	r3, [r8]
 1853 00f8 019A     		ldr	r2, [sp, #4]
 1854 00fa DB68     		ldr	r3, [r3, #12]
 1855 00fc 9342     		cmp	r3, r2
 1856 00fe 40F02881 		bne	.L182
 1857 0102 8020     		movs	r0, #128
 1858              	.L136:
 405:../../../lib/pd2dsy/libdaisy/src/hid/disp/display.h ****            || Height() < (currentY_ + font.FontHeight))
 1859              		.loc 4 405 23 view .LVU398
 1860 0104 B8F80430 		ldrh	r3, [r8, #4]
 405:../../../lib/pd2dsy/libdaisy/src/hid/disp/display.h ****            || Height() < (currentY_ + font.FontHeight))
 1861              		.loc 4 405 33 view .LVU399
ARM GAS  /var/folders/fb/yfxt3z4538j6z0vjt03w70vc0000gn/T//cc0qjWS6.s 			page 68


 1862 0108 2344     		add	r3, r3, r4
 406:../../../lib/pd2dsy/libdaisy/src/hid/disp/display.h ****         {
 1863              		.loc 4 406 12 view .LVU400
 1864 010a 9842     		cmp	r0, r3
 1865 010c C0F21E81 		blt	.L137
 406:../../../lib/pd2dsy/libdaisy/src/hid/disp/display.h ****         {
 1866              		.loc 4 406 21 view .LVU401
 1867 0110 D8F80030 		ldr	r3, [r8]
 1868 0114 039A     		ldr	r2, [sp, #12]
 1869 0116 9B68     		ldr	r3, [r3, #8]
 1870 0118 9342     		cmp	r3, r2
 1871 011a 40F01D81 		bne	.L183
 1872 011e 4020     		movs	r0, #64
 1873              	.L138:
 406:../../../lib/pd2dsy/libdaisy/src/hid/disp/display.h ****         {
 1874              		.loc 4 406 27 view .LVU402
 1875 0120 B8F80610 		ldrh	r1, [r8, #6]
 406:../../../lib/pd2dsy/libdaisy/src/hid/disp/display.h ****         {
 1876              		.loc 4 406 37 view .LVU403
 1877 0124 049A     		ldr	r2, [sp, #16]
 406:../../../lib/pd2dsy/libdaisy/src/hid/disp/display.h ****         {
 1878              		.loc 4 406 27 view .LVU404
 1879 0126 0291     		str	r1, [sp, #8]
 406:../../../lib/pd2dsy/libdaisy/src/hid/disp/display.h ****         {
 1880              		.loc 4 406 37 view .LVU405
 1881 0128 8B18     		adds	r3, r1, r2
 406:../../../lib/pd2dsy/libdaisy/src/hid/disp/display.h ****         {
 1882              		.loc 4 406 12 view .LVU406
 1883 012a 9842     		cmp	r0, r3
 1884 012c C0F20E81 		blt	.L137
 1885              	.LVL125:
 413:../../../lib/pd2dsy/libdaisy/src/hid/disp/display.h ****         {
 1886              		.loc 4 413 22 is_stmt 1 view .LVU407
 1887 0130 002A     		cmp	r2, #0
 1888 0132 00F01C81 		beq	.L139
 415:../../../lib/pd2dsy/libdaisy/src/hid/disp/display.h ****             for(j = 0; j < font.FontWidth; j++)
 1889              		.loc 4 415 37 is_stmt 0 view .LVU408
 1890 0136 02FB05F5 		mul	r5, r2, r5
 1891 013a 6FF0004E 		mvn	lr, #-2147483648
 1892 013e 079B     		ldr	r3, [sp, #28]
 1893 0140 AE44     		add	lr, lr, r5
 1894 0142 1544     		add	r5, r5, r2
 1895 0144 CDF814B0 		str	fp, [sp, #20]
 1896 0148 03EB4E0E 		add	lr, r3, lr, lsl #1
 1897 014c 023B     		subs	r3, r3, #2
 434:../../../lib/pd2dsy/libdaisy/src/hid/disp/display.h **** 
 1898              		.loc 4 434 19 view .LVU409
 1899 014e B8F804A0 		ldrh	r10, [r8, #4]
 1900 0152 03EB4503 		add	r3, r3, r5, lsl #1
 1901 0156 0D46     		mov	r5, r1
 1902 0158 9B46     		mov	fp, r3
 1903              	.LVL126:
 1904              	.L142:
 415:../../../lib/pd2dsy/libdaisy/src/hid/disp/display.h ****             for(j = 0; j < font.FontWidth; j++)
 1905              		.loc 4 415 15 view .LVU410
 1906 015a 3EF8027F 		ldrh	r7, [lr, #2]!
 1907              	.LVL127:
ARM GAS  /var/folders/fb/yfxt3z4538j6z0vjt03w70vc0000gn/T//cc0qjWS6.s 			page 69


 416:../../../lib/pd2dsy/libdaisy/src/hid/disp/display.h ****             {
 1908              		.loc 4 416 26 is_stmt 1 view .LVU411
 1909 015e A4B3     		cbz	r4, .L147
 1910              	.LBB1120:
 1911              	.LBB1121:
 1912              	.LBB1122:
 1913              	.LBB1123:
 1914              	.LBB1124:
 259:../../../lib/pd2dsy/libdaisy/src/dev/oled_ssd130x.h ****     }
 1915              		.loc 3 259 55 is_stmt 0 view .LVU412
 1916 0160 05F00703 		and	r3, r5, #7
 259:../../../lib/pd2dsy/libdaisy/src/dev/oled_ssd130x.h ****     }
 1917              		.loc 3 259 49 view .LVU413
 1918 0164 4FF0010C 		mov	ip, #1
 259:../../../lib/pd2dsy/libdaisy/src/dev/oled_ssd130x.h ****     }
 1919              		.loc 3 259 28 view .LVU414
 1920 0168 EA08     		lsrs	r2, r5, #3
 1921 016a 5146     		mov	r1, r10
 259:../../../lib/pd2dsy/libdaisy/src/dev/oled_ssd130x.h ****     }
 1922              		.loc 3 259 49 view .LVU415
 1923 016c 0CFA03FC 		lsl	ip, ip, r3
 1924 0170 0AF11403 		add	r3, r10, #20
 259:../../../lib/pd2dsy/libdaisy/src/dev/oled_ssd130x.h ****     }
 1925              		.loc 3 259 42 view .LVU416
 1926 0174 4FFA8CFC 		sxtb	ip, ip
 1927 0178 03EBC212 		add	r2, r3, r2, lsl #7
 1928              	.LBE1124:
 1929              	.LBE1123:
 1930              	.LBE1122:
 1931              	.LBE1121:
 1932              	.LBE1120:
 416:../../../lib/pd2dsy/libdaisy/src/hid/disp/display.h ****             {
 1933              		.loc 4 416 19 view .LVU417
 1934 017c 0023     		movs	r3, #0
 1935              	.LBB1142:
 1936              	.LBB1137:
 1937              	.LBB1132:
 1938              	.LBB1128:
 1939              	.LBB1125:
 259:../../../lib/pd2dsy/libdaisy/src/dev/oled_ssd130x.h ****     }
 1940              		.loc 3 259 42 view .LVU418
 1941 017e 6FEA0C09 		mvn	r9, ip
 1942 0182 4244     		add	r2, r2, r8
 1943 0184 0DE0     		b	.L148
 1944              	.LVL128:
 1945              	.L184:
 259:../../../lib/pd2dsy/libdaisy/src/dev/oled_ssd130x.h ****     }
 1946              		.loc 3 259 42 view .LVU419
 1947              	.LBE1125:
 1948              	.LBE1128:
 1949              	.LBE1132:
 1950              	.LBE1137:
 1951              	.LBE1142:
 1952              	.LBB1143:
 1953              	.LBI1143:
  42:../../../lib/pd2dsy/libdaisy/src/hid/disp/oled_display.h ****     {
 1954              		.loc 2 42 10 is_stmt 1 view .LVU420
ARM GAS  /var/folders/fb/yfxt3z4538j6z0vjt03w70vc0000gn/T//cc0qjWS6.s 			page 70


 1955              	.LBB1144:
 1956              	.LBI1144:
 252:../../../lib/pd2dsy/libdaisy/src/dev/oled_ssd130x.h ****     {
 1957              		.loc 3 252 10 view .LVU421
 1958              	.LBB1145:
 254:../../../lib/pd2dsy/libdaisy/src/dev/oled_ssd130x.h ****             return;
 1959              		.loc 3 254 9 is_stmt 0 view .LVU422
 1960 0186 7F29     		cmp	r1, #127
 1961 0188 06D8     		bhi	.L144
 1962 018a 3F2D     		cmp	r5, #63
 1963 018c 04D8     		bhi	.L144
 257:../../../lib/pd2dsy/libdaisy/src/dev/oled_ssd130x.h ****         else
 1964              		.loc 3 257 42 view .LVU423
 1965 018e 1078     		ldrb	r0, [r2]	@ zero_extendqisi2
 256:../../../lib/pd2dsy/libdaisy/src/dev/oled_ssd130x.h ****             buffer_[x + (y / 8) * width] |= (1 << (y % 8));
 1966              		.loc 3 256 9 view .LVU424
 1967 0190 96B1     		cbz	r6, .L146
 1968              	.L178:
 256:../../../lib/pd2dsy/libdaisy/src/dev/oled_ssd130x.h ****             buffer_[x + (y / 8) * width] |= (1 << (y % 8));
 1969              		.loc 3 256 9 view .LVU425
 1970              	.LBE1145:
 1971              	.LBE1144:
 1972              	.LBE1143:
 1973              	.LBB1146:
 1974              	.LBB1138:
 1975              	.LBB1133:
 257:../../../lib/pd2dsy/libdaisy/src/dev/oled_ssd130x.h ****         else
 1976              		.loc 3 257 42 view .LVU426
 1977 0192 4CEA0000 		orr	r0, ip, r0
 1978 0196 1070     		strb	r0, [r2]
 1979              	.L144:
 1980              	.LBE1133:
 1981              	.LBE1138:
 1982              	.LBE1146:
 416:../../../lib/pd2dsy/libdaisy/src/hid/disp/display.h ****             {
 1983              		.loc 4 416 13 is_stmt 1 view .LVU427
 1984 0198 0133     		adds	r3, r3, #1
 1985              	.LVL129:
 416:../../../lib/pd2dsy/libdaisy/src/hid/disp/display.h ****             {
 1986              		.loc 4 416 26 view .LVU428
 1987 019a 0132     		adds	r2, r2, #1
 1988 019c 0131     		adds	r1, r1, #1
 1989 019e 9C42     		cmp	r4, r3
 1990 01a0 13D0     		beq	.L147
 1991              	.LVL130:
 1992              	.L148:
 418:../../../lib/pd2dsy/libdaisy/src/hid/disp/display.h ****                 {
 1993              		.loc 4 418 23 is_stmt 0 view .LVU429
 1994 01a2 07FA03F0 		lsl	r0, r7, r3
 418:../../../lib/pd2dsy/libdaisy/src/hid/disp/display.h ****                 {
 1995              		.loc 4 418 17 view .LVU430
 1996 01a6 0004     		lsls	r0, r0, #16
 1997 01a8 EDD4     		bmi	.L184
 1998              	.LVL131:
 1999              	.LBB1147:
 2000              	.LBI1120:
  42:../../../lib/pd2dsy/libdaisy/src/hid/disp/oled_display.h ****     {
ARM GAS  /var/folders/fb/yfxt3z4538j6z0vjt03w70vc0000gn/T//cc0qjWS6.s 			page 71


 2001              		.loc 2 42 10 is_stmt 1 view .LVU431
 2002              	.LBB1139:
 2003              	.LBI1121:
 252:../../../lib/pd2dsy/libdaisy/src/dev/oled_ssd130x.h ****     {
 2004              		.loc 3 252 10 view .LVU432
 2005              	.LBB1134:
 254:../../../lib/pd2dsy/libdaisy/src/dev/oled_ssd130x.h ****             return;
 2006              		.loc 3 254 9 is_stmt 0 view .LVU433
 2007 01aa 7F29     		cmp	r1, #127
 2008 01ac F4D8     		bhi	.L144
 2009 01ae 3F2D     		cmp	r5, #63
 2010 01b0 F2D8     		bhi	.L144
 257:../../../lib/pd2dsy/libdaisy/src/dev/oled_ssd130x.h ****         else
 2011              		.loc 3 257 42 view .LVU434
 2012 01b2 1078     		ldrb	r0, [r2]	@ zero_extendqisi2
 256:../../../lib/pd2dsy/libdaisy/src/dev/oled_ssd130x.h ****             buffer_[x + (y / 8) * width] |= (1 << (y % 8));
 2013              		.loc 3 256 9 view .LVU435
 2014 01b4 002E     		cmp	r6, #0
 2015 01b6 ECD0     		beq	.L178
 2016              	.L146:
 2017              	.LVL132:
 2018              	.LBB1129:
 2019              	.LBI1123:
 252:../../../lib/pd2dsy/libdaisy/src/dev/oled_ssd130x.h ****     {
 2020              		.loc 3 252 10 is_stmt 1 view .LVU436
 252:../../../lib/pd2dsy/libdaisy/src/dev/oled_ssd130x.h ****     {
 2021              		.loc 3 252 10 is_stmt 0 view .LVU437
 2022              	.LBE1129:
 2023              	.LBE1134:
 2024              	.LBE1139:
 2025              	.LBE1147:
 416:../../../lib/pd2dsy/libdaisy/src/hid/disp/display.h ****             {
 2026              		.loc 4 416 13 view .LVU438
 2027 01b8 0133     		adds	r3, r3, #1
 2028              	.LVL133:
 2029              	.LBB1148:
 2030              	.LBB1140:
 2031              	.LBB1135:
 2032              	.LBB1130:
 2033              	.LBB1126:
 259:../../../lib/pd2dsy/libdaisy/src/dev/oled_ssd130x.h ****     }
 2034              		.loc 3 259 42 view .LVU439
 2035 01ba 09EA0000 		and	r0, r9, r0
 2036              	.LBE1126:
 2037              	.LBE1130:
 2038              	.LBE1135:
 2039              	.LBE1140:
 2040              	.LBE1148:
 416:../../../lib/pd2dsy/libdaisy/src/hid/disp/display.h ****             {
 2041              		.loc 4 416 26 view .LVU440
 2042 01be 0132     		adds	r2, r2, #1
 2043 01c0 0131     		adds	r1, r1, #1
 2044 01c2 9C42     		cmp	r4, r3
 2045              	.LBB1149:
 2046              	.LBB1141:
 2047              	.LBB1136:
 2048              	.LBB1131:
ARM GAS  /var/folders/fb/yfxt3z4538j6z0vjt03w70vc0000gn/T//cc0qjWS6.s 			page 72


 2049              	.LBB1127:
 259:../../../lib/pd2dsy/libdaisy/src/dev/oled_ssd130x.h ****     }
 2050              		.loc 3 259 42 view .LVU441
 2051 01c4 02F8010C 		strb	r0, [r2, #-1]
 259:../../../lib/pd2dsy/libdaisy/src/dev/oled_ssd130x.h ****     }
 2052              		.loc 3 259 42 view .LVU442
 2053              	.LBE1127:
 2054              	.LBE1131:
 2055              	.LBE1136:
 2056              	.LBE1141:
 2057              	.LBE1149:
 416:../../../lib/pd2dsy/libdaisy/src/hid/disp/display.h ****             {
 2058              		.loc 4 416 13 is_stmt 1 view .LVU443
 2059              	.LVL134:
 416:../../../lib/pd2dsy/libdaisy/src/hid/disp/display.h ****             {
 2060              		.loc 4 416 26 view .LVU444
 2061 01c8 EBD1     		bne	.L148
 2062              	.LVL135:
 2063              	.L147:
 413:../../../lib/pd2dsy/libdaisy/src/hid/disp/display.h ****         {
 2064              		.loc 4 413 9 view .LVU445
 413:../../../lib/pd2dsy/libdaisy/src/hid/disp/display.h ****         {
 2065              		.loc 4 413 22 view .LVU446
 2066 01ca F345     		cmp	fp, lr
 2067 01cc 05F10105 		add	r5, r5, #1
 2068 01d0 C3D1     		bne	.L142
 2069 01d2 DDF814B0 		ldr	fp, [sp, #20]
 2070              	.LVL136:
 2071              	.L141:
 2072              	.LBB1150:
 2073              	.LBB1151:
 173:../../../lib/pd2dsy/libdaisy/src/hid/disp/display.h ****         currentY_ = (y >= Height()) ? Height() - 1 : y;
 2074              		.loc 4 173 33 is_stmt 0 view .LVU447
 2075 01d6 D8F80020 		ldr	r2, [r8]
 2076              	.LBE1151:
 2077              	.LBE1150:
 434:../../../lib/pd2dsy/libdaisy/src/hid/disp/display.h **** 
 2078              		.loc 4 434 18 view .LVU448
 2079 01da 0AEB0405 		add	r5, r10, r4
 2080 01de 0199     		ldr	r1, [sp, #4]
 2081              	.LBB1156:
 2082              	.LBB1152:
 173:../../../lib/pd2dsy/libdaisy/src/hid/disp/display.h ****         currentY_ = (y >= Height()) ? Height() - 1 : y;
 2083              		.loc 4 173 33 view .LVU449
 2084 01e0 D368     		ldr	r3, [r2, #12]
 2085              	.LBE1152:
 2086              	.LBE1156:
 434:../../../lib/pd2dsy/libdaisy/src/hid/disp/display.h **** 
 2087              		.loc 4 434 18 view .LVU450
 2088 01e2 ADB2     		uxth	r5, r5
 2089              	.LVL137:
 2090              	.LBB1157:
 2091              	.LBI1150:
 171:../../../lib/pd2dsy/libdaisy/src/hid/disp/display.h ****     {
 2092              		.loc 4 171 10 is_stmt 1 view .LVU451
 2093              	.LBB1153:
 173:../../../lib/pd2dsy/libdaisy/src/hid/disp/display.h ****         currentY_ = (y >= Height()) ? Height() - 1 : y;
ARM GAS  /var/folders/fb/yfxt3z4538j6z0vjt03w70vc0000gn/T//cc0qjWS6.s 			page 73


 2094              		.loc 4 173 9 view .LVU452
 2095 01e4 8B42     		cmp	r3, r1
 2096 01e6 40F0BD80 		bne	.L185
 173:../../../lib/pd2dsy/libdaisy/src/hid/disp/display.h ****         currentY_ = (y >= Height()) ? Height() - 1 : y;
 2097              		.loc 4 173 33 is_stmt 0 view .LVU453
 2098 01ea 8020     		movs	r0, #128
 2099              	.L149:
 173:../../../lib/pd2dsy/libdaisy/src/hid/disp/display.h ****         currentY_ = (y >= Height()) ? Height() - 1 : y;
 2100              		.loc 4 173 19 view .LVU454
 2101 01ec 8542     		cmp	r5, r0
 2102 01ee 05D3     		bcc	.L150
 173:../../../lib/pd2dsy/libdaisy/src/hid/disp/display.h ****         currentY_ = (y >= Height()) ? Height() - 1 : y;
 2103              		.loc 4 173 44 view .LVU455
 2104 01f0 D368     		ldr	r3, [r2, #12]
 2105 01f2 0199     		ldr	r1, [sp, #4]
 2106 01f4 8B42     		cmp	r3, r1
 2107 01f6 40F0C380 		bne	.L186
 2108 01fa 7F25     		movs	r5, #127
 2109              	.LVL138:
 2110              	.L150:
 174:../../../lib/pd2dsy/libdaisy/src/hid/disp/display.h ****     }
 2111              		.loc 4 174 34 view .LVU456
 2112 01fc 9368     		ldr	r3, [r2, #8]
 2113 01fe 039A     		ldr	r2, [sp, #12]
 173:../../../lib/pd2dsy/libdaisy/src/hid/disp/display.h ****         currentY_ = (y >= Height()) ? Height() - 1 : y;
 2114              		.loc 4 173 19 view .LVU457
 2115 0200 A8F80450 		strh	r5, [r8, #4]	@ movhi
 174:../../../lib/pd2dsy/libdaisy/src/hid/disp/display.h ****     }
 2116              		.loc 4 174 9 is_stmt 1 view .LVU458
 2117 0204 9342     		cmp	r3, r2
 2118 0206 40F0AA80 		bne	.L187
 174:../../../lib/pd2dsy/libdaisy/src/hid/disp/display.h ****     }
 2119              		.loc 4 174 34 is_stmt 0 view .LVU459
 2120 020a 4020     		movs	r0, #64
 2121              	.L152:
 174:../../../lib/pd2dsy/libdaisy/src/hid/disp/display.h ****     }
 2122              		.loc 4 174 19 view .LVU460
 2123 020c 029B     		ldr	r3, [sp, #8]
 2124 020e 8342     		cmp	r3, r0
 2125 0210 08D3     		bcc	.L153
 174:../../../lib/pd2dsy/libdaisy/src/hid/disp/display.h ****     }
 2126              		.loc 4 174 46 view .LVU461
 2127 0212 D8F80030 		ldr	r3, [r8]
 2128 0216 039A     		ldr	r2, [sp, #12]
 2129 0218 9B68     		ldr	r3, [r3, #8]
 2130 021a 9342     		cmp	r3, r2
 2131 021c 40F0AA80 		bne	.L188
 2132 0220 3F23     		movs	r3, #63
 2133 0222 0293     		str	r3, [sp, #8]
 2134              	.LVL139:
 2135              	.L153:
 174:../../../lib/pd2dsy/libdaisy/src/hid/disp/display.h ****     }
 2136              		.loc 4 174 19 view .LVU462
 2137 0224 029B     		ldr	r3, [sp, #8]
 2138 0226 A8F80630 		strh	r3, [r8, #6]	@ movhi
 2139              	.LVL140:
 2140              	.L135:
ARM GAS  /var/folders/fb/yfxt3z4538j6z0vjt03w70vc0000gn/T//cc0qjWS6.s 			page 74


 174:../../../lib/pd2dsy/libdaisy/src/hid/disp/display.h ****     }
 2141              		.loc 4 174 19 view .LVU463
 2142              	.LBE1153:
 2143              	.LBE1157:
 2144              	.LBE1119:
 2145              	.LBE1118:
 445:../../../lib/pd2dsy/libdaisy/src/hid/disp/display.h ****                != *str)
 2146              		.loc 4 445 13 view .LVU464
 2147 022a 009A     		ldr	r2, [sp]
 2148 022c 1378     		ldrb	r3, [r2]	@ zero_extendqisi2
 2149 022e 5B45     		cmp	r3, fp
 2150 0230 06D1     		bne	.L103
 2151              	.LVL141:
 443:../../../lib/pd2dsy/libdaisy/src/hid/disp/display.h ****         {
 2152              		.loc 4 443 9 is_stmt 1 view .LVU465
 2153 0232 12F801BF 		ldrb	fp, [r2, #1]!	@ zero_extendqisi2
 2154              	.LVL142:
 443:../../../lib/pd2dsy/libdaisy/src/hid/disp/display.h ****         {
 2155              		.loc 4 443 9 is_stmt 0 view .LVU466
 2156 0236 0092     		str	r2, [sp]
 2157 0238 BBF1000F 		cmp	fp, #0
 2158 023c 7FF454AF 		bne	.L133
 2159              	.LVL143:
 2160              	.L103:
 443:../../../lib/pd2dsy/libdaisy/src/hid/disp/display.h ****         {
 2161              		.loc 4 443 9 view .LVU467
 2162              	.LBE1163:
 2163              	.LBE1166:
 471:../../../lib/pd2dsy/libdaisy/src/hid/disp/display.h **** 
 2164              		.loc 4 471 5 view .LVU468
 2165 0240 0698     		ldr	r0, [sp, #24]
 2166 0242 09B0     		add	sp, sp, #36
 2167              		.cfi_remember_state
 2168              		.cfi_def_cfa_offset 36
 2169              		@ sp needed
 2170 0244 BDE8F08F 		pop	{r4, r5, r6, r7, r8, r9, r10, fp, pc}
 2171              	.LVL144:
 2172              	.L116:
 2173              		.cfi_restore_state
 2174              	.LBB1167:
 2175              	.LBB1089:
 250:../../../lib/pd2dsy/libdaisy/src/hid/disp/graphics_common.h ****                 return {int16_t(x_ + (other.GetCenterX() - GetCenterX())),
 2176              		.loc 16 250 13 is_stmt 1 view .LVU469
 251:../../../lib/pd2dsy/libdaisy/src/hid/disp/graphics_common.h ****                         int16_t(y_ + (other.GetCenterY() - GetCenterY())),
 2177              		.loc 16 251 17 view .LVU470
 2178              	.LBB923:
 2179              	.LBI923:
  62:../../../lib/pd2dsy/libdaisy/src/hid/disp/graphics_common.h ****     int16_t GetCenterY() const { return y_ + height_ / 2; }
 2180              		.loc 16 62 13 view .LVU471
 2181              	.LBB924:
  62:../../../lib/pd2dsy/libdaisy/src/hid/disp/graphics_common.h ****     int16_t GetCenterY() const { return y_ + height_ / 2; }
 2182              		.loc 16 62 34 view .LVU472
  62:../../../lib/pd2dsy/libdaisy/src/hid/disp/graphics_common.h ****     int16_t GetCenterY() const { return y_ + height_ / 2; }
 2183              		.loc 16 62 34 is_stmt 0 view .LVU473
 2184              	.LBE924:
 2185              	.LBE923:
 2186              	.LBB926:
ARM GAS  /var/folders/fb/yfxt3z4538j6z0vjt03w70vc0000gn/T//cc0qjWS6.s 			page 75


 2187              	.LBI926:
  62:../../../lib/pd2dsy/libdaisy/src/hid/disp/graphics_common.h ****     int16_t GetCenterY() const { return y_ + height_ / 2; }
 2188              		.loc 16 62 13 is_stmt 1 view .LVU474
 2189              	.LBB927:
  62:../../../lib/pd2dsy/libdaisy/src/hid/disp/graphics_common.h ****     int16_t GetCenterY() const { return y_ + height_ / 2; }
 2190              		.loc 16 62 34 view .LVU475
  62:../../../lib/pd2dsy/libdaisy/src/hid/disp/graphics_common.h ****     int16_t GetCenterY() const { return y_ + height_ / 2; }
 2191              		.loc 16 62 34 is_stmt 0 view .LVU476
 2192              	.LBE927:
 2193              	.LBE926:
 2194              	.LBB928:
 2195              	.LBB925:
  62:../../../lib/pd2dsy/libdaisy/src/hid/disp/graphics_common.h ****     int16_t GetCenterY() const { return y_ + height_ / 2; }
 2196              		.loc 16 62 53 view .LVU477
 2197 0248 B4F90410 		ldrsh	r1, [r4, #4]
 2198              	.LVL145:
  62:../../../lib/pd2dsy/libdaisy/src/hid/disp/graphics_common.h ****     int16_t GetCenterY() const { return y_ + height_ / 2; }
 2199              		.loc 16 62 44 view .LVU478
 2200 024c 2788     		ldrh	r7, [r4]
  62:../../../lib/pd2dsy/libdaisy/src/hid/disp/graphics_common.h ****     int16_t GetCenterY() const { return y_ + height_ / 2; }
 2201              		.loc 16 62 53 view .LVU479
 2202 024e 0029     		cmp	r1, #0
 2203 0250 B8BF     		it	lt
 2204 0252 0131     		addlt	r1, r1, #1
  62:../../../lib/pd2dsy/libdaisy/src/hid/disp/graphics_common.h ****     int16_t GetCenterY() const { return y_ + height_ / 2; }
 2205              		.loc 16 62 44 view .LVU480
 2206 0254 07EB6107 		add	r7, r7, r1, asr #1
 2207              	.LBE925:
 2208              	.LBE928:
 2209              	.LBB929:
 2210              	.LBB901:
  63:../../../lib/pd2dsy/libdaisy/src/hid/disp/graphics_common.h **** 
 2211              		.loc 16 63 54 view .LVU481
 2212 0258 B4F90610 		ldrsh	r1, [r4, #6]
 2213              	.LBE901:
 2214              	.LBE929:
 251:../../../lib/pd2dsy/libdaisy/src/hid/disp/graphics_common.h ****                         int16_t(y_ + (other.GetCenterY() - GetCenterY())),
 2215              		.loc 16 251 58 view .LVU482
 2216 025c A7EB6307 		sub	r7, r7, r3, asr #1
 2217              	.LBB930:
 2218              	.LBB902:
  63:../../../lib/pd2dsy/libdaisy/src/hid/disp/graphics_common.h **** 
 2219              		.loc 16 63 54 view .LVU483
 2220 0260 0029     		cmp	r1, #0
 2221              	.LBE902:
 2222              	.LBE930:
 251:../../../lib/pd2dsy/libdaisy/src/hid/disp/graphics_common.h ****                         int16_t(y_ + (other.GetCenterY() - GetCenterY())),
 2223              		.loc 16 251 58 view .LVU484
 2224 0262 BFB2     		uxth	r7, r7
 2225              	.LVL146:
 2226              	.LBB931:
 2227              	.LBI898:
  63:../../../lib/pd2dsy/libdaisy/src/hid/disp/graphics_common.h **** 
 2228              		.loc 16 63 13 is_stmt 1 view .LVU485
 2229              	.LBB903:
  63:../../../lib/pd2dsy/libdaisy/src/hid/disp/graphics_common.h **** 
 2230              		.loc 16 63 34 view .LVU486
ARM GAS  /var/folders/fb/yfxt3z4538j6z0vjt03w70vc0000gn/T//cc0qjWS6.s 			page 76


  63:../../../lib/pd2dsy/libdaisy/src/hid/disp/graphics_common.h **** 
 2231              		.loc 16 63 34 is_stmt 0 view .LVU487
 2232              	.LBE903:
 2233              	.LBE931:
 2234              	.LBB932:
 2235              	.LBI932:
  63:../../../lib/pd2dsy/libdaisy/src/hid/disp/graphics_common.h **** 
 2236              		.loc 16 63 13 is_stmt 1 view .LVU488
 2237              	.LBB933:
  63:../../../lib/pd2dsy/libdaisy/src/hid/disp/graphics_common.h **** 
 2238              		.loc 16 63 34 view .LVU489
  63:../../../lib/pd2dsy/libdaisy/src/hid/disp/graphics_common.h **** 
 2239              		.loc 16 63 34 is_stmt 0 view .LVU490
 2240              	.LBE933:
 2241              	.LBE932:
 2242              	.LBB934:
 2243              	.LBB904:
  63:../../../lib/pd2dsy/libdaisy/src/hid/disp/graphics_common.h **** 
 2244              		.loc 16 63 54 view .LVU491
 2245 0264 BFF602AF 		bge	.L123
 2246              	.L179:
  63:../../../lib/pd2dsy/libdaisy/src/hid/disp/graphics_common.h **** 
 2247              		.loc 16 63 54 view .LVU492
 2248 0268 0131     		adds	r1, r1, #1
 2249 026a FFE6     		b	.L123
 2250              	.LVL147:
 2251              	.L115:
  63:../../../lib/pd2dsy/libdaisy/src/hid/disp/graphics_common.h **** 
 2252              		.loc 16 63 54 view .LVU493
 2253              	.LBE904:
 2254              	.LBE934:
 213:../../../lib/pd2dsy/libdaisy/src/hid/disp/graphics_common.h ****                 return {other.x_, other.y_, width_, height_};
 2255              		.loc 16 213 13 is_stmt 1 view .LVU494
 214:../../../lib/pd2dsy/libdaisy/src/hid/disp/graphics_common.h ****             case Alignment::topRight:
 2256              		.loc 16 214 17 view .LVU495
 214:../../../lib/pd2dsy/libdaisy/src/hid/disp/graphics_common.h ****             case Alignment::topRight:
 2257              		.loc 16 214 31 is_stmt 0 view .LVU496
 2258 026c B4F90070 		ldrsh	r7, [r4]
 2259              	.LBB935:
 2260              	.LBB936:
 2261              	.LBB937:
  32:../../../lib/pd2dsy/libdaisy/src/hid/disp/graphics_common.h ****     {
 2262              		.loc 16 32 66 view .LVU497
 2263 0270 0699     		ldr	r1, [sp, #24]
 2264              	.LVL148:
  32:../../../lib/pd2dsy/libdaisy/src/hid/disp/graphics_common.h ****     {
 2265              		.loc 16 32 66 view .LVU498
 2266              	.LBE937:
 2267              	.LBE936:
 2268              	.LBE935:
 214:../../../lib/pd2dsy/libdaisy/src/hid/disp/graphics_common.h ****             case Alignment::topRight:
 2269              		.loc 16 214 41 view .LVU499
 2270 0272 B4F90240 		ldrsh	r4, [r4, #2]
 2271              	.LVL149:
 2272              	.LBB950:
 2273              	.LBI935:
  31:../../../lib/pd2dsy/libdaisy/src/hid/disp/graphics_common.h ****     : x_(x), y_(y), width_(max(0, width)), height_(max(0, height))
ARM GAS  /var/folders/fb/yfxt3z4538j6z0vjt03w70vc0000gn/T//cc0qjWS6.s 			page 77


 2274              		.loc 16 31 5 is_stmt 1 view .LVU500
 2275              	.LBB945:
 2276              	.LBB940:
  32:../../../lib/pd2dsy/libdaisy/src/hid/disp/graphics_common.h ****     {
 2277              		.loc 16 32 66 is_stmt 0 view .LVU501
 2278 0276 0F80     		strh	r7, [r1]	@ movhi
 2279              	.LBE940:
 2280              	.LBE945:
 2281              	.LBE950:
 2282              	.LBE1089:
 2283              	.LBE1167:
 468:../../../lib/pd2dsy/libdaisy/src/hid/disp/display.h ****         ((ChildType*)(this))->ChildType::WriteString(str, font, on);
 2284              		.loc 4 468 18 view .LVU502
 2285 0278 BFB2     		uxth	r7, r7
 2286              	.LVL150:
 2287              	.LBB1168:
 2288              	.LBB1090:
 2289              	.LBB951:
 2290              	.LBB946:
 2291              	.LBB941:
  32:../../../lib/pd2dsy/libdaisy/src/hid/disp/graphics_common.h ****     {
 2292              		.loc 16 32 66 view .LVU503
 2293 027a 4C80     		strh	r4, [r1, #2]	@ movhi
 2294              	.LBE941:
 2295              	.LBE946:
 2296              	.LBE951:
 2297              	.LBE1090:
 2298              	.LBE1168:
 468:../../../lib/pd2dsy/libdaisy/src/hid/disp/display.h ****         ((ChildType*)(this))->ChildType::WriteString(str, font, on);
 2299              		.loc 4 468 18 view .LVU504
 2300 027c A4B2     		uxth	r4, r4
 2301              	.LVL151:
 2302              	.LBB1169:
 2303              	.LBB1091:
 2304              	.LBB952:
 2305              	.LBB947:
 2306              	.LBB942:
  32:../../../lib/pd2dsy/libdaisy/src/hid/disp/graphics_common.h ****     {
 2307              		.loc 16 32 66 view .LVU505
 2308 027e 8B80     		strh	r3, [r1, #4]	@ movhi
 2309              	.LVL152:
 2310              	.LBB938:
 2311              	.LBI938:
 2312              		.loc 16 261 13 is_stmt 1 view .LVU506
 2313              	.LBE938:
 2314              	.LBE942:
 2315              	.LBE947:
 2316              	.LBE952:
 2317              	.LBE1091:
 2318              	.LBE1169:
 2319              		.loc 16 261 41 view .LVU507
 2320              	.LBB1170:
 2321              	.LBB1092:
 2322              	.LBB953:
 2323              	.LBB948:
 2324              	.LBB943:
 2325              	.LBB939:
ARM GAS  /var/folders/fb/yfxt3z4538j6z0vjt03w70vc0000gn/T//cc0qjWS6.s 			page 78


 2326              	.LBI939:
 2327              		.loc 16 261 13 view .LVU508
 2328              	.LBE939:
 2329              	.LBE943:
 2330              	.LBE948:
 2331              	.LBE953:
 2332              	.LBE1092:
 2333              	.LBE1170:
 2334              		.loc 16 261 41 view .LVU509
 2335              	.LBB1171:
 2336              	.LBB1093:
 2337              	.LBB954:
 2338              	.LBB949:
 2339              	.LBB944:
  32:../../../lib/pd2dsy/libdaisy/src/hid/disp/graphics_common.h ****     {
 2340              		.loc 16 32 66 is_stmt 0 view .LVU510
 2341 0280 CA80     		strh	r2, [r1, #6]	@ movhi
 2342              	.LBE944:
  34:../../../lib/pd2dsy/libdaisy/src/hid/disp/graphics_common.h **** 
 2343              		.loc 16 34 5 view .LVU511
 2344 0282 FEE6     		b	.L117
 2345              	.LVL153:
 2346              	.L114:
  34:../../../lib/pd2dsy/libdaisy/src/hid/disp/graphics_common.h **** 
 2347              		.loc 16 34 5 view .LVU512
 2348              	.LBE949:
 2349              	.LBE954:
 220:../../../lib/pd2dsy/libdaisy/src/hid/disp/graphics_common.h ****                 return {int16_t(x_ + (other.GetCenterX() - GetCenterX())),
 2350              		.loc 16 220 13 is_stmt 1 view .LVU513
 221:../../../lib/pd2dsy/libdaisy/src/hid/disp/graphics_common.h ****                         other.y_,
 2351              		.loc 16 221 17 view .LVU514
 2352              	.LBB955:
 2353              	.LBI955:
  62:../../../lib/pd2dsy/libdaisy/src/hid/disp/graphics_common.h ****     int16_t GetCenterY() const { return y_ + height_ / 2; }
 2354              		.loc 16 62 13 view .LVU515
 2355              	.LBB956:
  62:../../../lib/pd2dsy/libdaisy/src/hid/disp/graphics_common.h ****     int16_t GetCenterY() const { return y_ + height_ / 2; }
 2356              		.loc 16 62 34 view .LVU516
  62:../../../lib/pd2dsy/libdaisy/src/hid/disp/graphics_common.h ****     int16_t GetCenterY() const { return y_ + height_ / 2; }
 2357              		.loc 16 62 34 is_stmt 0 view .LVU517
 2358              	.LBE956:
 2359              	.LBE955:
 2360              	.LBB959:
 2361              	.LBI959:
  62:../../../lib/pd2dsy/libdaisy/src/hid/disp/graphics_common.h ****     int16_t GetCenterY() const { return y_ + height_ / 2; }
 2362              		.loc 16 62 13 is_stmt 1 view .LVU518
 2363              	.LBB960:
  62:../../../lib/pd2dsy/libdaisy/src/hid/disp/graphics_common.h ****     int16_t GetCenterY() const { return y_ + height_ / 2; }
 2364              		.loc 16 62 34 view .LVU519
  62:../../../lib/pd2dsy/libdaisy/src/hid/disp/graphics_common.h ****     int16_t GetCenterY() const { return y_ + height_ / 2; }
 2365              		.loc 16 62 34 is_stmt 0 view .LVU520
 2366              	.LBE960:
 2367              	.LBE959:
 2368              	.LBB961:
 2369              	.LBB957:
  62:../../../lib/pd2dsy/libdaisy/src/hid/disp/graphics_common.h ****     int16_t GetCenterY() const { return y_ + height_ / 2; }
 2370              		.loc 16 62 53 view .LVU521
ARM GAS  /var/folders/fb/yfxt3z4538j6z0vjt03w70vc0000gn/T//cc0qjWS6.s 			page 79


 2371 0284 B4F90410 		ldrsh	r1, [r4, #4]
 2372              	.LVL154:
  62:../../../lib/pd2dsy/libdaisy/src/hid/disp/graphics_common.h ****     int16_t GetCenterY() const { return y_ + height_ / 2; }
 2373              		.loc 16 62 44 view .LVU522
 2374 0288 2788     		ldrh	r7, [r4]
  62:../../../lib/pd2dsy/libdaisy/src/hid/disp/graphics_common.h ****     int16_t GetCenterY() const { return y_ + height_ / 2; }
 2375              		.loc 16 62 53 view .LVU523
 2376 028a 0029     		cmp	r1, #0
 2377              	.LBE957:
 2378              	.LBE961:
 222:../../../lib/pd2dsy/libdaisy/src/hid/disp/graphics_common.h ****                         width_,
 2379              		.loc 16 222 31 view .LVU524
 2380 028c B4F90240 		ldrsh	r4, [r4, #2]
 2381              	.LVL155:
 2382              	.LBB962:
 2383              	.LBB958:
  62:../../../lib/pd2dsy/libdaisy/src/hid/disp/graphics_common.h ****     int16_t GetCenterY() const { return y_ + height_ / 2; }
 2384              		.loc 16 62 53 view .LVU525
 2385 0290 B8BF     		it	lt
 2386 0292 0131     		addlt	r1, r1, #1
  62:../../../lib/pd2dsy/libdaisy/src/hid/disp/graphics_common.h ****     int16_t GetCenterY() const { return y_ + height_ / 2; }
 2387              		.loc 16 62 44 view .LVU526
 2388 0294 07EB6107 		add	r7, r7, r1, asr #1
 2389              	.LBE958:
 2390              	.LBE962:
 2391              	.LBB963:
 2392              	.LBB964:
 2393              	.LBB965:
  32:../../../lib/pd2dsy/libdaisy/src/hid/disp/graphics_common.h ****     {
 2394              		.loc 16 32 66 view .LVU527
 2395 0298 0699     		ldr	r1, [sp, #24]
 2396 029a 8B80     		strh	r3, [r1, #4]	@ movhi
 2397              	.LBE965:
 2398              	.LBE964:
 2399              	.LBE963:
 221:../../../lib/pd2dsy/libdaisy/src/hid/disp/graphics_common.h ****                         other.y_,
 2400              		.loc 16 221 58 view .LVU528
 2401 029c A7EB6303 		sub	r3, r7, r3, asr #1
 2402              	.LBB976:
 2403              	.LBB972:
 2404              	.LBB968:
  32:../../../lib/pd2dsy/libdaisy/src/hid/disp/graphics_common.h ****     {
 2405              		.loc 16 32 66 view .LVU529
 2406 02a0 4C80     		strh	r4, [r1, #2]	@ movhi
 2407              	.LBE968:
 2408              	.LBE972:
 2409              	.LBE976:
 2410              	.LBE1093:
 2411              	.LBE1171:
 468:../../../lib/pd2dsy/libdaisy/src/hid/disp/display.h ****         ((ChildType*)(this))->ChildType::WriteString(str, font, on);
 2412              		.loc 4 468 18 view .LVU530
 2413 02a2 A4B2     		uxth	r4, r4
 2414              	.LBB1172:
 2415              	.LBB1094:
 221:../../../lib/pd2dsy/libdaisy/src/hid/disp/graphics_common.h ****                         other.y_,
 2416              		.loc 16 221 58 view .LVU531
 2417 02a4 9FB2     		uxth	r7, r3
ARM GAS  /var/folders/fb/yfxt3z4538j6z0vjt03w70vc0000gn/T//cc0qjWS6.s 			page 80


 2418              	.LVL156:
 2419              	.LBB977:
 2420              	.LBI963:
  31:../../../lib/pd2dsy/libdaisy/src/hid/disp/graphics_common.h ****     : x_(x), y_(y), width_(max(0, width)), height_(max(0, height))
 2421              		.loc 16 31 5 is_stmt 1 view .LVU532
 2422              	.LBB973:
 2423              	.LBB969:
 2424              	.LBB966:
 2425              	.LBI966:
 2426              		.loc 16 261 13 view .LVU533
 2427              	.LBE966:
 2428              	.LBE969:
 2429              	.LBE973:
 2430              	.LBE977:
 2431              	.LBE1094:
 2432              	.LBE1172:
 2433              		.loc 16 261 41 view .LVU534
 2434              	.LBB1173:
 2435              	.LBB1095:
 2436              	.LBB978:
 2437              	.LBB974:
 2438              	.LBB970:
 2439              	.LBB967:
 2440              	.LBI967:
 2441              		.loc 16 261 13 view .LVU535
 2442              	.LBE967:
 2443              	.LBE970:
 2444              	.LBE974:
 2445              	.LBE978:
 2446              	.LBE1095:
 2447              	.LBE1173:
 2448              		.loc 16 261 41 view .LVU536
 2449              	.LBB1174:
 2450              	.LBB1096:
 2451              	.LBB979:
 2452              	.LBB975:
 2453              	.LBB971:
  32:../../../lib/pd2dsy/libdaisy/src/hid/disp/graphics_common.h ****     {
 2454              		.loc 16 32 66 is_stmt 0 view .LVU537
 2455 02a6 CA80     		strh	r2, [r1, #6]	@ movhi
 2456 02a8 0F80     		strh	r7, [r1]	@ movhi
 2457              	.LBE971:
  34:../../../lib/pd2dsy/libdaisy/src/hid/disp/graphics_common.h **** 
 2458              		.loc 16 34 5 view .LVU538
 2459 02aa EAE6     		b	.L117
 2460              	.LVL157:
 2461              	.L113:
  34:../../../lib/pd2dsy/libdaisy/src/hid/disp/graphics_common.h **** 
 2462              		.loc 16 34 5 view .LVU539
 2463              	.LBE975:
 2464              	.LBE979:
 215:../../../lib/pd2dsy/libdaisy/src/hid/disp/graphics_common.h ****                 return {int16_t(other.GetRight() - width_),
 2465              		.loc 16 215 13 is_stmt 1 view .LVU540
 216:../../../lib/pd2dsy/libdaisy/src/hid/disp/graphics_common.h ****                         other.y_,
 2466              		.loc 16 216 17 view .LVU541
 2467              	.LBB980:
 2468              	.LBI980:
ARM GAS  /var/folders/fb/yfxt3z4538j6z0vjt03w70vc0000gn/T//cc0qjWS6.s 			page 81


  60:../../../lib/pd2dsy/libdaisy/src/hid/disp/graphics_common.h ****     int16_t GetBottom() const { return y_ + height_; }
 2469              		.loc 16 60 13 view .LVU542
 2470              	.LBB981:
  60:../../../lib/pd2dsy/libdaisy/src/hid/disp/graphics_common.h ****     int16_t GetBottom() const { return y_ + height_; }
 2471              		.loc 16 60 32 view .LVU543
  60:../../../lib/pd2dsy/libdaisy/src/hid/disp/graphics_common.h ****     int16_t GetBottom() const { return y_ + height_; }
 2472              		.loc 16 60 42 is_stmt 0 view .LVU544
 2473 02ac A188     		ldrh	r1, [r4, #4]
 2474              	.LVL158:
  60:../../../lib/pd2dsy/libdaisy/src/hid/disp/graphics_common.h ****     int16_t GetBottom() const { return y_ + height_; }
 2475              		.loc 16 60 42 view .LVU545
 2476 02ae 2788     		ldrh	r7, [r4]
 2477              	.LBE981:
 2478              	.LBE980:
 217:../../../lib/pd2dsy/libdaisy/src/hid/disp/graphics_common.h ****                         width_,
 2479              		.loc 16 217 31 view .LVU546
 2480 02b0 B4F90240 		ldrsh	r4, [r4, #2]
 2481              	.LVL159:
 2482              	.LBB983:
 2483              	.LBB982:
  60:../../../lib/pd2dsy/libdaisy/src/hid/disp/graphics_common.h ****     int16_t GetBottom() const { return y_ + height_; }
 2484              		.loc 16 60 42 view .LVU547
 2485 02b4 0F44     		add	r7, r7, r1
 2486              	.LBE982:
 2487              	.LBE983:
 2488              	.LBB984:
 2489              	.LBB985:
 2490              	.LBB986:
  32:../../../lib/pd2dsy/libdaisy/src/hid/disp/graphics_common.h ****     {
 2491              		.loc 16 32 66 view .LVU548
 2492 02b6 0699     		ldr	r1, [sp, #24]
 2493 02b8 8B80     		strh	r3, [r1, #4]	@ movhi
 2494              	.LBE986:
 2495              	.LBE985:
 2496              	.LBE984:
 216:../../../lib/pd2dsy/libdaisy/src/hid/disp/graphics_common.h ****                         other.y_,
 2497              		.loc 16 216 50 view .LVU549
 2498 02ba FB1A     		subs	r3, r7, r3
 2499              	.LBB997:
 2500              	.LBB993:
 2501              	.LBB989:
  32:../../../lib/pd2dsy/libdaisy/src/hid/disp/graphics_common.h ****     {
 2502              		.loc 16 32 66 view .LVU550
 2503 02bc 4C80     		strh	r4, [r1, #2]	@ movhi
 2504              	.LBE989:
 2505              	.LBE993:
 2506              	.LBE997:
 2507              	.LBE1096:
 2508              	.LBE1174:
 468:../../../lib/pd2dsy/libdaisy/src/hid/disp/display.h ****         ((ChildType*)(this))->ChildType::WriteString(str, font, on);
 2509              		.loc 4 468 18 view .LVU551
 2510 02be A4B2     		uxth	r4, r4
 2511              	.LBB1175:
 2512              	.LBB1097:
 216:../../../lib/pd2dsy/libdaisy/src/hid/disp/graphics_common.h ****                         other.y_,
 2513              		.loc 16 216 50 view .LVU552
 2514 02c0 9FB2     		uxth	r7, r3
ARM GAS  /var/folders/fb/yfxt3z4538j6z0vjt03w70vc0000gn/T//cc0qjWS6.s 			page 82


 2515              	.LVL160:
 2516              	.LBB998:
 2517              	.LBI984:
  31:../../../lib/pd2dsy/libdaisy/src/hid/disp/graphics_common.h ****     : x_(x), y_(y), width_(max(0, width)), height_(max(0, height))
 2518              		.loc 16 31 5 is_stmt 1 view .LVU553
 2519              	.LBB994:
 2520              	.LBB990:
 2521              	.LBB987:
 2522              	.LBI987:
 2523              		.loc 16 261 13 view .LVU554
 2524              	.LBE987:
 2525              	.LBE990:
 2526              	.LBE994:
 2527              	.LBE998:
 2528              	.LBE1097:
 2529              	.LBE1175:
 2530              		.loc 16 261 41 view .LVU555
 2531              	.LBB1176:
 2532              	.LBB1098:
 2533              	.LBB999:
 2534              	.LBB995:
 2535              	.LBB991:
 2536              	.LBB988:
 2537              	.LBI988:
 2538              		.loc 16 261 13 view .LVU556
 2539              	.LBE988:
 2540              	.LBE991:
 2541              	.LBE995:
 2542              	.LBE999:
 2543              	.LBE1098:
 2544              	.LBE1176:
 2545              		.loc 16 261 41 view .LVU557
 2546              	.LBB1177:
 2547              	.LBB1099:
 2548              	.LBB1000:
 2549              	.LBB996:
 2550              	.LBB992:
  32:../../../lib/pd2dsy/libdaisy/src/hid/disp/graphics_common.h ****     {
 2551              		.loc 16 32 66 is_stmt 0 view .LVU558
 2552 02c2 CA80     		strh	r2, [r1, #6]	@ movhi
 2553 02c4 0F80     		strh	r7, [r1]	@ movhi
 2554              	.LBE992:
  34:../../../lib/pd2dsy/libdaisy/src/hid/disp/graphics_common.h **** 
 2555              		.loc 16 34 5 view .LVU559
 2556 02c6 DCE6     		b	.L117
 2557              	.LVL161:
 2558              	.L112:
  34:../../../lib/pd2dsy/libdaisy/src/hid/disp/graphics_common.h **** 
 2559              		.loc 16 34 5 view .LVU560
 2560              	.LBE996:
 2561              	.LBE1000:
 225:../../../lib/pd2dsy/libdaisy/src/hid/disp/graphics_common.h ****                 return {other.x_,
 2562              		.loc 16 225 13 is_stmt 1 view .LVU561
 226:../../../lib/pd2dsy/libdaisy/src/hid/disp/graphics_common.h ****                         int16_t(other.GetBottom() - height_),
 2563              		.loc 16 226 17 view .LVU562
 2564              	.LBB1001:
 2565              	.LBB1002:
ARM GAS  /var/folders/fb/yfxt3z4538j6z0vjt03w70vc0000gn/T//cc0qjWS6.s 			page 83


  61:../../../lib/pd2dsy/libdaisy/src/hid/disp/graphics_common.h ****     int16_t GetCenterX() const { return x_ + width_ / 2; }
 2566              		.loc 16 61 43 is_stmt 0 view .LVU563
 2567 02c8 E788     		ldrh	r7, [r4, #6]
 2568 02ca 6188     		ldrh	r1, [r4, #2]
 2569              	.LVL162:
  61:../../../lib/pd2dsy/libdaisy/src/hid/disp/graphics_common.h ****     int16_t GetCenterX() const { return x_ + width_ / 2; }
 2570              		.loc 16 61 43 view .LVU564
 2571 02cc 3944     		add	r1, r1, r7
 2572              	.LBE1002:
 2573              	.LBE1001:
 226:../../../lib/pd2dsy/libdaisy/src/hid/disp/graphics_common.h ****                         int16_t(other.GetBottom() - height_),
 2574              		.loc 16 226 31 view .LVU565
 2575 02ce B4F90070 		ldrsh	r7, [r4]
 227:../../../lib/pd2dsy/libdaisy/src/hid/disp/graphics_common.h ****                         width_,
 2576              		.loc 16 227 51 view .LVU566
 2577 02d2 081A     		subs	r0, r1, r0
 2578              	.LVL163:
 2579              	.LBB1004:
 2580              	.LBI1001:
  61:../../../lib/pd2dsy/libdaisy/src/hid/disp/graphics_common.h ****     int16_t GetCenterX() const { return x_ + width_ / 2; }
 2581              		.loc 16 61 13 is_stmt 1 view .LVU567
 2582              	.LBB1003:
  61:../../../lib/pd2dsy/libdaisy/src/hid/disp/graphics_common.h ****     int16_t GetCenterX() const { return x_ + width_ / 2; }
 2583              		.loc 16 61 33 view .LVU568
  61:../../../lib/pd2dsy/libdaisy/src/hid/disp/graphics_common.h ****     int16_t GetCenterX() const { return x_ + width_ / 2; }
 2584              		.loc 16 61 33 is_stmt 0 view .LVU569
 2585              	.LBE1003:
 2586              	.LBE1004:
 2587              	.LBB1005:
 2588              	.LBB1006:
 2589              	.LBB1007:
  32:../../../lib/pd2dsy/libdaisy/src/hid/disp/graphics_common.h ****     {
 2590              		.loc 16 32 66 view .LVU570
 2591 02d4 0699     		ldr	r1, [sp, #24]
 2592              	.LBE1007:
 2593              	.LBE1006:
 2594              	.LBE1005:
 227:../../../lib/pd2dsy/libdaisy/src/hid/disp/graphics_common.h ****                         width_,
 2595              		.loc 16 227 51 view .LVU571
 2596 02d6 84B2     		uxth	r4, r0
 2597              	.LVL164:
 2598              	.LBB1017:
 2599              	.LBB1013:
 2600              	.LBB1010:
  32:../../../lib/pd2dsy/libdaisy/src/hid/disp/graphics_common.h ****     {
 2601              		.loc 16 32 66 view .LVU572
 2602 02d8 0F80     		strh	r7, [r1]	@ movhi
 2603 02da 8B80     		strh	r3, [r1, #4]	@ movhi
 2604              	.LVL165:
  32:../../../lib/pd2dsy/libdaisy/src/hid/disp/graphics_common.h ****     {
 2605              		.loc 16 32 66 view .LVU573
 2606              	.LBE1010:
 2607              	.LBE1013:
 2608              	.LBI1005:
  31:../../../lib/pd2dsy/libdaisy/src/hid/disp/graphics_common.h ****     : x_(x), y_(y), width_(max(0, width)), height_(max(0, height))
 2609              		.loc 16 31 5 is_stmt 1 view .LVU574
 2610              	.LBE1017:
ARM GAS  /var/folders/fb/yfxt3z4538j6z0vjt03w70vc0000gn/T//cc0qjWS6.s 			page 84


 2611              	.LBE1099:
 2612              	.LBE1177:
 468:../../../lib/pd2dsy/libdaisy/src/hid/disp/display.h ****         ((ChildType*)(this))->ChildType::WriteString(str, font, on);
 2613              		.loc 4 468 18 is_stmt 0 view .LVU575
 2614 02dc BFB2     		uxth	r7, r7
 2615              	.LVL166:
 2616              	.LBB1178:
 2617              	.LBB1100:
 2618              	.LBB1018:
 2619              	.LBB1014:
 2620              	.LBB1011:
  32:../../../lib/pd2dsy/libdaisy/src/hid/disp/graphics_common.h ****     {
 2621              		.loc 16 32 66 view .LVU576
 2622 02de CA80     		strh	r2, [r1, #6]	@ movhi
 2623 02e0 4C80     		strh	r4, [r1, #2]	@ movhi
 2624              	.LVL167:
 2625              	.LBB1008:
 2626              	.LBI1008:
 2627              		.loc 16 261 13 is_stmt 1 view .LVU577
 2628              	.LBE1008:
 2629              	.LBE1011:
 2630              	.LBE1014:
 2631              	.LBE1018:
 2632              	.LBE1100:
 2633              	.LBE1178:
 2634              		.loc 16 261 41 view .LVU578
 2635              	.LBB1179:
 2636              	.LBB1101:
 2637              	.LBB1019:
 2638              	.LBB1015:
 2639              	.LBB1012:
 2640              	.LBB1009:
 2641              	.LBI1009:
 2642              		.loc 16 261 13 view .LVU579
 2643              	.LBE1009:
 2644              	.LBE1012:
 2645              	.LBE1015:
 2646              	.LBE1019:
 2647              	.LBE1101:
 2648              	.LBE1179:
 2649              		.loc 16 261 41 view .LVU580
 2650              	.LBB1180:
 2651              	.LBB1102:
 2652              	.LBB1020:
 2653              	.LBB1016:
  34:../../../lib/pd2dsy/libdaisy/src/hid/disp/graphics_common.h **** 
 2654              		.loc 16 34 5 is_stmt 0 view .LVU581
 2655 02e2 CEE6     		b	.L117
 2656              	.LVL168:
 2657              	.L111:
  34:../../../lib/pd2dsy/libdaisy/src/hid/disp/graphics_common.h **** 
 2658              		.loc 16 34 5 view .LVU582
 2659              	.LBE1016:
 2660              	.LBE1020:
 235:../../../lib/pd2dsy/libdaisy/src/hid/disp/graphics_common.h ****                 return {int16_t(x_ + (other.GetCenterX() - GetCenterX())),
 2661              		.loc 16 235 13 is_stmt 1 view .LVU583
 236:../../../lib/pd2dsy/libdaisy/src/hid/disp/graphics_common.h ****                         int16_t(other.GetBottom() - height_),
ARM GAS  /var/folders/fb/yfxt3z4538j6z0vjt03w70vc0000gn/T//cc0qjWS6.s 			page 85


 2662              		.loc 16 236 17 view .LVU584
 2663              	.LBB1021:
 2664              	.LBI1021:
  62:../../../lib/pd2dsy/libdaisy/src/hid/disp/graphics_common.h ****     int16_t GetCenterY() const { return y_ + height_ / 2; }
 2665              		.loc 16 62 13 view .LVU585
 2666              	.LBB1022:
  62:../../../lib/pd2dsy/libdaisy/src/hid/disp/graphics_common.h ****     int16_t GetCenterY() const { return y_ + height_ / 2; }
 2667              		.loc 16 62 34 view .LVU586
  62:../../../lib/pd2dsy/libdaisy/src/hid/disp/graphics_common.h ****     int16_t GetCenterY() const { return y_ + height_ / 2; }
 2668              		.loc 16 62 34 is_stmt 0 view .LVU587
 2669              	.LBE1022:
 2670              	.LBE1021:
 2671              	.LBB1024:
 2672              	.LBI1024:
  62:../../../lib/pd2dsy/libdaisy/src/hid/disp/graphics_common.h ****     int16_t GetCenterY() const { return y_ + height_ / 2; }
 2673              		.loc 16 62 13 is_stmt 1 view .LVU588
 2674              	.LBB1025:
  62:../../../lib/pd2dsy/libdaisy/src/hid/disp/graphics_common.h ****     int16_t GetCenterY() const { return y_ + height_ / 2; }
 2675              		.loc 16 62 34 view .LVU589
  62:../../../lib/pd2dsy/libdaisy/src/hid/disp/graphics_common.h ****     int16_t GetCenterY() const { return y_ + height_ / 2; }
 2676              		.loc 16 62 34 is_stmt 0 view .LVU590
 2677              	.LBE1025:
 2678              	.LBE1024:
 2679              	.LBB1026:
 2680              	.LBB1023:
  62:../../../lib/pd2dsy/libdaisy/src/hid/disp/graphics_common.h ****     int16_t GetCenterY() const { return y_ + height_ / 2; }
 2681              		.loc 16 62 53 view .LVU591
 2682 02e4 B4F90410 		ldrsh	r1, [r4, #4]
 2683              	.LVL169:
  62:../../../lib/pd2dsy/libdaisy/src/hid/disp/graphics_common.h ****     int16_t GetCenterY() const { return y_ + height_ / 2; }
 2684              		.loc 16 62 44 view .LVU592
 2685 02e8 2788     		ldrh	r7, [r4]
  62:../../../lib/pd2dsy/libdaisy/src/hid/disp/graphics_common.h ****     int16_t GetCenterY() const { return y_ + height_ / 2; }
 2686              		.loc 16 62 53 view .LVU593
 2687 02ea 0029     		cmp	r1, #0
 2688 02ec B8BF     		it	lt
 2689 02ee 0131     		addlt	r1, r1, #1
  62:../../../lib/pd2dsy/libdaisy/src/hid/disp/graphics_common.h ****     int16_t GetCenterY() const { return y_ + height_ / 2; }
 2690              		.loc 16 62 44 view .LVU594
 2691 02f0 07EB6107 		add	r7, r7, r1, asr #1
 2692              	.LBE1023:
 2693              	.LBE1026:
 236:../../../lib/pd2dsy/libdaisy/src/hid/disp/graphics_common.h ****                         int16_t(other.GetBottom() - height_),
 2694              		.loc 16 236 58 view .LVU595
 2695 02f4 A7EB6307 		sub	r7, r7, r3, asr #1
 2696              	.L177:
 2697              	.LBB1027:
 2698              	.LBB1028:
  61:../../../lib/pd2dsy/libdaisy/src/hid/disp/graphics_common.h ****     int16_t GetCenterX() const { return x_ + width_ / 2; }
 2699              		.loc 16 61 43 view .LVU596
 2700 02f8 B4F802C0 		ldrh	ip, [r4, #2]
 2701              	.LBE1028:
 2702              	.LBE1027:
 236:../../../lib/pd2dsy/libdaisy/src/hid/disp/graphics_common.h ****                         int16_t(other.GetBottom() - height_),
 2703              		.loc 16 236 58 view .LVU597
 2704 02fc BFB2     		uxth	r7, r7
 2705              	.LVL170:
ARM GAS  /var/folders/fb/yfxt3z4538j6z0vjt03w70vc0000gn/T//cc0qjWS6.s 			page 86


 2706              	.LBB1031:
 2707              	.LBI1027:
  61:../../../lib/pd2dsy/libdaisy/src/hid/disp/graphics_common.h ****     int16_t GetCenterX() const { return x_ + width_ / 2; }
 2708              		.loc 16 61 13 is_stmt 1 view .LVU598
 2709              	.LBB1029:
  61:../../../lib/pd2dsy/libdaisy/src/hid/disp/graphics_common.h ****     int16_t GetCenterX() const { return x_ + width_ / 2; }
 2710              		.loc 16 61 33 view .LVU599
  61:../../../lib/pd2dsy/libdaisy/src/hid/disp/graphics_common.h ****     int16_t GetCenterX() const { return x_ + width_ / 2; }
 2711              		.loc 16 61 43 is_stmt 0 view .LVU600
 2712 02fe E488     		ldrh	r4, [r4, #6]
 2713              	.LVL171:
  61:../../../lib/pd2dsy/libdaisy/src/hid/disp/graphics_common.h ****     int16_t GetCenterX() const { return x_ + width_ / 2; }
 2714              		.loc 16 61 43 view .LVU601
 2715              	.LBE1029:
 2716              	.LBE1031:
 2717              	.LBB1032:
 2718              	.LBB1033:
 2719              	.LBB1034:
  32:../../../lib/pd2dsy/libdaisy/src/hid/disp/graphics_common.h ****     {
 2720              		.loc 16 32 66 view .LVU602
 2721 0300 0699     		ldr	r1, [sp, #24]
 2722              	.LBE1034:
 2723              	.LBE1033:
 2724              	.LBE1032:
 2725              	.LBB1046:
 2726              	.LBB1030:
  61:../../../lib/pd2dsy/libdaisy/src/hid/disp/graphics_common.h ****     int16_t GetCenterX() const { return x_ + width_ / 2; }
 2727              		.loc 16 61 43 view .LVU603
 2728 0302 6444     		add	r4, r4, ip
 2729              	.LBE1030:
 2730              	.LBE1046:
 2731              	.LBB1047:
 2732              	.LBB1041:
 2733              	.LBB1037:
  32:../../../lib/pd2dsy/libdaisy/src/hid/disp/graphics_common.h ****     {
 2734              		.loc 16 32 66 view .LVU604
 2735 0304 8B80     		strh	r3, [r1, #4]	@ movhi
 2736              	.LBE1037:
 2737              	.LBE1041:
 2738              	.LBE1047:
 237:../../../lib/pd2dsy/libdaisy/src/hid/disp/graphics_common.h ****                         width_,
 2739              		.loc 16 237 51 view .LVU605
 2740 0306 201A     		subs	r0, r4, r0
 2741              	.LBB1048:
 2742              	.LBB1042:
 2743              	.LBB1038:
  32:../../../lib/pd2dsy/libdaisy/src/hid/disp/graphics_common.h ****     {
 2744              		.loc 16 32 66 view .LVU606
 2745 0308 CA80     		strh	r2, [r1, #6]	@ movhi
 2746 030a 0F80     		strh	r7, [r1]	@ movhi
 2747              	.LBE1038:
 2748              	.LBE1042:
 2749              	.LBE1048:
 237:../../../lib/pd2dsy/libdaisy/src/hid/disp/graphics_common.h ****                         width_,
 2750              		.loc 16 237 51 view .LVU607
 2751 030c 84B2     		uxth	r4, r0
 2752              	.LVL172:
ARM GAS  /var/folders/fb/yfxt3z4538j6z0vjt03w70vc0000gn/T//cc0qjWS6.s 			page 87


 2753              	.LBB1049:
 2754              	.LBI1032:
  31:../../../lib/pd2dsy/libdaisy/src/hid/disp/graphics_common.h ****     : x_(x), y_(y), width_(max(0, width)), height_(max(0, height))
 2755              		.loc 16 31 5 is_stmt 1 view .LVU608
 2756              	.LBB1043:
 2757              	.LBB1039:
  32:../../../lib/pd2dsy/libdaisy/src/hid/disp/graphics_common.h ****     {
 2758              		.loc 16 32 66 is_stmt 0 view .LVU609
 2759 030e 4C80     		strh	r4, [r1, #2]	@ movhi
 2760              	.LVL173:
 2761              	.LBB1035:
 2762              	.LBI1035:
 2763              		.loc 16 261 13 is_stmt 1 view .LVU610
 2764              	.LBE1035:
 2765              	.LBE1039:
 2766              	.LBE1043:
 2767              	.LBE1049:
 2768              	.LBE1102:
 2769              	.LBE1180:
 2770              		.loc 16 261 41 view .LVU611
 2771              	.LBB1181:
 2772              	.LBB1103:
 2773              	.LBB1050:
 2774              	.LBB1044:
 2775              	.LBB1040:
 2776              	.LBB1036:
 2777              	.LBI1036:
 2778              		.loc 16 261 13 view .LVU612
 2779              	.LBE1036:
 2780              	.LBE1040:
 2781              	.LBE1044:
 2782              	.LBE1050:
 2783              	.LBE1103:
 2784              	.LBE1181:
 2785              		.loc 16 261 41 view .LVU613
 2786              	.LBB1182:
 2787              	.LBB1104:
 2788              	.LBB1051:
 2789              	.LBB1045:
  34:../../../lib/pd2dsy/libdaisy/src/hid/disp/graphics_common.h **** 
 2790              		.loc 16 34 5 is_stmt 0 view .LVU614
 2791 0310 B7E6     		b	.L117
 2792              	.LVL174:
 2793              	.L110:
  34:../../../lib/pd2dsy/libdaisy/src/hid/disp/graphics_common.h **** 
 2794              		.loc 16 34 5 view .LVU615
 2795              	.LBE1045:
 2796              	.LBE1051:
 230:../../../lib/pd2dsy/libdaisy/src/hid/disp/graphics_common.h ****                 return {int16_t(other.GetRight() - width_),
 2797              		.loc 16 230 13 is_stmt 1 view .LVU616
 231:../../../lib/pd2dsy/libdaisy/src/hid/disp/graphics_common.h ****                         int16_t(other.GetBottom() - height_),
 2798              		.loc 16 231 17 view .LVU617
 2799              	.LBB1052:
 2800              	.LBI1052:
  60:../../../lib/pd2dsy/libdaisy/src/hid/disp/graphics_common.h ****     int16_t GetBottom() const { return y_ + height_; }
 2801              		.loc 16 60 13 view .LVU618
 2802              	.LBB1053:
ARM GAS  /var/folders/fb/yfxt3z4538j6z0vjt03w70vc0000gn/T//cc0qjWS6.s 			page 88


  60:../../../lib/pd2dsy/libdaisy/src/hid/disp/graphics_common.h ****     int16_t GetBottom() const { return y_ + height_; }
 2803              		.loc 16 60 32 view .LVU619
  60:../../../lib/pd2dsy/libdaisy/src/hid/disp/graphics_common.h ****     int16_t GetBottom() const { return y_ + height_; }
 2804              		.loc 16 60 42 is_stmt 0 view .LVU620
 2805 0312 2788     		ldrh	r7, [r4]
 2806 0314 A188     		ldrh	r1, [r4, #4]
 2807              	.LVL175:
  60:../../../lib/pd2dsy/libdaisy/src/hid/disp/graphics_common.h ****     int16_t GetBottom() const { return y_ + height_; }
 2808              		.loc 16 60 42 view .LVU621
 2809 0316 0F44     		add	r7, r7, r1
 2810              	.LBE1053:
 2811              	.LBE1052:
 231:../../../lib/pd2dsy/libdaisy/src/hid/disp/graphics_common.h ****                         int16_t(other.GetBottom() - height_),
 2812              		.loc 16 231 50 view .LVU622
 2813 0318 FF1A     		subs	r7, r7, r3
 2814 031a EDE7     		b	.L177
 2815              	.L190:
 2816              		.align	2
 2817              	.L189:
 2818 031c 00000000 		.word	_ZNK5daisy11OledDisplayINS_13SSD130xDriverILj128ELj64ENS_24SSD130x4WireSpiTransportEEEE5Widt
 2819 0320 00000000 		.word	_ZNK5daisy11OledDisplayINS_13SSD130xDriverILj128ELj64ENS_24SSD130x4WireSpiTransportEEEE6Heig
 2820              	.LVL176:
 2821              	.L109:
 240:../../../lib/pd2dsy/libdaisy/src/hid/disp/graphics_common.h ****                 return {other.x_,
 2822              		.loc 16 240 13 is_stmt 1 view .LVU623
 241:../../../lib/pd2dsy/libdaisy/src/hid/disp/graphics_common.h ****                         int16_t(y_ + (other.GetCenterY() - GetCenterY())),
 2823              		.loc 16 241 17 view .LVU624
 2824              	.LBB1054:
 2825              	.LBB1055:
  63:../../../lib/pd2dsy/libdaisy/src/hid/disp/graphics_common.h **** 
 2826              		.loc 16 63 54 is_stmt 0 view .LVU625
 2827 0324 B4F90610 		ldrsh	r1, [r4, #6]
 2828              	.LVL177:
  63:../../../lib/pd2dsy/libdaisy/src/hid/disp/graphics_common.h **** 
 2829              		.loc 16 63 54 view .LVU626
 2830              	.LBE1055:
 2831              	.LBE1054:
 241:../../../lib/pd2dsy/libdaisy/src/hid/disp/graphics_common.h ****                         int16_t(y_ + (other.GetCenterY() - GetCenterY())),
 2832              		.loc 16 241 31 view .LVU627
 2833 0328 B4F90070 		ldrsh	r7, [r4]
 2834              	.LVL178:
 2835              	.LBB1060:
 2836              	.LBI1054:
  63:../../../lib/pd2dsy/libdaisy/src/hid/disp/graphics_common.h **** 
 2837              		.loc 16 63 13 is_stmt 1 view .LVU628
 2838              	.LBB1056:
  63:../../../lib/pd2dsy/libdaisy/src/hid/disp/graphics_common.h **** 
 2839              		.loc 16 63 34 view .LVU629
  63:../../../lib/pd2dsy/libdaisy/src/hid/disp/graphics_common.h **** 
 2840              		.loc 16 63 34 is_stmt 0 view .LVU630
 2841              	.LBE1056:
 2842              	.LBE1060:
 2843              	.LBB1061:
 2844              	.LBI1061:
  63:../../../lib/pd2dsy/libdaisy/src/hid/disp/graphics_common.h **** 
 2845              		.loc 16 63 13 is_stmt 1 view .LVU631
 2846              	.LBB1062:
ARM GAS  /var/folders/fb/yfxt3z4538j6z0vjt03w70vc0000gn/T//cc0qjWS6.s 			page 89


  63:../../../lib/pd2dsy/libdaisy/src/hid/disp/graphics_common.h **** 
 2847              		.loc 16 63 34 view .LVU632
  63:../../../lib/pd2dsy/libdaisy/src/hid/disp/graphics_common.h **** 
 2848              		.loc 16 63 34 is_stmt 0 view .LVU633
 2849              	.LBE1062:
 2850              	.LBE1061:
 2851              	.LBB1063:
 2852              	.LBB1057:
  63:../../../lib/pd2dsy/libdaisy/src/hid/disp/graphics_common.h **** 
 2853              		.loc 16 63 54 view .LVU634
 2854 032c 0029     		cmp	r1, #0
  63:../../../lib/pd2dsy/libdaisy/src/hid/disp/graphics_common.h **** 
 2855              		.loc 16 63 44 view .LVU635
 2856 032e 6488     		ldrh	r4, [r4, #2]
 2857              	.LVL179:
  63:../../../lib/pd2dsy/libdaisy/src/hid/disp/graphics_common.h **** 
 2858              		.loc 16 63 44 view .LVU636
 2859              	.LBE1057:
 2860              	.LBE1063:
 2861              	.LBB1064:
 2862              	.LBB1065:
 2863              	.LBB1066:
  32:../../../lib/pd2dsy/libdaisy/src/hid/disp/graphics_common.h ****     {
 2864              		.loc 16 32 66 view .LVU637
 2865 0330 0698     		ldr	r0, [sp, #24]
 2866              	.LBE1066:
 2867              	.LBE1065:
 2868              	.LBE1064:
 2869              	.LBB1078:
 2870              	.LBB1058:
  63:../../../lib/pd2dsy/libdaisy/src/hid/disp/graphics_common.h **** 
 2871              		.loc 16 63 54 view .LVU638
 2872 0332 B8BF     		it	lt
 2873 0334 0131     		addlt	r1, r1, #1
 2874              	.LBE1058:
 2875              	.LBE1078:
 2876              	.LBB1079:
 2877              	.LBB1073:
 2878              	.LBB1069:
  32:../../../lib/pd2dsy/libdaisy/src/hid/disp/graphics_common.h ****     {
 2879              		.loc 16 32 66 view .LVU639
 2880 0336 C280     		strh	r2, [r0, #6]	@ movhi
 2881              	.LBE1069:
 2882              	.LBE1073:
 2883              	.LBE1079:
 2884              	.LBB1080:
 2885              	.LBB1059:
  63:../../../lib/pd2dsy/libdaisy/src/hid/disp/graphics_common.h **** 
 2886              		.loc 16 63 44 view .LVU640
 2887 0338 04EB6104 		add	r4, r4, r1, asr #1
 2888              	.LBE1059:
 2889              	.LBE1080:
 2890              	.LBB1081:
 2891              	.LBB1074:
 2892              	.LBB1070:
  32:../../../lib/pd2dsy/libdaisy/src/hid/disp/graphics_common.h ****     {
 2893              		.loc 16 32 66 view .LVU641
ARM GAS  /var/folders/fb/yfxt3z4538j6z0vjt03w70vc0000gn/T//cc0qjWS6.s 			page 90


 2894 033c 0780     		strh	r7, [r0]	@ movhi
 2895 033e 8380     		strh	r3, [r0, #4]	@ movhi
 2896              	.LBE1070:
 2897              	.LBE1074:
 2898              	.LBE1081:
 2899              	.LBE1104:
 2900              	.LBE1182:
 468:../../../lib/pd2dsy/libdaisy/src/hid/disp/display.h ****         ((ChildType*)(this))->ChildType::WriteString(str, font, on);
 2901              		.loc 4 468 18 view .LVU642
 2902 0340 BFB2     		uxth	r7, r7
 2903              	.LBB1183:
 2904              	.LBB1105:
 242:../../../lib/pd2dsy/libdaisy/src/hid/disp/graphics_common.h ****                         width_,
 2905              		.loc 16 242 58 view .LVU643
 2906 0342 A4EB5202 		sub	r2, r4, r2, lsr #1
 2907 0346 94B2     		uxth	r4, r2
 2908              	.LVL180:
 2909              	.LBB1082:
 2910              	.LBI1064:
  31:../../../lib/pd2dsy/libdaisy/src/hid/disp/graphics_common.h ****     : x_(x), y_(y), width_(max(0, width)), height_(max(0, height))
 2911              		.loc 16 31 5 is_stmt 1 view .LVU644
 2912              	.LBB1075:
 2913              	.LBB1071:
  32:../../../lib/pd2dsy/libdaisy/src/hid/disp/graphics_common.h ****     {
 2914              		.loc 16 32 66 is_stmt 0 view .LVU645
 2915 0348 4480     		strh	r4, [r0, #2]	@ movhi
 2916              	.LVL181:
 2917              	.LBB1067:
 2918              	.LBI1067:
 2919              		.loc 16 261 13 is_stmt 1 view .LVU646
 2920              	.LBE1067:
 2921              	.LBE1071:
 2922              	.LBE1075:
 2923              	.LBE1082:
 2924              	.LBE1105:
 2925              	.LBE1183:
 2926              		.loc 16 261 41 view .LVU647
 2927              	.LBB1184:
 2928              	.LBB1106:
 2929              	.LBB1083:
 2930              	.LBB1076:
 2931              	.LBB1072:
 2932              	.LBB1068:
 2933              	.LBI1068:
 2934              		.loc 16 261 13 view .LVU648
 2935              	.LBE1068:
 2936              	.LBE1072:
 2937              	.LBE1076:
 2938              	.LBE1083:
 2939              	.LBE1106:
 2940              	.LBE1184:
 2941              		.loc 16 261 41 view .LVU649
 2942              	.LBB1185:
 2943              	.LBB1107:
 2944              	.LBB1084:
 2945              	.LBB1077:
  34:../../../lib/pd2dsy/libdaisy/src/hid/disp/graphics_common.h **** 
ARM GAS  /var/folders/fb/yfxt3z4538j6z0vjt03w70vc0000gn/T//cc0qjWS6.s 			page 91


 2946              		.loc 16 34 5 is_stmt 0 view .LVU650
 2947 034a 9AE6     		b	.L117
 2948              	.LVL182:
 2949              	.L137:
  34:../../../lib/pd2dsy/libdaisy/src/hid/disp/graphics_common.h **** 
 2950              		.loc 16 34 5 view .LVU651
 2951              	.LBE1077:
 2952              	.LBE1084:
 2953              	.LBE1107:
 2954              	.LBE1185:
 2955              	.LBB1186:
 2956              	.LBB1164:
 2957              	.LBB1161:
 2958              	.LBB1160:
 402:../../../lib/pd2dsy/libdaisy/src/hid/disp/display.h **** 
 2959              		.loc 4 402 20 view .LVU652
 2960 034c 4FF0000B 		mov	fp, #0
 2961              	.LVL183:
 402:../../../lib/pd2dsy/libdaisy/src/hid/disp/display.h **** 
 2962              		.loc 4 402 20 view .LVU653
 2963 0350 6BE7     		b	.L135
 2964              	.LVL184:
 2965              	.L182:
 405:../../../lib/pd2dsy/libdaisy/src/hid/disp/display.h ****            || Height() < (currentY_ + font.FontHeight))
 2966              		.loc 4 405 17 view .LVU654
 2967 0352 4046     		mov	r0, r8
 2968 0354 9847     		blx	r3
 2969              	.LVL185:
 2970 0356 D5E6     		b	.L136
 2971              	.L183:
 406:../../../lib/pd2dsy/libdaisy/src/hid/disp/display.h ****         {
 2972              		.loc 4 406 21 view .LVU655
 2973 0358 4046     		mov	r0, r8
 2974 035a 9847     		blx	r3
 2975              	.LVL186:
 2976 035c E0E6     		b	.L138
 2977              	.LVL187:
 2978              	.L187:
 2979              	.LBB1158:
 2980              	.LBB1154:
 174:../../../lib/pd2dsy/libdaisy/src/hid/disp/display.h ****     }
 2981              		.loc 4 174 33 view .LVU656
 2982 035e 4046     		mov	r0, r8
 2983 0360 9847     		blx	r3
 2984              	.LVL188:
 2985 0362 53E7     		b	.L152
 2986              	.LVL189:
 2987              	.L185:
 173:../../../lib/pd2dsy/libdaisy/src/hid/disp/display.h ****         currentY_ = (y >= Height()) ? Height() - 1 : y;
 2988              		.loc 4 173 32 view .LVU657
 2989 0364 4046     		mov	r0, r8
 2990 0366 9847     		blx	r3
 2991              	.LVL190:
 173:../../../lib/pd2dsy/libdaisy/src/hid/disp/display.h ****         currentY_ = (y >= Height()) ? Height() - 1 : y;
 2992              		.loc 4 173 44 view .LVU658
 2993 0368 D8F80020 		ldr	r2, [r8]
 2994 036c 3EE7     		b	.L149
ARM GAS  /var/folders/fb/yfxt3z4538j6z0vjt03w70vc0000gn/T//cc0qjWS6.s 			page 92


 2995              	.LVL191:
 2996              	.L139:
 173:../../../lib/pd2dsy/libdaisy/src/hid/disp/display.h ****         currentY_ = (y >= Height()) ? Height() - 1 : y;
 2997              		.loc 4 173 44 view .LVU659
 2998              	.LBE1154:
 2999              	.LBE1158:
 434:../../../lib/pd2dsy/libdaisy/src/hid/disp/display.h **** 
 3000              		.loc 4 434 19 view .LVU660
 3001 036e B8F804A0 		ldrh	r10, [r8, #4]
 3002 0372 30E7     		b	.L141
 3003              	.LVL192:
 3004              	.L188:
 3005              	.LBB1159:
 3006              	.LBB1155:
 174:../../../lib/pd2dsy/libdaisy/src/hid/disp/display.h ****     }
 3007              		.loc 4 174 45 view .LVU661
 3008 0374 4046     		mov	r0, r8
 3009 0376 9847     		blx	r3
 3010              	.LVL193:
 174:../../../lib/pd2dsy/libdaisy/src/hid/disp/display.h ****     }
 3011              		.loc 4 174 19 view .LVU662
 3012 0378 0138     		subs	r0, r0, #1
 3013 037a 83B2     		uxth	r3, r0
 3014 037c 0293     		str	r3, [sp, #8]
 3015              	.LVL194:
 174:../../../lib/pd2dsy/libdaisy/src/hid/disp/display.h ****     }
 3016              		.loc 4 174 19 view .LVU663
 3017 037e 51E7     		b	.L153
 3018              	.LVL195:
 3019              	.L186:
 173:../../../lib/pd2dsy/libdaisy/src/hid/disp/display.h ****         currentY_ = (y >= Height()) ? Height() - 1 : y;
 3020              		.loc 4 173 43 view .LVU664
 3021 0380 4046     		mov	r0, r8
 3022 0382 9847     		blx	r3
 3023              	.LVL196:
 173:../../../lib/pd2dsy/libdaisy/src/hid/disp/display.h ****         currentY_ = (y >= Height()) ? Height() - 1 : y;
 3024              		.loc 4 173 19 view .LVU665
 3025 0384 0138     		subs	r0, r0, #1
 174:../../../lib/pd2dsy/libdaisy/src/hid/disp/display.h ****     }
 3026              		.loc 4 174 34 view .LVU666
 3027 0386 D8F80020 		ldr	r2, [r8]
 173:../../../lib/pd2dsy/libdaisy/src/hid/disp/display.h ****         currentY_ = (y >= Height()) ? Height() - 1 : y;
 3028              		.loc 4 173 19 view .LVU667
 3029 038a 85B2     		uxth	r5, r0
 3030              	.LVL197:
 173:../../../lib/pd2dsy/libdaisy/src/hid/disp/display.h ****         currentY_ = (y >= Height()) ? Height() - 1 : y;
 3031              		.loc 4 173 19 view .LVU668
 3032 038c 36E7     		b	.L150
 3033              	.LVL198:
 3034              	.L106:
 173:../../../lib/pd2dsy/libdaisy/src/hid/disp/display.h ****         currentY_ = (y >= Height()) ? Height() - 1 : y;
 3035              		.loc 4 173 19 view .LVU669
 3036              	.LBE1155:
 3037              	.LBE1159:
 3038              	.LBE1160:
 3039              	.LBE1161:
 3040              	.LBE1164:
ARM GAS  /var/folders/fb/yfxt3z4538j6z0vjt03w70vc0000gn/T//cc0qjWS6.s 			page 93


 3041              	.LBE1186:
 3042              	.LBB1187:
 3043              	.LBB1108:
 255:../../../lib/pd2dsy/libdaisy/src/hid/disp/graphics_common.h ****         }
 3044              		.loc 16 255 13 is_stmt 1 view .LVU670
 255:../../../lib/pd2dsy/libdaisy/src/hid/disp/graphics_common.h ****         }
 3045              		.loc 16 255 22 view .LVU671
 3046              	.LBB1085:
 3047              	.LBI1085:
  24:../../../lib/pd2dsy/libdaisy/src/hid/disp/graphics_common.h **** 
 3048              		.loc 16 24 5 view .LVU672
 3049              	.LBE1085:
 3050              	.LBE1108:
 3051              	.LBE1187:
 3052              	.LBB1188:
 3053              	.LBB1114:
 173:../../../lib/pd2dsy/libdaisy/src/hid/disp/display.h ****         currentY_ = (y >= Height()) ? Height() - 1 : y;
 3054              		.loc 4 173 33 is_stmt 0 view .LVU673
 3055 038e D8F80030 		ldr	r3, [r8]
 3056              	.LBE1114:
 3057              	.LBE1188:
 3058              	.LBB1189:
 3059              	.LBB1109:
 3060              	.LBB1087:
 3061              	.LBB1086:
  24:../../../lib/pd2dsy/libdaisy/src/hid/disp/graphics_common.h **** 
 3062              		.loc 16 24 53 view .LVU674
 3063 0392 0024     		movs	r4, #0
 3064              	.LVL199:
  24:../../../lib/pd2dsy/libdaisy/src/hid/disp/graphics_common.h **** 
 3065              		.loc 16 24 53 view .LVU675
 3066 0394 069A     		ldr	r2, [sp, #24]
 3067 0396 1349     		ldr	r1, .L191
 3068              	.LVL200:
  24:../../../lib/pd2dsy/libdaisy/src/hid/disp/graphics_common.h **** 
 3069              		.loc 16 24 53 view .LVU676
 3070 0398 1480     		strh	r4, [r2]	@ movhi
 3071 039a 5480     		strh	r4, [r2, #2]	@ movhi
 3072 039c 9480     		strh	r4, [r2, #4]	@ movhi
 3073 039e D480     		strh	r4, [r2, #6]	@ movhi
 3074              	.LVL201:
  24:../../../lib/pd2dsy/libdaisy/src/hid/disp/graphics_common.h **** 
 3075              		.loc 16 24 53 view .LVU677
 3076              	.LBE1086:
 3077              	.LBE1087:
 3078              	.LBE1109:
 3079              	.LBE1189:
  56:../../../lib/pd2dsy/libdaisy/src/hid/disp/graphics_common.h ****     int16_t GetY() const { return y_; }
 3080              		.loc 16 56 28 is_stmt 1 view .LVU678
  57:../../../lib/pd2dsy/libdaisy/src/hid/disp/graphics_common.h ****     int16_t GetWidth() const { return width_; }
 3081              		.loc 16 57 28 view .LVU679
 3082              	.LBB1190:
 171:../../../lib/pd2dsy/libdaisy/src/hid/disp/display.h ****     {
 3083              		.loc 4 171 10 view .LVU680
 3084              	.LBB1115:
 173:../../../lib/pd2dsy/libdaisy/src/hid/disp/display.h ****         currentY_ = (y >= Height()) ? Height() - 1 : y;
 3085              		.loc 4 173 9 view .LVU681
ARM GAS  /var/folders/fb/yfxt3z4538j6z0vjt03w70vc0000gn/T//cc0qjWS6.s 			page 94


 173:../../../lib/pd2dsy/libdaisy/src/hid/disp/display.h ****         currentY_ = (y >= Height()) ? Height() - 1 : y;
 3086              		.loc 4 173 33 is_stmt 0 view .LVU682
 3087 03a0 DA68     		ldr	r2, [r3, #12]
 3088 03a2 0191     		str	r1, [sp, #4]
 3089 03a4 8A42     		cmp	r2, r1
 3090 03a6 05D0     		beq	.L124
 3091 03a8 2746     		mov	r7, r4
 3092              	.LVL202:
 3093              	.L125:
 173:../../../lib/pd2dsy/libdaisy/src/hid/disp/display.h ****         currentY_ = (y >= Height()) ? Height() - 1 : y;
 3094              		.loc 4 173 32 view .LVU683
 3095 03aa 4046     		mov	r0, r8
 3096 03ac 9047     		blx	r2
 3097              	.LVL203:
 173:../../../lib/pd2dsy/libdaisy/src/hid/disp/display.h ****         currentY_ = (y >= Height()) ? Height() - 1 : y;
 3098              		.loc 4 173 44 view .LVU684
 3099 03ae D8F80030 		ldr	r3, [r8]
 3100 03b2 70E6     		b	.L126
 3101              	.LVL204:
 3102              	.L124:
 174:../../../lib/pd2dsy/libdaisy/src/hid/disp/display.h ****     }
 3103              		.loc 4 174 34 view .LVU685
 3104 03b4 9B68     		ldr	r3, [r3, #8]
 3105 03b6 0C4A     		ldr	r2, .L191+4
 173:../../../lib/pd2dsy/libdaisy/src/hid/disp/display.h ****         currentY_ = (y >= Height()) ? Height() - 1 : y;
 3106              		.loc 4 173 19 view .LVU686
 3107 03b8 A8F80440 		strh	r4, [r8, #4]	@ movhi
 174:../../../lib/pd2dsy/libdaisy/src/hid/disp/display.h ****     }
 3108              		.loc 4 174 9 is_stmt 1 view .LVU687
 3109 03bc 9342     		cmp	r3, r2
 3110 03be 0392     		str	r2, [sp, #12]
 3111 03c0 3FF484AE 		beq	.L131
 3112              	.LVL205:
 3113              	.L157:
 174:../../../lib/pd2dsy/libdaisy/src/hid/disp/display.h ****     }
 3114              		.loc 4 174 33 is_stmt 0 view .LVU688
 3115 03c4 4046     		mov	r0, r8
 3116 03c6 9847     		blx	r3
 3117              	.LVL206:
 3118 03c8 76E6     		b	.L129
 3119              	.L181:
 174:../../../lib/pd2dsy/libdaisy/src/hid/disp/display.h ****     }
 3120              		.loc 4 174 45 view .LVU689
 3121 03ca 4046     		mov	r0, r8
 3122 03cc 9847     		blx	r3
 3123              	.LVL207:
 174:../../../lib/pd2dsy/libdaisy/src/hid/disp/display.h ****     }
 3124              		.loc 4 174 19 view .LVU690
 3125 03ce 0138     		subs	r0, r0, #1
 3126 03d0 84B2     		uxth	r4, r0
 3127 03d2 7BE6     		b	.L131
 3128              	.L180:
 173:../../../lib/pd2dsy/libdaisy/src/hid/disp/display.h ****         currentY_ = (y >= Height()) ? Height() - 1 : y;
 3129              		.loc 4 173 43 view .LVU691
 3130 03d4 4046     		mov	r0, r8
 3131 03d6 9047     		blx	r2
 3132              	.LVL208:
ARM GAS  /var/folders/fb/yfxt3z4538j6z0vjt03w70vc0000gn/T//cc0qjWS6.s 			page 95


 173:../../../lib/pd2dsy/libdaisy/src/hid/disp/display.h ****         currentY_ = (y >= Height()) ? Height() - 1 : y;
 3133              		.loc 4 173 19 view .LVU692
 3134 03d8 0138     		subs	r0, r0, #1
 174:../../../lib/pd2dsy/libdaisy/src/hid/disp/display.h ****     }
 3135              		.loc 4 174 34 view .LVU693
 3136 03da D8F80030 		ldr	r3, [r8]
 173:../../../lib/pd2dsy/libdaisy/src/hid/disp/display.h ****         currentY_ = (y >= Height()) ? Height() - 1 : y;
 3137              		.loc 4 173 19 view .LVU694
 3138 03de 87B2     		uxth	r7, r0
 3139 03e0 61E6     		b	.L127
 3140              	.L192:
 3141 03e2 00BF     		.align	2
 3142              	.L191:
 3143 03e4 00000000 		.word	_ZNK5daisy11OledDisplayINS_13SSD130xDriverILj128ELj64ENS_24SSD130x4WireSpiTransportEEEE5Widt
 3144 03e8 00000000 		.word	_ZNK5daisy11OledDisplayINS_13SSD130xDriverILj128ELj64ENS_24SSD130x4WireSpiTransportEEEE6Heig
 3145              	.LBE1115:
 3146              	.LBE1190:
 3147              		.cfi_endproc
 3148              	.LFE3079:
 3150              		.section	.text._ZN5daisy11OledDisplayINS_13SSD130xDriverILj128ELj64ENS_24SSD130x4WireSpiTransportE
 3151              		.align	1
 3152              		.p2align 2,,3
 3153              		.weak	_ZN5daisy11OledDisplayINS_13SSD130xDriverILj128ELj64ENS_24SSD130x4WireSpiTransportEEEE9DrawP
 3154              		.syntax unified
 3155              		.thumb
 3156              		.thumb_func
 3158              	_ZN5daisy11OledDisplayINS_13SSD130xDriverILj128ELj64ENS_24SSD130x4WireSpiTransportEEEE9DrawPixelEjj
 3159              	.LVL209:
 3160              	.LFB3073:
  42:../../../lib/pd2dsy/libdaisy/src/hid/disp/oled_display.h ****     {
 3161              		.loc 2 42 10 is_stmt 1 view -0
 3162              		.cfi_startproc
 3163              		@ args = 0, pretend = 0, frame = 0
 3164              		@ frame_needed = 0, uses_anonymous_args = 0
 3165              		@ link register save eliminated.
 3166              	.LBB1195:
 3167              	.LBI1195:
 252:../../../lib/pd2dsy/libdaisy/src/dev/oled_ssd130x.h ****     {
 3168              		.loc 3 252 10 view .LVU696
 3169              	.LBB1196:
 254:../../../lib/pd2dsy/libdaisy/src/dev/oled_ssd130x.h ****             return;
 3170              		.loc 3 254 9 is_stmt 0 view .LVU697
 3171 0000 7F29     		cmp	r1, #127
 3172 0002 1ED8     		bhi	.L193
 3173 0004 3F2A     		cmp	r2, #63
 3174 0006 1CD8     		bhi	.L193
 256:../../../lib/pd2dsy/libdaisy/src/dev/oled_ssd130x.h ****             buffer_[x + (y / 8) * width] |= (1 << (y % 8));
 3175              		.loc 3 256 9 view .LVU698
 3176 0008 6BB1     		cbz	r3, .L195
 257:../../../lib/pd2dsy/libdaisy/src/dev/oled_ssd130x.h ****         else
 3177              		.loc 3 257 28 view .LVU699
 3178 000a D308     		lsrs	r3, r2, #3
 3179              	.LVL210:
 257:../../../lib/pd2dsy/libdaisy/src/dev/oled_ssd130x.h ****         else
 3180              		.loc 3 257 48 view .LVU700
 3181 000c 4FF0010C 		mov	ip, #1
 257:../../../lib/pd2dsy/libdaisy/src/dev/oled_ssd130x.h ****         else
ARM GAS  /var/folders/fb/yfxt3z4538j6z0vjt03w70vc0000gn/T//cc0qjWS6.s 			page 96


 3182              		.loc 3 257 54 view .LVU701
 3183 0010 02F00702 		and	r2, r2, #7
 3184              	.LVL211:
 257:../../../lib/pd2dsy/libdaisy/src/dev/oled_ssd130x.h ****         else
 3185              		.loc 3 257 42 view .LVU702
 3186 0014 01EBC313 		add	r3, r1, r3, lsl #7
 257:../../../lib/pd2dsy/libdaisy/src/dev/oled_ssd130x.h ****         else
 3187              		.loc 3 257 48 view .LVU703
 3188 0018 0CFA02F2 		lsl	r2, ip, r2
 257:../../../lib/pd2dsy/libdaisy/src/dev/oled_ssd130x.h ****         else
 3189              		.loc 3 257 42 view .LVU704
 3190 001c C118     		adds	r1, r0, r3
 3191              	.LVL212:
 257:../../../lib/pd2dsy/libdaisy/src/dev/oled_ssd130x.h ****         else
 3192              		.loc 3 257 42 view .LVU705
 3193 001e 0B7D     		ldrb	r3, [r1, #20]	@ zero_extendqisi2
 3194 0020 1A43     		orrs	r2, r2, r3
 3195 0022 0A75     		strb	r2, [r1, #20]
 3196 0024 7047     		bx	lr
 3197              	.LVL213:
 3198              	.L195:
 3199              	.LBB1197:
 3200              	.LBI1197:
 252:../../../lib/pd2dsy/libdaisy/src/dev/oled_ssd130x.h ****     {
 3201              		.loc 3 252 10 is_stmt 1 view .LVU706
 3202              	.LBB1198:
 259:../../../lib/pd2dsy/libdaisy/src/dev/oled_ssd130x.h ****     }
 3203              		.loc 3 259 28 is_stmt 0 view .LVU707
 3204 0026 D308     		lsrs	r3, r2, #3
 3205              	.LVL214:
 259:../../../lib/pd2dsy/libdaisy/src/dev/oled_ssd130x.h ****     }
 3206              		.loc 3 259 49 view .LVU708
 3207 0028 4FF0010C 		mov	ip, #1
 259:../../../lib/pd2dsy/libdaisy/src/dev/oled_ssd130x.h ****     }
 3208              		.loc 3 259 55 view .LVU709
 3209 002c 02F00702 		and	r2, r2, #7
 3210              	.LVL215:
 259:../../../lib/pd2dsy/libdaisy/src/dev/oled_ssd130x.h ****     }
 3211              		.loc 3 259 42 view .LVU710
 3212 0030 01EBC313 		add	r3, r1, r3, lsl #7
 259:../../../lib/pd2dsy/libdaisy/src/dev/oled_ssd130x.h ****     }
 3213              		.loc 3 259 49 view .LVU711
 3214 0034 0CFA02FC 		lsl	ip, ip, r2
 259:../../../lib/pd2dsy/libdaisy/src/dev/oled_ssd130x.h ****     }
 3215              		.loc 3 259 42 view .LVU712
 3216 0038 C118     		adds	r1, r0, r3
 3217              	.LVL216:
 259:../../../lib/pd2dsy/libdaisy/src/dev/oled_ssd130x.h ****     }
 3218              		.loc 3 259 42 view .LVU713
 3219 003a 0A7D     		ldrb	r2, [r1, #20]	@ zero_extendqisi2
 3220 003c 22EA0C02 		bic	r2, r2, ip
 3221 0040 0A75     		strb	r2, [r1, #20]
 3222              	.LVL217:
 3223              	.L193:
 259:../../../lib/pd2dsy/libdaisy/src/dev/oled_ssd130x.h ****     }
 3224              		.loc 3 259 42 view .LVU714
 3225              	.LBE1198:
ARM GAS  /var/folders/fb/yfxt3z4538j6z0vjt03w70vc0000gn/T//cc0qjWS6.s 			page 97


 3226              	.LBE1197:
 3227              	.LBE1196:
 3228              	.LBE1195:
  45:../../../lib/pd2dsy/libdaisy/src/hid/disp/oled_display.h **** 
 3229              		.loc 2 45 5 view .LVU715
 3230 0042 7047     		bx	lr
 3231              		.cfi_endproc
 3232              	.LFE3073:
 3234              		.section	.text._ZN5daisy25OneBitGraphicsDisplayImplINS_11OledDisplayINS_13SSD130xDriverILj128ELj64
 3235              		.align	1
 3236              		.p2align 2,,3
 3237              		.weak	_ZN5daisy25OneBitGraphicsDisplayImplINS_11OledDisplayINS_13SSD130xDriverILj128ELj64ENS_24SSD
 3238              		.syntax unified
 3239              		.thumb
 3240              		.thumb_func
 3242              	_ZN5daisy25OneBitGraphicsDisplayImplINS_11OledDisplayINS_13SSD130xDriverILj128ELj64ENS_24SSD130x4Wi
 3243              	.LVL218:
 3244              	.LFB3074:
 221:../../../lib/pd2dsy/libdaisy/src/hid/disp/display.h ****                   uint_fast8_t y1,
 3245              		.loc 4 221 10 is_stmt 1 view -0
 3246              		.cfi_startproc
 3247              		@ args = 8, pretend = 0, frame = 8
 3248              		@ frame_needed = 0, uses_anonymous_args = 0
 221:../../../lib/pd2dsy/libdaisy/src/hid/disp/display.h ****                   uint_fast8_t y1,
 3249              		.loc 4 221 10 is_stmt 0 view .LVU717
 3250 0000 2DE9F04F 		push	{r4, r5, r6, r7, r8, r9, r10, fp, lr}
 3251              		.cfi_def_cfa_offset 36
 3252              		.cfi_offset 4, -36
 3253              		.cfi_offset 5, -32
 3254              		.cfi_offset 6, -28
 3255              		.cfi_offset 7, -24
 3256              		.cfi_offset 8, -20
 3257              		.cfi_offset 9, -16
 3258              		.cfi_offset 10, -12
 3259              		.cfi_offset 11, -8
 3260              		.cfi_offset 14, -4
 3261 0004 83B0     		sub	sp, sp, #12
 3262              		.cfi_def_cfa_offset 48
 227:../../../lib/pd2dsy/libdaisy/src/hid/disp/display.h ****         int_fast16_t deltaY = abs((int_fast16_t)y2 - (int_fast16_t)y1);
 3263              		.loc 4 227 52 view .LVU718
 3264 0006 5C1A     		subs	r4, r3, r1
 221:../../../lib/pd2dsy/libdaisy/src/hid/disp/display.h ****                   uint_fast8_t y1,
 3265              		.loc 4 221 10 view .LVU719
 3266 0008 0C9E     		ldr	r6, [sp, #48]
 227:../../../lib/pd2dsy/libdaisy/src/hid/disp/display.h ****         int_fast16_t deltaY = abs((int_fast16_t)y2 - (int_fast16_t)y1);
 3267              		.loc 4 227 22 view .LVU720
 3268 000a 002C     		cmp	r4, #0
 221:../../../lib/pd2dsy/libdaisy/src/hid/disp/display.h ****                   uint_fast8_t y1,
 3269              		.loc 4 221 10 view .LVU721
 3270 000c 9DF83490 		ldrb	r9, [sp, #52]	@ zero_extendqisi2
 228:../../../lib/pd2dsy/libdaisy/src/hid/disp/display.h ****         int_fast16_t signX  = ((x1 < x2) ? 1 : -1);
 3271              		.loc 4 228 52 view .LVU722
 3272 0010 A6EB0208 		sub	r8, r6, r2
 227:../../../lib/pd2dsy/libdaisy/src/hid/disp/display.h ****         int_fast16_t deltaY = abs((int_fast16_t)y2 - (int_fast16_t)y1);
 3273              		.loc 4 227 22 view .LVU723
 3274 0014 B8BF     		it	lt
 3275 0016 6442     		rsblt	r4, r4, #0
ARM GAS  /var/folders/fb/yfxt3z4538j6z0vjt03w70vc0000gn/T//cc0qjWS6.s 			page 98


 3276              	.LVL219:
 228:../../../lib/pd2dsy/libdaisy/src/hid/disp/display.h ****         int_fast16_t signX  = ((x1 < x2) ? 1 : -1);
 3277              		.loc 4 228 22 view .LVU724
 3278 0018 B8F1000F 		cmp	r8, #0
 3279 001c B8BF     		it	lt
 3280 001e C8F10008 		rsblt	r8, r8, #0
 3281              	.LVL220:
 229:../../../lib/pd2dsy/libdaisy/src/hid/disp/display.h ****         int_fast16_t signY  = ((y1 < y2) ? 1 : -1);
 3282              		.loc 4 229 42 view .LVU725
 3283 0022 8B42     		cmp	r3, r1
 3284 0024 8CBF     		ite	hi
 3285 0026 4FF0010A 		movhi	r10, #1
 3286 002a 4FF0FF3A 		movls	r10, #-1
 3287              	.LVL221:
 230:../../../lib/pd2dsy/libdaisy/src/hid/disp/display.h ****         int_fast16_t error  = deltaX - deltaY;
 3288              		.loc 4 230 42 view .LVU726
 3289 002e 9642     		cmp	r6, r2
 231:../../../lib/pd2dsy/libdaisy/src/hid/disp/display.h ****         int_fast16_t error2;
 3290              		.loc 4 231 22 view .LVU727
 3291 0030 A4EB080C 		sub	ip, r4, r8
 230:../../../lib/pd2dsy/libdaisy/src/hid/disp/display.h ****         int_fast16_t error  = deltaX - deltaY;
 3292              		.loc 4 230 42 view .LVU728
 3293 0034 51D8     		bhi	.L198
 3294              	.LVL222:
 3295              	.LBB1215:
 3296              	.LBI1215:
  42:../../../lib/pd2dsy/libdaisy/src/hid/disp/oled_display.h ****     {
 3297              		.loc 2 42 10 is_stmt 1 discriminator 4 view .LVU729
 3298              	.LBB1216:
 3299              	.LBI1216:
 252:../../../lib/pd2dsy/libdaisy/src/dev/oled_ssd130x.h ****     {
 3300              		.loc 3 252 10 discriminator 4 view .LVU730
 3301              	.LBE1216:
 3302              	.LBE1215:
 230:../../../lib/pd2dsy/libdaisy/src/hid/disp/display.h ****         int_fast16_t error  = deltaX - deltaY;
 3303              		.loc 4 230 42 is_stmt 0 discriminator 4 view .LVU731
 3304 0036 4FF0FF35 		mov	r5, #-1
 3305              	.LBB1232:
 3306              	.LBB1226:
 3307              	.LBB1217:
 254:../../../lib/pd2dsy/libdaisy/src/dev/oled_ssd130x.h ****             return;
 3308              		.loc 3 254 9 discriminator 4 view .LVU732
 3309 003a 7F2B     		cmp	r3, #127
 3310              	.LBE1217:
 3311              	.LBE1226:
 3312              	.LBE1232:
 230:../../../lib/pd2dsy/libdaisy/src/hid/disp/display.h ****         int_fast16_t error  = deltaX - deltaY;
 3313              		.loc 4 230 42 discriminator 4 view .LVU733
 3314 003c 0195     		str	r5, [sp, #4]
 3315              	.LBB1233:
 3316              	.LBB1227:
 3317              	.LBB1222:
 254:../../../lib/pd2dsy/libdaisy/src/dev/oled_ssd130x.h ****             return;
 3318              		.loc 3 254 9 discriminator 4 view .LVU734
 3319 003e 12D8     		bhi	.L199
 3320 0040 3F2E     		cmp	r6, #63
 3321 0042 10D8     		bhi	.L199
ARM GAS  /var/folders/fb/yfxt3z4538j6z0vjt03w70vc0000gn/T//cc0qjWS6.s 			page 99


 3322              	.LVL223:
 3323              	.L210:
 257:../../../lib/pd2dsy/libdaisy/src/dev/oled_ssd130x.h ****         else
 3324              		.loc 3 257 28 view .LVU735
 3325 0044 F508     		lsrs	r5, r6, #3
 257:../../../lib/pd2dsy/libdaisy/src/dev/oled_ssd130x.h ****         else
 3326              		.loc 3 257 54 view .LVU736
 3327 0046 06F0070E 		and	lr, r6, #7
 257:../../../lib/pd2dsy/libdaisy/src/dev/oled_ssd130x.h ****         else
 3328              		.loc 3 257 48 view .LVU737
 3329 004a 0127     		movs	r7, #1
 257:../../../lib/pd2dsy/libdaisy/src/dev/oled_ssd130x.h ****         else
 3330              		.loc 3 257 42 view .LVU738
 3331 004c 03EBC515 		add	r5, r3, r5, lsl #7
 3332 0050 0544     		add	r5, r5, r0
 256:../../../lib/pd2dsy/libdaisy/src/dev/oled_ssd130x.h ****             buffer_[x + (y / 8) * width] |= (1 << (y % 8));
 3333              		.loc 3 256 9 view .LVU739
 3334 0052 B9F1000F 		cmp	r9, #0
 3335 0056 47D0     		beq	.L200
 257:../../../lib/pd2dsy/libdaisy/src/dev/oled_ssd130x.h ****         else
 3336              		.loc 3 257 48 view .LVU740
 3337 0058 07FA0EF7 		lsl	r7, r7, lr
 257:../../../lib/pd2dsy/libdaisy/src/dev/oled_ssd130x.h ****         else
 3338              		.loc 3 257 42 view .LVU741
 3339 005c 95F814E0 		ldrb	lr, [r5, #20]	@ zero_extendqisi2
 3340 0060 47EA0E07 		orr	r7, r7, lr
 3341 0064 2F75     		strb	r7, [r5, #20]
 3342              	.LVL224:
 3343              	.L199:
 257:../../../lib/pd2dsy/libdaisy/src/dev/oled_ssd130x.h ****         else
 3344              		.loc 3 257 42 view .LVU742
 3345              	.LBE1222:
 3346              	.LBE1227:
 3347              	.LBE1233:
 239:../../../lib/pd2dsy/libdaisy/src/hid/disp/display.h ****         {
 3348              		.loc 4 239 26 is_stmt 1 view .LVU743
 3349 0066 9642     		cmp	r6, r2
 3350 0068 01D1     		bne	.L203
 3351              	.L222:
 239:../../../lib/pd2dsy/libdaisy/src/hid/disp/display.h ****         {
 3352              		.loc 4 239 26 is_stmt 0 view .LVU744
 3353 006a 8B42     		cmp	r3, r1
 3354 006c 29D0     		beq	.L196
 3355              	.L203:
 3356              	.LVL225:
 243:../../../lib/pd2dsy/libdaisy/src/hid/disp/display.h ****             {
 3357              		.loc 4 243 23 view .LVU745
 3358 006e C8F10007 		rsb	r7, r8, #0
 3359              	.L205:
 3360              	.LVL226:
 3361              	.LBB1234:
 3362              	.LBI1234:
  42:../../../lib/pd2dsy/libdaisy/src/hid/disp/oled_display.h ****     {
 3363              		.loc 2 42 10 is_stmt 1 view .LVU746
 3364              	.LBB1235:
 3365              	.LBI1235:
 252:../../../lib/pd2dsy/libdaisy/src/dev/oled_ssd130x.h ****     {
ARM GAS  /var/folders/fb/yfxt3z4538j6z0vjt03w70vc0000gn/T//cc0qjWS6.s 			page 100


 3366              		.loc 3 252 10 view .LVU747
 3367              	.LBB1236:
 254:../../../lib/pd2dsy/libdaisy/src/dev/oled_ssd130x.h ****             return;
 3368              		.loc 3 254 9 is_stmt 0 view .LVU748
 3369 0072 7F29     		cmp	r1, #127
 3370 0074 14D8     		bhi	.L206
 3371 0076 3F2A     		cmp	r2, #63
 3372 0078 12D8     		bhi	.L206
 257:../../../lib/pd2dsy/libdaisy/src/dev/oled_ssd130x.h ****         else
 3373              		.loc 3 257 28 view .LVU749
 3374 007a D508     		lsrs	r5, r2, #3
 257:../../../lib/pd2dsy/libdaisy/src/dev/oled_ssd130x.h ****         else
 3375              		.loc 3 257 54 view .LVU750
 3376 007c 02F0070B 		and	fp, r2, #7
 257:../../../lib/pd2dsy/libdaisy/src/dev/oled_ssd130x.h ****         else
 3377              		.loc 3 257 48 view .LVU751
 3378 0080 4FF0010E 		mov	lr, #1
 257:../../../lib/pd2dsy/libdaisy/src/dev/oled_ssd130x.h ****         else
 3379              		.loc 3 257 42 view .LVU752
 3380 0084 01EBC515 		add	r5, r1, r5, lsl #7
 3381 0088 0544     		add	r5, r5, r0
 256:../../../lib/pd2dsy/libdaisy/src/dev/oled_ssd130x.h ****             buffer_[x + (y / 8) * width] |= (1 << (y % 8));
 3382              		.loc 3 256 9 view .LVU753
 3383 008a B9F1000F 		cmp	r9, #0
 3384 008e 1BD0     		beq	.L207
 257:../../../lib/pd2dsy/libdaisy/src/dev/oled_ssd130x.h ****         else
 3385              		.loc 3 257 48 view .LVU754
 3386 0090 0EFA0BFE 		lsl	lr, lr, fp
 257:../../../lib/pd2dsy/libdaisy/src/dev/oled_ssd130x.h ****         else
 3387              		.loc 3 257 42 view .LVU755
 3388 0094 95F814B0 		ldrb	fp, [r5, #20]	@ zero_extendqisi2
 3389 0098 4EEA0B0E 		orr	lr, lr, fp
 3390 009c 85F814E0 		strb	lr, [r5, #20]
 3391              	.L206:
 3392              	.LVL227:
 257:../../../lib/pd2dsy/libdaisy/src/dev/oled_ssd130x.h ****         else
 3393              		.loc 3 257 42 view .LVU756
 3394              	.LBE1236:
 3395              	.LBE1235:
 3396              	.LBE1234:
 243:../../../lib/pd2dsy/libdaisy/src/hid/disp/display.h ****             {
 3397              		.loc 4 243 13 view .LVU757
 3398 00a0 B7EB4C0F 		cmp	r7, ip, lsl #1
 242:../../../lib/pd2dsy/libdaisy/src/hid/disp/display.h ****             if(error2 > -deltaY)
 3399              		.loc 4 242 20 view .LVU758
 3400 00a4 4FEA4C05 		lsl	r5, ip, #1
 3401              	.LVL228:
 243:../../../lib/pd2dsy/libdaisy/src/hid/disp/display.h ****             {
 3402              		.loc 4 243 13 view .LVU759
 3403 00a8 02DA     		bge	.L208
 245:../../../lib/pd2dsy/libdaisy/src/hid/disp/display.h ****                 x1 += signX;
 3404              		.loc 4 245 23 view .LVU760
 3405 00aa ACEB080C 		sub	ip, ip, r8
 3406              	.LVL229:
 246:../../../lib/pd2dsy/libdaisy/src/hid/disp/display.h ****             }
 3407              		.loc 4 246 20 view .LVU761
 3408 00ae 5144     		add	r1, r1, r10
ARM GAS  /var/folders/fb/yfxt3z4538j6z0vjt03w70vc0000gn/T//cc0qjWS6.s 			page 101


 3409              	.LVL230:
 3410              	.L208:
 249:../../../lib/pd2dsy/libdaisy/src/hid/disp/display.h ****             {
 3411              		.loc 4 249 13 view .LVU762
 3412 00b0 AC42     		cmp	r4, r5
 3413 00b2 02DD     		ble	.L209
 252:../../../lib/pd2dsy/libdaisy/src/hid/disp/display.h ****             }
 3414              		.loc 4 252 20 view .LVU763
 3415 00b4 019D     		ldr	r5, [sp, #4]
 3416              	.LVL231:
 251:../../../lib/pd2dsy/libdaisy/src/hid/disp/display.h ****                 y1 += signY;
 3417              		.loc 4 251 23 view .LVU764
 3418 00b6 A444     		add	ip, ip, r4
 3419              	.LVL232:
 252:../../../lib/pd2dsy/libdaisy/src/hid/disp/display.h ****             }
 3420              		.loc 4 252 20 view .LVU765
 3421 00b8 2A44     		add	r2, r2, r5
 3422              	.LVL233:
 3423              	.L209:
 239:../../../lib/pd2dsy/libdaisy/src/hid/disp/display.h ****         {
 3424              		.loc 4 239 26 is_stmt 1 view .LVU766
 3425 00ba 9942     		cmp	r1, r3
 3426 00bc D9D1     		bne	.L205
 239:../../../lib/pd2dsy/libdaisy/src/hid/disp/display.h ****         {
 3427              		.loc 4 239 26 is_stmt 0 view .LVU767
 3428 00be 9642     		cmp	r6, r2
 3429 00c0 D7D1     		bne	.L205
 3430              	.L196:
 255:../../../lib/pd2dsy/libdaisy/src/hid/disp/display.h **** 
 3431              		.loc 4 255 5 view .LVU768
 3432 00c2 03B0     		add	sp, sp, #12
 3433              		.cfi_remember_state
 3434              		.cfi_def_cfa_offset 36
 3435              		@ sp needed
 3436 00c4 BDE8F08F 		pop	{r4, r5, r6, r7, r8, r9, r10, fp, pc}
 3437              	.LVL234:
 3438              	.L207:
 3439              		.cfi_restore_state
 3440              	.LBB1241:
 3441              	.LBB1240:
 3442              	.LBB1239:
 3443              	.LBB1237:
 3444              	.LBI1237:
 252:../../../lib/pd2dsy/libdaisy/src/dev/oled_ssd130x.h ****     {
 3445              		.loc 3 252 10 is_stmt 1 view .LVU769
 3446              	.LBB1238:
 259:../../../lib/pd2dsy/libdaisy/src/dev/oled_ssd130x.h ****     }
 3447              		.loc 3 259 49 is_stmt 0 view .LVU770
 3448 00c8 0EFA0BFB 		lsl	fp, lr, fp
 259:../../../lib/pd2dsy/libdaisy/src/dev/oled_ssd130x.h ****     }
 3449              		.loc 3 259 42 view .LVU771
 3450 00cc 95F814E0 		ldrb	lr, [r5, #20]	@ zero_extendqisi2
 3451 00d0 2EEA0B0E 		bic	lr, lr, fp
 3452 00d4 85F814E0 		strb	lr, [r5, #20]
 3453 00d8 E2E7     		b	.L206
 3454              	.LVL235:
 3455              	.L198:
ARM GAS  /var/folders/fb/yfxt3z4538j6z0vjt03w70vc0000gn/T//cc0qjWS6.s 			page 102


 259:../../../lib/pd2dsy/libdaisy/src/dev/oled_ssd130x.h ****     }
 3456              		.loc 3 259 42 view .LVU772
 3457              	.LBE1238:
 3458              	.LBE1237:
 3459              	.LBE1239:
 3460              	.LBE1240:
 3461              	.LBE1241:
 3462              	.LBB1242:
  42:../../../lib/pd2dsy/libdaisy/src/hid/disp/oled_display.h ****     {
 3463              		.loc 2 42 10 is_stmt 1 view .LVU773
 3464              	.LBB1228:
 252:../../../lib/pd2dsy/libdaisy/src/dev/oled_ssd130x.h ****     {
 3465              		.loc 3 252 10 view .LVU774
 3466              	.LBE1228:
 3467              	.LBE1242:
 230:../../../lib/pd2dsy/libdaisy/src/hid/disp/display.h ****         int_fast16_t error  = deltaX - deltaY;
 3468              		.loc 4 230 42 is_stmt 0 view .LVU775
 3469 00da 0125     		movs	r5, #1
 3470              	.LBB1243:
 3471              	.LBB1229:
 3472              	.LBB1223:
 254:../../../lib/pd2dsy/libdaisy/src/dev/oled_ssd130x.h ****             return;
 3473              		.loc 3 254 9 view .LVU776
 3474 00dc 7F2B     		cmp	r3, #127
 3475              	.LBE1223:
 3476              	.LBE1229:
 3477              	.LBE1243:
 230:../../../lib/pd2dsy/libdaisy/src/hid/disp/display.h ****         int_fast16_t error  = deltaX - deltaY;
 3478              		.loc 4 230 42 view .LVU777
 3479 00de 0195     		str	r5, [sp, #4]
 3480              	.LBB1244:
 3481              	.LBB1230:
 3482              	.LBB1224:
 254:../../../lib/pd2dsy/libdaisy/src/dev/oled_ssd130x.h ****             return;
 3483              		.loc 3 254 9 view .LVU778
 3484 00e0 C5D8     		bhi	.L203
 3485 00e2 3F2E     		cmp	r6, #63
 3486 00e4 AED9     		bls	.L210
 3487 00e6 C2E7     		b	.L203
 3488              	.LVL236:
 3489              	.L200:
 3490              	.LBB1218:
 3491              	.LBI1218:
 252:../../../lib/pd2dsy/libdaisy/src/dev/oled_ssd130x.h ****     {
 3492              		.loc 3 252 10 is_stmt 1 view .LVU779
 3493              	.LBB1219:
 259:../../../lib/pd2dsy/libdaisy/src/dev/oled_ssd130x.h ****     }
 3494              		.loc 3 259 49 is_stmt 0 view .LVU780
 3495 00e8 07FA0EFE 		lsl	lr, r7, lr
 259:../../../lib/pd2dsy/libdaisy/src/dev/oled_ssd130x.h ****     }
 3496              		.loc 3 259 42 view .LVU781
 3497 00ec 2F7D     		ldrb	r7, [r5, #20]	@ zero_extendqisi2
 3498              	.LBE1219:
 3499              	.LBE1218:
 3500              	.LBE1224:
 3501              	.LBE1230:
 3502              	.LBE1244:
ARM GAS  /var/folders/fb/yfxt3z4538j6z0vjt03w70vc0000gn/T//cc0qjWS6.s 			page 103


 239:../../../lib/pd2dsy/libdaisy/src/hid/disp/display.h ****         {
 3503              		.loc 4 239 26 view .LVU782
 3504 00ee 9642     		cmp	r6, r2
 3505              	.LBB1245:
 3506              	.LBB1231:
 3507              	.LBB1225:
 3508              	.LBB1221:
 3509              	.LBB1220:
 259:../../../lib/pd2dsy/libdaisy/src/dev/oled_ssd130x.h ****     }
 3510              		.loc 3 259 42 view .LVU783
 3511 00f0 27EA0E07 		bic	r7, r7, lr
 3512 00f4 2F75     		strb	r7, [r5, #20]
 3513              	.LVL237:
 259:../../../lib/pd2dsy/libdaisy/src/dev/oled_ssd130x.h ****     }
 3514              		.loc 3 259 42 view .LVU784
 3515              	.LBE1220:
 3516              	.LBE1221:
 3517              	.LBE1225:
 3518              	.LBE1231:
 3519              	.LBE1245:
 239:../../../lib/pd2dsy/libdaisy/src/hid/disp/display.h ****         {
 3520              		.loc 4 239 26 is_stmt 1 view .LVU785
 3521 00f6 B8D0     		beq	.L222
 3522 00f8 B9E7     		b	.L203
 3523              		.cfi_endproc
 3524              	.LFE3074:
 3526 00fa 00BF     		.section	.text._ZN5daisy25OneBitGraphicsDisplayImplINS_11OledDisplayINS_13SSD130xDriverILj128ELj64
 3527              		.align	1
 3528              		.p2align 2,,3
 3529              		.weak	_ZN5daisy25OneBitGraphicsDisplayImplINS_11OledDisplayINS_13SSD130xDriverILj128ELj64ENS_24SSD
 3530              		.syntax unified
 3531              		.thumb
 3532              		.thumb_func
 3534              	_ZN5daisy25OneBitGraphicsDisplayImplINS_11OledDisplayINS_13SSD130xDriverILj128ELj64ENS_24SSD130x4Wi
 3535              	.LVL238:
 3536              	.LFB3076:
 283:../../../lib/pd2dsy/libdaisy/src/hid/disp/display.h ****                  uint_fast8_t y,
 3537              		.loc 4 283 10 view -0
 3538              		.cfi_startproc
 3539              		@ args = 12, pretend = 0, frame = 8
 3540              		@ frame_needed = 0, uses_anonymous_args = 0
 283:../../../lib/pd2dsy/libdaisy/src/hid/disp/display.h ****                  uint_fast8_t y,
 3541              		.loc 4 283 10 is_stmt 0 view .LVU787
 3542 0000 2DE9F04F 		push	{r4, r5, r6, r7, r8, r9, r10, fp, lr}
 3543              		.cfi_def_cfa_offset 36
 3544              		.cfi_offset 4, -36
 3545              		.cfi_offset 5, -32
 3546              		.cfi_offset 6, -28
 3547              		.cfi_offset 7, -24
 3548              		.cfi_offset 8, -20
 3549              		.cfi_offset 9, -16
 3550              		.cfi_offset 10, -12
 3551              		.cfi_offset 11, -8
 3552              		.cfi_offset 14, -4
 3553 0004 2DED068B 		vpush.64	{d8, d9, d10}
 3554              		.cfi_def_cfa_offset 60
 3555              		.cfi_offset 80, -60
ARM GAS  /var/folders/fb/yfxt3z4538j6z0vjt03w70vc0000gn/T//cc0qjWS6.s 			page 104


 3556              		.cfi_offset 81, -56
 3557              		.cfi_offset 82, -52
 3558              		.cfi_offset 83, -48
 3559              		.cfi_offset 84, -44
 3560              		.cfi_offset 85, -40
 3561 0008 83B0     		sub	sp, sp, #12
 3562              		.cfi_def_cfa_offset 72
 283:../../../lib/pd2dsy/libdaisy/src/hid/disp/display.h ****                  uint_fast8_t y,
 3563              		.loc 4 283 10 view .LVU788
 3564 000a 1F46     		mov	r7, r3
 3565 000c 8046     		mov	r8, r0
 3566 000e 0D46     		mov	r5, r1
 3567 0010 9DF85030 		ldrb	r3, [sp, #80]	@ zero_extendqisi2
 3568              	.LVL239:
 283:../../../lib/pd2dsy/libdaisy/src/hid/disp/display.h ****                  uint_fast8_t y,
 3569              		.loc 4 283 10 view .LVU789
 3570 0014 1646     		mov	r6, r2
 3571 0016 0193     		str	r3, [sp, #4]
 306:../../../lib/pd2dsy/libdaisy/src/hid/disp/display.h ****         {
 3572              		.loc 4 306 9 view .LVU790
 3573 0018 139B     		ldr	r3, [sp, #76]
 3574 001a 002B     		cmp	r3, #0
 3575 001c C0F22182 		blt	.L224
 313:../../../lib/pd2dsy/libdaisy/src/hid/disp/display.h **** 
 3576              		.loc 4 313 27 view .LVU791
 3577 0020 129A     		ldr	r2, [sp, #72]
 3578              	.LVL240:
 313:../../../lib/pd2dsy/libdaisy/src/hid/disp/display.h **** 
 3579              		.loc 4 313 27 view .LVU792
 3580 0022 1344     		add	r3, r3, r2
 3581 0024 06EE103A 		vmov	s12, r3	@ int
 3582              	.LVL241:
 3583              	.L225:
 312:../../../lib/pd2dsy/libdaisy/src/hid/disp/display.h ****         end_angle_rad   = deg2rad(start_angle + sweep);
 3584              		.loc 4 312 27 view .LVU793
 3585 0028 DDED127A 		vldr.32	s15, [sp, #72]	@ int
 313:../../../lib/pd2dsy/libdaisy/src/hid/disp/display.h **** 
 3586              		.loc 4 313 27 view .LVU794
 3587 002c B8EEC66B 		vcvt.f64.s32	d6, s12
 312:../../../lib/pd2dsy/libdaisy/src/hid/disp/display.h ****         end_angle_rad   = deg2rad(start_angle + sweep);
 3588              		.loc 4 312 27 view .LVU795
 3589 0030 9FEDCD4B 		vldr.64	d4, .L300
 3590 0034 B8EEE77B 		vcvt.f64.s32	d7, s15
 3591 0038 9FEDCD5B 		vldr.64	d5, .L300+8
 3592 003c 27EE047B 		vmul.f64	d7, d7, d4
 313:../../../lib/pd2dsy/libdaisy/src/hid/disp/display.h **** 
 3593              		.loc 4 313 27 view .LVU796
 3594 0040 26EE046B 		vmul.f64	d6, d6, d4
 312:../../../lib/pd2dsy/libdaisy/src/hid/disp/display.h ****         end_angle_rad   = deg2rad(start_angle + sweep);
 3595              		.loc 4 312 27 view .LVU797
 3596 0044 87EE050B 		vdiv.f64	d0, d7, d5
 313:../../../lib/pd2dsy/libdaisy/src/hid/disp/display.h **** 
 3597              		.loc 4 313 27 view .LVU798
 3598 0048 86EE05AB 		vdiv.f64	d10, d6, d5
 312:../../../lib/pd2dsy/libdaisy/src/hid/disp/display.h ****         end_angle_rad   = deg2rad(start_angle + sweep);
 3599              		.loc 4 312 25 view .LVU799
 3600 004c F7EEC08B 		vcvt.f32.f64	s17, d0
ARM GAS  /var/folders/fb/yfxt3z4538j6z0vjt03w70vc0000gn/T//cc0qjWS6.s 			page 105


 3601              	.LVL242:
 3602              	.LBB1278:
 3603              	.LBB1279:
 3604              		.file 17 "/Library/DaisyToolchain/0.2.0/arm/arm-none-eabi/include/c++/10.3.1/cmath"
   1:/Library/DaisyToolchain/0.2.0/arm/arm-none-eabi/include/c++/10.3.1/cmath **** // -*- C++ -*- C forwarding header.
   2:/Library/DaisyToolchain/0.2.0/arm/arm-none-eabi/include/c++/10.3.1/cmath **** 
   3:/Library/DaisyToolchain/0.2.0/arm/arm-none-eabi/include/c++/10.3.1/cmath **** // Copyright (C) 1997-2020 Free Software Foundation, Inc.
   4:/Library/DaisyToolchain/0.2.0/arm/arm-none-eabi/include/c++/10.3.1/cmath **** //
   5:/Library/DaisyToolchain/0.2.0/arm/arm-none-eabi/include/c++/10.3.1/cmath **** // This file is part of the GNU ISO C++ Library.  This library is free
   6:/Library/DaisyToolchain/0.2.0/arm/arm-none-eabi/include/c++/10.3.1/cmath **** // software; you can redistribute it and/or modify it under the
   7:/Library/DaisyToolchain/0.2.0/arm/arm-none-eabi/include/c++/10.3.1/cmath **** // terms of the GNU General Public License as published by the
   8:/Library/DaisyToolchain/0.2.0/arm/arm-none-eabi/include/c++/10.3.1/cmath **** // Free Software Foundation; either version 3, or (at your option)
   9:/Library/DaisyToolchain/0.2.0/arm/arm-none-eabi/include/c++/10.3.1/cmath **** // any later version.
  10:/Library/DaisyToolchain/0.2.0/arm/arm-none-eabi/include/c++/10.3.1/cmath **** 
  11:/Library/DaisyToolchain/0.2.0/arm/arm-none-eabi/include/c++/10.3.1/cmath **** // This library is distributed in the hope that it will be useful,
  12:/Library/DaisyToolchain/0.2.0/arm/arm-none-eabi/include/c++/10.3.1/cmath **** // but WITHOUT ANY WARRANTY; without even the implied warranty of
  13:/Library/DaisyToolchain/0.2.0/arm/arm-none-eabi/include/c++/10.3.1/cmath **** // MERCHANTABILITY or FITNESS FOR A PARTICULAR PURPOSE.  See the
  14:/Library/DaisyToolchain/0.2.0/arm/arm-none-eabi/include/c++/10.3.1/cmath **** // GNU General Public License for more details.
  15:/Library/DaisyToolchain/0.2.0/arm/arm-none-eabi/include/c++/10.3.1/cmath **** 
  16:/Library/DaisyToolchain/0.2.0/arm/arm-none-eabi/include/c++/10.3.1/cmath **** // Under Section 7 of GPL version 3, you are granted additional
  17:/Library/DaisyToolchain/0.2.0/arm/arm-none-eabi/include/c++/10.3.1/cmath **** // permissions described in the GCC Runtime Library Exception, version
  18:/Library/DaisyToolchain/0.2.0/arm/arm-none-eabi/include/c++/10.3.1/cmath **** // 3.1, as published by the Free Software Foundation.
  19:/Library/DaisyToolchain/0.2.0/arm/arm-none-eabi/include/c++/10.3.1/cmath **** 
  20:/Library/DaisyToolchain/0.2.0/arm/arm-none-eabi/include/c++/10.3.1/cmath **** // You should have received a copy of the GNU General Public License and
  21:/Library/DaisyToolchain/0.2.0/arm/arm-none-eabi/include/c++/10.3.1/cmath **** // a copy of the GCC Runtime Library Exception along with this program;
  22:/Library/DaisyToolchain/0.2.0/arm/arm-none-eabi/include/c++/10.3.1/cmath **** // see the files COPYING3 and COPYING.RUNTIME respectively.  If not, see
  23:/Library/DaisyToolchain/0.2.0/arm/arm-none-eabi/include/c++/10.3.1/cmath **** // <http://www.gnu.org/licenses/>.
  24:/Library/DaisyToolchain/0.2.0/arm/arm-none-eabi/include/c++/10.3.1/cmath **** 
  25:/Library/DaisyToolchain/0.2.0/arm/arm-none-eabi/include/c++/10.3.1/cmath **** /** @file include/cmath
  26:/Library/DaisyToolchain/0.2.0/arm/arm-none-eabi/include/c++/10.3.1/cmath ****  *  This is a Standard C++ Library file.  You should @c \#include this file
  27:/Library/DaisyToolchain/0.2.0/arm/arm-none-eabi/include/c++/10.3.1/cmath ****  *  in your programs, rather than any of the @a *.h implementation files.
  28:/Library/DaisyToolchain/0.2.0/arm/arm-none-eabi/include/c++/10.3.1/cmath ****  *
  29:/Library/DaisyToolchain/0.2.0/arm/arm-none-eabi/include/c++/10.3.1/cmath ****  *  This is the C++ version of the Standard C Library header @c math.h,
  30:/Library/DaisyToolchain/0.2.0/arm/arm-none-eabi/include/c++/10.3.1/cmath ****  *  and its contents are (mostly) the same as that header, but are all
  31:/Library/DaisyToolchain/0.2.0/arm/arm-none-eabi/include/c++/10.3.1/cmath ****  *  contained in the namespace @c std (except for names which are defined
  32:/Library/DaisyToolchain/0.2.0/arm/arm-none-eabi/include/c++/10.3.1/cmath ****  *  as macros in C).
  33:/Library/DaisyToolchain/0.2.0/arm/arm-none-eabi/include/c++/10.3.1/cmath ****  */
  34:/Library/DaisyToolchain/0.2.0/arm/arm-none-eabi/include/c++/10.3.1/cmath **** 
  35:/Library/DaisyToolchain/0.2.0/arm/arm-none-eabi/include/c++/10.3.1/cmath **** //
  36:/Library/DaisyToolchain/0.2.0/arm/arm-none-eabi/include/c++/10.3.1/cmath **** // ISO C++ 14882: 26.5  C library
  37:/Library/DaisyToolchain/0.2.0/arm/arm-none-eabi/include/c++/10.3.1/cmath **** //
  38:/Library/DaisyToolchain/0.2.0/arm/arm-none-eabi/include/c++/10.3.1/cmath **** 
  39:/Library/DaisyToolchain/0.2.0/arm/arm-none-eabi/include/c++/10.3.1/cmath **** #pragma GCC system_header
  40:/Library/DaisyToolchain/0.2.0/arm/arm-none-eabi/include/c++/10.3.1/cmath **** 
  41:/Library/DaisyToolchain/0.2.0/arm/arm-none-eabi/include/c++/10.3.1/cmath **** #include <bits/c++config.h>
  42:/Library/DaisyToolchain/0.2.0/arm/arm-none-eabi/include/c++/10.3.1/cmath **** #include <bits/cpp_type_traits.h>
  43:/Library/DaisyToolchain/0.2.0/arm/arm-none-eabi/include/c++/10.3.1/cmath **** #include <ext/type_traits.h>
  44:/Library/DaisyToolchain/0.2.0/arm/arm-none-eabi/include/c++/10.3.1/cmath **** #define _GLIBCXX_INCLUDE_NEXT_C_HEADERS
  45:/Library/DaisyToolchain/0.2.0/arm/arm-none-eabi/include/c++/10.3.1/cmath **** #include_next <math.h>
  46:/Library/DaisyToolchain/0.2.0/arm/arm-none-eabi/include/c++/10.3.1/cmath **** #undef _GLIBCXX_INCLUDE_NEXT_C_HEADERS
  47:/Library/DaisyToolchain/0.2.0/arm/arm-none-eabi/include/c++/10.3.1/cmath **** #include <bits/std_abs.h>
  48:/Library/DaisyToolchain/0.2.0/arm/arm-none-eabi/include/c++/10.3.1/cmath **** 
  49:/Library/DaisyToolchain/0.2.0/arm/arm-none-eabi/include/c++/10.3.1/cmath **** #ifndef _GLIBCXX_CMATH
  50:/Library/DaisyToolchain/0.2.0/arm/arm-none-eabi/include/c++/10.3.1/cmath **** #define _GLIBCXX_CMATH 1
  51:/Library/DaisyToolchain/0.2.0/arm/arm-none-eabi/include/c++/10.3.1/cmath **** 
  52:/Library/DaisyToolchain/0.2.0/arm/arm-none-eabi/include/c++/10.3.1/cmath **** // Get rid of those macros defined in <math.h> in lieu of real functions.
  53:/Library/DaisyToolchain/0.2.0/arm/arm-none-eabi/include/c++/10.3.1/cmath **** #undef div
ARM GAS  /var/folders/fb/yfxt3z4538j6z0vjt03w70vc0000gn/T//cc0qjWS6.s 			page 106


  54:/Library/DaisyToolchain/0.2.0/arm/arm-none-eabi/include/c++/10.3.1/cmath **** #undef acos
  55:/Library/DaisyToolchain/0.2.0/arm/arm-none-eabi/include/c++/10.3.1/cmath **** #undef asin
  56:/Library/DaisyToolchain/0.2.0/arm/arm-none-eabi/include/c++/10.3.1/cmath **** #undef atan
  57:/Library/DaisyToolchain/0.2.0/arm/arm-none-eabi/include/c++/10.3.1/cmath **** #undef atan2
  58:/Library/DaisyToolchain/0.2.0/arm/arm-none-eabi/include/c++/10.3.1/cmath **** #undef ceil
  59:/Library/DaisyToolchain/0.2.0/arm/arm-none-eabi/include/c++/10.3.1/cmath **** #undef cos
  60:/Library/DaisyToolchain/0.2.0/arm/arm-none-eabi/include/c++/10.3.1/cmath **** #undef cosh
  61:/Library/DaisyToolchain/0.2.0/arm/arm-none-eabi/include/c++/10.3.1/cmath **** #undef exp
  62:/Library/DaisyToolchain/0.2.0/arm/arm-none-eabi/include/c++/10.3.1/cmath **** #undef fabs
  63:/Library/DaisyToolchain/0.2.0/arm/arm-none-eabi/include/c++/10.3.1/cmath **** #undef floor
  64:/Library/DaisyToolchain/0.2.0/arm/arm-none-eabi/include/c++/10.3.1/cmath **** #undef fmod
  65:/Library/DaisyToolchain/0.2.0/arm/arm-none-eabi/include/c++/10.3.1/cmath **** #undef frexp
  66:/Library/DaisyToolchain/0.2.0/arm/arm-none-eabi/include/c++/10.3.1/cmath **** #undef ldexp
  67:/Library/DaisyToolchain/0.2.0/arm/arm-none-eabi/include/c++/10.3.1/cmath **** #undef log
  68:/Library/DaisyToolchain/0.2.0/arm/arm-none-eabi/include/c++/10.3.1/cmath **** #undef log10
  69:/Library/DaisyToolchain/0.2.0/arm/arm-none-eabi/include/c++/10.3.1/cmath **** #undef modf
  70:/Library/DaisyToolchain/0.2.0/arm/arm-none-eabi/include/c++/10.3.1/cmath **** #undef pow
  71:/Library/DaisyToolchain/0.2.0/arm/arm-none-eabi/include/c++/10.3.1/cmath **** #undef sin
  72:/Library/DaisyToolchain/0.2.0/arm/arm-none-eabi/include/c++/10.3.1/cmath **** #undef sinh
  73:/Library/DaisyToolchain/0.2.0/arm/arm-none-eabi/include/c++/10.3.1/cmath **** #undef sqrt
  74:/Library/DaisyToolchain/0.2.0/arm/arm-none-eabi/include/c++/10.3.1/cmath **** #undef tan
  75:/Library/DaisyToolchain/0.2.0/arm/arm-none-eabi/include/c++/10.3.1/cmath **** #undef tanh
  76:/Library/DaisyToolchain/0.2.0/arm/arm-none-eabi/include/c++/10.3.1/cmath **** 
  77:/Library/DaisyToolchain/0.2.0/arm/arm-none-eabi/include/c++/10.3.1/cmath **** extern "C++"
  78:/Library/DaisyToolchain/0.2.0/arm/arm-none-eabi/include/c++/10.3.1/cmath **** {
  79:/Library/DaisyToolchain/0.2.0/arm/arm-none-eabi/include/c++/10.3.1/cmath **** namespace std _GLIBCXX_VISIBILITY(default)
  80:/Library/DaisyToolchain/0.2.0/arm/arm-none-eabi/include/c++/10.3.1/cmath **** {
  81:/Library/DaisyToolchain/0.2.0/arm/arm-none-eabi/include/c++/10.3.1/cmath **** _GLIBCXX_BEGIN_NAMESPACE_VERSION
  82:/Library/DaisyToolchain/0.2.0/arm/arm-none-eabi/include/c++/10.3.1/cmath **** 
  83:/Library/DaisyToolchain/0.2.0/arm/arm-none-eabi/include/c++/10.3.1/cmath ****   using ::acos;
  84:/Library/DaisyToolchain/0.2.0/arm/arm-none-eabi/include/c++/10.3.1/cmath **** 
  85:/Library/DaisyToolchain/0.2.0/arm/arm-none-eabi/include/c++/10.3.1/cmath **** #ifndef __CORRECT_ISO_CPP_MATH_H_PROTO
  86:/Library/DaisyToolchain/0.2.0/arm/arm-none-eabi/include/c++/10.3.1/cmath ****   inline _GLIBCXX_CONSTEXPR float
  87:/Library/DaisyToolchain/0.2.0/arm/arm-none-eabi/include/c++/10.3.1/cmath ****   acos(float __x)
  88:/Library/DaisyToolchain/0.2.0/arm/arm-none-eabi/include/c++/10.3.1/cmath ****   { return __builtin_acosf(__x); }
  89:/Library/DaisyToolchain/0.2.0/arm/arm-none-eabi/include/c++/10.3.1/cmath **** 
  90:/Library/DaisyToolchain/0.2.0/arm/arm-none-eabi/include/c++/10.3.1/cmath ****   inline _GLIBCXX_CONSTEXPR long double
  91:/Library/DaisyToolchain/0.2.0/arm/arm-none-eabi/include/c++/10.3.1/cmath ****   acos(long double __x)
  92:/Library/DaisyToolchain/0.2.0/arm/arm-none-eabi/include/c++/10.3.1/cmath ****   { return __builtin_acosl(__x); }
  93:/Library/DaisyToolchain/0.2.0/arm/arm-none-eabi/include/c++/10.3.1/cmath **** #endif
  94:/Library/DaisyToolchain/0.2.0/arm/arm-none-eabi/include/c++/10.3.1/cmath **** 
  95:/Library/DaisyToolchain/0.2.0/arm/arm-none-eabi/include/c++/10.3.1/cmath ****   template<typename _Tp>
  96:/Library/DaisyToolchain/0.2.0/arm/arm-none-eabi/include/c++/10.3.1/cmath ****     inline _GLIBCXX_CONSTEXPR
  97:/Library/DaisyToolchain/0.2.0/arm/arm-none-eabi/include/c++/10.3.1/cmath ****     typename __gnu_cxx::__enable_if<__is_integer<_Tp>::__value, 
  98:/Library/DaisyToolchain/0.2.0/arm/arm-none-eabi/include/c++/10.3.1/cmath ****                                     double>::__type
  99:/Library/DaisyToolchain/0.2.0/arm/arm-none-eabi/include/c++/10.3.1/cmath ****     acos(_Tp __x)
 100:/Library/DaisyToolchain/0.2.0/arm/arm-none-eabi/include/c++/10.3.1/cmath ****     { return __builtin_acos(__x); }
 101:/Library/DaisyToolchain/0.2.0/arm/arm-none-eabi/include/c++/10.3.1/cmath **** 
 102:/Library/DaisyToolchain/0.2.0/arm/arm-none-eabi/include/c++/10.3.1/cmath ****   using ::asin;
 103:/Library/DaisyToolchain/0.2.0/arm/arm-none-eabi/include/c++/10.3.1/cmath **** 
 104:/Library/DaisyToolchain/0.2.0/arm/arm-none-eabi/include/c++/10.3.1/cmath **** #ifndef __CORRECT_ISO_CPP_MATH_H_PROTO
 105:/Library/DaisyToolchain/0.2.0/arm/arm-none-eabi/include/c++/10.3.1/cmath ****   inline _GLIBCXX_CONSTEXPR float
 106:/Library/DaisyToolchain/0.2.0/arm/arm-none-eabi/include/c++/10.3.1/cmath ****   asin(float __x)
 107:/Library/DaisyToolchain/0.2.0/arm/arm-none-eabi/include/c++/10.3.1/cmath ****   { return __builtin_asinf(__x); }
 108:/Library/DaisyToolchain/0.2.0/arm/arm-none-eabi/include/c++/10.3.1/cmath **** 
 109:/Library/DaisyToolchain/0.2.0/arm/arm-none-eabi/include/c++/10.3.1/cmath ****   inline _GLIBCXX_CONSTEXPR long double
 110:/Library/DaisyToolchain/0.2.0/arm/arm-none-eabi/include/c++/10.3.1/cmath ****   asin(long double __x)
ARM GAS  /var/folders/fb/yfxt3z4538j6z0vjt03w70vc0000gn/T//cc0qjWS6.s 			page 107


 111:/Library/DaisyToolchain/0.2.0/arm/arm-none-eabi/include/c++/10.3.1/cmath ****   { return __builtin_asinl(__x); }
 112:/Library/DaisyToolchain/0.2.0/arm/arm-none-eabi/include/c++/10.3.1/cmath **** #endif
 113:/Library/DaisyToolchain/0.2.0/arm/arm-none-eabi/include/c++/10.3.1/cmath **** 
 114:/Library/DaisyToolchain/0.2.0/arm/arm-none-eabi/include/c++/10.3.1/cmath ****   template<typename _Tp>
 115:/Library/DaisyToolchain/0.2.0/arm/arm-none-eabi/include/c++/10.3.1/cmath ****     inline _GLIBCXX_CONSTEXPR
 116:/Library/DaisyToolchain/0.2.0/arm/arm-none-eabi/include/c++/10.3.1/cmath ****     typename __gnu_cxx::__enable_if<__is_integer<_Tp>::__value,
 117:/Library/DaisyToolchain/0.2.0/arm/arm-none-eabi/include/c++/10.3.1/cmath ****                                     double>::__type
 118:/Library/DaisyToolchain/0.2.0/arm/arm-none-eabi/include/c++/10.3.1/cmath ****     asin(_Tp __x)
 119:/Library/DaisyToolchain/0.2.0/arm/arm-none-eabi/include/c++/10.3.1/cmath ****     { return __builtin_asin(__x); }
 120:/Library/DaisyToolchain/0.2.0/arm/arm-none-eabi/include/c++/10.3.1/cmath **** 
 121:/Library/DaisyToolchain/0.2.0/arm/arm-none-eabi/include/c++/10.3.1/cmath ****   using ::atan;
 122:/Library/DaisyToolchain/0.2.0/arm/arm-none-eabi/include/c++/10.3.1/cmath **** 
 123:/Library/DaisyToolchain/0.2.0/arm/arm-none-eabi/include/c++/10.3.1/cmath **** #ifndef __CORRECT_ISO_CPP_MATH_H_PROTO
 124:/Library/DaisyToolchain/0.2.0/arm/arm-none-eabi/include/c++/10.3.1/cmath ****   inline _GLIBCXX_CONSTEXPR float
 125:/Library/DaisyToolchain/0.2.0/arm/arm-none-eabi/include/c++/10.3.1/cmath ****   atan(float __x)
 126:/Library/DaisyToolchain/0.2.0/arm/arm-none-eabi/include/c++/10.3.1/cmath ****   { return __builtin_atanf(__x); }
 127:/Library/DaisyToolchain/0.2.0/arm/arm-none-eabi/include/c++/10.3.1/cmath **** 
 128:/Library/DaisyToolchain/0.2.0/arm/arm-none-eabi/include/c++/10.3.1/cmath ****   inline _GLIBCXX_CONSTEXPR long double
 129:/Library/DaisyToolchain/0.2.0/arm/arm-none-eabi/include/c++/10.3.1/cmath ****   atan(long double __x)
 130:/Library/DaisyToolchain/0.2.0/arm/arm-none-eabi/include/c++/10.3.1/cmath ****   { return __builtin_atanl(__x); }
 131:/Library/DaisyToolchain/0.2.0/arm/arm-none-eabi/include/c++/10.3.1/cmath **** #endif
 132:/Library/DaisyToolchain/0.2.0/arm/arm-none-eabi/include/c++/10.3.1/cmath **** 
 133:/Library/DaisyToolchain/0.2.0/arm/arm-none-eabi/include/c++/10.3.1/cmath ****   template<typename _Tp>
 134:/Library/DaisyToolchain/0.2.0/arm/arm-none-eabi/include/c++/10.3.1/cmath ****     inline _GLIBCXX_CONSTEXPR
 135:/Library/DaisyToolchain/0.2.0/arm/arm-none-eabi/include/c++/10.3.1/cmath ****     typename __gnu_cxx::__enable_if<__is_integer<_Tp>::__value,
 136:/Library/DaisyToolchain/0.2.0/arm/arm-none-eabi/include/c++/10.3.1/cmath ****                                     double>::__type
 137:/Library/DaisyToolchain/0.2.0/arm/arm-none-eabi/include/c++/10.3.1/cmath ****     atan(_Tp __x)
 138:/Library/DaisyToolchain/0.2.0/arm/arm-none-eabi/include/c++/10.3.1/cmath ****     { return __builtin_atan(__x); }
 139:/Library/DaisyToolchain/0.2.0/arm/arm-none-eabi/include/c++/10.3.1/cmath **** 
 140:/Library/DaisyToolchain/0.2.0/arm/arm-none-eabi/include/c++/10.3.1/cmath ****   using ::atan2;
 141:/Library/DaisyToolchain/0.2.0/arm/arm-none-eabi/include/c++/10.3.1/cmath **** 
 142:/Library/DaisyToolchain/0.2.0/arm/arm-none-eabi/include/c++/10.3.1/cmath **** #ifndef __CORRECT_ISO_CPP_MATH_H_PROTO
 143:/Library/DaisyToolchain/0.2.0/arm/arm-none-eabi/include/c++/10.3.1/cmath ****   inline _GLIBCXX_CONSTEXPR float
 144:/Library/DaisyToolchain/0.2.0/arm/arm-none-eabi/include/c++/10.3.1/cmath ****   atan2(float __y, float __x)
 145:/Library/DaisyToolchain/0.2.0/arm/arm-none-eabi/include/c++/10.3.1/cmath ****   { return __builtin_atan2f(__y, __x); }
 146:/Library/DaisyToolchain/0.2.0/arm/arm-none-eabi/include/c++/10.3.1/cmath **** 
 147:/Library/DaisyToolchain/0.2.0/arm/arm-none-eabi/include/c++/10.3.1/cmath ****   inline _GLIBCXX_CONSTEXPR long double
 148:/Library/DaisyToolchain/0.2.0/arm/arm-none-eabi/include/c++/10.3.1/cmath ****   atan2(long double __y, long double __x)
 149:/Library/DaisyToolchain/0.2.0/arm/arm-none-eabi/include/c++/10.3.1/cmath ****   { return __builtin_atan2l(__y, __x); }
 150:/Library/DaisyToolchain/0.2.0/arm/arm-none-eabi/include/c++/10.3.1/cmath **** #endif
 151:/Library/DaisyToolchain/0.2.0/arm/arm-none-eabi/include/c++/10.3.1/cmath **** 
 152:/Library/DaisyToolchain/0.2.0/arm/arm-none-eabi/include/c++/10.3.1/cmath ****   template<typename _Tp, typename _Up>
 153:/Library/DaisyToolchain/0.2.0/arm/arm-none-eabi/include/c++/10.3.1/cmath ****     inline _GLIBCXX_CONSTEXPR
 154:/Library/DaisyToolchain/0.2.0/arm/arm-none-eabi/include/c++/10.3.1/cmath ****     typename __gnu_cxx::__promote_2<_Tp, _Up>::__type
 155:/Library/DaisyToolchain/0.2.0/arm/arm-none-eabi/include/c++/10.3.1/cmath ****     atan2(_Tp __y, _Up __x)
 156:/Library/DaisyToolchain/0.2.0/arm/arm-none-eabi/include/c++/10.3.1/cmath ****     {
 157:/Library/DaisyToolchain/0.2.0/arm/arm-none-eabi/include/c++/10.3.1/cmath ****       typedef typename __gnu_cxx::__promote_2<_Tp, _Up>::__type __type;
 158:/Library/DaisyToolchain/0.2.0/arm/arm-none-eabi/include/c++/10.3.1/cmath ****       return atan2(__type(__y), __type(__x));
 159:/Library/DaisyToolchain/0.2.0/arm/arm-none-eabi/include/c++/10.3.1/cmath ****     }
 160:/Library/DaisyToolchain/0.2.0/arm/arm-none-eabi/include/c++/10.3.1/cmath **** 
 161:/Library/DaisyToolchain/0.2.0/arm/arm-none-eabi/include/c++/10.3.1/cmath ****   using ::ceil;
 162:/Library/DaisyToolchain/0.2.0/arm/arm-none-eabi/include/c++/10.3.1/cmath **** 
 163:/Library/DaisyToolchain/0.2.0/arm/arm-none-eabi/include/c++/10.3.1/cmath **** #ifndef __CORRECT_ISO_CPP_MATH_H_PROTO
 164:/Library/DaisyToolchain/0.2.0/arm/arm-none-eabi/include/c++/10.3.1/cmath ****   inline _GLIBCXX_CONSTEXPR float
 165:/Library/DaisyToolchain/0.2.0/arm/arm-none-eabi/include/c++/10.3.1/cmath ****   ceil(float __x)
 166:/Library/DaisyToolchain/0.2.0/arm/arm-none-eabi/include/c++/10.3.1/cmath ****   { return __builtin_ceilf(__x); }
 167:/Library/DaisyToolchain/0.2.0/arm/arm-none-eabi/include/c++/10.3.1/cmath **** 
ARM GAS  /var/folders/fb/yfxt3z4538j6z0vjt03w70vc0000gn/T//cc0qjWS6.s 			page 108


 168:/Library/DaisyToolchain/0.2.0/arm/arm-none-eabi/include/c++/10.3.1/cmath ****   inline _GLIBCXX_CONSTEXPR long double
 169:/Library/DaisyToolchain/0.2.0/arm/arm-none-eabi/include/c++/10.3.1/cmath ****   ceil(long double __x)
 170:/Library/DaisyToolchain/0.2.0/arm/arm-none-eabi/include/c++/10.3.1/cmath ****   { return __builtin_ceill(__x); }
 171:/Library/DaisyToolchain/0.2.0/arm/arm-none-eabi/include/c++/10.3.1/cmath **** #endif
 172:/Library/DaisyToolchain/0.2.0/arm/arm-none-eabi/include/c++/10.3.1/cmath **** 
 173:/Library/DaisyToolchain/0.2.0/arm/arm-none-eabi/include/c++/10.3.1/cmath ****   template<typename _Tp>
 174:/Library/DaisyToolchain/0.2.0/arm/arm-none-eabi/include/c++/10.3.1/cmath ****     inline _GLIBCXX_CONSTEXPR
 175:/Library/DaisyToolchain/0.2.0/arm/arm-none-eabi/include/c++/10.3.1/cmath ****     typename __gnu_cxx::__enable_if<__is_integer<_Tp>::__value, 
 176:/Library/DaisyToolchain/0.2.0/arm/arm-none-eabi/include/c++/10.3.1/cmath ****                                     double>::__type
 177:/Library/DaisyToolchain/0.2.0/arm/arm-none-eabi/include/c++/10.3.1/cmath ****     ceil(_Tp __x)
 178:/Library/DaisyToolchain/0.2.0/arm/arm-none-eabi/include/c++/10.3.1/cmath ****     { return __builtin_ceil(__x); }
 179:/Library/DaisyToolchain/0.2.0/arm/arm-none-eabi/include/c++/10.3.1/cmath **** 
 180:/Library/DaisyToolchain/0.2.0/arm/arm-none-eabi/include/c++/10.3.1/cmath ****   using ::cos;
 181:/Library/DaisyToolchain/0.2.0/arm/arm-none-eabi/include/c++/10.3.1/cmath **** 
 182:/Library/DaisyToolchain/0.2.0/arm/arm-none-eabi/include/c++/10.3.1/cmath **** #ifndef __CORRECT_ISO_CPP_MATH_H_PROTO
 183:/Library/DaisyToolchain/0.2.0/arm/arm-none-eabi/include/c++/10.3.1/cmath ****   inline _GLIBCXX_CONSTEXPR float
 184:/Library/DaisyToolchain/0.2.0/arm/arm-none-eabi/include/c++/10.3.1/cmath ****   cos(float __x)
 185:/Library/DaisyToolchain/0.2.0/arm/arm-none-eabi/include/c++/10.3.1/cmath ****   { return __builtin_cosf(__x); }
 3605              		.loc 17 185 26 view .LVU800
 3606 0050 B0EE680A 		vmov.f32	s0, s17
 3607 0054 FFF7FEFF 		bl	cosf
 3608              	.LVL243:
 3609              		.loc 17 185 26 view .LVU801
 3610              	.LBE1279:
 3611              	.LBE1278:
 315:../../../lib/pd2dsy/libdaisy/src/hid/disp/display.h ****         start_y = -sin(start_angle_rad) * radius;
 3612              		.loc 4 315 17 view .LVU802
 3613 0058 07EE907A 		vmov	s15, r7	@ int
 313:../../../lib/pd2dsy/libdaisy/src/hid/disp/display.h **** 
 3614              		.loc 4 313 25 view .LVU803
 3615 005c B7EECAAB 		vcvt.f32.f64	s20, d10
 3616              	.LVL244:
 3617              	.LBB1282:
 3618              	.LBI1278:
 184:/Library/DaisyToolchain/0.2.0/arm/arm-none-eabi/include/c++/10.3.1/cmath ****   { return __builtin_cosf(__x); }
 3619              		.loc 17 184 3 is_stmt 1 view .LVU804
 3620              	.LBB1280:
 3621              		.loc 17 185 5 view .LVU805
 3622              		.loc 17 185 5 is_stmt 0 view .LVU806
 3623              	.LBE1280:
 3624              	.LBE1282:
 315:../../../lib/pd2dsy/libdaisy/src/hid/disp/display.h ****         start_y = -sin(start_angle_rad) * radius;
 3625              		.loc 4 315 17 view .LVU807
 3626 0060 F8EE679A 		vcvt.f32.u32	s19, s15
 3627              	.LBB1283:
 3628              	.LBB1281:
 3629              		.loc 17 185 26 view .LVU808
 3630 0064 B0EE408A 		vmov.f32	s16, s0
 3631              	.LBE1281:
 3632              	.LBE1283:
 3633              	.LBB1284:
 3634              	.LBB1285:
 186:/Library/DaisyToolchain/0.2.0/arm/arm-none-eabi/include/c++/10.3.1/cmath **** 
 187:/Library/DaisyToolchain/0.2.0/arm/arm-none-eabi/include/c++/10.3.1/cmath ****   inline _GLIBCXX_CONSTEXPR long double
 188:/Library/DaisyToolchain/0.2.0/arm/arm-none-eabi/include/c++/10.3.1/cmath ****   cos(long double __x)
 189:/Library/DaisyToolchain/0.2.0/arm/arm-none-eabi/include/c++/10.3.1/cmath ****   { return __builtin_cosl(__x); }
 190:/Library/DaisyToolchain/0.2.0/arm/arm-none-eabi/include/c++/10.3.1/cmath **** #endif
ARM GAS  /var/folders/fb/yfxt3z4538j6z0vjt03w70vc0000gn/T//cc0qjWS6.s 			page 109


 191:/Library/DaisyToolchain/0.2.0/arm/arm-none-eabi/include/c++/10.3.1/cmath **** 
 192:/Library/DaisyToolchain/0.2.0/arm/arm-none-eabi/include/c++/10.3.1/cmath ****   template<typename _Tp>
 193:/Library/DaisyToolchain/0.2.0/arm/arm-none-eabi/include/c++/10.3.1/cmath ****     inline _GLIBCXX_CONSTEXPR
 194:/Library/DaisyToolchain/0.2.0/arm/arm-none-eabi/include/c++/10.3.1/cmath ****     typename __gnu_cxx::__enable_if<__is_integer<_Tp>::__value,
 195:/Library/DaisyToolchain/0.2.0/arm/arm-none-eabi/include/c++/10.3.1/cmath ****                                     double>::__type
 196:/Library/DaisyToolchain/0.2.0/arm/arm-none-eabi/include/c++/10.3.1/cmath ****     cos(_Tp __x)
 197:/Library/DaisyToolchain/0.2.0/arm/arm-none-eabi/include/c++/10.3.1/cmath ****     { return __builtin_cos(__x); }
 198:/Library/DaisyToolchain/0.2.0/arm/arm-none-eabi/include/c++/10.3.1/cmath **** 
 199:/Library/DaisyToolchain/0.2.0/arm/arm-none-eabi/include/c++/10.3.1/cmath ****   using ::cosh;
 200:/Library/DaisyToolchain/0.2.0/arm/arm-none-eabi/include/c++/10.3.1/cmath **** 
 201:/Library/DaisyToolchain/0.2.0/arm/arm-none-eabi/include/c++/10.3.1/cmath **** #ifndef __CORRECT_ISO_CPP_MATH_H_PROTO
 202:/Library/DaisyToolchain/0.2.0/arm/arm-none-eabi/include/c++/10.3.1/cmath ****   inline _GLIBCXX_CONSTEXPR float
 203:/Library/DaisyToolchain/0.2.0/arm/arm-none-eabi/include/c++/10.3.1/cmath ****   cosh(float __x)
 204:/Library/DaisyToolchain/0.2.0/arm/arm-none-eabi/include/c++/10.3.1/cmath ****   { return __builtin_coshf(__x); }
 205:/Library/DaisyToolchain/0.2.0/arm/arm-none-eabi/include/c++/10.3.1/cmath **** 
 206:/Library/DaisyToolchain/0.2.0/arm/arm-none-eabi/include/c++/10.3.1/cmath ****   inline _GLIBCXX_CONSTEXPR long double
 207:/Library/DaisyToolchain/0.2.0/arm/arm-none-eabi/include/c++/10.3.1/cmath ****   cosh(long double __x)
 208:/Library/DaisyToolchain/0.2.0/arm/arm-none-eabi/include/c++/10.3.1/cmath ****   { return __builtin_coshl(__x); }
 209:/Library/DaisyToolchain/0.2.0/arm/arm-none-eabi/include/c++/10.3.1/cmath **** #endif
 210:/Library/DaisyToolchain/0.2.0/arm/arm-none-eabi/include/c++/10.3.1/cmath **** 
 211:/Library/DaisyToolchain/0.2.0/arm/arm-none-eabi/include/c++/10.3.1/cmath ****   template<typename _Tp>
 212:/Library/DaisyToolchain/0.2.0/arm/arm-none-eabi/include/c++/10.3.1/cmath ****     inline _GLIBCXX_CONSTEXPR
 213:/Library/DaisyToolchain/0.2.0/arm/arm-none-eabi/include/c++/10.3.1/cmath ****     typename __gnu_cxx::__enable_if<__is_integer<_Tp>::__value,
 214:/Library/DaisyToolchain/0.2.0/arm/arm-none-eabi/include/c++/10.3.1/cmath ****                                     double>::__type
 215:/Library/DaisyToolchain/0.2.0/arm/arm-none-eabi/include/c++/10.3.1/cmath ****     cosh(_Tp __x)
 216:/Library/DaisyToolchain/0.2.0/arm/arm-none-eabi/include/c++/10.3.1/cmath ****     { return __builtin_cosh(__x); }
 217:/Library/DaisyToolchain/0.2.0/arm/arm-none-eabi/include/c++/10.3.1/cmath **** 
 218:/Library/DaisyToolchain/0.2.0/arm/arm-none-eabi/include/c++/10.3.1/cmath ****   using ::exp;
 219:/Library/DaisyToolchain/0.2.0/arm/arm-none-eabi/include/c++/10.3.1/cmath **** 
 220:/Library/DaisyToolchain/0.2.0/arm/arm-none-eabi/include/c++/10.3.1/cmath **** #ifndef __CORRECT_ISO_CPP_MATH_H_PROTO
 221:/Library/DaisyToolchain/0.2.0/arm/arm-none-eabi/include/c++/10.3.1/cmath ****   inline _GLIBCXX_CONSTEXPR float
 222:/Library/DaisyToolchain/0.2.0/arm/arm-none-eabi/include/c++/10.3.1/cmath ****   exp(float __x)
 223:/Library/DaisyToolchain/0.2.0/arm/arm-none-eabi/include/c++/10.3.1/cmath ****   { return __builtin_expf(__x); }
 224:/Library/DaisyToolchain/0.2.0/arm/arm-none-eabi/include/c++/10.3.1/cmath **** 
 225:/Library/DaisyToolchain/0.2.0/arm/arm-none-eabi/include/c++/10.3.1/cmath ****   inline _GLIBCXX_CONSTEXPR long double
 226:/Library/DaisyToolchain/0.2.0/arm/arm-none-eabi/include/c++/10.3.1/cmath ****   exp(long double __x)
 227:/Library/DaisyToolchain/0.2.0/arm/arm-none-eabi/include/c++/10.3.1/cmath ****   { return __builtin_expl(__x); }
 228:/Library/DaisyToolchain/0.2.0/arm/arm-none-eabi/include/c++/10.3.1/cmath **** #endif
 229:/Library/DaisyToolchain/0.2.0/arm/arm-none-eabi/include/c++/10.3.1/cmath **** 
 230:/Library/DaisyToolchain/0.2.0/arm/arm-none-eabi/include/c++/10.3.1/cmath ****   template<typename _Tp>
 231:/Library/DaisyToolchain/0.2.0/arm/arm-none-eabi/include/c++/10.3.1/cmath ****     inline _GLIBCXX_CONSTEXPR
 232:/Library/DaisyToolchain/0.2.0/arm/arm-none-eabi/include/c++/10.3.1/cmath ****     typename __gnu_cxx::__enable_if<__is_integer<_Tp>::__value,
 233:/Library/DaisyToolchain/0.2.0/arm/arm-none-eabi/include/c++/10.3.1/cmath ****                                     double>::__type
 234:/Library/DaisyToolchain/0.2.0/arm/arm-none-eabi/include/c++/10.3.1/cmath ****     exp(_Tp __x)
 235:/Library/DaisyToolchain/0.2.0/arm/arm-none-eabi/include/c++/10.3.1/cmath ****     { return __builtin_exp(__x); }
 236:/Library/DaisyToolchain/0.2.0/arm/arm-none-eabi/include/c++/10.3.1/cmath **** 
 237:/Library/DaisyToolchain/0.2.0/arm/arm-none-eabi/include/c++/10.3.1/cmath ****   using ::fabs;
 238:/Library/DaisyToolchain/0.2.0/arm/arm-none-eabi/include/c++/10.3.1/cmath **** 
 239:/Library/DaisyToolchain/0.2.0/arm/arm-none-eabi/include/c++/10.3.1/cmath **** #ifndef __CORRECT_ISO_CPP_MATH_H_PROTO
 240:/Library/DaisyToolchain/0.2.0/arm/arm-none-eabi/include/c++/10.3.1/cmath ****   inline _GLIBCXX_CONSTEXPR float
 241:/Library/DaisyToolchain/0.2.0/arm/arm-none-eabi/include/c++/10.3.1/cmath ****   fabs(float __x)
 242:/Library/DaisyToolchain/0.2.0/arm/arm-none-eabi/include/c++/10.3.1/cmath ****   { return __builtin_fabsf(__x); }
 243:/Library/DaisyToolchain/0.2.0/arm/arm-none-eabi/include/c++/10.3.1/cmath **** 
 244:/Library/DaisyToolchain/0.2.0/arm/arm-none-eabi/include/c++/10.3.1/cmath ****   inline _GLIBCXX_CONSTEXPR long double
 245:/Library/DaisyToolchain/0.2.0/arm/arm-none-eabi/include/c++/10.3.1/cmath ****   fabs(long double __x)
 246:/Library/DaisyToolchain/0.2.0/arm/arm-none-eabi/include/c++/10.3.1/cmath ****   { return __builtin_fabsl(__x); }
 247:/Library/DaisyToolchain/0.2.0/arm/arm-none-eabi/include/c++/10.3.1/cmath **** #endif
ARM GAS  /var/folders/fb/yfxt3z4538j6z0vjt03w70vc0000gn/T//cc0qjWS6.s 			page 110


 248:/Library/DaisyToolchain/0.2.0/arm/arm-none-eabi/include/c++/10.3.1/cmath **** 
 249:/Library/DaisyToolchain/0.2.0/arm/arm-none-eabi/include/c++/10.3.1/cmath ****   template<typename _Tp>
 250:/Library/DaisyToolchain/0.2.0/arm/arm-none-eabi/include/c++/10.3.1/cmath ****     inline _GLIBCXX_CONSTEXPR
 251:/Library/DaisyToolchain/0.2.0/arm/arm-none-eabi/include/c++/10.3.1/cmath ****     typename __gnu_cxx::__enable_if<__is_integer<_Tp>::__value,
 252:/Library/DaisyToolchain/0.2.0/arm/arm-none-eabi/include/c++/10.3.1/cmath ****                                     double>::__type
 253:/Library/DaisyToolchain/0.2.0/arm/arm-none-eabi/include/c++/10.3.1/cmath ****     fabs(_Tp __x)
 254:/Library/DaisyToolchain/0.2.0/arm/arm-none-eabi/include/c++/10.3.1/cmath ****     { return __builtin_fabs(__x); }
 255:/Library/DaisyToolchain/0.2.0/arm/arm-none-eabi/include/c++/10.3.1/cmath **** 
 256:/Library/DaisyToolchain/0.2.0/arm/arm-none-eabi/include/c++/10.3.1/cmath ****   using ::floor;
 257:/Library/DaisyToolchain/0.2.0/arm/arm-none-eabi/include/c++/10.3.1/cmath **** 
 258:/Library/DaisyToolchain/0.2.0/arm/arm-none-eabi/include/c++/10.3.1/cmath **** #ifndef __CORRECT_ISO_CPP_MATH_H_PROTO
 259:/Library/DaisyToolchain/0.2.0/arm/arm-none-eabi/include/c++/10.3.1/cmath ****   inline _GLIBCXX_CONSTEXPR float
 260:/Library/DaisyToolchain/0.2.0/arm/arm-none-eabi/include/c++/10.3.1/cmath ****   floor(float __x)
 261:/Library/DaisyToolchain/0.2.0/arm/arm-none-eabi/include/c++/10.3.1/cmath ****   { return __builtin_floorf(__x); }
 262:/Library/DaisyToolchain/0.2.0/arm/arm-none-eabi/include/c++/10.3.1/cmath **** 
 263:/Library/DaisyToolchain/0.2.0/arm/arm-none-eabi/include/c++/10.3.1/cmath ****   inline _GLIBCXX_CONSTEXPR long double
 264:/Library/DaisyToolchain/0.2.0/arm/arm-none-eabi/include/c++/10.3.1/cmath ****   floor(long double __x)
 265:/Library/DaisyToolchain/0.2.0/arm/arm-none-eabi/include/c++/10.3.1/cmath ****   { return __builtin_floorl(__x); }
 266:/Library/DaisyToolchain/0.2.0/arm/arm-none-eabi/include/c++/10.3.1/cmath **** #endif
 267:/Library/DaisyToolchain/0.2.0/arm/arm-none-eabi/include/c++/10.3.1/cmath **** 
 268:/Library/DaisyToolchain/0.2.0/arm/arm-none-eabi/include/c++/10.3.1/cmath ****   template<typename _Tp>
 269:/Library/DaisyToolchain/0.2.0/arm/arm-none-eabi/include/c++/10.3.1/cmath ****     inline _GLIBCXX_CONSTEXPR
 270:/Library/DaisyToolchain/0.2.0/arm/arm-none-eabi/include/c++/10.3.1/cmath ****     typename __gnu_cxx::__enable_if<__is_integer<_Tp>::__value,
 271:/Library/DaisyToolchain/0.2.0/arm/arm-none-eabi/include/c++/10.3.1/cmath ****                                     double>::__type
 272:/Library/DaisyToolchain/0.2.0/arm/arm-none-eabi/include/c++/10.3.1/cmath ****     floor(_Tp __x)
 273:/Library/DaisyToolchain/0.2.0/arm/arm-none-eabi/include/c++/10.3.1/cmath ****     { return __builtin_floor(__x); }
 274:/Library/DaisyToolchain/0.2.0/arm/arm-none-eabi/include/c++/10.3.1/cmath **** 
 275:/Library/DaisyToolchain/0.2.0/arm/arm-none-eabi/include/c++/10.3.1/cmath ****   using ::fmod;
 276:/Library/DaisyToolchain/0.2.0/arm/arm-none-eabi/include/c++/10.3.1/cmath **** 
 277:/Library/DaisyToolchain/0.2.0/arm/arm-none-eabi/include/c++/10.3.1/cmath **** #ifndef __CORRECT_ISO_CPP_MATH_H_PROTO
 278:/Library/DaisyToolchain/0.2.0/arm/arm-none-eabi/include/c++/10.3.1/cmath ****   inline _GLIBCXX_CONSTEXPR float
 279:/Library/DaisyToolchain/0.2.0/arm/arm-none-eabi/include/c++/10.3.1/cmath ****   fmod(float __x, float __y)
 280:/Library/DaisyToolchain/0.2.0/arm/arm-none-eabi/include/c++/10.3.1/cmath ****   { return __builtin_fmodf(__x, __y); }
 281:/Library/DaisyToolchain/0.2.0/arm/arm-none-eabi/include/c++/10.3.1/cmath **** 
 282:/Library/DaisyToolchain/0.2.0/arm/arm-none-eabi/include/c++/10.3.1/cmath ****   inline _GLIBCXX_CONSTEXPR long double
 283:/Library/DaisyToolchain/0.2.0/arm/arm-none-eabi/include/c++/10.3.1/cmath ****   fmod(long double __x, long double __y)
 284:/Library/DaisyToolchain/0.2.0/arm/arm-none-eabi/include/c++/10.3.1/cmath ****   { return __builtin_fmodl(__x, __y); }
 285:/Library/DaisyToolchain/0.2.0/arm/arm-none-eabi/include/c++/10.3.1/cmath **** #endif
 286:/Library/DaisyToolchain/0.2.0/arm/arm-none-eabi/include/c++/10.3.1/cmath **** 
 287:/Library/DaisyToolchain/0.2.0/arm/arm-none-eabi/include/c++/10.3.1/cmath ****   template<typename _Tp, typename _Up>
 288:/Library/DaisyToolchain/0.2.0/arm/arm-none-eabi/include/c++/10.3.1/cmath ****     inline _GLIBCXX_CONSTEXPR
 289:/Library/DaisyToolchain/0.2.0/arm/arm-none-eabi/include/c++/10.3.1/cmath ****     typename __gnu_cxx::__promote_2<_Tp, _Up>::__type
 290:/Library/DaisyToolchain/0.2.0/arm/arm-none-eabi/include/c++/10.3.1/cmath ****     fmod(_Tp __x, _Up __y)
 291:/Library/DaisyToolchain/0.2.0/arm/arm-none-eabi/include/c++/10.3.1/cmath ****     {
 292:/Library/DaisyToolchain/0.2.0/arm/arm-none-eabi/include/c++/10.3.1/cmath ****       typedef typename __gnu_cxx::__promote_2<_Tp, _Up>::__type __type;
 293:/Library/DaisyToolchain/0.2.0/arm/arm-none-eabi/include/c++/10.3.1/cmath ****       return fmod(__type(__x), __type(__y));
 294:/Library/DaisyToolchain/0.2.0/arm/arm-none-eabi/include/c++/10.3.1/cmath ****     }
 295:/Library/DaisyToolchain/0.2.0/arm/arm-none-eabi/include/c++/10.3.1/cmath **** 
 296:/Library/DaisyToolchain/0.2.0/arm/arm-none-eabi/include/c++/10.3.1/cmath ****   using ::frexp;
 297:/Library/DaisyToolchain/0.2.0/arm/arm-none-eabi/include/c++/10.3.1/cmath **** 
 298:/Library/DaisyToolchain/0.2.0/arm/arm-none-eabi/include/c++/10.3.1/cmath **** #ifndef __CORRECT_ISO_CPP_MATH_H_PROTO
 299:/Library/DaisyToolchain/0.2.0/arm/arm-none-eabi/include/c++/10.3.1/cmath ****   inline float
 300:/Library/DaisyToolchain/0.2.0/arm/arm-none-eabi/include/c++/10.3.1/cmath ****   frexp(float __x, int* __exp)
 301:/Library/DaisyToolchain/0.2.0/arm/arm-none-eabi/include/c++/10.3.1/cmath ****   { return __builtin_frexpf(__x, __exp); }
 302:/Library/DaisyToolchain/0.2.0/arm/arm-none-eabi/include/c++/10.3.1/cmath **** 
 303:/Library/DaisyToolchain/0.2.0/arm/arm-none-eabi/include/c++/10.3.1/cmath ****   inline long double
 304:/Library/DaisyToolchain/0.2.0/arm/arm-none-eabi/include/c++/10.3.1/cmath ****   frexp(long double __x, int* __exp)
ARM GAS  /var/folders/fb/yfxt3z4538j6z0vjt03w70vc0000gn/T//cc0qjWS6.s 			page 111


 305:/Library/DaisyToolchain/0.2.0/arm/arm-none-eabi/include/c++/10.3.1/cmath ****   { return __builtin_frexpl(__x, __exp); }
 306:/Library/DaisyToolchain/0.2.0/arm/arm-none-eabi/include/c++/10.3.1/cmath **** #endif
 307:/Library/DaisyToolchain/0.2.0/arm/arm-none-eabi/include/c++/10.3.1/cmath **** 
 308:/Library/DaisyToolchain/0.2.0/arm/arm-none-eabi/include/c++/10.3.1/cmath ****   template<typename _Tp>
 309:/Library/DaisyToolchain/0.2.0/arm/arm-none-eabi/include/c++/10.3.1/cmath ****     inline _GLIBCXX_CONSTEXPR
 310:/Library/DaisyToolchain/0.2.0/arm/arm-none-eabi/include/c++/10.3.1/cmath ****     typename __gnu_cxx::__enable_if<__is_integer<_Tp>::__value, 
 311:/Library/DaisyToolchain/0.2.0/arm/arm-none-eabi/include/c++/10.3.1/cmath ****                                     double>::__type
 312:/Library/DaisyToolchain/0.2.0/arm/arm-none-eabi/include/c++/10.3.1/cmath ****     frexp(_Tp __x, int* __exp)
 313:/Library/DaisyToolchain/0.2.0/arm/arm-none-eabi/include/c++/10.3.1/cmath ****     { return __builtin_frexp(__x, __exp); }
 314:/Library/DaisyToolchain/0.2.0/arm/arm-none-eabi/include/c++/10.3.1/cmath **** 
 315:/Library/DaisyToolchain/0.2.0/arm/arm-none-eabi/include/c++/10.3.1/cmath ****   using ::ldexp;
 316:/Library/DaisyToolchain/0.2.0/arm/arm-none-eabi/include/c++/10.3.1/cmath **** 
 317:/Library/DaisyToolchain/0.2.0/arm/arm-none-eabi/include/c++/10.3.1/cmath **** #ifndef __CORRECT_ISO_CPP_MATH_H_PROTO
 318:/Library/DaisyToolchain/0.2.0/arm/arm-none-eabi/include/c++/10.3.1/cmath ****   inline _GLIBCXX_CONSTEXPR float
 319:/Library/DaisyToolchain/0.2.0/arm/arm-none-eabi/include/c++/10.3.1/cmath ****   ldexp(float __x, int __exp)
 320:/Library/DaisyToolchain/0.2.0/arm/arm-none-eabi/include/c++/10.3.1/cmath ****   { return __builtin_ldexpf(__x, __exp); }
 321:/Library/DaisyToolchain/0.2.0/arm/arm-none-eabi/include/c++/10.3.1/cmath **** 
 322:/Library/DaisyToolchain/0.2.0/arm/arm-none-eabi/include/c++/10.3.1/cmath ****   inline _GLIBCXX_CONSTEXPR long double
 323:/Library/DaisyToolchain/0.2.0/arm/arm-none-eabi/include/c++/10.3.1/cmath ****   ldexp(long double __x, int __exp)
 324:/Library/DaisyToolchain/0.2.0/arm/arm-none-eabi/include/c++/10.3.1/cmath ****   { return __builtin_ldexpl(__x, __exp); }
 325:/Library/DaisyToolchain/0.2.0/arm/arm-none-eabi/include/c++/10.3.1/cmath **** #endif
 326:/Library/DaisyToolchain/0.2.0/arm/arm-none-eabi/include/c++/10.3.1/cmath **** 
 327:/Library/DaisyToolchain/0.2.0/arm/arm-none-eabi/include/c++/10.3.1/cmath ****   template<typename _Tp>
 328:/Library/DaisyToolchain/0.2.0/arm/arm-none-eabi/include/c++/10.3.1/cmath ****     inline _GLIBCXX_CONSTEXPR
 329:/Library/DaisyToolchain/0.2.0/arm/arm-none-eabi/include/c++/10.3.1/cmath ****     typename __gnu_cxx::__enable_if<__is_integer<_Tp>::__value, 
 330:/Library/DaisyToolchain/0.2.0/arm/arm-none-eabi/include/c++/10.3.1/cmath ****                                     double>::__type
 331:/Library/DaisyToolchain/0.2.0/arm/arm-none-eabi/include/c++/10.3.1/cmath ****     ldexp(_Tp __x, int __exp)
 332:/Library/DaisyToolchain/0.2.0/arm/arm-none-eabi/include/c++/10.3.1/cmath ****     { return __builtin_ldexp(__x, __exp); }
 333:/Library/DaisyToolchain/0.2.0/arm/arm-none-eabi/include/c++/10.3.1/cmath **** 
 334:/Library/DaisyToolchain/0.2.0/arm/arm-none-eabi/include/c++/10.3.1/cmath ****   using ::log;
 335:/Library/DaisyToolchain/0.2.0/arm/arm-none-eabi/include/c++/10.3.1/cmath **** 
 336:/Library/DaisyToolchain/0.2.0/arm/arm-none-eabi/include/c++/10.3.1/cmath **** #ifndef __CORRECT_ISO_CPP_MATH_H_PROTO
 337:/Library/DaisyToolchain/0.2.0/arm/arm-none-eabi/include/c++/10.3.1/cmath ****   inline _GLIBCXX_CONSTEXPR float
 338:/Library/DaisyToolchain/0.2.0/arm/arm-none-eabi/include/c++/10.3.1/cmath ****   log(float __x)
 339:/Library/DaisyToolchain/0.2.0/arm/arm-none-eabi/include/c++/10.3.1/cmath ****   { return __builtin_logf(__x); }
 340:/Library/DaisyToolchain/0.2.0/arm/arm-none-eabi/include/c++/10.3.1/cmath **** 
 341:/Library/DaisyToolchain/0.2.0/arm/arm-none-eabi/include/c++/10.3.1/cmath ****   inline _GLIBCXX_CONSTEXPR long double
 342:/Library/DaisyToolchain/0.2.0/arm/arm-none-eabi/include/c++/10.3.1/cmath ****   log(long double __x)
 343:/Library/DaisyToolchain/0.2.0/arm/arm-none-eabi/include/c++/10.3.1/cmath ****   { return __builtin_logl(__x); }
 344:/Library/DaisyToolchain/0.2.0/arm/arm-none-eabi/include/c++/10.3.1/cmath **** #endif
 345:/Library/DaisyToolchain/0.2.0/arm/arm-none-eabi/include/c++/10.3.1/cmath **** 
 346:/Library/DaisyToolchain/0.2.0/arm/arm-none-eabi/include/c++/10.3.1/cmath ****   template<typename _Tp>
 347:/Library/DaisyToolchain/0.2.0/arm/arm-none-eabi/include/c++/10.3.1/cmath ****     inline _GLIBCXX_CONSTEXPR
 348:/Library/DaisyToolchain/0.2.0/arm/arm-none-eabi/include/c++/10.3.1/cmath ****     typename __gnu_cxx::__enable_if<__is_integer<_Tp>::__value, 
 349:/Library/DaisyToolchain/0.2.0/arm/arm-none-eabi/include/c++/10.3.1/cmath ****                                     double>::__type
 350:/Library/DaisyToolchain/0.2.0/arm/arm-none-eabi/include/c++/10.3.1/cmath ****     log(_Tp __x)
 351:/Library/DaisyToolchain/0.2.0/arm/arm-none-eabi/include/c++/10.3.1/cmath ****     { return __builtin_log(__x); }
 352:/Library/DaisyToolchain/0.2.0/arm/arm-none-eabi/include/c++/10.3.1/cmath **** 
 353:/Library/DaisyToolchain/0.2.0/arm/arm-none-eabi/include/c++/10.3.1/cmath ****   using ::log10;
 354:/Library/DaisyToolchain/0.2.0/arm/arm-none-eabi/include/c++/10.3.1/cmath **** 
 355:/Library/DaisyToolchain/0.2.0/arm/arm-none-eabi/include/c++/10.3.1/cmath **** #ifndef __CORRECT_ISO_CPP_MATH_H_PROTO
 356:/Library/DaisyToolchain/0.2.0/arm/arm-none-eabi/include/c++/10.3.1/cmath ****   inline _GLIBCXX_CONSTEXPR float
 357:/Library/DaisyToolchain/0.2.0/arm/arm-none-eabi/include/c++/10.3.1/cmath ****   log10(float __x)
 358:/Library/DaisyToolchain/0.2.0/arm/arm-none-eabi/include/c++/10.3.1/cmath ****   { return __builtin_log10f(__x); }
 359:/Library/DaisyToolchain/0.2.0/arm/arm-none-eabi/include/c++/10.3.1/cmath **** 
 360:/Library/DaisyToolchain/0.2.0/arm/arm-none-eabi/include/c++/10.3.1/cmath ****   inline _GLIBCXX_CONSTEXPR long double
 361:/Library/DaisyToolchain/0.2.0/arm/arm-none-eabi/include/c++/10.3.1/cmath ****   log10(long double __x)
ARM GAS  /var/folders/fb/yfxt3z4538j6z0vjt03w70vc0000gn/T//cc0qjWS6.s 			page 112


 362:/Library/DaisyToolchain/0.2.0/arm/arm-none-eabi/include/c++/10.3.1/cmath ****   { return __builtin_log10l(__x); }
 363:/Library/DaisyToolchain/0.2.0/arm/arm-none-eabi/include/c++/10.3.1/cmath **** #endif
 364:/Library/DaisyToolchain/0.2.0/arm/arm-none-eabi/include/c++/10.3.1/cmath **** 
 365:/Library/DaisyToolchain/0.2.0/arm/arm-none-eabi/include/c++/10.3.1/cmath ****   template<typename _Tp>
 366:/Library/DaisyToolchain/0.2.0/arm/arm-none-eabi/include/c++/10.3.1/cmath ****     inline _GLIBCXX_CONSTEXPR
 367:/Library/DaisyToolchain/0.2.0/arm/arm-none-eabi/include/c++/10.3.1/cmath ****     typename __gnu_cxx::__enable_if<__is_integer<_Tp>::__value,
 368:/Library/DaisyToolchain/0.2.0/arm/arm-none-eabi/include/c++/10.3.1/cmath ****                                     double>::__type
 369:/Library/DaisyToolchain/0.2.0/arm/arm-none-eabi/include/c++/10.3.1/cmath ****     log10(_Tp __x)
 370:/Library/DaisyToolchain/0.2.0/arm/arm-none-eabi/include/c++/10.3.1/cmath ****     { return __builtin_log10(__x); }
 371:/Library/DaisyToolchain/0.2.0/arm/arm-none-eabi/include/c++/10.3.1/cmath **** 
 372:/Library/DaisyToolchain/0.2.0/arm/arm-none-eabi/include/c++/10.3.1/cmath ****   using ::modf;
 373:/Library/DaisyToolchain/0.2.0/arm/arm-none-eabi/include/c++/10.3.1/cmath **** 
 374:/Library/DaisyToolchain/0.2.0/arm/arm-none-eabi/include/c++/10.3.1/cmath **** #ifndef __CORRECT_ISO_CPP_MATH_H_PROTO
 375:/Library/DaisyToolchain/0.2.0/arm/arm-none-eabi/include/c++/10.3.1/cmath ****   inline float
 376:/Library/DaisyToolchain/0.2.0/arm/arm-none-eabi/include/c++/10.3.1/cmath ****   modf(float __x, float* __iptr)
 377:/Library/DaisyToolchain/0.2.0/arm/arm-none-eabi/include/c++/10.3.1/cmath ****   { return __builtin_modff(__x, __iptr); }
 378:/Library/DaisyToolchain/0.2.0/arm/arm-none-eabi/include/c++/10.3.1/cmath **** 
 379:/Library/DaisyToolchain/0.2.0/arm/arm-none-eabi/include/c++/10.3.1/cmath ****   inline long double
 380:/Library/DaisyToolchain/0.2.0/arm/arm-none-eabi/include/c++/10.3.1/cmath ****   modf(long double __x, long double* __iptr)
 381:/Library/DaisyToolchain/0.2.0/arm/arm-none-eabi/include/c++/10.3.1/cmath ****   { return __builtin_modfl(__x, __iptr); }
 382:/Library/DaisyToolchain/0.2.0/arm/arm-none-eabi/include/c++/10.3.1/cmath **** #endif
 383:/Library/DaisyToolchain/0.2.0/arm/arm-none-eabi/include/c++/10.3.1/cmath **** 
 384:/Library/DaisyToolchain/0.2.0/arm/arm-none-eabi/include/c++/10.3.1/cmath ****   using ::pow;
 385:/Library/DaisyToolchain/0.2.0/arm/arm-none-eabi/include/c++/10.3.1/cmath **** 
 386:/Library/DaisyToolchain/0.2.0/arm/arm-none-eabi/include/c++/10.3.1/cmath **** #ifndef __CORRECT_ISO_CPP_MATH_H_PROTO
 387:/Library/DaisyToolchain/0.2.0/arm/arm-none-eabi/include/c++/10.3.1/cmath ****   inline _GLIBCXX_CONSTEXPR float
 388:/Library/DaisyToolchain/0.2.0/arm/arm-none-eabi/include/c++/10.3.1/cmath ****   pow(float __x, float __y)
 389:/Library/DaisyToolchain/0.2.0/arm/arm-none-eabi/include/c++/10.3.1/cmath ****   { return __builtin_powf(__x, __y); }
 390:/Library/DaisyToolchain/0.2.0/arm/arm-none-eabi/include/c++/10.3.1/cmath **** 
 391:/Library/DaisyToolchain/0.2.0/arm/arm-none-eabi/include/c++/10.3.1/cmath ****   inline _GLIBCXX_CONSTEXPR long double
 392:/Library/DaisyToolchain/0.2.0/arm/arm-none-eabi/include/c++/10.3.1/cmath ****   pow(long double __x, long double __y)
 393:/Library/DaisyToolchain/0.2.0/arm/arm-none-eabi/include/c++/10.3.1/cmath ****   { return __builtin_powl(__x, __y); }
 394:/Library/DaisyToolchain/0.2.0/arm/arm-none-eabi/include/c++/10.3.1/cmath **** 
 395:/Library/DaisyToolchain/0.2.0/arm/arm-none-eabi/include/c++/10.3.1/cmath **** #if __cplusplus < 201103L
 396:/Library/DaisyToolchain/0.2.0/arm/arm-none-eabi/include/c++/10.3.1/cmath ****   // _GLIBCXX_RESOLVE_LIB_DEFECTS
 397:/Library/DaisyToolchain/0.2.0/arm/arm-none-eabi/include/c++/10.3.1/cmath ****   // DR 550. What should the return type of pow(float,int) be?
 398:/Library/DaisyToolchain/0.2.0/arm/arm-none-eabi/include/c++/10.3.1/cmath ****   inline double
 399:/Library/DaisyToolchain/0.2.0/arm/arm-none-eabi/include/c++/10.3.1/cmath ****   pow(double __x, int __i)
 400:/Library/DaisyToolchain/0.2.0/arm/arm-none-eabi/include/c++/10.3.1/cmath ****   { return __builtin_powi(__x, __i); }
 401:/Library/DaisyToolchain/0.2.0/arm/arm-none-eabi/include/c++/10.3.1/cmath **** 
 402:/Library/DaisyToolchain/0.2.0/arm/arm-none-eabi/include/c++/10.3.1/cmath ****   inline float
 403:/Library/DaisyToolchain/0.2.0/arm/arm-none-eabi/include/c++/10.3.1/cmath ****   pow(float __x, int __n)
 404:/Library/DaisyToolchain/0.2.0/arm/arm-none-eabi/include/c++/10.3.1/cmath ****   { return __builtin_powif(__x, __n); }
 405:/Library/DaisyToolchain/0.2.0/arm/arm-none-eabi/include/c++/10.3.1/cmath **** 
 406:/Library/DaisyToolchain/0.2.0/arm/arm-none-eabi/include/c++/10.3.1/cmath ****   inline long double
 407:/Library/DaisyToolchain/0.2.0/arm/arm-none-eabi/include/c++/10.3.1/cmath ****   pow(long double __x, int __n)
 408:/Library/DaisyToolchain/0.2.0/arm/arm-none-eabi/include/c++/10.3.1/cmath ****   { return __builtin_powil(__x, __n); }
 409:/Library/DaisyToolchain/0.2.0/arm/arm-none-eabi/include/c++/10.3.1/cmath **** #endif
 410:/Library/DaisyToolchain/0.2.0/arm/arm-none-eabi/include/c++/10.3.1/cmath **** #endif
 411:/Library/DaisyToolchain/0.2.0/arm/arm-none-eabi/include/c++/10.3.1/cmath **** 
 412:/Library/DaisyToolchain/0.2.0/arm/arm-none-eabi/include/c++/10.3.1/cmath ****   template<typename _Tp, typename _Up>
 413:/Library/DaisyToolchain/0.2.0/arm/arm-none-eabi/include/c++/10.3.1/cmath ****     inline _GLIBCXX_CONSTEXPR
 414:/Library/DaisyToolchain/0.2.0/arm/arm-none-eabi/include/c++/10.3.1/cmath ****     typename __gnu_cxx::__promote_2<_Tp, _Up>::__type
 415:/Library/DaisyToolchain/0.2.0/arm/arm-none-eabi/include/c++/10.3.1/cmath ****     pow(_Tp __x, _Up __y)
 416:/Library/DaisyToolchain/0.2.0/arm/arm-none-eabi/include/c++/10.3.1/cmath ****     {
 417:/Library/DaisyToolchain/0.2.0/arm/arm-none-eabi/include/c++/10.3.1/cmath ****       typedef typename __gnu_cxx::__promote_2<_Tp, _Up>::__type __type;
 418:/Library/DaisyToolchain/0.2.0/arm/arm-none-eabi/include/c++/10.3.1/cmath ****       return pow(__type(__x), __type(__y));
ARM GAS  /var/folders/fb/yfxt3z4538j6z0vjt03w70vc0000gn/T//cc0qjWS6.s 			page 113


 419:/Library/DaisyToolchain/0.2.0/arm/arm-none-eabi/include/c++/10.3.1/cmath ****     }
 420:/Library/DaisyToolchain/0.2.0/arm/arm-none-eabi/include/c++/10.3.1/cmath **** 
 421:/Library/DaisyToolchain/0.2.0/arm/arm-none-eabi/include/c++/10.3.1/cmath ****   using ::sin;
 422:/Library/DaisyToolchain/0.2.0/arm/arm-none-eabi/include/c++/10.3.1/cmath **** 
 423:/Library/DaisyToolchain/0.2.0/arm/arm-none-eabi/include/c++/10.3.1/cmath **** #ifndef __CORRECT_ISO_CPP_MATH_H_PROTO
 424:/Library/DaisyToolchain/0.2.0/arm/arm-none-eabi/include/c++/10.3.1/cmath ****   inline _GLIBCXX_CONSTEXPR float
 425:/Library/DaisyToolchain/0.2.0/arm/arm-none-eabi/include/c++/10.3.1/cmath ****   sin(float __x)
 426:/Library/DaisyToolchain/0.2.0/arm/arm-none-eabi/include/c++/10.3.1/cmath ****   { return __builtin_sinf(__x); }
 3635              		.loc 17 426 26 view .LVU809
 3636 0068 B0EE680A 		vmov.f32	s0, s17
 3637 006c FFF7FEFF 		bl	sinf
 3638              	.LVL245:
 3639              	.LBE1285:
 3640              	.LBE1284:
 316:../../../lib/pd2dsy/libdaisy/src/hid/disp/display.h ****         end_x   = cos(end_angle_rad) * radius;
 3641              		.loc 4 316 17 view .LVU810
 3642 0070 60EE698A 		vnmul.f32	s17, s0, s19
 3643              	.LVL246:
 3644              	.LBB1287:
 3645              	.LBB1288:
 185:/Library/DaisyToolchain/0.2.0/arm/arm-none-eabi/include/c++/10.3.1/cmath **** 
 3646              		.loc 17 185 26 view .LVU811
 3647 0074 B0EE4A0A 		vmov.f32	s0, s20
 3648 0078 FFF7FEFF 		bl	cosf
 3649              	.LVL247:
 3650 007c B0EE409A 		vmov.f32	s18, s0
 3651              	.LBE1288:
 3652              	.LBE1287:
 3653              	.LBB1290:
 3654              	.LBB1291:
 3655              		.loc 17 426 26 view .LVU812
 3656 0080 B0EE4A0A 		vmov.f32	s0, s20
 3657 0084 FFF7FEFF 		bl	sinf
 3658              	.LVL248:
 3659              	.LBE1291:
 3660              	.LBE1290:
 318:../../../lib/pd2dsy/libdaisy/src/hid/disp/display.h **** 
 3661              		.loc 4 318 17 view .LVU813
 3662 0088 20EE690A 		vnmul.f32	s0, s0, s19
 315:../../../lib/pd2dsy/libdaisy/src/hid/disp/display.h ****         start_y = -sin(start_angle_rad) * radius;
 3663              		.loc 4 315 17 view .LVU814
 3664 008c 29EE888A 		vmul.f32	s16, s19, s16
 3665              	.LVL249:
 3666              	.LBB1293:
 3667              	.LBI1284:
 425:/Library/DaisyToolchain/0.2.0/arm/arm-none-eabi/include/c++/10.3.1/cmath ****   { return __builtin_sinf(__x); }
 3668              		.loc 17 425 3 is_stmt 1 view .LVU815
 3669              	.LBB1286:
 3670              		.loc 17 426 5 view .LVU816
 3671              		.loc 17 426 5 is_stmt 0 view .LVU817
 3672              	.LBE1286:
 3673              	.LBE1293:
 3674              	.LBB1294:
 3675              	.LBI1287:
 184:/Library/DaisyToolchain/0.2.0/arm/arm-none-eabi/include/c++/10.3.1/cmath ****   { return __builtin_cosf(__x); }
 3676              		.loc 17 184 3 is_stmt 1 view .LVU818
 3677              	.LBB1289:
ARM GAS  /var/folders/fb/yfxt3z4538j6z0vjt03w70vc0000gn/T//cc0qjWS6.s 			page 114


 185:/Library/DaisyToolchain/0.2.0/arm/arm-none-eabi/include/c++/10.3.1/cmath **** 
 3678              		.loc 17 185 5 view .LVU819
 185:/Library/DaisyToolchain/0.2.0/arm/arm-none-eabi/include/c++/10.3.1/cmath **** 
 3679              		.loc 17 185 5 is_stmt 0 view .LVU820
 3680              	.LBE1289:
 3681              	.LBE1294:
 317:../../../lib/pd2dsy/libdaisy/src/hid/disp/display.h ****         end_y   = -sin(end_angle_rad) * radius;
 3682              		.loc 4 317 17 view .LVU821
 3683 0090 29EE899A 		vmul.f32	s18, s19, s18
 3684              	.LVL250:
 3685              	.LBB1295:
 3686              	.LBI1290:
 425:/Library/DaisyToolchain/0.2.0/arm/arm-none-eabi/include/c++/10.3.1/cmath ****   { return __builtin_sinf(__x); }
 3687              		.loc 17 425 3 is_stmt 1 view .LVU822
 3688              	.LBB1292:
 3689              		.loc 17 426 5 view .LVU823
 3690              		.loc 17 426 5 is_stmt 0 view .LVU824
 3691              	.LBE1292:
 3692              	.LBE1295:
 322:../../../lib/pd2dsy/libdaisy/src/hid/disp/display.h ****            < 2.0f)
 3693              		.loc 4 322 25 view .LVU825
 3694 0094 70EE687A 		vsub.f32	s15, s0, s17
 321:../../../lib/pd2dsy/libdaisy/src/hid/disp/display.h ****                + (end_y - start_y) * (end_y - start_y)
 3695              		.loc 4 321 9 view .LVU826
 3696 0098 F0EE006A 		vmov.f32	s13, #2.0e+0
 321:../../../lib/pd2dsy/libdaisy/src/hid/disp/display.h ****                + (end_y - start_y) * (end_y - start_y)
 3697              		.loc 4 321 19 view .LVU827
 3698 009c 39EE487A 		vsub.f32	s14, s18, s16
 322:../../../lib/pd2dsy/libdaisy/src/hid/disp/display.h ****            < 2.0f)
 3699              		.loc 4 322 36 view .LVU828
 3700 00a0 67EEA77A 		vmul.f32	s15, s15, s15
 322:../../../lib/pd2dsy/libdaisy/src/hid/disp/display.h ****            < 2.0f)
 3701              		.loc 4 322 16 view .LVU829
 3702 00a4 E7EE077A 		vfma.f32	s15, s14, s14
 321:../../../lib/pd2dsy/libdaisy/src/hid/disp/display.h ****                + (end_y - start_y) * (end_y - start_y)
 3703              		.loc 4 321 9 view .LVU830
 3704 00a8 F4EEE67A 		vcmpe.f32	s15, s13
 3705 00ac F1EE10FA 		vmrs	APSR_nzcv, FPSCR
 3706 00b0 06D5     		bpl	.L282
 325:../../../lib/pd2dsy/libdaisy/src/hid/disp/display.h ****                 circle = true;
 3707              		.loc 4 325 13 view .LVU831
 3708 00b2 139B     		ldr	r3, [sp, #76]
 3709 00b4 B42B     		cmp	r3, #180
 3710 00b6 40F39680 		ble	.L223
 326:../../../lib/pd2dsy/libdaisy/src/hid/disp/display.h ****             else
 3711              		.loc 4 326 24 view .LVU832
 3712 00ba 4FF00109 		mov	r9, #1
 3713 00be 01E0     		b	.L226
 3714              	.L282:
 304:../../../lib/pd2dsy/libdaisy/src/hid/disp/display.h **** 
 3715              		.loc 4 304 14 view .LVU833
 3716 00c0 4FF00009 		mov	r9, #0
 3717              	.L226:
 3718              	.LVL251:
 302:../../../lib/pd2dsy/libdaisy/src/hid/disp/display.h **** 
 3719              		.loc 4 302 27 view .LVU834
 3720 00c4 0124     		movs	r4, #1
ARM GAS  /var/folders/fb/yfxt3z4538j6z0vjt03w70vc0000gn/T//cc0qjWS6.s 			page 115


 332:../../../lib/pd2dsy/libdaisy/src/hid/disp/display.h ****         t_y = 0;
 3721              		.loc 4 332 13 view .LVU835
 3722 00c6 7842     		rsbs	r0, r7, #0
 3723              	.LVL252:
 333:../../../lib/pd2dsy/libdaisy/src/hid/disp/display.h ****         err = 2 - 2 * radius;
 3724              		.loc 4 333 13 view .LVU836
 3725 00c8 4FF0000C 		mov	ip, #0
 3726 00cc 0095     		str	r5, [sp]
 334:../../../lib/pd2dsy/libdaisy/src/hid/disp/display.h **** 
 3727              		.loc 4 334 17 view .LVU837
 3728 00ce E31B     		subs	r3, r4, r7
 302:../../../lib/pd2dsy/libdaisy/src/hid/disp/display.h **** 
 3729              		.loc 4 302 17 view .LVU838
 3730 00d0 2146     		mov	r1, r4
 302:../../../lib/pd2dsy/libdaisy/src/hid/disp/display.h **** 
 3731              		.loc 4 302 22 view .LVU839
 3732 00d2 2746     		mov	r7, r4
 3733              	.LVL253:
 302:../../../lib/pd2dsy/libdaisy/src/hid/disp/display.h **** 
 3734              		.loc 4 302 12 view .LVU840
 3735 00d4 2246     		mov	r2, r4
 334:../../../lib/pd2dsy/libdaisy/src/hid/disp/display.h **** 
 3736              		.loc 4 334 17 view .LVU841
 3737 00d6 A340     		lsls	r3, r3, r4
 3738              	.LVL254:
 3739              	.L252:
 338:../../../lib/pd2dsy/libdaisy/src/hid/disp/display.h ****             {
 3740              		.loc 4 338 13 view .LVU842
 3741 00d8 B9F1000F 		cmp	r9, #0
 3742 00dc 6AD1     		bne	.L228
 343:../../../lib/pd2dsy/libdaisy/src/hid/disp/display.h ****                 t_exy  = end_x * t_y;
 3743              		.loc 4 343 34 view .LVU843
 3744 00de 4242     		rsbs	r2, r0, #0
 3745              	.LVL255:
 340:../../../lib/pd2dsy/libdaisy/src/hid/disp/display.h ****                 t_syx  = start_y * t_x;
 3746              		.loc 4 340 24 view .LVU844
 3747 00e0 06EE90CA 		vmov	s13, ip	@ int
 342:../../../lib/pd2dsy/libdaisy/src/hid/disp/display.h ****                 t_synx = start_y * -t_x;
 3748              		.loc 4 342 34 view .LVU845
 3749 00e4 CCF10001 		rsb	r1, ip, #0
 3750              	.LVL256:
 343:../../../lib/pd2dsy/libdaisy/src/hid/disp/display.h ****                 t_exy  = end_x * t_y;
 3751              		.loc 4 343 34 view .LVU846
 3752 00e8 07EE102A 		vmov	s14, r2	@ int
 340:../../../lib/pd2dsy/libdaisy/src/hid/disp/display.h ****                 t_syx  = start_y * t_x;
 3753              		.loc 4 340 24 view .LVU847
 3754 00ec B8EEE66A 		vcvt.f32.s32	s12, s13
 342:../../../lib/pd2dsy/libdaisy/src/hid/disp/display.h ****                 t_synx = start_y * -t_x;
 3755              		.loc 4 342 34 view .LVU848
 3756 00f0 07EE901A 		vmov	s15, r1	@ int
 341:../../../lib/pd2dsy/libdaisy/src/hid/disp/display.h ****                 t_sxny = start_x * -t_y;
 3757              		.loc 4 341 24 view .LVU849
 3758 00f4 06EE900A 		vmov	s13, r0	@ int
 343:../../../lib/pd2dsy/libdaisy/src/hid/disp/display.h ****                 t_exy  = end_x * t_y;
 3759              		.loc 4 343 34 view .LVU850
 3760 00f8 B8EEC77A 		vcvt.f32.s32	s14, s14
 349:../../../lib/pd2dsy/libdaisy/src/hid/disp/display.h ****                 {
ARM GAS  /var/folders/fb/yfxt3z4538j6z0vjt03w70vc0000gn/T//cc0qjWS6.s 			page 116


 3761              		.loc 4 349 17 view .LVU851
 3762 00fc 139A     		ldr	r2, [sp, #76]
 340:../../../lib/pd2dsy/libdaisy/src/hid/disp/display.h ****                 t_syx  = start_y * t_x;
 3763              		.loc 4 340 24 view .LVU852
 3764 00fe 66EE084A 		vmul.f32	s9, s12, s16
 3765              	.LVL257:
 342:../../../lib/pd2dsy/libdaisy/src/hid/disp/display.h ****                 t_synx = start_y * -t_x;
 3766              		.loc 4 342 34 view .LVU853
 3767 0102 F8EEE77A 		vcvt.f32.s32	s15, s15
 349:../../../lib/pd2dsy/libdaisy/src/hid/disp/display.h ****                 {
 3768              		.loc 4 349 17 view .LVU854
 3769 0106 B42A     		cmp	r2, #180
 343:../../../lib/pd2dsy/libdaisy/src/hid/disp/display.h ****                 t_exy  = end_x * t_y;
 3770              		.loc 4 343 24 view .LVU855
 3771 0108 27EE284A 		vmul.f32	s8, s14, s17
 341:../../../lib/pd2dsy/libdaisy/src/hid/disp/display.h ****                 t_sxny = start_x * -t_y;
 3772              		.loc 4 341 24 view .LVU856
 3773 010c F8EEE66A 		vcvt.f32.s32	s13, s13
 342:../../../lib/pd2dsy/libdaisy/src/hid/disp/display.h ****                 t_synx = start_y * -t_x;
 3774              		.loc 4 342 24 view .LVU857
 3775 0110 67EE885A 		vmul.f32	s11, s15, s16
 351:../../../lib/pd2dsy/libdaisy/src/hid/disp/display.h ****                     d2 = (t_sxy - t_syx < 0 || t_exy - t_eyx > 0);
 3776              		.loc 4 351 33 view .LVU858
 3777 0114 74EEC43A 		vsub.f32	s7, s9, s8
 341:../../../lib/pd2dsy/libdaisy/src/hid/disp/display.h ****                 t_sxny = start_x * -t_y;
 3778              		.loc 4 341 24 view .LVU859
 3779 0118 26EEA85A 		vmul.f32	s10, s13, s17
 3780              	.LVL258:
 344:../../../lib/pd2dsy/libdaisy/src/hid/disp/display.h ****                 t_eyx  = end_y * t_x;
 3781              		.loc 4 344 24 view .LVU860
 3782 011c 26EE096A 		vmul.f32	s12, s12, s18
 3783              	.LVL259:
 345:../../../lib/pd2dsy/libdaisy/src/hid/disp/display.h ****                 t_exny = end_x * -t_y;
 3784              		.loc 4 345 24 view .LVU861
 3785 0120 66EE806A 		vmul.f32	s13, s13, s0
 3786              	.LVL260:
 346:../../../lib/pd2dsy/libdaisy/src/hid/disp/display.h ****                 t_eynx = end_y * -t_x;
 3787              		.loc 4 346 24 view .LVU862
 3788 0124 67EE897A 		vmul.f32	s15, s15, s18
 3789              	.LVL261:
 347:../../../lib/pd2dsy/libdaisy/src/hid/disp/display.h **** 
 3790              		.loc 4 347 24 view .LVU863
 3791 0128 27EE007A 		vmul.f32	s14, s14, s0
 3792              	.LVL262:
 351:../../../lib/pd2dsy/libdaisy/src/hid/disp/display.h ****                     d2 = (t_sxy - t_syx < 0 || t_exy - t_eyx > 0);
 3793              		.loc 4 351 46 view .LVU864
 3794 012c F5EEC03A 		vcmpe.f32	s7, #0
 349:../../../lib/pd2dsy/libdaisy/src/hid/disp/display.h ****                 {
 3795              		.loc 4 349 17 view .LVU865
 3796 0130 40F3F280 		ble	.L229
 351:../../../lib/pd2dsy/libdaisy/src/hid/disp/display.h ****                     d2 = (t_sxy - t_syx < 0 || t_exy - t_eyx > 0);
 3797              		.loc 4 351 46 view .LVU866
 3798 0134 F1EE10FA 		vmrs	APSR_nzcv, FPSCR
 3799 0138 00F17F81 		bmi	.L255
 351:../../../lib/pd2dsy/libdaisy/src/hid/disp/display.h ****                     d2 = (t_sxy - t_syx < 0 || t_exy - t_eyx > 0);
 3800              		.loc 4 351 55 discriminator 2 view .LVU867
 3801 013c 76EE473A 		vsub.f32	s7, s12, s14
ARM GAS  /var/folders/fb/yfxt3z4538j6z0vjt03w70vc0000gn/T//cc0qjWS6.s 			page 117


 352:../../../lib/pd2dsy/libdaisy/src/hid/disp/display.h ****                     d3 = (t_sxny - t_syx < 0 || t_exny - t_eyx > 0);
 3802              		.loc 4 352 33 discriminator 2 view .LVU868
 3803 0140 74EEC54A 		vsub.f32	s9, s9, s10
 3804              	.LVL263:
 351:../../../lib/pd2dsy/libdaisy/src/hid/disp/display.h ****                     d2 = (t_sxy - t_syx < 0 || t_exy - t_eyx > 0);
 3805              		.loc 4 351 46 discriminator 2 view .LVU869
 3806 0144 F5EEC03A 		vcmpe.f32	s7, #0
 3807 0148 F1EE10FA 		vmrs	APSR_nzcv, FPSCR
 352:../../../lib/pd2dsy/libdaisy/src/hid/disp/display.h ****                     d3 = (t_sxny - t_syx < 0 || t_exny - t_eyx > 0);
 3808              		.loc 4 352 45 discriminator 2 view .LVU870
 3809 014c F5EEC04A 		vcmpe.f32	s9, #0
 351:../../../lib/pd2dsy/libdaisy/src/hid/disp/display.h ****                     d2 = (t_sxy - t_syx < 0 || t_exy - t_eyx > 0);
 3810              		.loc 4 351 46 discriminator 2 view .LVU871
 3811 0150 CCBF     		ite	gt
 3812 0152 0122     		movgt	r2, #1
 3813 0154 0022     		movle	r2, #0
 3814              	.LVL264:
 352:../../../lib/pd2dsy/libdaisy/src/hid/disp/display.h ****                     d3 = (t_sxny - t_syx < 0 || t_exny - t_eyx > 0);
 3815              		.loc 4 352 45 discriminator 2 view .LVU872
 3816 0156 F1EE10FA 		vmrs	APSR_nzcv, FPSCR
 3817 015a 00F17781 		bmi	.L256
 3818              	.L298:
 352:../../../lib/pd2dsy/libdaisy/src/hid/disp/display.h ****                     d3 = (t_sxny - t_syx < 0 || t_exny - t_eyx > 0);
 3819              		.loc 4 352 54 discriminator 2 view .LVU873
 3820 015e 36EE666A 		vsub.f32	s12, s12, s13
 3821              	.LVL265:
 353:../../../lib/pd2dsy/libdaisy/src/hid/disp/display.h ****                     d4 = (t_sxny - t_synx < 0 || t_exny - t_eynx > 0);
 3822              		.loc 4 353 34 discriminator 2 view .LVU874
 3823 0162 35EEC55A 		vsub.f32	s10, s11, s10
 3824              	.LVL266:
 352:../../../lib/pd2dsy/libdaisy/src/hid/disp/display.h ****                     d3 = (t_sxny - t_syx < 0 || t_exny - t_eyx > 0);
 3825              		.loc 4 352 45 discriminator 2 view .LVU875
 3826 0166 B5EEC06A 		vcmpe.f32	s12, #0
 3827 016a F1EE10FA 		vmrs	APSR_nzcv, FPSCR
 353:../../../lib/pd2dsy/libdaisy/src/hid/disp/display.h ****                     d4 = (t_sxny - t_synx < 0 || t_exny - t_eynx > 0);
 3828              		.loc 4 353 46 discriminator 2 view .LVU876
 3829 016e B5EEC05A 		vcmpe.f32	s10, #0
 352:../../../lib/pd2dsy/libdaisy/src/hid/disp/display.h ****                     d3 = (t_sxny - t_syx < 0 || t_exny - t_eyx > 0);
 3830              		.loc 4 352 45 discriminator 2 view .LVU877
 3831 0172 CCBF     		ite	gt
 3832 0174 0121     		movgt	r1, #1
 3833 0176 0021     		movle	r1, #0
 3834              	.LVL267:
 353:../../../lib/pd2dsy/libdaisy/src/hid/disp/display.h ****                     d4 = (t_sxny - t_synx < 0 || t_exny - t_eynx > 0);
 3835              		.loc 4 353 46 discriminator 2 view .LVU878
 3836 0178 F1EE10FA 		vmrs	APSR_nzcv, FPSCR
 3837 017c 00F16F81 		bmi	.L257
 3838              	.L299:
 353:../../../lib/pd2dsy/libdaisy/src/hid/disp/display.h ****                     d4 = (t_sxny - t_synx < 0 || t_exny - t_eynx > 0);
 3839              		.loc 4 353 56 discriminator 2 view .LVU879
 3840 0180 77EEE66A 		vsub.f32	s13, s15, s13
 3841              	.LVL268:
 353:../../../lib/pd2dsy/libdaisy/src/hid/disp/display.h ****                     d4 = (t_sxny - t_synx < 0 || t_exny - t_eynx > 0);
 3842              		.loc 4 353 46 discriminator 2 view .LVU880
 3843 0184 F5EEC06A 		vcmpe.f32	s13, #0
 3844 0188 F1EE10FA 		vmrs	APSR_nzcv, FPSCR
 3845 018c CCBF     		ite	gt
ARM GAS  /var/folders/fb/yfxt3z4538j6z0vjt03w70vc0000gn/T//cc0qjWS6.s 			page 118


 3846 018e 0127     		movgt	r7, #1
 3847              	.LVL269:
 353:../../../lib/pd2dsy/libdaisy/src/hid/disp/display.h ****                     d4 = (t_sxny - t_synx < 0 || t_exny - t_eynx > 0);
 3848              		.loc 4 353 46 discriminator 2 view .LVU881
 3849 0190 0027     		movle	r7, #0
 3850              	.L232:
 3851              	.LVL270:
 354:../../../lib/pd2dsy/libdaisy/src/hid/disp/display.h ****                 }
 3852              		.loc 4 354 34 discriminator 6 view .LVU882
 3853 0192 75EEC45A 		vsub.f32	s11, s11, s8
 3854              	.LVL271:
 354:../../../lib/pd2dsy/libdaisy/src/hid/disp/display.h ****                 }
 3855              		.loc 4 354 47 discriminator 6 view .LVU883
 3856 0196 F5EEC05A 		vcmpe.f32	s11, #0
 3857 019a F1EE10FA 		vmrs	APSR_nzcv, FPSCR
 3858 019e 00F14781 		bmi	.L258
 3859              	.L288:
 361:../../../lib/pd2dsy/libdaisy/src/hid/disp/display.h ****                 }
 3860              		.loc 4 361 57 discriminator 1 view .LVU884
 3861 01a2 77EEC77A 		vsub.f32	s15, s15, s14
 3862              	.LVL272:
 361:../../../lib/pd2dsy/libdaisy/src/hid/disp/display.h ****                 }
 3863              		.loc 4 361 47 discriminator 1 view .LVU885
 3864 01a6 F5EEC07A 		vcmpe.f32	s15, #0
 3865 01aa F1EE10FA 		vmrs	APSR_nzcv, FPSCR
 3866 01ae CCBF     		ite	gt
 3867 01b0 0124     		movgt	r4, #1
 3868              	.LVL273:
 361:../../../lib/pd2dsy/libdaisy/src/hid/disp/display.h ****                 }
 3869              		.loc 4 361 47 discriminator 1 view .LVU886
 3870 01b2 0024     		movle	r4, #0
 3871              	.LVL274:
 3872              	.L228:
 365:../../../lib/pd2dsy/libdaisy/src/hid/disp/display.h ****                 ((ChildType*)(this))
 3873              		.loc 4 365 13 view .LVU887
 3874 01b4 002A     		cmp	r2, #0
 3875 01b6 40F08A80 		bne	.L289
 3876              	.L240:
 368:../../../lib/pd2dsy/libdaisy/src/hid/disp/display.h ****                 ((ChildType*)(this))
 3877              		.loc 4 368 13 view .LVU888
 3878 01ba 0029     		cmp	r1, #0
 3879 01bc 64D1     		bne	.L290
 3880              	.L242:
 371:../../../lib/pd2dsy/libdaisy/src/hid/disp/display.h ****                 ((ChildType*)(this))
 3881              		.loc 4 371 13 view .LVU889
 3882 01be BFB9     		cbnz	r7, .L291
 3883              	.L244:
 374:../../../lib/pd2dsy/libdaisy/src/hid/disp/display.h ****                 ((ChildType*)(this))
 3884              		.loc 4 374 13 view .LVU890
 3885 01c0 C4BB     		cbnz	r4, .L292
 3886              	.L246:
 3887              	.LVL275:
 379:../../../lib/pd2dsy/libdaisy/src/hid/disp/display.h ****             {
 3888              		.loc 4 379 13 view .LVU891
 3889 01c2 9C45     		cmp	ip, r3
 3890 01c4 58DB     		blt	.L263
 3891              	.L294:
ARM GAS  /var/folders/fb/yfxt3z4538j6z0vjt03w70vc0000gn/T//cc0qjWS6.s 			page 119


 381:../../../lib/pd2dsy/libdaisy/src/hid/disp/display.h ****                 err = err + (t_y * 2 + 1);
 3892              		.loc 4 381 17 view .LVU892
 3893 01c6 0CF1010C 		add	ip, ip, #1
 3894              	.LVL276:
 382:../../../lib/pd2dsy/libdaisy/src/hid/disp/display.h ****                 if(-t_x == t_y && e2 <= t_x)
 3895              		.loc 4 382 38 view .LVU893
 3896 01ca 03EB4C0E 		add	lr, r3, ip, lsl #1
 383:../../../lib/pd2dsy/libdaisy/src/hid/disp/display.h ****                 {
 3897              		.loc 4 383 17 view .LVU894
 3898 01ce 1CEB000F 		cmn	ip, r0
 382:../../../lib/pd2dsy/libdaisy/src/hid/disp/display.h ****                 if(-t_x == t_y && e2 <= t_x)
 3899              		.loc 4 382 21 view .LVU895
 3900 01d2 0EF1010E 		add	lr, lr, #1
 3901              	.LVL277:
 383:../../../lib/pd2dsy/libdaisy/src/hid/disp/display.h ****                 {
 3902              		.loc 4 383 17 view .LVU896
 3903 01d6 00F0C080 		beq	.L293
 3904              	.LVL278:
 3905              	.L248:
 388:../../../lib/pd2dsy/libdaisy/src/hid/disp/display.h ****             {
 3906              		.loc 4 388 13 view .LVU897
 3907 01da 9842     		cmp	r0, r3
 3908 01dc 4FDB     		blt	.L249
 3909              	.L264:
 388:../../../lib/pd2dsy/libdaisy/src/hid/disp/display.h ****             {
 3910              		.loc 4 388 13 view .LVU898
 3911 01de 7346     		mov	r3, lr
 3912              	.LVL279:
 3913              	.L250:
 393:../../../lib/pd2dsy/libdaisy/src/hid/disp/display.h ****     }
 3914              		.loc 4 393 21 is_stmt 1 view .LVU899
 3915 01e0 0028     		cmp	r0, #0
 3916 01e2 7FF779AF 		ble	.L252
 3917              	.LVL280:
 3918              	.L223:
 394:../../../lib/pd2dsy/libdaisy/src/hid/disp/display.h **** 
 3919              		.loc 4 394 5 is_stmt 0 view .LVU900
 3920 01e6 03B0     		add	sp, sp, #12
 3921              		.cfi_remember_state
 3922              		.cfi_def_cfa_offset 60
 3923              		@ sp needed
 3924 01e8 BDEC068B 		vldm	sp!, {d8-d10}
 3925              		.cfi_restore 84
 3926              		.cfi_restore 85
 3927              		.cfi_restore 82
 3928              		.cfi_restore 83
 3929              		.cfi_restore 80
 3930              		.cfi_restore 81
 3931              		.cfi_def_cfa_offset 36
 3932              	.LVL281:
 394:../../../lib/pd2dsy/libdaisy/src/hid/disp/display.h **** 
 3933              		.loc 4 394 5 view .LVU901
 3934 01ec BDE8F08F 		pop	{r4, r5, r6, r7, r8, r9, r10, fp, pc}
 3935              	.LVL282:
 3936              	.L291:
 3937              		.cfi_restore_state
 373:../../../lib/pd2dsy/libdaisy/src/hid/disp/display.h ****             if(d4)
ARM GAS  /var/folders/fb/yfxt3z4538j6z0vjt03w70vc0000gn/T//cc0qjWS6.s 			page 120


 3938              		.loc 4 373 43 view .LVU902
 3939 01f0 009D     		ldr	r5, [sp]
 3940 01f2 A6EB0C0E 		sub	lr, r6, ip
 3941 01f6 00EB050A 		add	r10, r0, r5
 3942              	.LVL283:
 3943              	.LBB1296:
 3944              	.LBI1296:
  42:../../../lib/pd2dsy/libdaisy/src/hid/disp/oled_display.h ****     {
 3945              		.loc 2 42 10 is_stmt 1 view .LVU903
 3946              	.LBB1297:
 3947              	.LBI1297:
 252:../../../lib/pd2dsy/libdaisy/src/dev/oled_ssd130x.h ****     {
 3948              		.loc 3 252 10 view .LVU904
 3949              	.LBB1298:
 254:../../../lib/pd2dsy/libdaisy/src/dev/oled_ssd130x.h ****             return;
 3950              		.loc 3 254 9 is_stmt 0 view .LVU905
 3951 01fa BAF17F0F 		cmp	r10, #127
 3952 01fe DFD8     		bhi	.L244
 3953 0200 BEF13F0F 		cmp	lr, #63
 3954 0204 DCD8     		bhi	.L244
 257:../../../lib/pd2dsy/libdaisy/src/dev/oled_ssd130x.h ****         else
 3955              		.loc 3 257 28 view .LVU906
 3956 0206 4FEADE0B 		lsr	fp, lr, #3
 256:../../../lib/pd2dsy/libdaisy/src/dev/oled_ssd130x.h ****             buffer_[x + (y / 8) * width] |= (1 << (y % 8));
 3957              		.loc 3 256 9 view .LVU907
 3958 020a 019D     		ldr	r5, [sp, #4]
 257:../../../lib/pd2dsy/libdaisy/src/dev/oled_ssd130x.h ****         else
 3959              		.loc 3 257 42 view .LVU908
 3960 020c 0AEBCB1A 		add	r10, r10, fp, lsl #7
 3961              	.LVL284:
 256:../../../lib/pd2dsy/libdaisy/src/dev/oled_ssd130x.h ****             buffer_[x + (y / 8) * width] |= (1 << (y % 8));
 3962              		.loc 3 256 9 view .LVU909
 3963 0210 002D     		cmp	r5, #0
 3964 0212 00F0B180 		beq	.L245
 257:../../../lib/pd2dsy/libdaisy/src/dev/oled_ssd130x.h ****         else
 3965              		.loc 3 257 54 view .LVU910
 3966 0216 0EF0070B 		and	fp, lr, #7
 257:../../../lib/pd2dsy/libdaisy/src/dev/oled_ssd130x.h ****         else
 3967              		.loc 3 257 42 view .LVU911
 3968 021a C244     		add	r10, r10, r8
 257:../../../lib/pd2dsy/libdaisy/src/dev/oled_ssd130x.h ****         else
 3969              		.loc 3 257 48 view .LVU912
 3970 021c 4FF0010E 		mov	lr, #1
 3971              	.LVL285:
 257:../../../lib/pd2dsy/libdaisy/src/dev/oled_ssd130x.h ****         else
 3972              		.loc 3 257 48 view .LVU913
 3973 0220 0EFA0BFE 		lsl	lr, lr, fp
 257:../../../lib/pd2dsy/libdaisy/src/dev/oled_ssd130x.h ****         else
 3974              		.loc 3 257 42 view .LVU914
 3975 0224 9AF814B0 		ldrb	fp, [r10, #20]	@ zero_extendqisi2
 3976 0228 4EEA0B0E 		orr	lr, lr, fp
 3977 022c 8AF814E0 		strb	lr, [r10, #20]
 3978              	.LVL286:
 257:../../../lib/pd2dsy/libdaisy/src/dev/oled_ssd130x.h ****         else
 3979              		.loc 3 257 42 view .LVU915
 3980              	.LBE1298:
 3981              	.LBE1297:
ARM GAS  /var/folders/fb/yfxt3z4538j6z0vjt03w70vc0000gn/T//cc0qjWS6.s 			page 121


 3982              	.LBE1296:
 374:../../../lib/pd2dsy/libdaisy/src/hid/disp/display.h ****                 ((ChildType*)(this))
 3983              		.loc 4 374 13 view .LVU916
 3984 0230 002C     		cmp	r4, #0
 3985 0232 C6D0     		beq	.L246
 3986              	.L292:
 376:../../../lib/pd2dsy/libdaisy/src/hid/disp/display.h **** 
 3987              		.loc 4 376 43 view .LVU917
 3988 0234 009D     		ldr	r5, [sp]
 3989 0236 A6EB0C0E 		sub	lr, r6, ip
 3990 023a A5EB000A 		sub	r10, r5, r0
 3991              	.LVL287:
 3992              	.LBB1303:
 3993              	.LBI1303:
  42:../../../lib/pd2dsy/libdaisy/src/hid/disp/oled_display.h ****     {
 3994              		.loc 2 42 10 is_stmt 1 view .LVU918
 3995              	.LBB1304:
 3996              	.LBI1304:
 252:../../../lib/pd2dsy/libdaisy/src/dev/oled_ssd130x.h ****     {
 3997              		.loc 3 252 10 view .LVU919
 3998              	.LBB1305:
 254:../../../lib/pd2dsy/libdaisy/src/dev/oled_ssd130x.h ****             return;
 3999              		.loc 3 254 9 is_stmt 0 view .LVU920
 4000 023e BAF17F0F 		cmp	r10, #127
 4001 0242 BED8     		bhi	.L246
 4002 0244 BEF13F0F 		cmp	lr, #63
 4003 0248 BBD8     		bhi	.L246
 257:../../../lib/pd2dsy/libdaisy/src/dev/oled_ssd130x.h ****         else
 4004              		.loc 3 257 28 view .LVU921
 4005 024a 4FEADE0B 		lsr	fp, lr, #3
 256:../../../lib/pd2dsy/libdaisy/src/dev/oled_ssd130x.h ****             buffer_[x + (y / 8) * width] |= (1 << (y % 8));
 4006              		.loc 3 256 9 view .LVU922
 4007 024e 019D     		ldr	r5, [sp, #4]
 257:../../../lib/pd2dsy/libdaisy/src/dev/oled_ssd130x.h ****         else
 4008              		.loc 3 257 42 view .LVU923
 4009 0250 0AEBCB1A 		add	r10, r10, fp, lsl #7
 4010              	.LVL288:
 256:../../../lib/pd2dsy/libdaisy/src/dev/oled_ssd130x.h ****             buffer_[x + (y / 8) * width] |= (1 << (y % 8));
 4011              		.loc 3 256 9 view .LVU924
 4012 0254 002D     		cmp	r5, #0
 4013 0256 00F0AE80 		beq	.L247
 257:../../../lib/pd2dsy/libdaisy/src/dev/oled_ssd130x.h ****         else
 4014              		.loc 3 257 54 view .LVU925
 4015 025a 0EF0070B 		and	fp, lr, #7
 257:../../../lib/pd2dsy/libdaisy/src/dev/oled_ssd130x.h ****         else
 4016              		.loc 3 257 42 view .LVU926
 4017 025e C244     		add	r10, r10, r8
 257:../../../lib/pd2dsy/libdaisy/src/dev/oled_ssd130x.h ****         else
 4018              		.loc 3 257 48 view .LVU927
 4019 0260 4FF0010E 		mov	lr, #1
 4020              	.LVL289:
 257:../../../lib/pd2dsy/libdaisy/src/dev/oled_ssd130x.h ****         else
 4021              		.loc 3 257 48 view .LVU928
 4022              	.LBE1305:
 4023              	.LBE1304:
 4024              	.LBE1303:
 379:../../../lib/pd2dsy/libdaisy/src/hid/disp/display.h ****             {
ARM GAS  /var/folders/fb/yfxt3z4538j6z0vjt03w70vc0000gn/T//cc0qjWS6.s 			page 122


 4025              		.loc 4 379 13 view .LVU929
 4026 0264 9C45     		cmp	ip, r3
 4027              	.LBB1312:
 4028              	.LBB1310:
 4029              	.LBB1308:
 257:../../../lib/pd2dsy/libdaisy/src/dev/oled_ssd130x.h ****         else
 4030              		.loc 3 257 48 view .LVU930
 4031 0266 0EFA0BFE 		lsl	lr, lr, fp
 257:../../../lib/pd2dsy/libdaisy/src/dev/oled_ssd130x.h ****         else
 4032              		.loc 3 257 42 view .LVU931
 4033 026a 9AF814B0 		ldrb	fp, [r10, #20]	@ zero_extendqisi2
 4034 026e 4EEA0B0E 		orr	lr, lr, fp
 4035 0272 8AF814E0 		strb	lr, [r10, #20]
 4036              	.LVL290:
 257:../../../lib/pd2dsy/libdaisy/src/dev/oled_ssd130x.h ****         else
 4037              		.loc 3 257 42 view .LVU932
 4038              	.LBE1308:
 4039              	.LBE1310:
 4040              	.LBE1312:
 379:../../../lib/pd2dsy/libdaisy/src/hid/disp/display.h ****             {
 4041              		.loc 4 379 13 view .LVU933
 4042 0276 A6DA     		bge	.L294
 4043              	.L263:
 388:../../../lib/pd2dsy/libdaisy/src/hid/disp/display.h ****             {
 4044              		.loc 4 388 13 view .LVU934
 4045 0278 9842     		cmp	r0, r3
 4046 027a 9E46     		mov	lr, r3
 4047              	.LVL291:
 388:../../../lib/pd2dsy/libdaisy/src/hid/disp/display.h ****             {
 4048              		.loc 4 388 13 view .LVU935
 4049 027c AFDA     		bge	.L264
 4050              	.LVL292:
 4051              	.L249:
 390:../../../lib/pd2dsy/libdaisy/src/hid/disp/display.h ****                 err = err + (t_x * 2 + 1);
 4052              		.loc 4 390 17 view .LVU936
 4053 027e 0130     		adds	r0, r0, #1
 4054              	.LVL293:
 391:../../../lib/pd2dsy/libdaisy/src/hid/disp/display.h ****             }
 4055              		.loc 4 391 38 view .LVU937
 4056 0280 0EEB4003 		add	r3, lr, r0, lsl #1
 391:../../../lib/pd2dsy/libdaisy/src/hid/disp/display.h ****             }
 4057              		.loc 4 391 21 view .LVU938
 4058 0284 0133     		adds	r3, r3, #1
 4059              	.LVL294:
 391:../../../lib/pd2dsy/libdaisy/src/hid/disp/display.h ****             }
 4060              		.loc 4 391 21 view .LVU939
 4061 0286 ABE7     		b	.L250
 4062              	.L290:
 370:../../../lib/pd2dsy/libdaisy/src/hid/disp/display.h ****             if(d3)
 4063              		.loc 4 370 43 view .LVU940
 4064 0288 009D     		ldr	r5, [sp]
 4065 028a 0CEB060E 		add	lr, ip, r6
 4066 028e 00EB050A 		add	r10, r0, r5
 4067              	.LVL295:
 4068              	.LBB1313:
 4069              	.LBI1313:
  42:../../../lib/pd2dsy/libdaisy/src/hid/disp/oled_display.h ****     {
ARM GAS  /var/folders/fb/yfxt3z4538j6z0vjt03w70vc0000gn/T//cc0qjWS6.s 			page 123


 4070              		.loc 2 42 10 is_stmt 1 view .LVU941
 4071              	.LBB1314:
 4072              	.LBI1314:
 252:../../../lib/pd2dsy/libdaisy/src/dev/oled_ssd130x.h ****     {
 4073              		.loc 3 252 10 view .LVU942
 4074              	.LBB1315:
 254:../../../lib/pd2dsy/libdaisy/src/dev/oled_ssd130x.h ****             return;
 4075              		.loc 3 254 9 is_stmt 0 view .LVU943
 4076 0292 BAF17F0F 		cmp	r10, #127
 4077 0296 92D8     		bhi	.L242
 4078 0298 BEF13F0F 		cmp	lr, #63
 4079 029c 8FD8     		bhi	.L242
 257:../../../lib/pd2dsy/libdaisy/src/dev/oled_ssd130x.h ****         else
 4080              		.loc 3 257 28 view .LVU944
 4081 029e 4FEADE0B 		lsr	fp, lr, #3
 256:../../../lib/pd2dsy/libdaisy/src/dev/oled_ssd130x.h ****             buffer_[x + (y / 8) * width] |= (1 << (y % 8));
 4082              		.loc 3 256 9 view .LVU945
 4083 02a2 019D     		ldr	r5, [sp, #4]
 257:../../../lib/pd2dsy/libdaisy/src/dev/oled_ssd130x.h ****         else
 4084              		.loc 3 257 42 view .LVU946
 4085 02a4 0AEBCB1A 		add	r10, r10, fp, lsl #7
 4086              	.LVL296:
 256:../../../lib/pd2dsy/libdaisy/src/dev/oled_ssd130x.h ****             buffer_[x + (y / 8) * width] |= (1 << (y % 8));
 4087              		.loc 3 256 9 view .LVU947
 4088 02a8 002D     		cmp	r5, #0
 4089 02aa 73D0     		beq	.L243
 257:../../../lib/pd2dsy/libdaisy/src/dev/oled_ssd130x.h ****         else
 4090              		.loc 3 257 54 view .LVU948
 4091 02ac 0EF0070B 		and	fp, lr, #7
 257:../../../lib/pd2dsy/libdaisy/src/dev/oled_ssd130x.h ****         else
 4092              		.loc 3 257 42 view .LVU949
 4093 02b0 C244     		add	r10, r10, r8
 257:../../../lib/pd2dsy/libdaisy/src/dev/oled_ssd130x.h ****         else
 4094              		.loc 3 257 48 view .LVU950
 4095 02b2 4FF0010E 		mov	lr, #1
 4096              	.LVL297:
 257:../../../lib/pd2dsy/libdaisy/src/dev/oled_ssd130x.h ****         else
 4097              		.loc 3 257 48 view .LVU951
 4098 02b6 0EFA0BFE 		lsl	lr, lr, fp
 257:../../../lib/pd2dsy/libdaisy/src/dev/oled_ssd130x.h ****         else
 4099              		.loc 3 257 42 view .LVU952
 4100 02ba 9AF814B0 		ldrb	fp, [r10, #20]	@ zero_extendqisi2
 4101 02be 4EEA0B0E 		orr	lr, lr, fp
 4102 02c2 8AF814E0 		strb	lr, [r10, #20]
 4103              	.LVL298:
 257:../../../lib/pd2dsy/libdaisy/src/dev/oled_ssd130x.h ****         else
 4104              		.loc 3 257 42 view .LVU953
 4105              	.LBE1315:
 4106              	.LBE1314:
 4107              	.LBE1313:
 371:../../../lib/pd2dsy/libdaisy/src/hid/disp/display.h ****                 ((ChildType*)(this))
 4108              		.loc 4 371 13 view .LVU954
 4109 02c6 002F     		cmp	r7, #0
 4110 02c8 3FF47AAF 		beq	.L244
 4111 02cc 90E7     		b	.L291
 4112              	.L289:
 367:../../../lib/pd2dsy/libdaisy/src/hid/disp/display.h ****             if(d2)
ARM GAS  /var/folders/fb/yfxt3z4538j6z0vjt03w70vc0000gn/T//cc0qjWS6.s 			page 124


 4113              		.loc 4 367 43 view .LVU955
 4114 02ce 009D     		ldr	r5, [sp]
 4115 02d0 0CEB060E 		add	lr, ip, r6
 4116 02d4 A5EB000A 		sub	r10, r5, r0
 4117              	.LVL299:
 4118              	.LBB1320:
 4119              	.LBI1320:
  42:../../../lib/pd2dsy/libdaisy/src/hid/disp/oled_display.h ****     {
 4120              		.loc 2 42 10 is_stmt 1 view .LVU956
 4121              	.LBB1321:
 4122              	.LBI1321:
 252:../../../lib/pd2dsy/libdaisy/src/dev/oled_ssd130x.h ****     {
 4123              		.loc 3 252 10 view .LVU957
 4124              	.LBB1322:
 254:../../../lib/pd2dsy/libdaisy/src/dev/oled_ssd130x.h ****             return;
 4125              		.loc 3 254 9 is_stmt 0 view .LVU958
 4126 02d8 BAF17F0F 		cmp	r10, #127
 4127 02dc 3FF66DAF 		bhi	.L240
 4128 02e0 BEF13F0F 		cmp	lr, #63
 4129 02e4 3FF669AF 		bhi	.L240
 257:../../../lib/pd2dsy/libdaisy/src/dev/oled_ssd130x.h ****         else
 4130              		.loc 3 257 28 view .LVU959
 4131 02e8 4FEADE0B 		lsr	fp, lr, #3
 256:../../../lib/pd2dsy/libdaisy/src/dev/oled_ssd130x.h ****             buffer_[x + (y / 8) * width] |= (1 << (y % 8));
 4132              		.loc 3 256 9 view .LVU960
 4133 02ec 019D     		ldr	r5, [sp, #4]
 257:../../../lib/pd2dsy/libdaisy/src/dev/oled_ssd130x.h ****         else
 4134              		.loc 3 257 42 view .LVU961
 4135 02ee 0AEBCB1A 		add	r10, r10, fp, lsl #7
 4136              	.LVL300:
 256:../../../lib/pd2dsy/libdaisy/src/dev/oled_ssd130x.h ****             buffer_[x + (y / 8) * width] |= (1 << (y % 8));
 4137              		.loc 3 256 9 view .LVU962
 4138 02f2 002D     		cmp	r5, #0
 4139 02f4 6DD0     		beq	.L241
 257:../../../lib/pd2dsy/libdaisy/src/dev/oled_ssd130x.h ****         else
 4140              		.loc 3 257 54 view .LVU963
 4141 02f6 0EF0070B 		and	fp, lr, #7
 257:../../../lib/pd2dsy/libdaisy/src/dev/oled_ssd130x.h ****         else
 4142              		.loc 3 257 42 view .LVU964
 4143 02fa C244     		add	r10, r10, r8
 257:../../../lib/pd2dsy/libdaisy/src/dev/oled_ssd130x.h ****         else
 4144              		.loc 3 257 48 view .LVU965
 4145 02fc 4FF0010E 		mov	lr, #1
 4146              	.LVL301:
 257:../../../lib/pd2dsy/libdaisy/src/dev/oled_ssd130x.h ****         else
 4147              		.loc 3 257 48 view .LVU966
 4148 0300 0EFA0BFE 		lsl	lr, lr, fp
 257:../../../lib/pd2dsy/libdaisy/src/dev/oled_ssd130x.h ****         else
 4149              		.loc 3 257 42 view .LVU967
 4150 0304 9AF814B0 		ldrb	fp, [r10, #20]	@ zero_extendqisi2
 4151 0308 4EEA0B0E 		orr	lr, lr, fp
 4152 030c 8AF814E0 		strb	lr, [r10, #20]
 4153              	.LVL302:
 257:../../../lib/pd2dsy/libdaisy/src/dev/oled_ssd130x.h ****         else
 4154              		.loc 3 257 42 view .LVU968
 4155              	.LBE1322:
 4156              	.LBE1321:
ARM GAS  /var/folders/fb/yfxt3z4538j6z0vjt03w70vc0000gn/T//cc0qjWS6.s 			page 125


 4157              	.LBE1320:
 368:../../../lib/pd2dsy/libdaisy/src/hid/disp/display.h ****                 ((ChildType*)(this))
 4158              		.loc 4 368 13 view .LVU969
 4159 0310 0029     		cmp	r1, #0
 4160 0312 3FF454AF 		beq	.L242
 4161 0316 B7E7     		b	.L290
 4162              	.LVL303:
 4163              	.L229:
 358:../../../lib/pd2dsy/libdaisy/src/hid/disp/display.h ****                     d2 = (t_sxy - t_syx < 0 && t_exy - t_eyx > 0);
 4164              		.loc 4 358 46 view .LVU970
 4165 0318 F1EE10FA 		vmrs	APSR_nzcv, FPSCR
 4166 031c 7ED4     		bmi	.L295
 4167 031e 4A46     		mov	r2, r9
 4168              	.L233:
 4169              	.LVL304:
 359:../../../lib/pd2dsy/libdaisy/src/hid/disp/display.h ****                     d3 = (t_sxny - t_syx < 0 && t_exny - t_eyx > 0);
 4170              		.loc 4 359 33 discriminator 6 view .LVU971
 4171 0320 74EEC54A 		vsub.f32	s9, s9, s10
 4172              	.LVL305:
 359:../../../lib/pd2dsy/libdaisy/src/hid/disp/display.h ****                     d3 = (t_sxny - t_syx < 0 && t_exny - t_eyx > 0);
 4173              		.loc 4 359 45 discriminator 6 view .LVU972
 4174 0324 F5EEC04A 		vcmpe.f32	s9, #0
 4175 0328 F1EE10FA 		vmrs	APSR_nzcv, FPSCR
 4176 032c 6CD4     		bmi	.L296
 359:../../../lib/pd2dsy/libdaisy/src/hid/disp/display.h ****                     d3 = (t_sxny - t_syx < 0 && t_exny - t_eyx > 0);
 4177              		.loc 4 359 45 view .LVU973
 4178 032e 0021     		movs	r1, #0
 4179              	.LVL306:
 4180              	.L235:
 360:../../../lib/pd2dsy/libdaisy/src/hid/disp/display.h ****                     d4 = (t_sxny - t_synx < 0 && t_exny - t_eynx > 0);
 4181              		.loc 4 360 34 discriminator 6 view .LVU974
 4182 0330 35EEC55A 		vsub.f32	s10, s11, s10
 4183              	.LVL307:
 360:../../../lib/pd2dsy/libdaisy/src/hid/disp/display.h ****                     d4 = (t_sxny - t_synx < 0 && t_exny - t_eynx > 0);
 4184              		.loc 4 360 46 discriminator 6 view .LVU975
 4185 0334 B5EEC05A 		vcmpe.f32	s10, #0
 4186 0338 F1EE10FA 		vmrs	APSR_nzcv, FPSCR
 4187 033c 5AD4     		bmi	.L297
 360:../../../lib/pd2dsy/libdaisy/src/hid/disp/display.h ****                     d4 = (t_sxny - t_synx < 0 && t_exny - t_eynx > 0);
 4188              		.loc 4 360 46 view .LVU976
 4189 033e 0027     		movs	r7, #0
 4190              	.LVL308:
 4191              	.L237:
 361:../../../lib/pd2dsy/libdaisy/src/hid/disp/display.h ****                 }
 4192              		.loc 4 361 34 discriminator 6 view .LVU977
 4193 0340 75EEC45A 		vsub.f32	s11, s11, s8
 4194              	.LVL309:
 361:../../../lib/pd2dsy/libdaisy/src/hid/disp/display.h ****                 }
 4195              		.loc 4 361 47 discriminator 6 view .LVU978
 4196 0344 F5EEC05A 		vcmpe.f32	s11, #0
 4197 0348 F1EE10FA 		vmrs	APSR_nzcv, FPSCR
 4198 034c 3FF529AF 		bmi	.L288
 361:../../../lib/pd2dsy/libdaisy/src/hid/disp/display.h ****                 }
 4199              		.loc 4 361 47 view .LVU979
 4200 0350 0024     		movs	r4, #0
 4201              	.LVL310:
 365:../../../lib/pd2dsy/libdaisy/src/hid/disp/display.h ****                 ((ChildType*)(this))
ARM GAS  /var/folders/fb/yfxt3z4538j6z0vjt03w70vc0000gn/T//cc0qjWS6.s 			page 126


 4202              		.loc 4 365 13 view .LVU980
 4203 0352 002A     		cmp	r2, #0
 4204 0354 3FF431AF 		beq	.L240
 4205 0358 B9E7     		b	.L289
 4206              	.LVL311:
 4207              	.L293:
 383:../../../lib/pd2dsy/libdaisy/src/hid/disp/display.h ****                 {
 4208              		.loc 4 383 32 discriminator 1 view .LVU981
 4209 035a 9842     		cmp	r0, r3
 4210 035c 8FDB     		blt	.L249
 385:../../../lib/pd2dsy/libdaisy/src/hid/disp/display.h ****                 }
 4211              		.loc 4 385 24 view .LVU982
 4212 035e 0023     		movs	r3, #0
 4213              	.LVL312:
 385:../../../lib/pd2dsy/libdaisy/src/hid/disp/display.h ****                 }
 4214              		.loc 4 385 24 view .LVU983
 4215 0360 3BE7     		b	.L248
 4216              	.L301:
 4217 0362 00BFAFF3 		.align	3
 4217      0080
 4218              	.L300:
 4219 0368 7A008BFC 		.word	-57999238
 4220 036c FA210940 		.word	1074340346
 4221 0370 00000000 		.word	0
 4222 0374 00806640 		.word	1080459264
 4223              	.LVL313:
 4224              	.L245:
 4225              	.LBB1327:
 4226              	.LBB1302:
 4227              	.LBB1301:
 4228              	.LBB1299:
 4229              	.LBI1299:
 252:../../../lib/pd2dsy/libdaisy/src/dev/oled_ssd130x.h ****     {
 4230              		.loc 3 252 10 is_stmt 1 view .LVU984
 4231              	.LBB1300:
 259:../../../lib/pd2dsy/libdaisy/src/dev/oled_ssd130x.h ****     }
 4232              		.loc 3 259 42 is_stmt 0 view .LVU985
 4233 0378 C244     		add	r10, r10, r8
 4234              	.LVL314:
 259:../../../lib/pd2dsy/libdaisy/src/dev/oled_ssd130x.h ****     }
 4235              		.loc 3 259 49 view .LVU986
 4236 037a 4FF0010B 		mov	fp, #1
 4237              	.LVL315:
 259:../../../lib/pd2dsy/libdaisy/src/dev/oled_ssd130x.h ****     }
 4238              		.loc 3 259 55 view .LVU987
 4239 037e 0EF0070E 		and	lr, lr, #7
 4240              	.LVL316:
 259:../../../lib/pd2dsy/libdaisy/src/dev/oled_ssd130x.h ****     }
 4241              		.loc 3 259 49 view .LVU988
 4242 0382 0BFA0EFE 		lsl	lr, fp, lr
 259:../../../lib/pd2dsy/libdaisy/src/dev/oled_ssd130x.h ****     }
 4243              		.loc 3 259 42 view .LVU989
 4244 0386 9AF814B0 		ldrb	fp, [r10, #20]	@ zero_extendqisi2
 4245 038a 2BEA0E0E 		bic	lr, fp, lr
 4246 038e 8AF814E0 		strb	lr, [r10, #20]
 4247              	.LVL317:
 259:../../../lib/pd2dsy/libdaisy/src/dev/oled_ssd130x.h ****     }
ARM GAS  /var/folders/fb/yfxt3z4538j6z0vjt03w70vc0000gn/T//cc0qjWS6.s 			page 127


 4248              		.loc 3 259 42 view .LVU990
 4249 0392 15E7     		b	.L244
 4250              	.LVL318:
 4251              	.L243:
 259:../../../lib/pd2dsy/libdaisy/src/dev/oled_ssd130x.h ****     }
 4252              		.loc 3 259 42 view .LVU991
 4253              	.LBE1300:
 4254              	.LBE1299:
 4255              	.LBE1301:
 4256              	.LBE1302:
 4257              	.LBE1327:
 4258              	.LBB1328:
 4259              	.LBB1319:
 4260              	.LBB1318:
 4261              	.LBB1316:
 4262              	.LBI1316:
 252:../../../lib/pd2dsy/libdaisy/src/dev/oled_ssd130x.h ****     {
 4263              		.loc 3 252 10 is_stmt 1 view .LVU992
 4264              	.LBB1317:
 259:../../../lib/pd2dsy/libdaisy/src/dev/oled_ssd130x.h ****     }
 4265              		.loc 3 259 42 is_stmt 0 view .LVU993
 4266 0394 C244     		add	r10, r10, r8
 4267              	.LVL319:
 259:../../../lib/pd2dsy/libdaisy/src/dev/oled_ssd130x.h ****     }
 4268              		.loc 3 259 49 view .LVU994
 4269 0396 4FF0010B 		mov	fp, #1
 4270              	.LVL320:
 259:../../../lib/pd2dsy/libdaisy/src/dev/oled_ssd130x.h ****     }
 4271              		.loc 3 259 55 view .LVU995
 4272 039a 0EF0070E 		and	lr, lr, #7
 4273              	.LVL321:
 259:../../../lib/pd2dsy/libdaisy/src/dev/oled_ssd130x.h ****     }
 4274              		.loc 3 259 49 view .LVU996
 4275 039e 0BFA0EFE 		lsl	lr, fp, lr
 259:../../../lib/pd2dsy/libdaisy/src/dev/oled_ssd130x.h ****     }
 4276              		.loc 3 259 42 view .LVU997
 4277 03a2 9AF814B0 		ldrb	fp, [r10, #20]	@ zero_extendqisi2
 4278 03a6 2BEA0E0E 		bic	lr, fp, lr
 4279 03aa 8AF814E0 		strb	lr, [r10, #20]
 4280              	.LVL322:
 259:../../../lib/pd2dsy/libdaisy/src/dev/oled_ssd130x.h ****     }
 4281              		.loc 3 259 42 view .LVU998
 4282              	.LBE1317:
 4283              	.LBE1316:
 4284              	.LBE1318:
 4285              	.LBE1319:
 4286              	.LBE1328:
 371:../../../lib/pd2dsy/libdaisy/src/hid/disp/display.h ****                 ((ChildType*)(this))
 4287              		.loc 4 371 13 view .LVU999
 4288 03ae 002F     		cmp	r7, #0
 4289 03b0 3FF406AF 		beq	.L244
 4290 03b4 1CE7     		b	.L291
 4291              	.LVL323:
 4292              	.L247:
 4293              	.LBB1329:
 4294              	.LBB1311:
 4295              	.LBB1309:
ARM GAS  /var/folders/fb/yfxt3z4538j6z0vjt03w70vc0000gn/T//cc0qjWS6.s 			page 128


 4296              	.LBB1306:
 4297              	.LBI1306:
 252:../../../lib/pd2dsy/libdaisy/src/dev/oled_ssd130x.h ****     {
 4298              		.loc 3 252 10 is_stmt 1 view .LVU1000
 4299              	.LBB1307:
 259:../../../lib/pd2dsy/libdaisy/src/dev/oled_ssd130x.h ****     }
 4300              		.loc 3 259 42 is_stmt 0 view .LVU1001
 4301 03b6 C244     		add	r10, r10, r8
 4302              	.LVL324:
 259:../../../lib/pd2dsy/libdaisy/src/dev/oled_ssd130x.h ****     }
 4303              		.loc 3 259 49 view .LVU1002
 4304 03b8 4FF0010B 		mov	fp, #1
 4305              	.LVL325:
 259:../../../lib/pd2dsy/libdaisy/src/dev/oled_ssd130x.h ****     }
 4306              		.loc 3 259 55 view .LVU1003
 4307 03bc 0EF0070E 		and	lr, lr, #7
 4308              	.LVL326:
 259:../../../lib/pd2dsy/libdaisy/src/dev/oled_ssd130x.h ****     }
 4309              		.loc 3 259 49 view .LVU1004
 4310 03c0 0BFA0EFE 		lsl	lr, fp, lr
 259:../../../lib/pd2dsy/libdaisy/src/dev/oled_ssd130x.h ****     }
 4311              		.loc 3 259 42 view .LVU1005
 4312 03c4 9AF814B0 		ldrb	fp, [r10, #20]	@ zero_extendqisi2
 4313 03c8 2BEA0E0E 		bic	lr, fp, lr
 4314 03cc 8AF814E0 		strb	lr, [r10, #20]
 4315              	.LVL327:
 259:../../../lib/pd2dsy/libdaisy/src/dev/oled_ssd130x.h ****     }
 4316              		.loc 3 259 42 view .LVU1006
 4317 03d0 F7E6     		b	.L246
 4318              	.LVL328:
 4319              	.L241:
 259:../../../lib/pd2dsy/libdaisy/src/dev/oled_ssd130x.h ****     }
 4320              		.loc 3 259 42 view .LVU1007
 4321              	.LBE1307:
 4322              	.LBE1306:
 4323              	.LBE1309:
 4324              	.LBE1311:
 4325              	.LBE1329:
 4326              	.LBB1330:
 4327              	.LBB1326:
 4328              	.LBB1325:
 4329              	.LBB1323:
 4330              	.LBI1323:
 252:../../../lib/pd2dsy/libdaisy/src/dev/oled_ssd130x.h ****     {
 4331              		.loc 3 252 10 is_stmt 1 view .LVU1008
 4332              	.LBB1324:
 259:../../../lib/pd2dsy/libdaisy/src/dev/oled_ssd130x.h ****     }
 4333              		.loc 3 259 42 is_stmt 0 view .LVU1009
 4334 03d2 C244     		add	r10, r10, r8
 4335              	.LVL329:
 259:../../../lib/pd2dsy/libdaisy/src/dev/oled_ssd130x.h ****     }
 4336              		.loc 3 259 49 view .LVU1010
 4337 03d4 4FF0010B 		mov	fp, #1
 4338              	.LVL330:
 259:../../../lib/pd2dsy/libdaisy/src/dev/oled_ssd130x.h ****     }
 4339              		.loc 3 259 55 view .LVU1011
 4340 03d8 0EF0070E 		and	lr, lr, #7
ARM GAS  /var/folders/fb/yfxt3z4538j6z0vjt03w70vc0000gn/T//cc0qjWS6.s 			page 129


 4341              	.LVL331:
 259:../../../lib/pd2dsy/libdaisy/src/dev/oled_ssd130x.h ****     }
 4342              		.loc 3 259 49 view .LVU1012
 4343 03dc 0BFA0EFE 		lsl	lr, fp, lr
 259:../../../lib/pd2dsy/libdaisy/src/dev/oled_ssd130x.h ****     }
 4344              		.loc 3 259 42 view .LVU1013
 4345 03e0 9AF814B0 		ldrb	fp, [r10, #20]	@ zero_extendqisi2
 4346 03e4 2BEA0E0E 		bic	lr, fp, lr
 4347 03e8 8AF814E0 		strb	lr, [r10, #20]
 4348              	.LVL332:
 259:../../../lib/pd2dsy/libdaisy/src/dev/oled_ssd130x.h ****     }
 4349              		.loc 3 259 42 view .LVU1014
 4350              	.LBE1324:
 4351              	.LBE1323:
 4352              	.LBE1325:
 4353              	.LBE1326:
 4354              	.LBE1330:
 368:../../../lib/pd2dsy/libdaisy/src/hid/disp/display.h ****                 ((ChildType*)(this))
 4355              		.loc 4 368 13 view .LVU1015
 4356 03ec 0029     		cmp	r1, #0
 4357 03ee 3FF4E6AE 		beq	.L242
 4358 03f2 49E7     		b	.L290
 4359              	.LVL333:
 4360              	.L297:
 360:../../../lib/pd2dsy/libdaisy/src/hid/disp/display.h ****                     d4 = (t_sxny - t_synx < 0 && t_exny - t_eynx > 0);
 4361              		.loc 4 360 56 discriminator 1 view .LVU1016
 4362 03f4 77EEE66A 		vsub.f32	s13, s15, s13
 4363              	.LVL334:
 360:../../../lib/pd2dsy/libdaisy/src/hid/disp/display.h ****                     d4 = (t_sxny - t_synx < 0 && t_exny - t_eynx > 0);
 4364              		.loc 4 360 46 discriminator 1 view .LVU1017
 4365 03f8 F5EEC06A 		vcmpe.f32	s13, #0
 4366 03fc F1EE10FA 		vmrs	APSR_nzcv, FPSCR
 4367 0400 CCBF     		ite	gt
 4368 0402 0127     		movgt	r7, #1
 4369              	.LVL335:
 360:../../../lib/pd2dsy/libdaisy/src/hid/disp/display.h ****                     d4 = (t_sxny - t_synx < 0 && t_exny - t_eynx > 0);
 4370              		.loc 4 360 46 discriminator 1 view .LVU1018
 4371 0404 0027     		movle	r7, #0
 4372 0406 9BE7     		b	.L237
 4373              	.LVL336:
 4374              	.L296:
 359:../../../lib/pd2dsy/libdaisy/src/hid/disp/display.h ****                     d3 = (t_sxny - t_syx < 0 && t_exny - t_eyx > 0);
 4375              		.loc 4 359 54 discriminator 1 view .LVU1019
 4376 0408 36EE666A 		vsub.f32	s12, s12, s13
 4377              	.LVL337:
 359:../../../lib/pd2dsy/libdaisy/src/hid/disp/display.h ****                     d3 = (t_sxny - t_syx < 0 && t_exny - t_eyx > 0);
 4378              		.loc 4 359 45 discriminator 1 view .LVU1020
 4379 040c B5EEC06A 		vcmpe.f32	s12, #0
 4380 0410 F1EE10FA 		vmrs	APSR_nzcv, FPSCR
 4381 0414 CCBF     		ite	gt
 4382 0416 0121     		movgt	r1, #1
 4383 0418 0021     		movle	r1, #0
 4384 041a 89E7     		b	.L235
 4385              	.LVL338:
 4386              	.L295:
 358:../../../lib/pd2dsy/libdaisy/src/hid/disp/display.h ****                     d2 = (t_sxy - t_syx < 0 && t_exy - t_eyx > 0);
 4387              		.loc 4 358 55 discriminator 1 view .LVU1021
ARM GAS  /var/folders/fb/yfxt3z4538j6z0vjt03w70vc0000gn/T//cc0qjWS6.s 			page 130


 4388 041c 76EE473A 		vsub.f32	s7, s12, s14
 358:../../../lib/pd2dsy/libdaisy/src/hid/disp/display.h ****                     d2 = (t_sxy - t_syx < 0 && t_exy - t_eyx > 0);
 4389              		.loc 4 358 46 discriminator 1 view .LVU1022
 4390 0420 F5EEC03A 		vcmpe.f32	s7, #0
 4391 0424 F1EE10FA 		vmrs	APSR_nzcv, FPSCR
 4392 0428 CCBF     		ite	gt
 4393 042a 0122     		movgt	r2, #1
 4394 042c 0022     		movle	r2, #0
 4395 042e 77E7     		b	.L233
 4396              	.LVL339:
 4397              	.L258:
 354:../../../lib/pd2dsy/libdaisy/src/hid/disp/display.h ****                 }
 4398              		.loc 4 354 47 view .LVU1023
 4399 0430 0124     		movs	r4, #1
 4400              	.LVL340:
 365:../../../lib/pd2dsy/libdaisy/src/hid/disp/display.h ****                 ((ChildType*)(this))
 4401              		.loc 4 365 13 view .LVU1024
 4402 0432 002A     		cmp	r2, #0
 4403 0434 3FF4C1AE 		beq	.L240
 365:../../../lib/pd2dsy/libdaisy/src/hid/disp/display.h ****                 ((ChildType*)(this))
 4404              		.loc 4 365 13 view .LVU1025
 4405 0438 49E7     		b	.L289
 4406              	.LVL341:
 4407              	.L255:
 352:../../../lib/pd2dsy/libdaisy/src/hid/disp/display.h ****                     d3 = (t_sxny - t_syx < 0 || t_exny - t_eyx > 0);
 4408              		.loc 4 352 33 view .LVU1026
 4409 043a 74EEC54A 		vsub.f32	s9, s9, s10
 4410              	.LVL342:
 351:../../../lib/pd2dsy/libdaisy/src/hid/disp/display.h ****                     d2 = (t_sxy - t_syx < 0 || t_exy - t_eyx > 0);
 4411              		.loc 4 351 46 view .LVU1027
 4412 043e 0122     		movs	r2, #1
 4413              	.LVL343:
 352:../../../lib/pd2dsy/libdaisy/src/hid/disp/display.h ****                     d3 = (t_sxny - t_syx < 0 || t_exny - t_eyx > 0);
 4414              		.loc 4 352 45 view .LVU1028
 4415 0440 F5EEC04A 		vcmpe.f32	s9, #0
 4416 0444 F1EE10FA 		vmrs	APSR_nzcv, FPSCR
 4417 0448 7FF589AE 		bpl	.L298
 4418              	.L256:
 353:../../../lib/pd2dsy/libdaisy/src/hid/disp/display.h ****                     d4 = (t_sxny - t_synx < 0 || t_exny - t_eynx > 0);
 4419              		.loc 4 353 34 view .LVU1029
 4420 044c 35EEC55A 		vsub.f32	s10, s11, s10
 4421              	.LVL344:
 352:../../../lib/pd2dsy/libdaisy/src/hid/disp/display.h ****                     d3 = (t_sxny - t_syx < 0 || t_exny - t_eyx > 0);
 4422              		.loc 4 352 45 view .LVU1030
 4423 0450 0121     		movs	r1, #1
 4424              	.LVL345:
 353:../../../lib/pd2dsy/libdaisy/src/hid/disp/display.h ****                     d4 = (t_sxny - t_synx < 0 || t_exny - t_eynx > 0);
 4425              		.loc 4 353 46 view .LVU1031
 4426 0452 B5EEC05A 		vcmpe.f32	s10, #0
 4427 0456 F1EE10FA 		vmrs	APSR_nzcv, FPSCR
 4428 045a 7FF591AE 		bpl	.L299
 4429              	.LVL346:
 4430              	.L257:
 353:../../../lib/pd2dsy/libdaisy/src/hid/disp/display.h ****                     d4 = (t_sxny - t_synx < 0 || t_exny - t_eynx > 0);
 4431              		.loc 4 353 46 view .LVU1032
 4432 045e 0127     		movs	r7, #1
 4433              	.LVL347:
ARM GAS  /var/folders/fb/yfxt3z4538j6z0vjt03w70vc0000gn/T//cc0qjWS6.s 			page 131


 353:../../../lib/pd2dsy/libdaisy/src/hid/disp/display.h ****                     d4 = (t_sxny - t_synx < 0 || t_exny - t_eynx > 0);
 4434              		.loc 4 353 46 view .LVU1033
 4435 0460 97E6     		b	.L232
 4436              	.LVL348:
 4437              	.L224:
 308:../../../lib/pd2dsy/libdaisy/src/hid/disp/display.h ****             sweep = -sweep;
 4438              		.loc 4 308 25 view .LVU1034
 4439 0462 DDE91223 		ldrd	r2, r3, [sp, #72]
 4440              	.LVL349:
 308:../../../lib/pd2dsy/libdaisy/src/hid/disp/display.h ****             sweep = -sweep;
 4441              		.loc 4 308 25 view .LVU1035
 4442 0466 1344     		add	r3, r3, r2
 4443              	.LVL350:
 308:../../../lib/pd2dsy/libdaisy/src/hid/disp/display.h ****             sweep = -sweep;
 4444              		.loc 4 308 25 view .LVU1036
 4445 0468 06EE102A 		vmov	s12, r2	@ int
 4446 046c 1293     		str	r3, [sp, #72]
 4447 046e 139B     		ldr	r3, [sp, #76]
 4448              	.LVL351:
 308:../../../lib/pd2dsy/libdaisy/src/hid/disp/display.h ****             sweep = -sweep;
 4449              		.loc 4 308 25 view .LVU1037
 4450 0470 5B42     		rsbs	r3, r3, #0
 4451 0472 1393     		str	r3, [sp, #76]
 4452              	.LVL352:
 308:../../../lib/pd2dsy/libdaisy/src/hid/disp/display.h ****             sweep = -sweep;
 4453              		.loc 4 308 25 view .LVU1038
 4454 0474 D8E5     		b	.L225
 4455              		.cfi_endproc
 4456              	.LFE3076:
 4458 0476 00BF     		.section	.text._ZN5daisy25OneBitGraphicsDisplayImplINS_11OledDisplayINS_13SSD130xDriverILj128ELj64
 4459              		.align	1
 4460              		.p2align 2,,3
 4461              		.weak	_ZN5daisy25OneBitGraphicsDisplayImplINS_11OledDisplayINS_13SSD130xDriverILj128ELj64ENS_24SSD
 4462              		.syntax unified
 4463              		.thumb
 4464              		.thumb_func
 4466              	_ZN5daisy25OneBitGraphicsDisplayImplINS_11OledDisplayINS_13SSD130xDriverILj128ELj64ENS_24SSD130x4Wi
 4467              	.LVL353:
 4468              	.LFB3075:
 257:../../../lib/pd2dsy/libdaisy/src/hid/disp/display.h ****                   uint_fast8_t y1,
 4469              		.loc 4 257 10 is_stmt 1 view -0
 4470              		.cfi_startproc
 4471              		@ args = 12, pretend = 0, frame = 24
 4472              		@ frame_needed = 0, uses_anonymous_args = 0
 257:../../../lib/pd2dsy/libdaisy/src/hid/disp/display.h ****                   uint_fast8_t y1,
 4473              		.loc 4 257 10 is_stmt 0 view .LVU1040
 4474 0000 2DE9F04F 		push	{r4, r5, r6, r7, r8, r9, r10, fp, lr}
 4475              		.cfi_def_cfa_offset 36
 4476              		.cfi_offset 4, -36
 4477              		.cfi_offset 5, -32
 4478              		.cfi_offset 6, -28
 4479              		.cfi_offset 7, -24
 4480              		.cfi_offset 8, -20
 4481              		.cfi_offset 9, -16
 4482              		.cfi_offset 10, -12
 4483              		.cfi_offset 11, -8
 4484              		.cfi_offset 14, -4
ARM GAS  /var/folders/fb/yfxt3z4538j6z0vjt03w70vc0000gn/T//cc0qjWS6.s 			page 132


 4485 0004 87B0     		sub	sp, sp, #28
 4486              		.cfi_def_cfa_offset 64
 257:../../../lib/pd2dsy/libdaisy/src/hid/disp/display.h ****                   uint_fast8_t y1,
 4487              		.loc 4 257 10 view .LVU1041
 4488 0006 9DF84850 		ldrb	r5, [sp, #72]	@ zero_extendqisi2
 4489 000a 109C     		ldr	r4, [sp, #64]
 4490 000c 2E46     		mov	r6, r5
 4491 000e 0195     		str	r5, [sp, #4]
 4492 0010 9DF84450 		ldrb	r5, [sp, #68]	@ zero_extendqisi2
 4493              	.LBB1400:
 264:../../../lib/pd2dsy/libdaisy/src/hid/disp/display.h ****         {
 4494              		.loc 4 264 9 view .LVU1042
 4495 0014 9EB3     		cbz	r6, .L303
 4496              	.LVL354:
 264:../../../lib/pd2dsy/libdaisy/src/hid/disp/display.h ****         {
 4497              		.loc 4 264 9 view .LVU1043
 4498              	.LBE1400:
 4499              	.LBB1522:
 4500              	.LBB1523:
 266:../../../lib/pd2dsy/libdaisy/src/hid/disp/display.h ****             {
 4501              		.loc 4 266 40 is_stmt 1 view .LVU1044
 4502 0016 9942     		cmp	r1, r3
 4503 0018 2ED8     		bhi	.L302
 4504 001a 9946     		mov	r9, r3
 4505              	.LVL355:
 4506              	.L306:
 4507              	.LBB1524:
 268:../../../lib/pd2dsy/libdaisy/src/hid/disp/display.h ****                 {
 4508              		.loc 4 268 44 view .LVU1045
 4509 001c A242     		cmp	r2, r4
 4510 001e 28D8     		bhi	.L309
 4511              	.LBB1525:
 4512              	.LBB1526:
 4513              	.LBB1527:
 254:../../../lib/pd2dsy/libdaisy/src/dev/oled_ssd130x.h ****             return;
 4514              		.loc 3 254 14 is_stmt 0 view .LVU1046
 4515 0020 7F29     		cmp	r1, #127
 4516 0022 1646     		mov	r6, r2
 4517 0024 94BF     		ite	ls
 4518 0026 0023     		movls	r3, #0
 4519 0028 0123     		movhi	r3, #1
 4520 002a 08E0     		b	.L310
 4521              	.LVL356:
 4522              	.L393:
 257:../../../lib/pd2dsy/libdaisy/src/dev/oled_ssd130x.h ****         else
 4523              		.loc 3 257 42 view .LVU1047
 4524 002c 9CF81480 		ldrb	r8, [ip, #20]	@ zero_extendqisi2
 4525 0030 4EEA080E 		orr	lr, lr, r8
 4526 0034 8CF814E0 		strb	lr, [ip, #20]
 4527              	.LVL357:
 4528              	.L307:
 257:../../../lib/pd2dsy/libdaisy/src/dev/oled_ssd130x.h ****         else
 4529              		.loc 3 257 42 view .LVU1048
 4530              	.LBE1527:
 4531              	.LBE1526:
 4532              	.LBE1525:
 268:../../../lib/pd2dsy/libdaisy/src/hid/disp/display.h ****                 {
ARM GAS  /var/folders/fb/yfxt3z4538j6z0vjt03w70vc0000gn/T//cc0qjWS6.s 			page 133


 4533              		.loc 4 268 17 is_stmt 1 view .LVU1049
 4534 0038 0136     		adds	r6, r6, #1
 4535              	.LVL358:
 268:../../../lib/pd2dsy/libdaisy/src/hid/disp/display.h ****                 {
 4536              		.loc 4 268 44 view .LVU1050
 4537 003a B442     		cmp	r4, r6
 4538 003c 19D3     		bcc	.L309
 4539              	.L310:
 4540              	.LVL359:
 4541              	.LBB1541:
 4542              	.LBI1525:
  42:../../../lib/pd2dsy/libdaisy/src/hid/disp/oled_display.h ****     {
 4543              		.loc 2 42 10 view .LVU1051
 4544              	.LBB1538:
 4545              	.LBI1526:
 252:../../../lib/pd2dsy/libdaisy/src/dev/oled_ssd130x.h ****     {
 4546              		.loc 3 252 10 view .LVU1052
 4547              	.LBB1535:
 254:../../../lib/pd2dsy/libdaisy/src/dev/oled_ssd130x.h ****             return;
 4548              		.loc 3 254 9 is_stmt 0 view .LVU1053
 4549 003e 3F2E     		cmp	r6, #63
 4550 0040 FAD8     		bhi	.L307
 254:../../../lib/pd2dsy/libdaisy/src/dev/oled_ssd130x.h ****             return;
 4551              		.loc 3 254 9 view .LVU1054
 4552 0042 002B     		cmp	r3, #0
 4553 0044 F8D1     		bne	.L307
 4554              	.LVL360:
 4555              	.LBB1528:
 4556              	.LBI1528:
 252:../../../lib/pd2dsy/libdaisy/src/dev/oled_ssd130x.h ****     {
 4557              		.loc 3 252 10 is_stmt 1 view .LVU1055
 252:../../../lib/pd2dsy/libdaisy/src/dev/oled_ssd130x.h ****     {
 4558              		.loc 3 252 10 is_stmt 0 view .LVU1056
 4559              	.LBE1528:
 257:../../../lib/pd2dsy/libdaisy/src/dev/oled_ssd130x.h ****         else
 4560              		.loc 3 257 28 view .LVU1057
 4561 0046 4FEAD60C 		lsr	ip, r6, #3
 257:../../../lib/pd2dsy/libdaisy/src/dev/oled_ssd130x.h ****         else
 4562              		.loc 3 257 54 view .LVU1058
 4563 004a 06F0070E 		and	lr, r6, #7
 257:../../../lib/pd2dsy/libdaisy/src/dev/oled_ssd130x.h ****         else
 4564              		.loc 3 257 48 view .LVU1059
 4565 004e 4FF00108 		mov	r8, #1
 257:../../../lib/pd2dsy/libdaisy/src/dev/oled_ssd130x.h ****         else
 4566              		.loc 3 257 42 view .LVU1060
 4567 0052 01EBCC1C 		add	ip, r1, ip, lsl #7
 257:../../../lib/pd2dsy/libdaisy/src/dev/oled_ssd130x.h ****         else
 4568              		.loc 3 257 48 view .LVU1061
 4569 0056 08FA0EFE 		lsl	lr, r8, lr
 257:../../../lib/pd2dsy/libdaisy/src/dev/oled_ssd130x.h ****         else
 4570              		.loc 3 257 42 view .LVU1062
 4571 005a 8444     		add	ip, ip, r0
 256:../../../lib/pd2dsy/libdaisy/src/dev/oled_ssd130x.h ****             buffer_[x + (y / 8) * width] |= (1 << (y % 8));
 4572              		.loc 3 256 9 view .LVU1063
 4573 005c 002D     		cmp	r5, #0
 4574 005e E5D1     		bne	.L393
 4575              	.LBB1532:
ARM GAS  /var/folders/fb/yfxt3z4538j6z0vjt03w70vc0000gn/T//cc0qjWS6.s 			page 134


 4576              	.LBB1529:
 259:../../../lib/pd2dsy/libdaisy/src/dev/oled_ssd130x.h ****     }
 4577              		.loc 3 259 42 view .LVU1064
 4578 0060 9CF814B0 		ldrb	fp, [ip, #20]	@ zero_extendqisi2
 4579              	.LBE1529:
 4580              	.LBE1532:
 4581              	.LBE1535:
 4582              	.LBE1538:
 4583              	.LBE1541:
 268:../../../lib/pd2dsy/libdaisy/src/hid/disp/display.h ****                 {
 4584              		.loc 4 268 17 view .LVU1065
 4585 0064 0136     		adds	r6, r6, #1
 4586              	.LVL361:
 4587              	.LBB1542:
 4588              	.LBB1539:
 4589              	.LBB1536:
 4590              	.LBB1533:
 4591              	.LBB1530:
 259:../../../lib/pd2dsy/libdaisy/src/dev/oled_ssd130x.h ****     }
 4592              		.loc 3 259 42 view .LVU1066
 4593 0066 2BEA0E0A 		bic	r10, fp, lr
 4594              	.LBE1530:
 4595              	.LBE1533:
 4596              	.LBE1536:
 4597              	.LBE1539:
 4598              	.LBE1542:
 268:../../../lib/pd2dsy/libdaisy/src/hid/disp/display.h ****                 {
 4599              		.loc 4 268 44 view .LVU1067
 4600 006a B442     		cmp	r4, r6
 4601              	.LBB1543:
 4602              	.LBB1540:
 4603              	.LBB1537:
 4604              	.LBB1534:
 4605              	.LBB1531:
 259:../../../lib/pd2dsy/libdaisy/src/dev/oled_ssd130x.h ****     }
 4606              		.loc 3 259 42 view .LVU1068
 4607 006c 8CF814A0 		strb	r10, [ip, #20]
 4608              	.LVL362:
 259:../../../lib/pd2dsy/libdaisy/src/dev/oled_ssd130x.h ****     }
 4609              		.loc 3 259 42 view .LVU1069
 4610              	.LBE1531:
 4611              	.LBE1534:
 4612              	.LBE1537:
 4613              	.LBE1540:
 4614              	.LBE1543:
 268:../../../lib/pd2dsy/libdaisy/src/hid/disp/display.h ****                 {
 4615              		.loc 4 268 17 is_stmt 1 view .LVU1070
 268:../../../lib/pd2dsy/libdaisy/src/hid/disp/display.h ****                 {
 4616              		.loc 4 268 44 view .LVU1071
 4617 0070 E5D2     		bcs	.L310
 4618              	.LVL363:
 4619              	.L309:
 268:../../../lib/pd2dsy/libdaisy/src/hid/disp/display.h ****                 {
 4620              		.loc 4 268 44 is_stmt 0 view .LVU1072
 4621              	.LBE1524:
 266:../../../lib/pd2dsy/libdaisy/src/hid/disp/display.h ****             {
 4622              		.loc 4 266 13 is_stmt 1 view .LVU1073
ARM GAS  /var/folders/fb/yfxt3z4538j6z0vjt03w70vc0000gn/T//cc0qjWS6.s 			page 135


 4623 0072 0131     		adds	r1, r1, #1
 4624              	.LVL364:
 266:../../../lib/pd2dsy/libdaisy/src/hid/disp/display.h ****             {
 4625              		.loc 4 266 40 view .LVU1074
 4626 0074 8945     		cmp	r9, r1
 4627 0076 D1D2     		bcs	.L306
 4628              	.LVL365:
 4629              	.L302:
 266:../../../lib/pd2dsy/libdaisy/src/hid/disp/display.h ****             {
 4630              		.loc 4 266 40 is_stmt 0 view .LVU1075
 4631              	.LBE1523:
 4632              	.LBE1522:
 281:../../../lib/pd2dsy/libdaisy/src/hid/disp/display.h **** 
 4633              		.loc 4 281 5 view .LVU1076
 4634 0078 07B0     		add	sp, sp, #28
 4635              		.cfi_remember_state
 4636              		.cfi_def_cfa_offset 36
 4637              		@ sp needed
 4638 007a BDE8F08F 		pop	{r4, r5, r6, r7, r8, r9, r10, fp, pc}
 4639              	.LVL366:
 4640              	.L303:
 4641              		.cfi_restore_state
 4642              	.LBB1544:
 4643              	.LBB1401:
 4644              	.LBI1401:
 221:../../../lib/pd2dsy/libdaisy/src/hid/disp/display.h ****                   uint_fast8_t y1,
 4645              		.loc 4 221 10 is_stmt 1 view .LVU1077
 4646              	.LBB1402:
 227:../../../lib/pd2dsy/libdaisy/src/hid/disp/display.h ****         int_fast16_t deltaY = abs((int_fast16_t)y2 - (int_fast16_t)y1);
 4647              		.loc 4 227 52 is_stmt 0 view .LVU1078
 4648 007e A3EB0108 		sub	r8, r3, r1
 227:../../../lib/pd2dsy/libdaisy/src/hid/disp/display.h ****         int_fast16_t deltaY = abs((int_fast16_t)y2 - (int_fast16_t)y1);
 4649              		.loc 4 227 22 view .LVU1079
 4650 0082 B8F1000F 		cmp	r8, #0
 4651 0086 B8BF     		it	lt
 4652 0088 C8F10008 		rsblt	r8, r8, #0
 4653              	.LVL367:
 229:../../../lib/pd2dsy/libdaisy/src/hid/disp/display.h ****         int_fast16_t signY  = ((y1 < y2) ? 1 : -1);
 4654              		.loc 4 229 42 view .LVU1080
 4655 008c 9942     		cmp	r1, r3
 4656 008e C0F04E81 		bcc	.L311
 4657              	.LVL368:
 4658              	.LBB1403:
 4659              	.LBI1403:
  42:../../../lib/pd2dsy/libdaisy/src/hid/disp/oled_display.h ****     {
 4660              		.loc 2 42 10 is_stmt 1 view .LVU1081
 4661              	.LBB1404:
 4662              	.LBI1404:
 252:../../../lib/pd2dsy/libdaisy/src/dev/oled_ssd130x.h ****     {
 4663              		.loc 3 252 10 view .LVU1082
 4664              	.LBB1405:
 254:../../../lib/pd2dsy/libdaisy/src/dev/oled_ssd130x.h ****             return;
 4665              		.loc 3 254 14 is_stmt 0 view .LVU1083
 4666 0092 7F2B     		cmp	r3, #127
 4667              	.LBE1405:
 4668              	.LBE1404:
 4669              	.LBE1403:
ARM GAS  /var/folders/fb/yfxt3z4538j6z0vjt03w70vc0000gn/T//cc0qjWS6.s 			page 136


 229:../../../lib/pd2dsy/libdaisy/src/hid/disp/display.h ****         int_fast16_t signY  = ((y1 < y2) ? 1 : -1);
 4670              		.loc 4 229 42 view .LVU1084
 4671 0094 4FF0FF3A 		mov	r10, #-1
 4672              	.LBB1416:
 4673              	.LBB1412:
 4674              	.LBB1408:
 254:../../../lib/pd2dsy/libdaisy/src/dev/oled_ssd130x.h ****             return;
 4675              		.loc 3 254 14 view .LVU1085
 4676 0098 94BF     		ite	ls
 4677 009a 0026     		movls	r6, #0
 4678 009c 0126     		movhi	r6, #1
 254:../../../lib/pd2dsy/libdaisy/src/dev/oled_ssd130x.h ****             return;
 4679              		.loc 3 254 28 view .LVU1086
 4680 009e 3F2A     		cmp	r2, #63
 254:../../../lib/pd2dsy/libdaisy/src/dev/oled_ssd130x.h ****             return;
 4681              		.loc 3 254 14 view .LVU1087
 4682 00a0 0096     		str	r6, [sp]
 254:../../../lib/pd2dsy/libdaisy/src/dev/oled_ssd130x.h ****             return;
 4683              		.loc 3 254 28 view .LVU1088
 4684 00a2 94BF     		ite	ls
 4685 00a4 0027     		movls	r7, #0
 4686 00a6 0127     		movhi	r7, #1
 4687 00a8 0297     		str	r7, [sp, #8]
 254:../../../lib/pd2dsy/libdaisy/src/dev/oled_ssd130x.h ****             return;
 4688              		.loc 3 254 9 view .LVU1089
 4689 00aa A6B9     		cbnz	r6, .L312
 4690 00ac 9FB9     		cbnz	r7, .L312
 4691              	.LVL369:
 4692              	.L353:
 257:../../../lib/pd2dsy/libdaisy/src/dev/oled_ssd130x.h ****         else
 4693              		.loc 3 257 28 view .LVU1090
 4694 00ae D608     		lsrs	r6, r2, #3
 257:../../../lib/pd2dsy/libdaisy/src/dev/oled_ssd130x.h ****         else
 4695              		.loc 3 257 54 view .LVU1091
 4696 00b0 02F0070C 		and	ip, r2, #7
 257:../../../lib/pd2dsy/libdaisy/src/dev/oled_ssd130x.h ****         else
 4697              		.loc 3 257 48 view .LVU1092
 4698 00b4 0127     		movs	r7, #1
 257:../../../lib/pd2dsy/libdaisy/src/dev/oled_ssd130x.h ****         else
 4699              		.loc 3 257 42 view .LVU1093
 4700 00b6 03EBC616 		add	r6, r3, r6, lsl #7
 4701 00ba 0644     		add	r6, r6, r0
 256:../../../lib/pd2dsy/libdaisy/src/dev/oled_ssd130x.h ****             buffer_[x + (y / 8) * width] |= (1 << (y % 8));
 4702              		.loc 3 256 9 view .LVU1094
 4703 00bc 002D     		cmp	r5, #0
 4704 00be 00F09481 		beq	.L313
 257:../../../lib/pd2dsy/libdaisy/src/dev/oled_ssd130x.h ****         else
 4705              		.loc 3 257 48 view .LVU1095
 4706 00c2 07FA0CF7 		lsl	r7, r7, ip
 257:../../../lib/pd2dsy/libdaisy/src/dev/oled_ssd130x.h ****         else
 4707              		.loc 3 257 42 view .LVU1096
 4708 00c6 96F814C0 		ldrb	ip, [r6, #20]	@ zero_extendqisi2
 4709 00ca 47EA0C07 		orr	r7, r7, ip
 4710 00ce 3775     		strb	r7, [r6, #20]
 4711 00d0 0026     		movs	r6, #0
 4712 00d2 0296     		str	r6, [sp, #8]
 4713 00d4 0096     		str	r6, [sp]
ARM GAS  /var/folders/fb/yfxt3z4538j6z0vjt03w70vc0000gn/T//cc0qjWS6.s 			page 137


 4714              	.L312:
 4715              	.LVL370:
 257:../../../lib/pd2dsy/libdaisy/src/dev/oled_ssd130x.h ****         else
 4716              		.loc 3 257 42 view .LVU1097
 4717              	.LBE1408:
 4718              	.LBE1412:
 4719              	.LBE1416:
 239:../../../lib/pd2dsy/libdaisy/src/hid/disp/display.h ****         {
 4720              		.loc 4 239 26 is_stmt 1 view .LVU1098
 4721 00d6 9942     		cmp	r1, r3
 4722 00d8 00F09781 		beq	.L394
 4723              	.L315:
 4724              	.LVL371:
 227:../../../lib/pd2dsy/libdaisy/src/hid/disp/display.h ****         int_fast16_t deltaY = abs((int_fast16_t)y2 - (int_fast16_t)y1);
 4725              		.loc 4 227 22 is_stmt 0 view .LVU1099
 4726 00dc 4646     		mov	r6, r8
 4727 00de 9446     		mov	ip, r2
 4728 00e0 8E46     		mov	lr, r1
 4729              	.LVL372:
 4730              	.L317:
 4731              	.LBB1417:
 4732              	.LBI1417:
  42:../../../lib/pd2dsy/libdaisy/src/hid/disp/oled_display.h ****     {
 4733              		.loc 2 42 10 is_stmt 1 view .LVU1100
 4734              	.LBB1418:
 4735              	.LBI1418:
 252:../../../lib/pd2dsy/libdaisy/src/dev/oled_ssd130x.h ****     {
 4736              		.loc 3 252 10 view .LVU1101
 4737              	.LBB1419:
 254:../../../lib/pd2dsy/libdaisy/src/dev/oled_ssd130x.h ****             return;
 4738              		.loc 3 254 9 is_stmt 0 view .LVU1102
 4739 00e2 BEF17F0F 		cmp	lr, #127
 4740 00e6 16D8     		bhi	.L318
 4741 00e8 BCF13F0F 		cmp	ip, #63
 4742 00ec 13D8     		bhi	.L318
 257:../../../lib/pd2dsy/libdaisy/src/dev/oled_ssd130x.h ****         else
 4743              		.loc 3 257 28 view .LVU1103
 4744 00ee 4FEADC07 		lsr	r7, ip, #3
 257:../../../lib/pd2dsy/libdaisy/src/dev/oled_ssd130x.h ****         else
 4745              		.loc 3 257 54 view .LVU1104
 4746 00f2 0CF0070B 		and	fp, ip, #7
 257:../../../lib/pd2dsy/libdaisy/src/dev/oled_ssd130x.h ****         else
 4747              		.loc 3 257 48 view .LVU1105
 4748 00f6 4FF00109 		mov	r9, #1
 257:../../../lib/pd2dsy/libdaisy/src/dev/oled_ssd130x.h ****         else
 4749              		.loc 3 257 42 view .LVU1106
 4750 00fa 0EEBC717 		add	r7, lr, r7, lsl #7
 4751 00fe 0744     		add	r7, r7, r0
 256:../../../lib/pd2dsy/libdaisy/src/dev/oled_ssd130x.h ****             buffer_[x + (y / 8) * width] |= (1 << (y % 8));
 4752              		.loc 3 256 9 view .LVU1107
 4753 0100 002D     		cmp	r5, #0
 4754 0102 00F03981 		beq	.L319
 257:../../../lib/pd2dsy/libdaisy/src/dev/oled_ssd130x.h ****         else
 4755              		.loc 3 257 48 view .LVU1108
 4756 0106 09FA0BF9 		lsl	r9, r9, fp
 257:../../../lib/pd2dsy/libdaisy/src/dev/oled_ssd130x.h ****         else
 4757              		.loc 3 257 42 view .LVU1109
ARM GAS  /var/folders/fb/yfxt3z4538j6z0vjt03w70vc0000gn/T//cc0qjWS6.s 			page 138


 4758 010a 97F814B0 		ldrb	fp, [r7, #20]	@ zero_extendqisi2
 4759 010e 49EA0B09 		orr	r9, r9, fp
 4760 0112 87F81490 		strb	r9, [r7, #20]
 4761              	.L318:
 4762              	.LVL373:
 257:../../../lib/pd2dsy/libdaisy/src/dev/oled_ssd130x.h ****         else
 4763              		.loc 3 257 42 view .LVU1110
 4764              	.LBE1419:
 4765              	.LBE1418:
 4766              	.LBE1417:
 243:../../../lib/pd2dsy/libdaisy/src/hid/disp/display.h ****             {
 4767              		.loc 4 243 13 view .LVU1111
 4768 0116 7700     		lsls	r7, r6, #1
 4769              	.LVL374:
 246:../../../lib/pd2dsy/libdaisy/src/hid/disp/display.h ****             }
 4770              		.loc 4 246 20 view .LVU1112
 4771 0118 18BF     		it	ne
 4772 011a D644     		addne	lr, lr, r10
 4773              	.LVL375:
 249:../../../lib/pd2dsy/libdaisy/src/hid/disp/display.h ****             {
 4774              		.loc 4 249 13 view .LVU1113
 4775 011c B845     		cmp	r8, r7
 4776 011e 02DD     		ble	.L321
 251:../../../lib/pd2dsy/libdaisy/src/hid/disp/display.h ****                 y1 += signY;
 4777              		.loc 4 251 23 view .LVU1114
 4778 0120 4644     		add	r6, r6, r8
 4779              	.LVL376:
 252:../../../lib/pd2dsy/libdaisy/src/hid/disp/display.h ****             }
 4780              		.loc 4 252 20 view .LVU1115
 4781 0122 0CF1FF3C 		add	ip, ip, #-1
 4782              	.LVL377:
 4783              	.L321:
 239:../../../lib/pd2dsy/libdaisy/src/hid/disp/display.h ****         {
 4784              		.loc 4 239 26 is_stmt 1 view .LVU1116
 4785 0126 7345     		cmp	r3, lr
 4786 0128 DBD1     		bne	.L317
 239:../../../lib/pd2dsy/libdaisy/src/hid/disp/display.h ****         {
 4787              		.loc 4 239 26 is_stmt 0 view .LVU1117
 4788 012a 6245     		cmp	r2, ip
 4789 012c D9D1     		bne	.L317
 4790 012e 0026     		movs	r6, #0
 4791              	.LVL378:
 239:../../../lib/pd2dsy/libdaisy/src/hid/disp/display.h ****         {
 4792              		.loc 4 239 26 view .LVU1118
 4793 0130 0496     		str	r6, [sp, #16]
 4794              	.LVL379:
 4795              	.L314:
 239:../../../lib/pd2dsy/libdaisy/src/hid/disp/display.h ****         {
 4796              		.loc 4 239 26 view .LVU1119
 4797              	.LBE1402:
 4798              	.LBE1401:
 4799              	.LBB1432:
 4800              	.LBI1432:
 221:../../../lib/pd2dsy/libdaisy/src/hid/disp/display.h ****                   uint_fast8_t y1,
 4801              		.loc 4 221 10 is_stmt 1 view .LVU1120
 4802              	.LBB1433:
 228:../../../lib/pd2dsy/libdaisy/src/hid/disp/display.h ****         int_fast16_t signX  = ((x1 < x2) ? 1 : -1);
ARM GAS  /var/folders/fb/yfxt3z4538j6z0vjt03w70vc0000gn/T//cc0qjWS6.s 			page 139


 4803              		.loc 4 228 52 is_stmt 0 view .LVU1121
 4804 0132 A4EB0209 		sub	r9, r4, r2
 4805              	.LBB1434:
 4806              	.LBB1435:
 4807              	.LBB1436:
 254:../../../lib/pd2dsy/libdaisy/src/dev/oled_ssd130x.h ****             return;
 4808              		.loc 3 254 9 view .LVU1122
 4809 0136 009F     		ldr	r7, [sp]
 4810              	.LBE1436:
 4811              	.LBE1435:
 4812              	.LBE1434:
 228:../../../lib/pd2dsy/libdaisy/src/hid/disp/display.h ****         int_fast16_t signX  = ((x1 < x2) ? 1 : -1);
 4813              		.loc 4 228 22 view .LVU1123
 4814 0138 B9F1000F 		cmp	r9, #0
 4815 013c B8BF     		it	lt
 4816 013e C9F10009 		rsblt	r9, r9, #0
 4817              	.LVL380:
 4818              	.LBB1451:
 4819              	.LBB1445:
 4820              	.LBB1439:
 254:../../../lib/pd2dsy/libdaisy/src/dev/oled_ssd130x.h ****             return;
 4821              		.loc 3 254 28 view .LVU1124
 4822 0142 3F2C     		cmp	r4, #63
 4823 0144 94BF     		ite	ls
 4824 0146 0026     		movls	r6, #0
 4825 0148 0126     		movhi	r6, #1
 4826              	.LBE1439:
 4827              	.LBE1445:
 4828              	.LBE1451:
 230:../../../lib/pd2dsy/libdaisy/src/hid/disp/display.h ****         int_fast16_t error  = deltaX - deltaY;
 4829              		.loc 4 230 42 view .LVU1125
 4830 014a A242     		cmp	r2, r4
 231:../../../lib/pd2dsy/libdaisy/src/hid/disp/display.h ****         int_fast16_t error2;
 4831              		.loc 4 231 22 view .LVU1126
 4832 014c C9F10008 		rsb	r8, r9, #0
 4833              	.LVL381:
 4834              	.LBB1452:
 4835              	.LBI1434:
  42:../../../lib/pd2dsy/libdaisy/src/hid/disp/oled_display.h ****     {
 4836              		.loc 2 42 10 is_stmt 1 view .LVU1127
 4837              	.LBB1446:
 4838              	.LBI1435:
 252:../../../lib/pd2dsy/libdaisy/src/dev/oled_ssd130x.h ****     {
 4839              		.loc 3 252 10 view .LVU1128
 4840              	.LBB1440:
 254:../../../lib/pd2dsy/libdaisy/src/dev/oled_ssd130x.h ****             return;
 4841              		.loc 3 254 28 is_stmt 0 view .LVU1129
 4842 0150 0396     		str	r6, [sp, #12]
 4843              	.LBE1440:
 4844              	.LBE1446:
 4845              	.LBE1452:
 230:../../../lib/pd2dsy/libdaisy/src/hid/disp/display.h ****         int_fast16_t error  = deltaX - deltaY;
 4846              		.loc 4 230 42 view .LVU1130
 4847 0152 C0F02381 		bcc	.L322
 4848              	.LVL382:
 4849              	.LBB1453:
 4850              	.LBB1447:
ARM GAS  /var/folders/fb/yfxt3z4538j6z0vjt03w70vc0000gn/T//cc0qjWS6.s 			page 140


 4851              	.LBB1441:
 254:../../../lib/pd2dsy/libdaisy/src/dev/oled_ssd130x.h ****             return;
 4852              		.loc 3 254 9 view .LVU1131
 4853 0156 002F     		cmp	r7, #0
 4854 0158 40F05081 		bne	.L357
 4855 015c 002E     		cmp	r6, #0
 4856 015e 40F04D81 		bne	.L357
 4857              	.LBE1441:
 4858              	.LBE1447:
 4859              	.LBE1453:
 230:../../../lib/pd2dsy/libdaisy/src/hid/disp/display.h ****         int_fast16_t error  = deltaX - deltaY;
 4860              		.loc 4 230 42 view .LVU1132
 4861 0162 4FF0FF36 		mov	r6, #-1
 4862 0166 0096     		str	r6, [sp]
 4863              	.LBB1454:
 4864              	.LBB1448:
 4865              	.LBB1442:
 257:../../../lib/pd2dsy/libdaisy/src/dev/oled_ssd130x.h ****         else
 4866              		.loc 3 257 28 view .LVU1133
 4867 0168 E608     		lsrs	r6, r4, #3
 257:../../../lib/pd2dsy/libdaisy/src/dev/oled_ssd130x.h ****         else
 4868              		.loc 3 257 42 view .LVU1134
 4869 016a 03EBC616 		add	r6, r3, r6, lsl #7
 4870 016e 0644     		add	r6, r6, r0
 256:../../../lib/pd2dsy/libdaisy/src/dev/oled_ssd130x.h ****             buffer_[x + (y / 8) * width] |= (1 << (y % 8));
 4871              		.loc 3 256 9 view .LVU1135
 4872 0170 002D     		cmp	r5, #0
 4873 0172 00F01E81 		beq	.L324
 4874              	.LVL383:
 4875              	.L396:
 257:../../../lib/pd2dsy/libdaisy/src/dev/oled_ssd130x.h ****         else
 4876              		.loc 3 257 48 view .LVU1136
 4877 0176 4FF0010C 		mov	ip, #1
 257:../../../lib/pd2dsy/libdaisy/src/dev/oled_ssd130x.h ****         else
 4878              		.loc 3 257 54 view .LVU1137
 4879 017a 04F00707 		and	r7, r4, #7
 257:../../../lib/pd2dsy/libdaisy/src/dev/oled_ssd130x.h ****         else
 4880              		.loc 3 257 48 view .LVU1138
 4881 017e 0CFA07F7 		lsl	r7, ip, r7
 257:../../../lib/pd2dsy/libdaisy/src/dev/oled_ssd130x.h ****         else
 4882              		.loc 3 257 42 view .LVU1139
 4883 0182 96F814C0 		ldrb	ip, [r6, #20]	@ zero_extendqisi2
 4884 0186 47EA0C07 		orr	r7, r7, ip
 4885 018a 3775     		strb	r7, [r6, #20]
 4886 018c 0026     		movs	r6, #0
 4887 018e 0396     		str	r6, [sp, #12]
 4888              	.L323:
 4889              	.LVL384:
 257:../../../lib/pd2dsy/libdaisy/src/dev/oled_ssd130x.h ****         else
 4890              		.loc 3 257 42 view .LVU1140
 4891              	.LBE1442:
 4892              	.LBE1448:
 4893              	.LBE1454:
 239:../../../lib/pd2dsy/libdaisy/src/hid/disp/display.h ****         {
 4894              		.loc 4 239 26 is_stmt 1 view .LVU1141
 4895 0190 A242     		cmp	r2, r4
 4896 0192 00F03D81 		beq	.L395
ARM GAS  /var/folders/fb/yfxt3z4538j6z0vjt03w70vc0000gn/T//cc0qjWS6.s 			page 141


 4897              	.L326:
 4898              	.LVL385:
 230:../../../lib/pd2dsy/libdaisy/src/hid/disp/display.h ****         int_fast16_t error  = deltaX - deltaY;
 4899              		.loc 4 230 42 is_stmt 0 view .LVU1142
 4900 0196 C446     		mov	ip, r8
 4901 0198 1646     		mov	r6, r2
 4902 019a 1F46     		mov	r7, r3
 4903 019c 0592     		str	r2, [sp, #20]
 4904              	.LVL386:
 4905              	.L328:
 4906              	.LBB1455:
 4907              	.LBI1455:
  42:../../../lib/pd2dsy/libdaisy/src/hid/disp/oled_display.h ****     {
 4908              		.loc 2 42 10 is_stmt 1 view .LVU1143
 4909              	.LBB1456:
 4910              	.LBI1456:
 252:../../../lib/pd2dsy/libdaisy/src/dev/oled_ssd130x.h ****     {
 4911              		.loc 3 252 10 view .LVU1144
 4912              	.LBB1457:
 254:../../../lib/pd2dsy/libdaisy/src/dev/oled_ssd130x.h ****             return;
 4913              		.loc 3 254 9 is_stmt 0 view .LVU1145
 4914 019e 7F2F     		cmp	r7, #127
 4915 01a0 15D8     		bhi	.L329
 4916 01a2 3F2E     		cmp	r6, #63
 4917 01a4 13D8     		bhi	.L329
 257:../../../lib/pd2dsy/libdaisy/src/dev/oled_ssd130x.h ****         else
 4918              		.loc 3 257 28 view .LVU1146
 4919 01a6 4FEAD60E 		lsr	lr, r6, #3
 257:../../../lib/pd2dsy/libdaisy/src/dev/oled_ssd130x.h ****         else
 4920              		.loc 3 257 54 view .LVU1147
 4921 01aa 06F0070B 		and	fp, r6, #7
 257:../../../lib/pd2dsy/libdaisy/src/dev/oled_ssd130x.h ****         else
 4922              		.loc 3 257 48 view .LVU1148
 4923 01ae 4FF0010A 		mov	r10, #1
 257:../../../lib/pd2dsy/libdaisy/src/dev/oled_ssd130x.h ****         else
 4924              		.loc 3 257 42 view .LVU1149
 4925 01b2 07EBCE1E 		add	lr, r7, lr, lsl #7
 4926 01b6 8644     		add	lr, lr, r0
 256:../../../lib/pd2dsy/libdaisy/src/dev/oled_ssd130x.h ****             buffer_[x + (y / 8) * width] |= (1 << (y % 8));
 4927              		.loc 3 256 9 view .LVU1150
 4928 01b8 002D     		cmp	r5, #0
 4929 01ba 00F0E680 		beq	.L330
 257:../../../lib/pd2dsy/libdaisy/src/dev/oled_ssd130x.h ****         else
 4930              		.loc 3 257 48 view .LVU1151
 4931 01be 0AFA0BFA 		lsl	r10, r10, fp
 257:../../../lib/pd2dsy/libdaisy/src/dev/oled_ssd130x.h ****         else
 4932              		.loc 3 257 42 view .LVU1152
 4933 01c2 9EF814B0 		ldrb	fp, [lr, #20]	@ zero_extendqisi2
 4934 01c6 4AEA0B0A 		orr	r10, r10, fp
 4935 01ca 8EF814A0 		strb	r10, [lr, #20]
 4936              	.L329:
 4937              	.LVL387:
 257:../../../lib/pd2dsy/libdaisy/src/dev/oled_ssd130x.h ****         else
 4938              		.loc 3 257 42 view .LVU1153
 4939              	.LBE1457:
 4940              	.LBE1456:
 4941              	.LBE1455:
ARM GAS  /var/folders/fb/yfxt3z4538j6z0vjt03w70vc0000gn/T//cc0qjWS6.s 			page 142


 243:../../../lib/pd2dsy/libdaisy/src/hid/disp/display.h ****             {
 4942              		.loc 4 243 13 view .LVU1154
 4943 01ce B8EB4C0F 		cmp	r8, ip, lsl #1
 242:../../../lib/pd2dsy/libdaisy/src/hid/disp/display.h ****             if(error2 > -deltaY)
 4944              		.loc 4 242 20 view .LVU1155
 4945 01d2 4FEA4C0E 		lsl	lr, ip, #1
 4946              	.LVL388:
 243:../../../lib/pd2dsy/libdaisy/src/hid/disp/display.h ****             {
 4947              		.loc 4 243 13 view .LVU1156
 4948 01d6 02DA     		bge	.L331
 245:../../../lib/pd2dsy/libdaisy/src/hid/disp/display.h ****                 x1 += signX;
 4949              		.loc 4 245 23 view .LVU1157
 4950 01d8 ACEB090C 		sub	ip, ip, r9
 4951              	.LVL389:
 246:../../../lib/pd2dsy/libdaisy/src/hid/disp/display.h ****             }
 4952              		.loc 4 246 20 view .LVU1158
 4953 01dc 013F     		subs	r7, r7, #1
 4954              	.LVL390:
 4955              	.L331:
 249:../../../lib/pd2dsy/libdaisy/src/hid/disp/display.h ****             {
 4956              		.loc 4 249 13 view .LVU1159
 4957 01de BEF1000F 		cmp	lr, #0
 4958 01e2 01D0     		beq	.L332
 252:../../../lib/pd2dsy/libdaisy/src/hid/disp/display.h ****             }
 4959              		.loc 4 252 20 view .LVU1160
 4960 01e4 009A     		ldr	r2, [sp]
 4961 01e6 1644     		add	r6, r6, r2
 4962              	.LVL391:
 4963              	.L332:
 239:../../../lib/pd2dsy/libdaisy/src/hid/disp/display.h ****         {
 4964              		.loc 4 239 26 is_stmt 1 view .LVU1161
 4965 01e8 BB42     		cmp	r3, r7
 4966 01ea D8D1     		bne	.L328
 239:../../../lib/pd2dsy/libdaisy/src/hid/disp/display.h ****         {
 4967              		.loc 4 239 26 is_stmt 0 view .LVU1162
 4968 01ec B442     		cmp	r4, r6
 4969 01ee D6D1     		bne	.L328
 4970 01f0 059A     		ldr	r2, [sp, #20]
 4971              	.LVL392:
 4972              	.L325:
 239:../../../lib/pd2dsy/libdaisy/src/hid/disp/display.h ****         {
 4973              		.loc 4 239 26 view .LVU1163
 4974              	.LBE1433:
 4975              	.LBE1432:
 4976              	.LBB1468:
 4977              	.LBI1468:
 221:../../../lib/pd2dsy/libdaisy/src/hid/disp/display.h ****                   uint_fast8_t y1,
 4978              		.loc 4 221 10 is_stmt 1 view .LVU1164
 4979              	.LBB1469:
 227:../../../lib/pd2dsy/libdaisy/src/hid/disp/display.h ****         int_fast16_t deltaY = abs((int_fast16_t)y2 - (int_fast16_t)y1);
 4980              		.loc 4 227 52 is_stmt 0 view .LVU1165
 4981 01f2 A1EB030E 		sub	lr, r1, r3
 227:../../../lib/pd2dsy/libdaisy/src/hid/disp/display.h ****         int_fast16_t deltaY = abs((int_fast16_t)y2 - (int_fast16_t)y1);
 4982              		.loc 4 227 22 view .LVU1166
 4983 01f6 BEF1000F 		cmp	lr, #0
 4984 01fa B8BF     		it	lt
 4985 01fc CEF1000E 		rsblt	lr, lr, #0
ARM GAS  /var/folders/fb/yfxt3z4538j6z0vjt03w70vc0000gn/T//cc0qjWS6.s 			page 143


 4986              	.LVL393:
 4987              	.LBB1470:
 4988              	.LBB1471:
 4989              	.LBB1472:
 254:../../../lib/pd2dsy/libdaisy/src/dev/oled_ssd130x.h ****             return;
 4990              		.loc 3 254 14 view .LVU1167
 4991 0200 7F29     		cmp	r1, #127
 4992 0202 94BF     		ite	ls
 4993 0204 4FF0000A 		movls	r10, #0
 4994 0208 4FF0010A 		movhi	r10, #1
 4995              	.LBE1472:
 4996              	.LBE1471:
 4997              	.LBE1470:
 229:../../../lib/pd2dsy/libdaisy/src/hid/disp/display.h ****         int_fast16_t signY  = ((y1 < y2) ? 1 : -1);
 4998              		.loc 4 229 42 view .LVU1168
 4999 020c 9942     		cmp	r1, r3
 5000 020e 8CBF     		ite	hi
 5001 0210 4FF00109 		movhi	r9, #1
 5002 0214 4FF0FF39 		movls	r9, #-1
 5003              	.LVL394:
 5004              	.LBB1479:
 5005              	.LBI1470:
  42:../../../lib/pd2dsy/libdaisy/src/hid/disp/oled_display.h ****     {
 5006              		.loc 2 42 10 is_stmt 1 view .LVU1169
 5007              	.LBB1477:
 5008              	.LBI1471:
 252:../../../lib/pd2dsy/libdaisy/src/dev/oled_ssd130x.h ****     {
 5009              		.loc 3 252 10 view .LVU1170
 5010              	.LBB1475:
 254:../../../lib/pd2dsy/libdaisy/src/dev/oled_ssd130x.h ****             return;
 5011              		.loc 3 254 9 is_stmt 0 view .LVU1171
 5012 0218 BAF1000F 		cmp	r10, #0
 5013 021c 13D1     		bne	.L334
 5014 021e 039E     		ldr	r6, [sp, #12]
 5015 0220 8EB9     		cbnz	r6, .L334
 257:../../../lib/pd2dsy/libdaisy/src/dev/oled_ssd130x.h ****         else
 5016              		.loc 3 257 28 view .LVU1172
 5017 0222 E608     		lsrs	r6, r4, #3
 257:../../../lib/pd2dsy/libdaisy/src/dev/oled_ssd130x.h ****         else
 5018              		.loc 3 257 42 view .LVU1173
 5019 0224 01EBC616 		add	r6, r1, r6, lsl #7
 5020 0228 0644     		add	r6, r6, r0
 256:../../../lib/pd2dsy/libdaisy/src/dev/oled_ssd130x.h ****             buffer_[x + (y / 8) * width] |= (1 << (y % 8));
 5021              		.loc 3 256 9 view .LVU1174
 5022 022a 002D     		cmp	r5, #0
 5023 022c 00F0D380 		beq	.L335
 257:../../../lib/pd2dsy/libdaisy/src/dev/oled_ssd130x.h ****         else
 5024              		.loc 3 257 48 view .LVU1175
 5025 0230 4FF0010C 		mov	ip, #1
 257:../../../lib/pd2dsy/libdaisy/src/dev/oled_ssd130x.h ****         else
 5026              		.loc 3 257 54 view .LVU1176
 5027 0234 04F00707 		and	r7, r4, #7
 257:../../../lib/pd2dsy/libdaisy/src/dev/oled_ssd130x.h ****         else
 5028              		.loc 3 257 48 view .LVU1177
 5029 0238 0CFA07F7 		lsl	r7, ip, r7
 257:../../../lib/pd2dsy/libdaisy/src/dev/oled_ssd130x.h ****         else
 5030              		.loc 3 257 42 view .LVU1178
ARM GAS  /var/folders/fb/yfxt3z4538j6z0vjt03w70vc0000gn/T//cc0qjWS6.s 			page 144


 5031 023c 96F814C0 		ldrb	ip, [r6, #20]	@ zero_extendqisi2
 5032 0240 47EA0C07 		orr	r7, r7, ip
 5033 0244 3775     		strb	r7, [r6, #20]
 5034              	.L334:
 5035              	.LVL395:
 257:../../../lib/pd2dsy/libdaisy/src/dev/oled_ssd130x.h ****         else
 5036              		.loc 3 257 42 view .LVU1179
 5037              	.LBE1475:
 5038              	.LBE1477:
 5039              	.LBE1479:
 239:../../../lib/pd2dsy/libdaisy/src/hid/disp/display.h ****         {
 5040              		.loc 4 239 26 is_stmt 1 view .LVU1180
 5041 0246 049E     		ldr	r6, [sp, #16]
 5042 0248 26BB     		cbnz	r6, .L336
 227:../../../lib/pd2dsy/libdaisy/src/hid/disp/display.h ****         int_fast16_t deltaY = abs((int_fast16_t)y2 - (int_fast16_t)y1);
 5043              		.loc 4 227 22 is_stmt 0 view .LVU1181
 5044 024a 7746     		mov	r7, lr
 239:../../../lib/pd2dsy/libdaisy/src/hid/disp/display.h ****         {
 5045              		.loc 4 239 26 view .LVU1182
 5046 024c 2646     		mov	r6, r4
 5047              	.LVL396:
 5048              	.L337:
 5049              	.LBB1480:
 5050              	.LBI1480:
  42:../../../lib/pd2dsy/libdaisy/src/hid/disp/oled_display.h ****     {
 5051              		.loc 2 42 10 is_stmt 1 view .LVU1183
 5052              	.LBB1481:
 5053              	.LBI1481:
 252:../../../lib/pd2dsy/libdaisy/src/dev/oled_ssd130x.h ****     {
 5054              		.loc 3 252 10 view .LVU1184
 5055              	.LBB1482:
 254:../../../lib/pd2dsy/libdaisy/src/dev/oled_ssd130x.h ****             return;
 5056              		.loc 3 254 9 is_stmt 0 view .LVU1185
 5057 024e 7F2B     		cmp	r3, #127
 5058 0250 14D8     		bhi	.L339
 254:../../../lib/pd2dsy/libdaisy/src/dev/oled_ssd130x.h ****             return;
 5059              		.loc 3 254 9 view .LVU1186
 5060 0252 3F2E     		cmp	r6, #63
 5061 0254 12D8     		bhi	.L339
 257:../../../lib/pd2dsy/libdaisy/src/dev/oled_ssd130x.h ****         else
 5062              		.loc 3 257 28 view .LVU1187
 5063 0256 4FEAD60C 		lsr	ip, r6, #3
 257:../../../lib/pd2dsy/libdaisy/src/dev/oled_ssd130x.h ****         else
 5064              		.loc 3 257 54 view .LVU1188
 5065 025a 06F0070B 		and	fp, r6, #7
 257:../../../lib/pd2dsy/libdaisy/src/dev/oled_ssd130x.h ****         else
 5066              		.loc 3 257 48 view .LVU1189
 5067 025e 4FF00108 		mov	r8, #1
 257:../../../lib/pd2dsy/libdaisy/src/dev/oled_ssd130x.h ****         else
 5068              		.loc 3 257 42 view .LVU1190
 5069 0262 03EBCC1C 		add	ip, r3, ip, lsl #7
 5070 0266 8444     		add	ip, ip, r0
 256:../../../lib/pd2dsy/libdaisy/src/dev/oled_ssd130x.h ****             buffer_[x + (y / 8) * width] |= (1 << (y % 8));
 5071              		.loc 3 256 9 view .LVU1191
 5072 0268 002D     		cmp	r5, #0
 5073 026a 73D0     		beq	.L340
 257:../../../lib/pd2dsy/libdaisy/src/dev/oled_ssd130x.h ****         else
ARM GAS  /var/folders/fb/yfxt3z4538j6z0vjt03w70vc0000gn/T//cc0qjWS6.s 			page 145


 5074              		.loc 3 257 48 view .LVU1192
 5075 026c 08FA0BF8 		lsl	r8, r8, fp
 257:../../../lib/pd2dsy/libdaisy/src/dev/oled_ssd130x.h ****         else
 5076              		.loc 3 257 42 view .LVU1193
 5077 0270 9CF814B0 		ldrb	fp, [ip, #20]	@ zero_extendqisi2
 5078 0274 48EA0B08 		orr	r8, r8, fp
 5079 0278 8CF81480 		strb	r8, [ip, #20]
 5080              	.L339:
 5081              	.LVL397:
 257:../../../lib/pd2dsy/libdaisy/src/dev/oled_ssd130x.h ****         else
 5082              		.loc 3 257 42 view .LVU1194
 5083              	.LBE1482:
 5084              	.LBE1481:
 5085              	.LBE1480:
 243:../../../lib/pd2dsy/libdaisy/src/hid/disp/display.h ****             {
 5086              		.loc 4 243 13 view .LVU1195
 5087 027c 5FEA470C 		lsls	ip, r7, #1
 5088              	.LVL398:
 246:../../../lib/pd2dsy/libdaisy/src/hid/disp/display.h ****             }
 5089              		.loc 4 246 20 view .LVU1196
 5090 0280 18BF     		it	ne
 5091 0282 4B44     		addne	r3, r3, r9
 5092              	.LVL399:
 249:../../../lib/pd2dsy/libdaisy/src/hid/disp/display.h ****             {
 5093              		.loc 4 249 13 view .LVU1197
 5094 0284 E645     		cmp	lr, ip
 5095 0286 01DD     		ble	.L342
 251:../../../lib/pd2dsy/libdaisy/src/hid/disp/display.h ****                 y1 += signY;
 5096              		.loc 4 251 23 view .LVU1198
 5097 0288 7744     		add	r7, r7, lr
 5098              	.LVL400:
 252:../../../lib/pd2dsy/libdaisy/src/hid/disp/display.h ****             }
 5099              		.loc 4 252 20 view .LVU1199
 5100 028a 013E     		subs	r6, r6, #1
 5101              	.LVL401:
 5102              	.L342:
 239:../../../lib/pd2dsy/libdaisy/src/hid/disp/display.h ****         {
 5103              		.loc 4 239 26 is_stmt 1 view .LVU1200
 5104 028c 9942     		cmp	r1, r3
 5105 028e DED1     		bne	.L337
 239:../../../lib/pd2dsy/libdaisy/src/hid/disp/display.h ****         {
 5106              		.loc 4 239 26 is_stmt 0 view .LVU1201
 5107 0290 B442     		cmp	r4, r6
 5108 0292 DCD1     		bne	.L337
 5109              	.LVL402:
 5110              	.L336:
 239:../../../lib/pd2dsy/libdaisy/src/hid/disp/display.h ****         {
 5111              		.loc 4 239 26 view .LVU1202
 5112              	.LBE1469:
 5113              	.LBE1468:
 5114              	.LBB1491:
 5115              	.LBI1491:
 221:../../../lib/pd2dsy/libdaisy/src/hid/disp/display.h ****                   uint_fast8_t y1,
 5116              		.loc 4 221 10 is_stmt 1 view .LVU1203
 5117              	.LBB1492:
 228:../../../lib/pd2dsy/libdaisy/src/hid/disp/display.h ****         int_fast16_t signX  = ((x1 < x2) ? 1 : -1);
 5118              		.loc 4 228 52 is_stmt 0 view .LVU1204
ARM GAS  /var/folders/fb/yfxt3z4538j6z0vjt03w70vc0000gn/T//cc0qjWS6.s 			page 146


 5119 0294 A2EB040E 		sub	lr, r2, r4
 228:../../../lib/pd2dsy/libdaisy/src/hid/disp/display.h ****         int_fast16_t signX  = ((x1 < x2) ? 1 : -1);
 5120              		.loc 4 228 22 view .LVU1205
 5121 0298 BEF1000F 		cmp	lr, #0
 5122 029c B8BF     		it	lt
 5123 029e CEF1000E 		rsblt	lr, lr, #0
 5124              	.LVL403:
 230:../../../lib/pd2dsy/libdaisy/src/hid/disp/display.h ****         int_fast16_t error  = deltaX - deltaY;
 5125              		.loc 4 230 42 view .LVU1206
 5126 02a2 A242     		cmp	r2, r4
 5127 02a4 8CBF     		ite	hi
 5128 02a6 4FF00108 		movhi	r8, #1
 5129 02aa 4FF0FF38 		movls	r8, #-1
 5130              	.LVL404:
 231:../../../lib/pd2dsy/libdaisy/src/hid/disp/display.h ****         int_fast16_t error2;
 5131              		.loc 4 231 22 view .LVU1207
 5132 02ae CEF1000C 		rsb	ip, lr, #0
 5133              	.LVL405:
 5134              	.LBB1493:
 5135              	.LBI1493:
  42:../../../lib/pd2dsy/libdaisy/src/hid/disp/oled_display.h ****     {
 5136              		.loc 2 42 10 is_stmt 1 view .LVU1208
 5137              	.LBB1494:
 5138              	.LBI1494:
 252:../../../lib/pd2dsy/libdaisy/src/dev/oled_ssd130x.h ****     {
 5139              		.loc 3 252 10 view .LVU1209
 5140              	.LBB1495:
 254:../../../lib/pd2dsy/libdaisy/src/dev/oled_ssd130x.h ****             return;
 5141              		.loc 3 254 9 is_stmt 0 view .LVU1210
 5142 02b2 BAF1000F 		cmp	r10, #0
 5143 02b6 0ED1     		bne	.L344
 5144 02b8 029B     		ldr	r3, [sp, #8]
 5145 02ba 63B9     		cbnz	r3, .L344
 257:../../../lib/pd2dsy/libdaisy/src/dev/oled_ssd130x.h ****         else
 5146              		.loc 3 257 28 view .LVU1211
 5147 02bc D308     		lsrs	r3, r2, #3
 257:../../../lib/pd2dsy/libdaisy/src/dev/oled_ssd130x.h ****         else
 5148              		.loc 3 257 54 view .LVU1212
 5149 02be 02F00707 		and	r7, r2, #7
 257:../../../lib/pd2dsy/libdaisy/src/dev/oled_ssd130x.h ****         else
 5150              		.loc 3 257 48 view .LVU1213
 5151 02c2 0126     		movs	r6, #1
 257:../../../lib/pd2dsy/libdaisy/src/dev/oled_ssd130x.h ****         else
 5152              		.loc 3 257 42 view .LVU1214
 5153 02c4 01EBC313 		add	r3, r1, r3, lsl #7
 5154 02c8 0344     		add	r3, r3, r0
 256:../../../lib/pd2dsy/libdaisy/src/dev/oled_ssd130x.h ****             buffer_[x + (y / 8) * width] |= (1 << (y % 8));
 5155              		.loc 3 256 9 view .LVU1215
 5156 02ca 002D     		cmp	r5, #0
 5157 02cc 7CD0     		beq	.L345
 257:../../../lib/pd2dsy/libdaisy/src/dev/oled_ssd130x.h ****         else
 5158              		.loc 3 257 48 view .LVU1216
 5159 02ce BE40     		lsls	r6, r6, r7
 257:../../../lib/pd2dsy/libdaisy/src/dev/oled_ssd130x.h ****         else
 5160              		.loc 3 257 42 view .LVU1217
 5161 02d0 1F7D     		ldrb	r7, [r3, #20]	@ zero_extendqisi2
 5162 02d2 3E43     		orrs	r6, r6, r7
ARM GAS  /var/folders/fb/yfxt3z4538j6z0vjt03w70vc0000gn/T//cc0qjWS6.s 			page 147


 5163 02d4 1E75     		strb	r6, [r3, #20]
 5164              	.L344:
 5165              	.LVL406:
 257:../../../lib/pd2dsy/libdaisy/src/dev/oled_ssd130x.h ****         else
 5166              		.loc 3 257 42 view .LVU1218
 5167              	.LBE1495:
 5168              	.LBE1494:
 5169              	.LBE1493:
 239:../../../lib/pd2dsy/libdaisy/src/hid/disp/display.h ****         {
 5170              		.loc 4 239 26 is_stmt 1 view .LVU1219
 5171 02d6 019B     		ldr	r3, [sp, #4]
 5172 02d8 002B     		cmp	r3, #0
 5173 02da 7FF4CDAE 		bne	.L302
 5174 02de 6646     		mov	r6, ip
 5175 02e0 0B46     		mov	r3, r1
 5176              	.LVL407:
 5177              	.L346:
 5178              	.LBB1500:
 5179              	.LBI1500:
  42:../../../lib/pd2dsy/libdaisy/src/hid/disp/oled_display.h ****     {
 5180              		.loc 2 42 10 view .LVU1220
 5181              	.LBB1501:
 5182              	.LBI1501:
 252:../../../lib/pd2dsy/libdaisy/src/dev/oled_ssd130x.h ****     {
 5183              		.loc 3 252 10 view .LVU1221
 5184              	.LBB1502:
 254:../../../lib/pd2dsy/libdaisy/src/dev/oled_ssd130x.h ****             return;
 5185              		.loc 3 254 9 is_stmt 0 view .LVU1222
 5186 02e2 7F2B     		cmp	r3, #127
 5187 02e4 12D8     		bhi	.L348
 254:../../../lib/pd2dsy/libdaisy/src/dev/oled_ssd130x.h ****             return;
 5188              		.loc 3 254 9 view .LVU1223
 5189 02e6 3F2C     		cmp	r4, #63
 5190 02e8 10D8     		bhi	.L348
 257:../../../lib/pd2dsy/libdaisy/src/dev/oled_ssd130x.h ****         else
 5191              		.loc 3 257 28 view .LVU1224
 5192 02ea E708     		lsrs	r7, r4, #3
 257:../../../lib/pd2dsy/libdaisy/src/dev/oled_ssd130x.h ****         else
 5193              		.loc 3 257 54 view .LVU1225
 5194 02ec 04F0070A 		and	r10, r4, #7
 257:../../../lib/pd2dsy/libdaisy/src/dev/oled_ssd130x.h ****         else
 5195              		.loc 3 257 48 view .LVU1226
 5196 02f0 4FF00109 		mov	r9, #1
 257:../../../lib/pd2dsy/libdaisy/src/dev/oled_ssd130x.h ****         else
 5197              		.loc 3 257 42 view .LVU1227
 5198 02f4 03EBC717 		add	r7, r3, r7, lsl #7
 5199 02f8 0744     		add	r7, r7, r0
 256:../../../lib/pd2dsy/libdaisy/src/dev/oled_ssd130x.h ****             buffer_[x + (y / 8) * width] |= (1 << (y % 8));
 5200              		.loc 3 256 9 view .LVU1228
 5201 02fa A5B3     		cbz	r5, .L349
 257:../../../lib/pd2dsy/libdaisy/src/dev/oled_ssd130x.h ****         else
 5202              		.loc 3 257 48 view .LVU1229
 5203 02fc 09FA0AF9 		lsl	r9, r9, r10
 257:../../../lib/pd2dsy/libdaisy/src/dev/oled_ssd130x.h ****         else
 5204              		.loc 3 257 42 view .LVU1230
 5205 0300 97F814A0 		ldrb	r10, [r7, #20]	@ zero_extendqisi2
 5206 0304 49EA0A09 		orr	r9, r9, r10
ARM GAS  /var/folders/fb/yfxt3z4538j6z0vjt03w70vc0000gn/T//cc0qjWS6.s 			page 148


 5207 0308 87F81490 		strb	r9, [r7, #20]
 5208              	.L348:
 5209              	.LVL408:
 257:../../../lib/pd2dsy/libdaisy/src/dev/oled_ssd130x.h ****         else
 5210              		.loc 3 257 42 view .LVU1231
 5211              	.LBE1502:
 5212              	.LBE1501:
 5213              	.LBE1500:
 243:../../../lib/pd2dsy/libdaisy/src/hid/disp/display.h ****             {
 5214              		.loc 4 243 13 view .LVU1232
 5215 030c BCEB460F 		cmp	ip, r6, lsl #1
 242:../../../lib/pd2dsy/libdaisy/src/hid/disp/display.h ****             if(error2 > -deltaY)
 5216              		.loc 4 242 20 view .LVU1233
 5217 0310 4FEA4607 		lsl	r7, r6, #1
 5218              	.LVL409:
 243:../../../lib/pd2dsy/libdaisy/src/hid/disp/display.h ****             {
 5219              		.loc 4 243 13 view .LVU1234
 5220 0314 02DA     		bge	.L350
 245:../../../lib/pd2dsy/libdaisy/src/hid/disp/display.h ****                 x1 += signX;
 5221              		.loc 4 245 23 view .LVU1235
 5222 0316 A6EB0E06 		sub	r6, r6, lr
 5223              	.LVL410:
 246:../../../lib/pd2dsy/libdaisy/src/hid/disp/display.h ****             }
 5224              		.loc 4 246 20 view .LVU1236
 5225 031a 013B     		subs	r3, r3, #1
 5226              	.LVL411:
 5227              	.L350:
 249:../../../lib/pd2dsy/libdaisy/src/hid/disp/display.h ****             {
 5228              		.loc 4 249 13 view .LVU1237
 5229 031c 07B1     		cbz	r7, .L351
 252:../../../lib/pd2dsy/libdaisy/src/hid/disp/display.h ****             }
 5230              		.loc 4 252 20 view .LVU1238
 5231 031e 4444     		add	r4, r4, r8
 5232              	.LVL412:
 5233              	.L351:
 239:../../../lib/pd2dsy/libdaisy/src/hid/disp/display.h ****         {
 5234              		.loc 4 239 26 is_stmt 1 view .LVU1239
 5235 0320 9942     		cmp	r1, r3
 5236 0322 DED1     		bne	.L346
 239:../../../lib/pd2dsy/libdaisy/src/hid/disp/display.h ****         {
 5237              		.loc 4 239 26 is_stmt 0 view .LVU1240
 5238 0324 A242     		cmp	r2, r4
 5239 0326 DCD1     		bne	.L346
 5240              	.LBE1492:
 5241              	.LBE1491:
 5242              	.LBE1544:
 281:../../../lib/pd2dsy/libdaisy/src/hid/disp/display.h **** 
 5243              		.loc 4 281 5 view .LVU1241
 5244 0328 07B0     		add	sp, sp, #28
 5245              		.cfi_remember_state
 5246              		.cfi_def_cfa_offset 36
 5247              		@ sp needed
 5248 032a BDE8F08F 		pop	{r4, r5, r6, r7, r8, r9, r10, fp, pc}
 5249              	.LVL413:
 5250              	.L311:
 5251              		.cfi_restore_state
 5252              	.LBB1545:
ARM GAS  /var/folders/fb/yfxt3z4538j6z0vjt03w70vc0000gn/T//cc0qjWS6.s 			page 149


 5253              	.LBB1511:
 5254              	.LBB1428:
 5255              	.LBB1424:
  42:../../../lib/pd2dsy/libdaisy/src/hid/disp/oled_display.h ****     {
 5256              		.loc 2 42 10 is_stmt 1 view .LVU1242
 5257              	.LBB1413:
 252:../../../lib/pd2dsy/libdaisy/src/dev/oled_ssd130x.h ****     {
 5258              		.loc 3 252 10 view .LVU1243
 5259              	.LBB1409:
 254:../../../lib/pd2dsy/libdaisy/src/dev/oled_ssd130x.h ****             return;
 5260              		.loc 3 254 28 is_stmt 0 view .LVU1244
 5261 032e 3F2A     		cmp	r2, #63
 5262              	.LBE1409:
 5263              	.LBE1413:
 5264              	.LBE1424:
 229:../../../lib/pd2dsy/libdaisy/src/hid/disp/display.h ****         int_fast16_t signY  = ((y1 < y2) ? 1 : -1);
 5265              		.loc 4 229 42 view .LVU1245
 5266 0330 4FF0010A 		mov	r10, #1
 5267              	.LBB1425:
 5268              	.LBB1414:
 5269              	.LBB1410:
 254:../../../lib/pd2dsy/libdaisy/src/dev/oled_ssd130x.h ****             return;
 5270              		.loc 3 254 28 view .LVU1246
 5271 0334 94BF     		ite	ls
 5272 0336 0026     		movls	r6, #0
 5273 0338 0126     		movhi	r6, #1
 254:../../../lib/pd2dsy/libdaisy/src/dev/oled_ssd130x.h ****             return;
 5274              		.loc 3 254 14 view .LVU1247
 5275 033a 7F2B     		cmp	r3, #127
 254:../../../lib/pd2dsy/libdaisy/src/dev/oled_ssd130x.h ****             return;
 5276              		.loc 3 254 28 view .LVU1248
 5277 033c 0296     		str	r6, [sp, #8]
 254:../../../lib/pd2dsy/libdaisy/src/dev/oled_ssd130x.h ****             return;
 5278              		.loc 3 254 14 view .LVU1249
 5279 033e 94BF     		ite	ls
 5280 0340 0027     		movls	r7, #0
 5281 0342 0127     		movhi	r7, #1
 5282 0344 0097     		str	r7, [sp]
 254:../../../lib/pd2dsy/libdaisy/src/dev/oled_ssd130x.h ****             return;
 5283              		.loc 3 254 9 view .LVU1250
 5284 0346 002E     		cmp	r6, #0
 5285 0348 7FF4C8AE 		bne	.L315
 5286 034c 002F     		cmp	r7, #0
 5287 034e 3FF4AEAE 		beq	.L353
 5288 0352 C3E6     		b	.L315
 5289              	.LVL414:
 5290              	.L340:
 254:../../../lib/pd2dsy/libdaisy/src/dev/oled_ssd130x.h ****             return;
 5291              		.loc 3 254 9 view .LVU1251
 5292              	.LBE1410:
 5293              	.LBE1414:
 5294              	.LBE1425:
 5295              	.LBE1428:
 5296              	.LBE1511:
 5297              	.LBB1512:
 5298              	.LBB1489:
 5299              	.LBB1487:
ARM GAS  /var/folders/fb/yfxt3z4538j6z0vjt03w70vc0000gn/T//cc0qjWS6.s 			page 150


 5300              	.LBB1486:
 5301              	.LBB1485:
 5302              	.LBB1483:
 5303              	.LBI1483:
 252:../../../lib/pd2dsy/libdaisy/src/dev/oled_ssd130x.h ****     {
 5304              		.loc 3 252 10 is_stmt 1 view .LVU1252
 5305              	.LBB1484:
 259:../../../lib/pd2dsy/libdaisy/src/dev/oled_ssd130x.h ****     }
 5306              		.loc 3 259 49 is_stmt 0 view .LVU1253
 5307 0354 08FA0BFB 		lsl	fp, r8, fp
 259:../../../lib/pd2dsy/libdaisy/src/dev/oled_ssd130x.h ****     }
 5308              		.loc 3 259 42 view .LVU1254
 5309 0358 9CF81480 		ldrb	r8, [ip, #20]	@ zero_extendqisi2
 5310 035c 28EA0B08 		bic	r8, r8, fp
 5311 0360 8CF81480 		strb	r8, [ip, #20]
 5312 0364 8AE7     		b	.L339
 5313              	.LVL415:
 5314              	.L349:
 259:../../../lib/pd2dsy/libdaisy/src/dev/oled_ssd130x.h ****     }
 5315              		.loc 3 259 42 view .LVU1255
 5316              	.LBE1484:
 5317              	.LBE1483:
 5318              	.LBE1485:
 5319              	.LBE1486:
 5320              	.LBE1487:
 5321              	.LBE1489:
 5322              	.LBE1512:
 5323              	.LBB1513:
 5324              	.LBB1509:
 5325              	.LBB1507:
 5326              	.LBB1506:
 5327              	.LBB1505:
 5328              	.LBB1503:
 5329              	.LBI1503:
 252:../../../lib/pd2dsy/libdaisy/src/dev/oled_ssd130x.h ****     {
 5330              		.loc 3 252 10 is_stmt 1 view .LVU1256
 5331              	.LBB1504:
 259:../../../lib/pd2dsy/libdaisy/src/dev/oled_ssd130x.h ****     }
 5332              		.loc 3 259 49 is_stmt 0 view .LVU1257
 5333 0366 09FA0AFA 		lsl	r10, r9, r10
 259:../../../lib/pd2dsy/libdaisy/src/dev/oled_ssd130x.h ****     }
 5334              		.loc 3 259 42 view .LVU1258
 5335 036a 97F81490 		ldrb	r9, [r7, #20]	@ zero_extendqisi2
 5336 036e 29EA0A09 		bic	r9, r9, r10
 5337 0372 87F81490 		strb	r9, [r7, #20]
 5338 0376 C9E7     		b	.L348
 5339              	.LVL416:
 5340              	.L319:
 259:../../../lib/pd2dsy/libdaisy/src/dev/oled_ssd130x.h ****     }
 5341              		.loc 3 259 42 view .LVU1259
 5342              	.LBE1504:
 5343              	.LBE1503:
 5344              	.LBE1505:
 5345              	.LBE1506:
 5346              	.LBE1507:
 5347              	.LBE1509:
 5348              	.LBE1513:
ARM GAS  /var/folders/fb/yfxt3z4538j6z0vjt03w70vc0000gn/T//cc0qjWS6.s 			page 151


 5349              	.LBB1514:
 5350              	.LBB1429:
 5351              	.LBB1426:
 5352              	.LBB1423:
 5353              	.LBB1422:
 5354              	.LBB1420:
 5355              	.LBI1420:
 252:../../../lib/pd2dsy/libdaisy/src/dev/oled_ssd130x.h ****     {
 5356              		.loc 3 252 10 is_stmt 1 view .LVU1260
 5357              	.LBB1421:
 259:../../../lib/pd2dsy/libdaisy/src/dev/oled_ssd130x.h ****     }
 5358              		.loc 3 259 49 is_stmt 0 view .LVU1261
 5359 0378 09FA0BFB 		lsl	fp, r9, fp
 259:../../../lib/pd2dsy/libdaisy/src/dev/oled_ssd130x.h ****     }
 5360              		.loc 3 259 42 view .LVU1262
 5361 037c 97F81490 		ldrb	r9, [r7, #20]	@ zero_extendqisi2
 5362 0380 29EA0B09 		bic	r9, r9, fp
 5363 0384 87F81490 		strb	r9, [r7, #20]
 5364 0388 C5E6     		b	.L318
 5365              	.LVL417:
 5366              	.L330:
 259:../../../lib/pd2dsy/libdaisy/src/dev/oled_ssd130x.h ****     }
 5367              		.loc 3 259 42 view .LVU1263
 5368              	.LBE1421:
 5369              	.LBE1420:
 5370              	.LBE1422:
 5371              	.LBE1423:
 5372              	.LBE1426:
 5373              	.LBE1429:
 5374              	.LBE1514:
 5375              	.LBB1515:
 5376              	.LBB1465:
 5377              	.LBB1462:
 5378              	.LBB1461:
 5379              	.LBB1460:
 5380              	.LBB1458:
 5381              	.LBI1458:
 252:../../../lib/pd2dsy/libdaisy/src/dev/oled_ssd130x.h ****     {
 5382              		.loc 3 252 10 is_stmt 1 view .LVU1264
 5383              	.LBB1459:
 259:../../../lib/pd2dsy/libdaisy/src/dev/oled_ssd130x.h ****     }
 5384              		.loc 3 259 49 is_stmt 0 view .LVU1265
 5385 038a 0AFA0BFB 		lsl	fp, r10, fp
 259:../../../lib/pd2dsy/libdaisy/src/dev/oled_ssd130x.h ****     }
 5386              		.loc 3 259 42 view .LVU1266
 5387 038e 9EF814A0 		ldrb	r10, [lr, #20]	@ zero_extendqisi2
 5388 0392 2AEA0B0A 		bic	r10, r10, fp
 5389 0396 8EF814A0 		strb	r10, [lr, #20]
 5390 039a 18E7     		b	.L329
 5391              	.LVL418:
 5392              	.L322:
 259:../../../lib/pd2dsy/libdaisy/src/dev/oled_ssd130x.h ****     }
 5393              		.loc 3 259 42 view .LVU1267
 5394              	.LBE1459:
 5395              	.LBE1458:
 5396              	.LBE1460:
 5397              	.LBE1461:
ARM GAS  /var/folders/fb/yfxt3z4538j6z0vjt03w70vc0000gn/T//cc0qjWS6.s 			page 152


 5398              	.LBE1462:
 5399              	.LBB1463:
 5400              	.LBB1449:
 5401              	.LBB1443:
 254:../../../lib/pd2dsy/libdaisy/src/dev/oled_ssd130x.h ****             return;
 5402              		.loc 3 254 9 view .LVU1268
 5403 039c 97BB     		cbnz	r7, .L361
 5404 039e 8EBB     		cbnz	r6, .L361
 5405              	.LBE1443:
 5406              	.LBE1449:
 5407              	.LBE1463:
 230:../../../lib/pd2dsy/libdaisy/src/hid/disp/display.h ****         int_fast16_t error  = deltaX - deltaY;
 5408              		.loc 4 230 42 view .LVU1269
 5409 03a0 0126     		movs	r6, #1
 5410 03a2 0096     		str	r6, [sp]
 5411              	.LBB1464:
 5412              	.LBB1450:
 5413              	.LBB1444:
 257:../../../lib/pd2dsy/libdaisy/src/dev/oled_ssd130x.h ****         else
 5414              		.loc 3 257 28 view .LVU1270
 5415 03a4 E608     		lsrs	r6, r4, #3
 257:../../../lib/pd2dsy/libdaisy/src/dev/oled_ssd130x.h ****         else
 5416              		.loc 3 257 42 view .LVU1271
 5417 03a6 03EBC616 		add	r6, r3, r6, lsl #7
 5418 03aa 0644     		add	r6, r6, r0
 256:../../../lib/pd2dsy/libdaisy/src/dev/oled_ssd130x.h ****             buffer_[x + (y / 8) * width] |= (1 << (y % 8));
 5419              		.loc 3 256 9 view .LVU1272
 5420 03ac 002D     		cmp	r5, #0
 5421 03ae 7FF4E2AE 		bne	.L396
 5422              	.LVL419:
 5423              	.L324:
 5424              	.LBB1437:
 5425              	.LBI1437:
 252:../../../lib/pd2dsy/libdaisy/src/dev/oled_ssd130x.h ****     {
 5426              		.loc 3 252 10 is_stmt 1 view .LVU1273
 5427              	.LBB1438:
 259:../../../lib/pd2dsy/libdaisy/src/dev/oled_ssd130x.h ****     }
 5428              		.loc 3 259 49 is_stmt 0 view .LVU1274
 5429 03b2 0127     		movs	r7, #1
 259:../../../lib/pd2dsy/libdaisy/src/dev/oled_ssd130x.h ****     }
 5430              		.loc 3 259 55 view .LVU1275
 5431 03b4 04F0070C 		and	ip, r4, #7
 259:../../../lib/pd2dsy/libdaisy/src/dev/oled_ssd130x.h ****     }
 5432              		.loc 3 259 42 view .LVU1276
 5433 03b8 0395     		str	r5, [sp, #12]
 259:../../../lib/pd2dsy/libdaisy/src/dev/oled_ssd130x.h ****     }
 5434              		.loc 3 259 49 view .LVU1277
 5435 03ba 07FA0CFC 		lsl	ip, r7, ip
 259:../../../lib/pd2dsy/libdaisy/src/dev/oled_ssd130x.h ****     }
 5436              		.loc 3 259 42 view .LVU1278
 5437 03be 377D     		ldrb	r7, [r6, #20]	@ zero_extendqisi2
 5438 03c0 27EA0C07 		bic	r7, r7, ip
 5439 03c4 3775     		strb	r7, [r6, #20]
 5440 03c6 E3E6     		b	.L323
 5441              	.LVL420:
 5442              	.L345:
 259:../../../lib/pd2dsy/libdaisy/src/dev/oled_ssd130x.h ****     }
ARM GAS  /var/folders/fb/yfxt3z4538j6z0vjt03w70vc0000gn/T//cc0qjWS6.s 			page 153


 5443              		.loc 3 259 42 view .LVU1279
 5444              	.LBE1438:
 5445              	.LBE1437:
 5446              	.LBE1444:
 5447              	.LBE1450:
 5448              	.LBE1464:
 5449              	.LBE1465:
 5450              	.LBE1515:
 5451              	.LBB1516:
 5452              	.LBB1510:
 5453              	.LBB1508:
 5454              	.LBB1499:
 5455              	.LBB1498:
 5456              	.LBB1496:
 5457              	.LBI1496:
 252:../../../lib/pd2dsy/libdaisy/src/dev/oled_ssd130x.h ****     {
 5458              		.loc 3 252 10 is_stmt 1 view .LVU1280
 5459              	.LBB1497:
 259:../../../lib/pd2dsy/libdaisy/src/dev/oled_ssd130x.h ****     }
 5460              		.loc 3 259 49 is_stmt 0 view .LVU1281
 5461 03c8 06FA07F7 		lsl	r7, r6, r7
 259:../../../lib/pd2dsy/libdaisy/src/dev/oled_ssd130x.h ****     }
 5462              		.loc 3 259 42 view .LVU1282
 5463 03cc 1E7D     		ldrb	r6, [r3, #20]	@ zero_extendqisi2
 5464 03ce 26EA0706 		bic	r6, r6, r7
 5465 03d2 1E75     		strb	r6, [r3, #20]
 5466 03d4 7FE7     		b	.L344
 5467              	.LVL421:
 5468              	.L335:
 259:../../../lib/pd2dsy/libdaisy/src/dev/oled_ssd130x.h ****     }
 5469              		.loc 3 259 42 view .LVU1283
 5470              	.LBE1497:
 5471              	.LBE1496:
 5472              	.LBE1498:
 5473              	.LBE1499:
 5474              	.LBE1508:
 5475              	.LBE1510:
 5476              	.LBE1516:
 5477              	.LBB1517:
 5478              	.LBB1490:
 5479              	.LBB1488:
 5480              	.LBB1478:
 5481              	.LBB1476:
 5482              	.LBB1473:
 5483              	.LBI1473:
 252:../../../lib/pd2dsy/libdaisy/src/dev/oled_ssd130x.h ****     {
 5484              		.loc 3 252 10 is_stmt 1 view .LVU1284
 5485              	.LBB1474:
 259:../../../lib/pd2dsy/libdaisy/src/dev/oled_ssd130x.h ****     }
 5486              		.loc 3 259 49 is_stmt 0 view .LVU1285
 5487 03d6 0127     		movs	r7, #1
 259:../../../lib/pd2dsy/libdaisy/src/dev/oled_ssd130x.h ****     }
 5488              		.loc 3 259 55 view .LVU1286
 5489 03d8 04F0070C 		and	ip, r4, #7
 259:../../../lib/pd2dsy/libdaisy/src/dev/oled_ssd130x.h ****     }
 5490              		.loc 3 259 49 view .LVU1287
 5491 03dc 07FA0CFC 		lsl	ip, r7, ip
ARM GAS  /var/folders/fb/yfxt3z4538j6z0vjt03w70vc0000gn/T//cc0qjWS6.s 			page 154


 259:../../../lib/pd2dsy/libdaisy/src/dev/oled_ssd130x.h ****     }
 5492              		.loc 3 259 42 view .LVU1288
 5493 03e0 377D     		ldrb	r7, [r6, #20]	@ zero_extendqisi2
 5494 03e2 27EA0C07 		bic	r7, r7, ip
 5495 03e6 3775     		strb	r7, [r6, #20]
 5496 03e8 2DE7     		b	.L334
 5497              	.LVL422:
 5498              	.L313:
 259:../../../lib/pd2dsy/libdaisy/src/dev/oled_ssd130x.h ****     }
 5499              		.loc 3 259 42 view .LVU1289
 5500              	.LBE1474:
 5501              	.LBE1473:
 5502              	.LBE1476:
 5503              	.LBE1478:
 5504              	.LBE1488:
 5505              	.LBE1490:
 5506              	.LBE1517:
 5507              	.LBB1518:
 5508              	.LBB1430:
 5509              	.LBB1427:
 5510              	.LBB1415:
 5511              	.LBB1411:
 5512              	.LBB1406:
 5513              	.LBI1406:
 252:../../../lib/pd2dsy/libdaisy/src/dev/oled_ssd130x.h ****     {
 5514              		.loc 3 252 10 is_stmt 1 view .LVU1290
 5515              	.LBB1407:
 259:../../../lib/pd2dsy/libdaisy/src/dev/oled_ssd130x.h ****     }
 5516              		.loc 3 259 49 is_stmt 0 view .LVU1291
 5517 03ea 07FA0CFC 		lsl	ip, r7, ip
 259:../../../lib/pd2dsy/libdaisy/src/dev/oled_ssd130x.h ****     }
 5518              		.loc 3 259 42 view .LVU1292
 5519 03ee 377D     		ldrb	r7, [r6, #20]	@ zero_extendqisi2
 5520 03f0 0295     		str	r5, [sp, #8]
 5521 03f2 27EA0C07 		bic	r7, r7, ip
 5522 03f6 0095     		str	r5, [sp]
 5523 03f8 3775     		strb	r7, [r6, #20]
 5524 03fa 6CE6     		b	.L312
 5525              	.LVL423:
 5526              	.L357:
 259:../../../lib/pd2dsy/libdaisy/src/dev/oled_ssd130x.h ****     }
 5527              		.loc 3 259 42 view .LVU1293
 5528              	.LBE1407:
 5529              	.LBE1406:
 5530              	.LBE1411:
 5531              	.LBE1415:
 5532              	.LBE1427:
 5533              	.LBE1430:
 5534              	.LBE1518:
 5535              	.LBB1519:
 5536              	.LBB1466:
 230:../../../lib/pd2dsy/libdaisy/src/hid/disp/display.h ****         int_fast16_t error  = deltaX - deltaY;
 5537              		.loc 4 230 42 view .LVU1294
 5538 03fc 4FF0FF36 		mov	r6, #-1
 5539 0400 0096     		str	r6, [sp]
 5540 0402 C5E6     		b	.L323
 5541              	.LVL424:
ARM GAS  /var/folders/fb/yfxt3z4538j6z0vjt03w70vc0000gn/T//cc0qjWS6.s 			page 155


 5542              	.L361:
 230:../../../lib/pd2dsy/libdaisy/src/hid/disp/display.h ****         int_fast16_t error  = deltaX - deltaY;
 5543              		.loc 4 230 42 view .LVU1295
 5544 0404 0126     		movs	r6, #1
 5545 0406 0096     		str	r6, [sp]
 5546 0408 C5E6     		b	.L326
 5547              	.LVL425:
 5548              	.L394:
 230:../../../lib/pd2dsy/libdaisy/src/hid/disp/display.h ****         int_fast16_t error  = deltaX - deltaY;
 5549              		.loc 4 230 42 view .LVU1296
 5550              	.LBE1466:
 5551              	.LBE1519:
 5552              	.LBB1520:
 5553              	.LBB1431:
 239:../../../lib/pd2dsy/libdaisy/src/hid/disp/display.h ****         {
 5554              		.loc 4 239 19 view .LVU1297
 5555 040a 0126     		movs	r6, #1
 5556 040c 0496     		str	r6, [sp, #16]
 5557 040e 90E6     		b	.L314
 5558              	.LVL426:
 5559              	.L395:
 239:../../../lib/pd2dsy/libdaisy/src/hid/disp/display.h ****         {
 5560              		.loc 4 239 19 view .LVU1298
 5561              	.LBE1431:
 5562              	.LBE1520:
 5563              	.LBB1521:
 5564              	.LBB1467:
 239:../../../lib/pd2dsy/libdaisy/src/hid/disp/display.h ****         {
 5565              		.loc 4 239 33 view .LVU1299
 5566 0410 0126     		movs	r6, #1
 5567 0412 0196     		str	r6, [sp, #4]
 5568 0414 EDE6     		b	.L325
 5569              	.LBE1467:
 5570              	.LBE1521:
 5571              	.LBE1545:
 5572              		.cfi_endproc
 5573              	.LFE3075:
 5575 0416 00BF     		.section	.text._Z11LoopWriteInR14Heavy_daisiSPI,"ax",%progbits
 5576              		.align	1
 5577              		.p2align 2,,3
 5578              		.global	_Z11LoopWriteInR14Heavy_daisiSPI
 5579              		.syntax unified
 5580              		.thumb
 5581              		.thumb_func
 5583              	_Z11LoopWriteInR14Heavy_daisiSPI:
 5584              	.LFB3089:
 5585              		.cfi_startproc
 5586              		@ args = 0, pretend = 0, frame = 0
 5587              		@ frame_needed = 0, uses_anonymous_args = 0
 5588              		@ link register save eliminated.
 5589 0000 7047     		bx	lr
 5590              		.cfi_endproc
 5591              	.LFE3089:
 5593 0002 00BF     		.section	.text._Z15CallbackWriteInR14Heavy_daisiSPI,"ax",%progbits
 5594              		.align	1
 5595              		.p2align 2,,3
 5596              		.global	_Z15CallbackWriteInR14Heavy_daisiSPI
ARM GAS  /var/folders/fb/yfxt3z4538j6z0vjt03w70vc0000gn/T//cc0qjWS6.s 			page 156


 5597              		.syntax unified
 5598              		.thumb
 5599              		.thumb_func
 5601              	_Z15CallbackWriteInR14Heavy_daisiSPI:
 5602              	.LVL427:
 5603              	.LFB3005:
  84:HeavyDaisy_daisiSPI.cpp **** 
  85:HeavyDaisy_daisiSPI.cpp **** /** Sends signals from the Daisy hardware to the PD patch via the receive objects during the main l
  86:HeavyDaisy_daisiSPI.cpp ****  * 
  87:HeavyDaisy_daisiSPI.cpp ****  */
  88:HeavyDaisy_daisiSPI.cpp **** void LoopWriteIn(Heavy_daisiSPI& hv)
  89:HeavyDaisy_daisiSPI.cpp **** {
  90:HeavyDaisy_daisiSPI.cpp **** }
  91:HeavyDaisy_daisiSPI.cpp **** 
  92:HeavyDaisy_daisiSPI.cpp **** /** Sends signals from the Daisy hardware to the PD patch via the receive objects during the audio 
  93:HeavyDaisy_daisiSPI.cpp ****  * 
  94:HeavyDaisy_daisiSPI.cpp ****  */
  95:HeavyDaisy_daisiSPI.cpp **** void CallbackWriteIn(Heavy_daisiSPI& hv)
  96:HeavyDaisy_daisiSPI.cpp **** {
 5604              		.loc 1 96 1 is_stmt 1 view -0
 5605              		.cfi_startproc
 5606              		@ args = 0, pretend = 0, frame = 0
 5607              		@ frame_needed = 0, uses_anonymous_args = 0
 5608              		@ link register save eliminated.
  97:HeavyDaisy_daisiSPI.cpp **** }
 5609              		.loc 1 97 1 is_stmt 0 view .LVU1301
 5610 0000 7047     		bx	lr
 5611              		.cfi_endproc
 5612              	.LFE3005:
 5614 0002 00BF     		.section	.text._Z12LoopWriteOutv,"ax",%progbits
 5615              		.align	1
 5616              		.p2align 2,,3
 5617              		.global	_Z12LoopWriteOutv
 5618              		.syntax unified
 5619              		.thumb
 5620              		.thumb_func
 5622              	_Z12LoopWriteOutv:
 5623              	.LFB3091:
 5624              		.cfi_startproc
 5625              		@ args = 0, pretend = 0, frame = 0
 5626              		@ frame_needed = 0, uses_anonymous_args = 0
 5627              		@ link register save eliminated.
 5628 0000 7047     		bx	lr
 5629              		.cfi_endproc
 5630              	.LFE3091:
 5632 0002 00BF     		.section	.text._Z16CallbackWriteOutv,"ax",%progbits
 5633              		.align	1
 5634              		.p2align 2,,3
 5635              		.global	_Z16CallbackWriteOutv
 5636              		.syntax unified
 5637              		.thumb
 5638              		.thumb_func
 5640              	_Z16CallbackWriteOutv:
 5641              	.LFB3007:
  98:HeavyDaisy_daisiSPI.cpp **** 
  99:HeavyDaisy_daisiSPI.cpp **** /** Writes the values sent to PD's receive objects to the Daisy hardware during the main loop
 100:HeavyDaisy_daisiSPI.cpp ****  * 
ARM GAS  /var/folders/fb/yfxt3z4538j6z0vjt03w70vc0000gn/T//cc0qjWS6.s 			page 157


 101:HeavyDaisy_daisiSPI.cpp ****  */
 102:HeavyDaisy_daisiSPI.cpp **** void LoopWriteOut() {
 103:HeavyDaisy_daisiSPI.cpp **** }
 104:HeavyDaisy_daisiSPI.cpp **** 
 105:HeavyDaisy_daisiSPI.cpp **** /** Writes the values sent to PD's receive objects to the Daisy hardware during the audio callback
 106:HeavyDaisy_daisiSPI.cpp ****  * 
 107:HeavyDaisy_daisiSPI.cpp ****  */
 108:HeavyDaisy_daisiSPI.cpp **** void CallbackWriteOut() {
 5642              		.loc 1 108 25 is_stmt 1 view -0
 5643              		.cfi_startproc
 5644              		@ args = 0, pretend = 0, frame = 0
 5645              		@ frame_needed = 0, uses_anonymous_args = 0
 5646              		@ link register save eliminated.
 109:HeavyDaisy_daisiSPI.cpp **** }
 5647              		.loc 1 109 1 is_stmt 0 view .LVU1303
 5648 0000 7047     		bx	lr
 5649              		.cfi_endproc
 5650              	.LFE3007:
 5652 0002 00BF     		.section	.text._Z7Displayv,"ax",%progbits
 5653              		.align	1
 5654              		.p2align 2,,3
 5655              		.global	_Z7Displayv
 5656              		.syntax unified
 5657              		.thumb
 5658              		.thumb_func
 5660              	_Z7Displayv:
 5661              	.LFB3093:
 5662              		.cfi_startproc
 5663              		@ args = 0, pretend = 0, frame = 0
 5664              		@ frame_needed = 0, uses_anonymous_args = 0
 5665              		@ link register save eliminated.
 5666 0000 7047     		bx	lr
 5667              		.cfi_endproc
 5668              	.LFE3093:
 5670 0002 00BF     		.section	.text._ZN5daisy13SSD130xDriverILj128ELj64ENS_24SSD130x4WireSpiTransportEE4InitENS2_6Confi
 5671              		.align	1
 5672              		.p2align 2,,3
 5673              		.weak	_ZN5daisy13SSD130xDriverILj128ELj64ENS_24SSD130x4WireSpiTransportEE4InitENS2_6ConfigE
 5674              		.syntax unified
 5675              		.thumb
 5676              		.thumb_func
 5678              	_ZN5daisy13SSD130xDriverILj128ELj64ENS_24SSD130x4WireSpiTransportEE4InitENS2_6ConfigE:
 5679              	.LVL428:
 5680              	.LFB3056:
 153:../../../lib/pd2dsy/libdaisy/src/dev/oled_ssd130x.h ****     {
 5681              		.loc 3 153 10 is_stmt 1 view -0
 5682              		.cfi_startproc
 5683              		@ args = 48, pretend = 16, frame = 8
 5684              		@ frame_needed = 0, uses_anonymous_args = 0
 153:../../../lib/pd2dsy/libdaisy/src/dev/oled_ssd130x.h ****     {
 5685              		.loc 3 153 10 is_stmt 0 view .LVU1305
 5686 0000 84B0     		sub	sp, sp, #16
 5687              		.cfi_def_cfa_offset 16
 5688 0002 2DE9F041 		push	{r4, r5, r6, r7, r8, lr}
 5689              		.cfi_def_cfa_offset 40
 5690              		.cfi_offset 4, -40
 5691              		.cfi_offset 5, -36
ARM GAS  /var/folders/fb/yfxt3z4538j6z0vjt03w70vc0000gn/T//cc0qjWS6.s 			page 158


 5692              		.cfi_offset 6, -32
 5693              		.cfi_offset 7, -28
 5694              		.cfi_offset 8, -24
 5695              		.cfi_offset 14, -20
 5696 0006 82B0     		sub	sp, sp, #8
 5697              		.cfi_def_cfa_offset 48
 5698              	.LBB1594:
 5699              	.LBB1595:
 106:../../../lib/pd2dsy/libdaisy/src/dev/oled_ssd130x.h ****         pin_dc_.pin  = config.pin_config.dc;
 5700              		.loc 3 106 22 view .LVU1306
 5701 0008 0125     		movs	r5, #1
 107:../../../lib/pd2dsy/libdaisy/src/dev/oled_ssd130x.h ****         dsy_gpio_init(&pin_dc_);
 5702              		.loc 3 107 22 view .LVU1307
 5703 000a 0646     		mov	r6, r0
 5704              	.LBE1595:
 5705              	.LBE1594:
 153:../../../lib/pd2dsy/libdaisy/src/dev/oled_ssd130x.h ****     {
 5706              		.loc 3 153 10 view .LVU1308
 5707 000c 0446     		mov	r4, r0
 5708              	.LVL429:
 5709              	.LBB1599:
 5710              	.LBI1594:
 103:../../../lib/pd2dsy/libdaisy/src/dev/oled_ssd130x.h ****     {
 5711              		.loc 3 103 10 is_stmt 1 view .LVU1309
 5712              	.LBB1596:
 106:../../../lib/pd2dsy/libdaisy/src/dev/oled_ssd130x.h ****         pin_dc_.pin  = config.pin_config.dc;
 5713              		.loc 3 106 9 view .LVU1310
 5714              	.LBE1596:
 5715              	.LBE1599:
 153:../../../lib/pd2dsy/libdaisy/src/dev/oled_ssd130x.h ****     {
 5716              		.loc 3 153 10 is_stmt 0 view .LVU1311
 5717 000e 0DF12408 		add	r8, sp, #36
 5718              	.LBB1600:
 5719              	.LBB1597:
 106:../../../lib/pd2dsy/libdaisy/src/dev/oled_ssd130x.h ****         pin_dc_.pin  = config.pin_config.dc;
 5720              		.loc 3 106 22 view .LVU1312
 5721 0012 8572     		strb	r5, [r0, #10]
 107:../../../lib/pd2dsy/libdaisy/src/dev/oled_ssd130x.h ****         dsy_gpio_init(&pin_dc_);
 5722              		.loc 3 107 9 is_stmt 1 view .LVU1313
 110:../../../lib/pd2dsy/libdaisy/src/dev/oled_ssd130x.h ****         dsy_gpio_init(&pin_reset_);
 5723              		.loc 3 110 25 is_stmt 0 view .LVU1314
 5724 0014 2746     		mov	r7, r4
 5725              	.LBE1597:
 5726              	.LBE1600:
 153:../../../lib/pd2dsy/libdaisy/src/dev/oled_ssd130x.h ****     {
 5727              		.loc 3 153 10 view .LVU1315
 5728 0016 88E80E00 		stm	r8, {r1, r2, r3}
 5729              	.LBB1601:
 5730              	.LBB1598:
 107:../../../lib/pd2dsy/libdaisy/src/dev/oled_ssd130x.h ****         dsy_gpio_init(&pin_dc_);
 5731              		.loc 3 107 22 view .LVU1316
 5732 001a BDF84C30 		ldrh	r3, [sp, #76]
 5733 001e 26F8083F 		strh	r3, [r6, #8]!	@ movhi
 108:../../../lib/pd2dsy/libdaisy/src/dev/oled_ssd130x.h ****         pin_reset_.mode = DSY_GPIO_MODE_OUTPUT_PP;
 5734              		.loc 3 108 9 is_stmt 1 view .LVU1317
 108:../../../lib/pd2dsy/libdaisy/src/dev/oled_ssd130x.h ****         pin_reset_.mode = DSY_GPIO_MODE_OUTPUT_PP;
 5735              		.loc 3 108 22 is_stmt 0 view .LVU1318
ARM GAS  /var/folders/fb/yfxt3z4538j6z0vjt03w70vc0000gn/T//cc0qjWS6.s 			page 159


 5736 0022 3046     		mov	r0, r6
 5737              	.LVL430:
 108:../../../lib/pd2dsy/libdaisy/src/dev/oled_ssd130x.h ****         pin_reset_.mode = DSY_GPIO_MODE_OUTPUT_PP;
 5738              		.loc 3 108 22 view .LVU1319
 5739 0024 FFF7FEFF 		bl	dsy_gpio_init
 5740              	.LVL431:
 109:../../../lib/pd2dsy/libdaisy/src/dev/oled_ssd130x.h ****         pin_reset_.pin  = config.pin_config.reset;
 5741              		.loc 3 109 9 is_stmt 1 view .LVU1320
 110:../../../lib/pd2dsy/libdaisy/src/dev/oled_ssd130x.h ****         dsy_gpio_init(&pin_reset_);
 5742              		.loc 3 110 25 is_stmt 0 view .LVU1321
 5743 0028 BDF84E30 		ldrh	r3, [sp, #78]
 109:../../../lib/pd2dsy/libdaisy/src/dev/oled_ssd130x.h ****         pin_reset_.pin  = config.pin_config.reset;
 5744              		.loc 3 109 25 view .LVU1322
 5745 002c A571     		strb	r5, [r4, #6]
 110:../../../lib/pd2dsy/libdaisy/src/dev/oled_ssd130x.h ****         dsy_gpio_init(&pin_reset_);
 5746              		.loc 3 110 9 is_stmt 1 view .LVU1323
 110:../../../lib/pd2dsy/libdaisy/src/dev/oled_ssd130x.h ****         dsy_gpio_init(&pin_reset_);
 5747              		.loc 3 110 25 is_stmt 0 view .LVU1324
 5748 002e 27F8043F 		strh	r3, [r7, #4]!	@ movhi
 111:../../../lib/pd2dsy/libdaisy/src/dev/oled_ssd130x.h **** 
 5749              		.loc 3 111 9 is_stmt 1 view .LVU1325
 111:../../../lib/pd2dsy/libdaisy/src/dev/oled_ssd130x.h **** 
 5750              		.loc 3 111 22 is_stmt 0 view .LVU1326
 5751 0032 3846     		mov	r0, r7
 5752 0034 FFF7FEFF 		bl	dsy_gpio_init
 5753              	.LVL432:
 114:../../../lib/pd2dsy/libdaisy/src/dev/oled_ssd130x.h **** 
 5754              		.loc 3 114 9 is_stmt 1 view .LVU1327
 114:../../../lib/pd2dsy/libdaisy/src/dev/oled_ssd130x.h **** 
 5755              		.loc 3 114 18 is_stmt 0 view .LVU1328
 5756 0038 4146     		mov	r1, r8
 5757 003a 2046     		mov	r0, r4
 5758 003c FFF7FEFF 		bl	_ZN5daisy9SpiHandle4InitERKNS0_6ConfigE
 5759              	.LVL433:
 117:../../../lib/pd2dsy/libdaisy/src/dev/oled_ssd130x.h ****         System::Delay(10);
 5760              		.loc 3 117 9 is_stmt 1 view .LVU1329
 117:../../../lib/pd2dsy/libdaisy/src/dev/oled_ssd130x.h ****         System::Delay(10);
 5761              		.loc 3 117 23 is_stmt 0 view .LVU1330
 5762 0040 0021     		movs	r1, #0
 5763 0042 3846     		mov	r0, r7
 5764 0044 FFF7FEFF 		bl	dsy_gpio_write
 5765              	.LVL434:
 118:../../../lib/pd2dsy/libdaisy/src/dev/oled_ssd130x.h ****         dsy_gpio_write(&pin_reset_, 1);
 5766              		.loc 3 118 9 is_stmt 1 view .LVU1331
 118:../../../lib/pd2dsy/libdaisy/src/dev/oled_ssd130x.h ****         dsy_gpio_write(&pin_reset_, 1);
 5767              		.loc 3 118 22 is_stmt 0 view .LVU1332
 5768 0048 0A20     		movs	r0, #10
 5769 004a FFF7FEFF 		bl	_ZN5daisy6System5DelayEm
 5770              	.LVL435:
 119:../../../lib/pd2dsy/libdaisy/src/dev/oled_ssd130x.h ****         System::Delay(10);
 5771              		.loc 3 119 9 is_stmt 1 view .LVU1333
 119:../../../lib/pd2dsy/libdaisy/src/dev/oled_ssd130x.h ****         System::Delay(10);
 5772              		.loc 3 119 23 is_stmt 0 view .LVU1334
 5773 004e 2946     		mov	r1, r5
 5774 0050 3846     		mov	r0, r7
 5775 0052 FFF7FEFF 		bl	dsy_gpio_write
 5776              	.LVL436:
ARM GAS  /var/folders/fb/yfxt3z4538j6z0vjt03w70vc0000gn/T//cc0qjWS6.s 			page 160


 120:../../../lib/pd2dsy/libdaisy/src/dev/oled_ssd130x.h ****     };
 5777              		.loc 3 120 9 is_stmt 1 view .LVU1335
 120:../../../lib/pd2dsy/libdaisy/src/dev/oled_ssd130x.h ****     };
 5778              		.loc 3 120 22 is_stmt 0 view .LVU1336
 5779 0056 0A20     		movs	r0, #10
 5780 0058 FFF7FEFF 		bl	_ZN5daisy6System5DelayEm
 5781              	.LVL437:
 120:../../../lib/pd2dsy/libdaisy/src/dev/oled_ssd130x.h ****     };
 5782              		.loc 3 120 22 view .LVU1337
 5783 005c AE23     		movs	r3, #174
 5784              	.LBE1598:
 5785              	.LBE1601:
 5786              	.LBB1602:
 5787              	.LBB1603:
 124:../../../lib/pd2dsy/libdaisy/src/dev/oled_ssd130x.h ****         spi_.BlockingTransmit(&cmd, 1);
 5788              		.loc 3 124 23 view .LVU1338
 5789 005e 3046     		mov	r0, r6
 5790 0060 0021     		movs	r1, #0
 5791 0062 8DF80730 		strb	r3, [sp, #7]
 5792              	.LVL438:
 124:../../../lib/pd2dsy/libdaisy/src/dev/oled_ssd130x.h ****         spi_.BlockingTransmit(&cmd, 1);
 5793              		.loc 3 124 23 view .LVU1339
 5794              	.LBE1603:
 5795              	.LBI1602:
 122:../../../lib/pd2dsy/libdaisy/src/dev/oled_ssd130x.h ****     {
 5796              		.loc 3 122 10 is_stmt 1 view .LVU1340
 5797              	.LBB1604:
 124:../../../lib/pd2dsy/libdaisy/src/dev/oled_ssd130x.h ****         spi_.BlockingTransmit(&cmd, 1);
 5798              		.loc 3 124 9 view .LVU1341
 124:../../../lib/pd2dsy/libdaisy/src/dev/oled_ssd130x.h ****         spi_.BlockingTransmit(&cmd, 1);
 5799              		.loc 3 124 23 is_stmt 0 view .LVU1342
 5800 0066 FFF7FEFF 		bl	dsy_gpio_write
 5801              	.LVL439:
 125:../../../lib/pd2dsy/libdaisy/src/dev/oled_ssd130x.h ****     };
 5802              		.loc 3 125 9 is_stmt 1 view .LVU1343
 125:../../../lib/pd2dsy/libdaisy/src/dev/oled_ssd130x.h ****     };
 5803              		.loc 3 125 30 is_stmt 0 view .LVU1344
 5804 006a 2A46     		mov	r2, r5
 5805 006c 0DF10701 		add	r1, sp, #7
 5806 0070 6423     		movs	r3, #100
 5807 0072 2046     		mov	r0, r4
 5808 0074 FFF7FEFF 		bl	_ZN5daisy9SpiHandle16BlockingTransmitEPhjm
 5809              	.LVL440:
 125:../../../lib/pd2dsy/libdaisy/src/dev/oled_ssd130x.h ****     };
 5810              		.loc 3 125 30 view .LVU1345
 5811 0078 D523     		movs	r3, #213
 5812              	.LBE1604:
 5813              	.LBE1602:
 5814              	.LBB1605:
 5815              	.LBB1606:
 124:../../../lib/pd2dsy/libdaisy/src/dev/oled_ssd130x.h ****         spi_.BlockingTransmit(&cmd, 1);
 5816              		.loc 3 124 23 view .LVU1346
 5817 007a 3046     		mov	r0, r6
 5818 007c 0021     		movs	r1, #0
 5819 007e 8DF80730 		strb	r3, [sp, #7]
 5820              	.LVL441:
 124:../../../lib/pd2dsy/libdaisy/src/dev/oled_ssd130x.h ****         spi_.BlockingTransmit(&cmd, 1);
ARM GAS  /var/folders/fb/yfxt3z4538j6z0vjt03w70vc0000gn/T//cc0qjWS6.s 			page 161


 5821              		.loc 3 124 23 view .LVU1347
 5822              	.LBE1606:
 5823              	.LBI1605:
 122:../../../lib/pd2dsy/libdaisy/src/dev/oled_ssd130x.h ****     {
 5824              		.loc 3 122 10 is_stmt 1 view .LVU1348
 5825              	.LBB1607:
 124:../../../lib/pd2dsy/libdaisy/src/dev/oled_ssd130x.h ****         spi_.BlockingTransmit(&cmd, 1);
 5826              		.loc 3 124 9 view .LVU1349
 124:../../../lib/pd2dsy/libdaisy/src/dev/oled_ssd130x.h ****         spi_.BlockingTransmit(&cmd, 1);
 5827              		.loc 3 124 23 is_stmt 0 view .LVU1350
 5828 0082 FFF7FEFF 		bl	dsy_gpio_write
 5829              	.LVL442:
 125:../../../lib/pd2dsy/libdaisy/src/dev/oled_ssd130x.h ****     };
 5830              		.loc 3 125 9 is_stmt 1 view .LVU1351
 125:../../../lib/pd2dsy/libdaisy/src/dev/oled_ssd130x.h ****     };
 5831              		.loc 3 125 30 is_stmt 0 view .LVU1352
 5832 0086 2A46     		mov	r2, r5
 5833 0088 0DF10701 		add	r1, sp, #7
 5834 008c 6423     		movs	r3, #100
 5835 008e 2046     		mov	r0, r4
 5836 0090 FFF7FEFF 		bl	_ZN5daisy9SpiHandle16BlockingTransmitEPhjm
 5837              	.LVL443:
 125:../../../lib/pd2dsy/libdaisy/src/dev/oled_ssd130x.h ****     };
 5838              		.loc 3 125 30 view .LVU1353
 5839 0094 8023     		movs	r3, #128
 5840              	.LBE1607:
 5841              	.LBE1605:
 5842              	.LBB1608:
 5843              	.LBB1609:
 124:../../../lib/pd2dsy/libdaisy/src/dev/oled_ssd130x.h ****         spi_.BlockingTransmit(&cmd, 1);
 5844              		.loc 3 124 23 view .LVU1354
 5845 0096 3046     		mov	r0, r6
 5846 0098 0021     		movs	r1, #0
 5847 009a 8DF80730 		strb	r3, [sp, #7]
 5848              	.LVL444:
 124:../../../lib/pd2dsy/libdaisy/src/dev/oled_ssd130x.h ****         spi_.BlockingTransmit(&cmd, 1);
 5849              		.loc 3 124 23 view .LVU1355
 5850              	.LBE1609:
 5851              	.LBI1608:
 122:../../../lib/pd2dsy/libdaisy/src/dev/oled_ssd130x.h ****     {
 5852              		.loc 3 122 10 is_stmt 1 view .LVU1356
 5853              	.LBB1610:
 124:../../../lib/pd2dsy/libdaisy/src/dev/oled_ssd130x.h ****         spi_.BlockingTransmit(&cmd, 1);
 5854              		.loc 3 124 9 view .LVU1357
 124:../../../lib/pd2dsy/libdaisy/src/dev/oled_ssd130x.h ****         spi_.BlockingTransmit(&cmd, 1);
 5855              		.loc 3 124 23 is_stmt 0 view .LVU1358
 5856 009e FFF7FEFF 		bl	dsy_gpio_write
 5857              	.LVL445:
 125:../../../lib/pd2dsy/libdaisy/src/dev/oled_ssd130x.h ****     };
 5858              		.loc 3 125 9 is_stmt 1 view .LVU1359
 125:../../../lib/pd2dsy/libdaisy/src/dev/oled_ssd130x.h ****     };
 5859              		.loc 3 125 30 is_stmt 0 view .LVU1360
 5860 00a2 2A46     		mov	r2, r5
 5861 00a4 0DF10701 		add	r1, sp, #7
 5862 00a8 6423     		movs	r3, #100
 5863 00aa 2046     		mov	r0, r4
 5864 00ac FFF7FEFF 		bl	_ZN5daisy9SpiHandle16BlockingTransmitEPhjm
ARM GAS  /var/folders/fb/yfxt3z4538j6z0vjt03w70vc0000gn/T//cc0qjWS6.s 			page 162


 5865              	.LVL446:
 125:../../../lib/pd2dsy/libdaisy/src/dev/oled_ssd130x.h ****     };
 5866              		.loc 3 125 30 view .LVU1361
 5867 00b0 A823     		movs	r3, #168
 5868              	.LBE1610:
 5869              	.LBE1608:
 5870              	.LBB1611:
 5871              	.LBB1612:
 124:../../../lib/pd2dsy/libdaisy/src/dev/oled_ssd130x.h ****         spi_.BlockingTransmit(&cmd, 1);
 5872              		.loc 3 124 23 view .LVU1362
 5873 00b2 3046     		mov	r0, r6
 5874 00b4 0021     		movs	r1, #0
 5875 00b6 8DF80730 		strb	r3, [sp, #7]
 5876              	.LVL447:
 124:../../../lib/pd2dsy/libdaisy/src/dev/oled_ssd130x.h ****         spi_.BlockingTransmit(&cmd, 1);
 5877              		.loc 3 124 23 view .LVU1363
 5878              	.LBE1612:
 5879              	.LBI1611:
 122:../../../lib/pd2dsy/libdaisy/src/dev/oled_ssd130x.h ****     {
 5880              		.loc 3 122 10 is_stmt 1 view .LVU1364
 5881              	.LBB1613:
 124:../../../lib/pd2dsy/libdaisy/src/dev/oled_ssd130x.h ****         spi_.BlockingTransmit(&cmd, 1);
 5882              		.loc 3 124 9 view .LVU1365
 124:../../../lib/pd2dsy/libdaisy/src/dev/oled_ssd130x.h ****         spi_.BlockingTransmit(&cmd, 1);
 5883              		.loc 3 124 23 is_stmt 0 view .LVU1366
 5884 00ba FFF7FEFF 		bl	dsy_gpio_write
 5885              	.LVL448:
 125:../../../lib/pd2dsy/libdaisy/src/dev/oled_ssd130x.h ****     };
 5886              		.loc 3 125 9 is_stmt 1 view .LVU1367
 125:../../../lib/pd2dsy/libdaisy/src/dev/oled_ssd130x.h ****     };
 5887              		.loc 3 125 30 is_stmt 0 view .LVU1368
 5888 00be 2A46     		mov	r2, r5
 5889 00c0 0DF10701 		add	r1, sp, #7
 5890 00c4 6423     		movs	r3, #100
 5891 00c6 2046     		mov	r0, r4
 5892 00c8 FFF7FEFF 		bl	_ZN5daisy9SpiHandle16BlockingTransmitEPhjm
 5893              	.LVL449:
 125:../../../lib/pd2dsy/libdaisy/src/dev/oled_ssd130x.h ****     };
 5894              		.loc 3 125 30 view .LVU1369
 5895 00cc 3F23     		movs	r3, #63
 5896              	.LBE1613:
 5897              	.LBE1611:
 5898              	.LBB1614:
 5899              	.LBB1615:
 124:../../../lib/pd2dsy/libdaisy/src/dev/oled_ssd130x.h ****         spi_.BlockingTransmit(&cmd, 1);
 5900              		.loc 3 124 23 view .LVU1370
 5901 00ce 3046     		mov	r0, r6
 5902 00d0 0021     		movs	r1, #0
 5903 00d2 8DF80730 		strb	r3, [sp, #7]
 5904              	.LVL450:
 124:../../../lib/pd2dsy/libdaisy/src/dev/oled_ssd130x.h ****         spi_.BlockingTransmit(&cmd, 1);
 5905              		.loc 3 124 23 view .LVU1371
 5906              	.LBE1615:
 5907              	.LBI1614:
 122:../../../lib/pd2dsy/libdaisy/src/dev/oled_ssd130x.h ****     {
 5908              		.loc 3 122 10 is_stmt 1 view .LVU1372
 5909              	.LBB1616:
ARM GAS  /var/folders/fb/yfxt3z4538j6z0vjt03w70vc0000gn/T//cc0qjWS6.s 			page 163


 124:../../../lib/pd2dsy/libdaisy/src/dev/oled_ssd130x.h ****         spi_.BlockingTransmit(&cmd, 1);
 5910              		.loc 3 124 9 view .LVU1373
 124:../../../lib/pd2dsy/libdaisy/src/dev/oled_ssd130x.h ****         spi_.BlockingTransmit(&cmd, 1);
 5911              		.loc 3 124 23 is_stmt 0 view .LVU1374
 5912 00d6 FFF7FEFF 		bl	dsy_gpio_write
 5913              	.LVL451:
 125:../../../lib/pd2dsy/libdaisy/src/dev/oled_ssd130x.h ****     };
 5914              		.loc 3 125 9 is_stmt 1 view .LVU1375
 125:../../../lib/pd2dsy/libdaisy/src/dev/oled_ssd130x.h ****     };
 5915              		.loc 3 125 30 is_stmt 0 view .LVU1376
 5916 00da 2A46     		mov	r2, r5
 5917 00dc 0DF10701 		add	r1, sp, #7
 5918 00e0 6423     		movs	r3, #100
 5919 00e2 2046     		mov	r0, r4
 5920 00e4 FFF7FEFF 		bl	_ZN5daisy9SpiHandle16BlockingTransmitEPhjm
 5921              	.LVL452:
 125:../../../lib/pd2dsy/libdaisy/src/dev/oled_ssd130x.h ****     };
 5922              		.loc 3 125 30 view .LVU1377
 5923 00e8 DA23     		movs	r3, #218
 5924              	.LBE1616:
 5925              	.LBE1614:
 5926              	.LBB1617:
 5927              	.LBB1618:
 124:../../../lib/pd2dsy/libdaisy/src/dev/oled_ssd130x.h ****         spi_.BlockingTransmit(&cmd, 1);
 5928              		.loc 3 124 23 view .LVU1378
 5929 00ea 3046     		mov	r0, r6
 5930 00ec 0021     		movs	r1, #0
 5931 00ee 8DF80730 		strb	r3, [sp, #7]
 5932              	.LVL453:
 124:../../../lib/pd2dsy/libdaisy/src/dev/oled_ssd130x.h ****         spi_.BlockingTransmit(&cmd, 1);
 5933              		.loc 3 124 23 view .LVU1379
 5934              	.LBE1618:
 5935              	.LBI1617:
 122:../../../lib/pd2dsy/libdaisy/src/dev/oled_ssd130x.h ****     {
 5936              		.loc 3 122 10 is_stmt 1 view .LVU1380
 5937              	.LBB1619:
 124:../../../lib/pd2dsy/libdaisy/src/dev/oled_ssd130x.h ****         spi_.BlockingTransmit(&cmd, 1);
 5938              		.loc 3 124 9 view .LVU1381
 124:../../../lib/pd2dsy/libdaisy/src/dev/oled_ssd130x.h ****         spi_.BlockingTransmit(&cmd, 1);
 5939              		.loc 3 124 23 is_stmt 0 view .LVU1382
 5940 00f2 FFF7FEFF 		bl	dsy_gpio_write
 5941              	.LVL454:
 125:../../../lib/pd2dsy/libdaisy/src/dev/oled_ssd130x.h ****     };
 5942              		.loc 3 125 9 is_stmt 1 view .LVU1383
 125:../../../lib/pd2dsy/libdaisy/src/dev/oled_ssd130x.h ****     };
 5943              		.loc 3 125 30 is_stmt 0 view .LVU1384
 5944 00f6 2A46     		mov	r2, r5
 5945 00f8 0DF10701 		add	r1, sp, #7
 5946 00fc 6423     		movs	r3, #100
 5947 00fe 2046     		mov	r0, r4
 5948 0100 FFF7FEFF 		bl	_ZN5daisy9SpiHandle16BlockingTransmitEPhjm
 5949              	.LVL455:
 125:../../../lib/pd2dsy/libdaisy/src/dev/oled_ssd130x.h ****     };
 5950              		.loc 3 125 30 view .LVU1385
 5951 0104 1223     		movs	r3, #18
 5952              	.LBE1619:
 5953              	.LBE1617:
ARM GAS  /var/folders/fb/yfxt3z4538j6z0vjt03w70vc0000gn/T//cc0qjWS6.s 			page 164


 5954              	.LBB1620:
 5955              	.LBB1621:
 124:../../../lib/pd2dsy/libdaisy/src/dev/oled_ssd130x.h ****         spi_.BlockingTransmit(&cmd, 1);
 5956              		.loc 3 124 23 view .LVU1386
 5957 0106 3046     		mov	r0, r6
 5958 0108 0021     		movs	r1, #0
 5959 010a 8DF80730 		strb	r3, [sp, #7]
 5960              	.LVL456:
 124:../../../lib/pd2dsy/libdaisy/src/dev/oled_ssd130x.h ****         spi_.BlockingTransmit(&cmd, 1);
 5961              		.loc 3 124 23 view .LVU1387
 5962              	.LBE1621:
 5963              	.LBI1620:
 122:../../../lib/pd2dsy/libdaisy/src/dev/oled_ssd130x.h ****     {
 5964              		.loc 3 122 10 is_stmt 1 view .LVU1388
 5965              	.LBB1622:
 124:../../../lib/pd2dsy/libdaisy/src/dev/oled_ssd130x.h ****         spi_.BlockingTransmit(&cmd, 1);
 5966              		.loc 3 124 9 view .LVU1389
 124:../../../lib/pd2dsy/libdaisy/src/dev/oled_ssd130x.h ****         spi_.BlockingTransmit(&cmd, 1);
 5967              		.loc 3 124 23 is_stmt 0 view .LVU1390
 5968 010e FFF7FEFF 		bl	dsy_gpio_write
 5969              	.LVL457:
 125:../../../lib/pd2dsy/libdaisy/src/dev/oled_ssd130x.h ****     };
 5970              		.loc 3 125 9 is_stmt 1 view .LVU1391
 125:../../../lib/pd2dsy/libdaisy/src/dev/oled_ssd130x.h ****     };
 5971              		.loc 3 125 30 is_stmt 0 view .LVU1392
 5972 0112 2A46     		mov	r2, r5
 5973 0114 0DF10701 		add	r1, sp, #7
 5974 0118 6423     		movs	r3, #100
 5975 011a 2046     		mov	r0, r4
 5976 011c FFF7FEFF 		bl	_ZN5daisy9SpiHandle16BlockingTransmitEPhjm
 5977              	.LVL458:
 125:../../../lib/pd2dsy/libdaisy/src/dev/oled_ssd130x.h ****     };
 5978              		.loc 3 125 30 view .LVU1393
 5979              	.LBE1622:
 5980              	.LBE1620:
 5981              	.LBB1623:
 5982              	.LBB1624:
 124:../../../lib/pd2dsy/libdaisy/src/dev/oled_ssd130x.h ****         spi_.BlockingTransmit(&cmd, 1);
 5983              		.loc 3 124 23 view .LVU1394
 5984 0120 0021     		movs	r1, #0
 5985 0122 D323     		movs	r3, #211
 5986 0124 3046     		mov	r0, r6
 5987 0126 0F46     		mov	r7, r1
 5988 0128 8DF80730 		strb	r3, [sp, #7]
 5989              	.LVL459:
 124:../../../lib/pd2dsy/libdaisy/src/dev/oled_ssd130x.h ****         spi_.BlockingTransmit(&cmd, 1);
 5990              		.loc 3 124 23 view .LVU1395
 5991              	.LBE1624:
 5992              	.LBI1623:
 122:../../../lib/pd2dsy/libdaisy/src/dev/oled_ssd130x.h ****     {
 5993              		.loc 3 122 10 is_stmt 1 view .LVU1396
 5994              	.LBB1625:
 124:../../../lib/pd2dsy/libdaisy/src/dev/oled_ssd130x.h ****         spi_.BlockingTransmit(&cmd, 1);
 5995              		.loc 3 124 9 view .LVU1397
 124:../../../lib/pd2dsy/libdaisy/src/dev/oled_ssd130x.h ****         spi_.BlockingTransmit(&cmd, 1);
 5996              		.loc 3 124 23 is_stmt 0 view .LVU1398
 5997 012c FFF7FEFF 		bl	dsy_gpio_write
ARM GAS  /var/folders/fb/yfxt3z4538j6z0vjt03w70vc0000gn/T//cc0qjWS6.s 			page 165


 5998              	.LVL460:
 125:../../../lib/pd2dsy/libdaisy/src/dev/oled_ssd130x.h ****     };
 5999              		.loc 3 125 9 is_stmt 1 view .LVU1399
 125:../../../lib/pd2dsy/libdaisy/src/dev/oled_ssd130x.h ****     };
 6000              		.loc 3 125 30 is_stmt 0 view .LVU1400
 6001 0130 2A46     		mov	r2, r5
 6002 0132 6423     		movs	r3, #100
 6003 0134 0DF10701 		add	r1, sp, #7
 6004 0138 2046     		mov	r0, r4
 6005 013a FFF7FEFF 		bl	_ZN5daisy9SpiHandle16BlockingTransmitEPhjm
 6006              	.LVL461:
 125:../../../lib/pd2dsy/libdaisy/src/dev/oled_ssd130x.h ****     };
 6007              		.loc 3 125 30 view .LVU1401
 6008              	.LBE1625:
 6009              	.LBE1623:
 6010              	.LBB1626:
 6011              	.LBB1627:
 124:../../../lib/pd2dsy/libdaisy/src/dev/oled_ssd130x.h ****         spi_.BlockingTransmit(&cmd, 1);
 6012              		.loc 3 124 23 view .LVU1402
 6013 013e 3946     		mov	r1, r7
 6014 0140 3046     		mov	r0, r6
 6015 0142 8DF80770 		strb	r7, [sp, #7]
 6016              	.LVL462:
 124:../../../lib/pd2dsy/libdaisy/src/dev/oled_ssd130x.h ****         spi_.BlockingTransmit(&cmd, 1);
 6017              		.loc 3 124 23 view .LVU1403
 6018              	.LBE1627:
 6019              	.LBI1626:
 122:../../../lib/pd2dsy/libdaisy/src/dev/oled_ssd130x.h ****     {
 6020              		.loc 3 122 10 is_stmt 1 view .LVU1404
 6021              	.LBB1628:
 124:../../../lib/pd2dsy/libdaisy/src/dev/oled_ssd130x.h ****         spi_.BlockingTransmit(&cmd, 1);
 6022              		.loc 3 124 9 view .LVU1405
 124:../../../lib/pd2dsy/libdaisy/src/dev/oled_ssd130x.h ****         spi_.BlockingTransmit(&cmd, 1);
 6023              		.loc 3 124 23 is_stmt 0 view .LVU1406
 6024 0146 FFF7FEFF 		bl	dsy_gpio_write
 6025              	.LVL463:
 125:../../../lib/pd2dsy/libdaisy/src/dev/oled_ssd130x.h ****     };
 6026              		.loc 3 125 9 is_stmt 1 view .LVU1407
 125:../../../lib/pd2dsy/libdaisy/src/dev/oled_ssd130x.h ****     };
 6027              		.loc 3 125 30 is_stmt 0 view .LVU1408
 6028 014a 2A46     		mov	r2, r5
 6029 014c 0DF10701 		add	r1, sp, #7
 6030 0150 6423     		movs	r3, #100
 6031 0152 2046     		mov	r0, r4
 6032 0154 FFF7FEFF 		bl	_ZN5daisy9SpiHandle16BlockingTransmitEPhjm
 6033              	.LVL464:
 125:../../../lib/pd2dsy/libdaisy/src/dev/oled_ssd130x.h ****     };
 6034              		.loc 3 125 30 view .LVU1409
 6035 0158 4023     		movs	r3, #64
 6036              	.LBE1628:
 6037              	.LBE1626:
 6038              	.LBB1629:
 6039              	.LBB1630:
 124:../../../lib/pd2dsy/libdaisy/src/dev/oled_ssd130x.h ****         spi_.BlockingTransmit(&cmd, 1);
 6040              		.loc 3 124 23 view .LVU1410
 6041 015a 3946     		mov	r1, r7
 6042 015c 3046     		mov	r0, r6
ARM GAS  /var/folders/fb/yfxt3z4538j6z0vjt03w70vc0000gn/T//cc0qjWS6.s 			page 166


 6043 015e 8DF80730 		strb	r3, [sp, #7]
 6044              	.LVL465:
 124:../../../lib/pd2dsy/libdaisy/src/dev/oled_ssd130x.h ****         spi_.BlockingTransmit(&cmd, 1);
 6045              		.loc 3 124 23 view .LVU1411
 6046              	.LBE1630:
 6047              	.LBI1629:
 122:../../../lib/pd2dsy/libdaisy/src/dev/oled_ssd130x.h ****     {
 6048              		.loc 3 122 10 is_stmt 1 view .LVU1412
 6049              	.LBB1631:
 124:../../../lib/pd2dsy/libdaisy/src/dev/oled_ssd130x.h ****         spi_.BlockingTransmit(&cmd, 1);
 6050              		.loc 3 124 9 view .LVU1413
 124:../../../lib/pd2dsy/libdaisy/src/dev/oled_ssd130x.h ****         spi_.BlockingTransmit(&cmd, 1);
 6051              		.loc 3 124 23 is_stmt 0 view .LVU1414
 6052 0162 FFF7FEFF 		bl	dsy_gpio_write
 6053              	.LVL466:
 125:../../../lib/pd2dsy/libdaisy/src/dev/oled_ssd130x.h ****     };
 6054              		.loc 3 125 9 is_stmt 1 view .LVU1415
 125:../../../lib/pd2dsy/libdaisy/src/dev/oled_ssd130x.h ****     };
 6055              		.loc 3 125 30 is_stmt 0 view .LVU1416
 6056 0166 2A46     		mov	r2, r5
 6057 0168 0DF10701 		add	r1, sp, #7
 6058 016c 6423     		movs	r3, #100
 6059 016e 2046     		mov	r0, r4
 6060 0170 FFF7FEFF 		bl	_ZN5daisy9SpiHandle16BlockingTransmitEPhjm
 6061              	.LVL467:
 125:../../../lib/pd2dsy/libdaisy/src/dev/oled_ssd130x.h ****     };
 6062              		.loc 3 125 30 view .LVU1417
 6063 0174 A623     		movs	r3, #166
 6064              	.LBE1631:
 6065              	.LBE1629:
 6066              	.LBB1632:
 6067              	.LBB1633:
 124:../../../lib/pd2dsy/libdaisy/src/dev/oled_ssd130x.h ****         spi_.BlockingTransmit(&cmd, 1);
 6068              		.loc 3 124 23 view .LVU1418
 6069 0176 3946     		mov	r1, r7
 6070 0178 3046     		mov	r0, r6
 6071 017a 8DF80730 		strb	r3, [sp, #7]
 6072              	.LVL468:
 124:../../../lib/pd2dsy/libdaisy/src/dev/oled_ssd130x.h ****         spi_.BlockingTransmit(&cmd, 1);
 6073              		.loc 3 124 23 view .LVU1419
 6074              	.LBE1633:
 6075              	.LBI1632:
 122:../../../lib/pd2dsy/libdaisy/src/dev/oled_ssd130x.h ****     {
 6076              		.loc 3 122 10 is_stmt 1 view .LVU1420
 6077              	.LBB1634:
 124:../../../lib/pd2dsy/libdaisy/src/dev/oled_ssd130x.h ****         spi_.BlockingTransmit(&cmd, 1);
 6078              		.loc 3 124 9 view .LVU1421
 124:../../../lib/pd2dsy/libdaisy/src/dev/oled_ssd130x.h ****         spi_.BlockingTransmit(&cmd, 1);
 6079              		.loc 3 124 23 is_stmt 0 view .LVU1422
 6080 017e FFF7FEFF 		bl	dsy_gpio_write
 6081              	.LVL469:
 125:../../../lib/pd2dsy/libdaisy/src/dev/oled_ssd130x.h ****     };
 6082              		.loc 3 125 9 is_stmt 1 view .LVU1423
 125:../../../lib/pd2dsy/libdaisy/src/dev/oled_ssd130x.h ****     };
 6083              		.loc 3 125 30 is_stmt 0 view .LVU1424
 6084 0182 2A46     		mov	r2, r5
 6085 0184 0DF10701 		add	r1, sp, #7
ARM GAS  /var/folders/fb/yfxt3z4538j6z0vjt03w70vc0000gn/T//cc0qjWS6.s 			page 167


 6086 0188 6423     		movs	r3, #100
 6087 018a 2046     		mov	r0, r4
 6088 018c FFF7FEFF 		bl	_ZN5daisy9SpiHandle16BlockingTransmitEPhjm
 6089              	.LVL470:
 125:../../../lib/pd2dsy/libdaisy/src/dev/oled_ssd130x.h ****     };
 6090              		.loc 3 125 30 view .LVU1425
 6091 0190 A423     		movs	r3, #164
 6092              	.LBE1634:
 6093              	.LBE1632:
 6094              	.LBB1635:
 6095              	.LBB1636:
 124:../../../lib/pd2dsy/libdaisy/src/dev/oled_ssd130x.h ****         spi_.BlockingTransmit(&cmd, 1);
 6096              		.loc 3 124 23 view .LVU1426
 6097 0192 3946     		mov	r1, r7
 6098 0194 3046     		mov	r0, r6
 6099 0196 8DF80730 		strb	r3, [sp, #7]
 6100              	.LVL471:
 124:../../../lib/pd2dsy/libdaisy/src/dev/oled_ssd130x.h ****         spi_.BlockingTransmit(&cmd, 1);
 6101              		.loc 3 124 23 view .LVU1427
 6102              	.LBE1636:
 6103              	.LBI1635:
 122:../../../lib/pd2dsy/libdaisy/src/dev/oled_ssd130x.h ****     {
 6104              		.loc 3 122 10 is_stmt 1 view .LVU1428
 6105              	.LBB1637:
 124:../../../lib/pd2dsy/libdaisy/src/dev/oled_ssd130x.h ****         spi_.BlockingTransmit(&cmd, 1);
 6106              		.loc 3 124 9 view .LVU1429
 124:../../../lib/pd2dsy/libdaisy/src/dev/oled_ssd130x.h ****         spi_.BlockingTransmit(&cmd, 1);
 6107              		.loc 3 124 23 is_stmt 0 view .LVU1430
 6108 019a FFF7FEFF 		bl	dsy_gpio_write
 6109              	.LVL472:
 125:../../../lib/pd2dsy/libdaisy/src/dev/oled_ssd130x.h ****     };
 6110              		.loc 3 125 9 is_stmt 1 view .LVU1431
 125:../../../lib/pd2dsy/libdaisy/src/dev/oled_ssd130x.h ****     };
 6111              		.loc 3 125 30 is_stmt 0 view .LVU1432
 6112 019e 2A46     		mov	r2, r5
 6113 01a0 0DF10701 		add	r1, sp, #7
 6114 01a4 6423     		movs	r3, #100
 6115 01a6 2046     		mov	r0, r4
 6116 01a8 FFF7FEFF 		bl	_ZN5daisy9SpiHandle16BlockingTransmitEPhjm
 6117              	.LVL473:
 125:../../../lib/pd2dsy/libdaisy/src/dev/oled_ssd130x.h ****     };
 6118              		.loc 3 125 30 view .LVU1433
 6119 01ac 8D23     		movs	r3, #141
 6120              	.LBE1637:
 6121              	.LBE1635:
 6122              	.LBB1638:
 6123              	.LBB1639:
 124:../../../lib/pd2dsy/libdaisy/src/dev/oled_ssd130x.h ****         spi_.BlockingTransmit(&cmd, 1);
 6124              		.loc 3 124 23 view .LVU1434
 6125 01ae 3946     		mov	r1, r7
 6126 01b0 3046     		mov	r0, r6
 6127 01b2 8DF80730 		strb	r3, [sp, #7]
 6128              	.LVL474:
 124:../../../lib/pd2dsy/libdaisy/src/dev/oled_ssd130x.h ****         spi_.BlockingTransmit(&cmd, 1);
 6129              		.loc 3 124 23 view .LVU1435
 6130              	.LBE1639:
 6131              	.LBI1638:
ARM GAS  /var/folders/fb/yfxt3z4538j6z0vjt03w70vc0000gn/T//cc0qjWS6.s 			page 168


 122:../../../lib/pd2dsy/libdaisy/src/dev/oled_ssd130x.h ****     {
 6132              		.loc 3 122 10 is_stmt 1 view .LVU1436
 6133              	.LBB1640:
 124:../../../lib/pd2dsy/libdaisy/src/dev/oled_ssd130x.h ****         spi_.BlockingTransmit(&cmd, 1);
 6134              		.loc 3 124 9 view .LVU1437
 124:../../../lib/pd2dsy/libdaisy/src/dev/oled_ssd130x.h ****         spi_.BlockingTransmit(&cmd, 1);
 6135              		.loc 3 124 23 is_stmt 0 view .LVU1438
 6136 01b6 FFF7FEFF 		bl	dsy_gpio_write
 6137              	.LVL475:
 125:../../../lib/pd2dsy/libdaisy/src/dev/oled_ssd130x.h ****     };
 6138              		.loc 3 125 9 is_stmt 1 view .LVU1439
 125:../../../lib/pd2dsy/libdaisy/src/dev/oled_ssd130x.h ****     };
 6139              		.loc 3 125 30 is_stmt 0 view .LVU1440
 6140 01ba 2A46     		mov	r2, r5
 6141 01bc 0DF10701 		add	r1, sp, #7
 6142 01c0 6423     		movs	r3, #100
 6143 01c2 2046     		mov	r0, r4
 6144 01c4 FFF7FEFF 		bl	_ZN5daisy9SpiHandle16BlockingTransmitEPhjm
 6145              	.LVL476:
 125:../../../lib/pd2dsy/libdaisy/src/dev/oled_ssd130x.h ****     };
 6146              		.loc 3 125 30 view .LVU1441
 6147 01c8 1423     		movs	r3, #20
 6148              	.LBE1640:
 6149              	.LBE1638:
 6150              	.LBB1641:
 6151              	.LBB1642:
 124:../../../lib/pd2dsy/libdaisy/src/dev/oled_ssd130x.h ****         spi_.BlockingTransmit(&cmd, 1);
 6152              		.loc 3 124 23 view .LVU1442
 6153 01ca 3946     		mov	r1, r7
 6154 01cc 3046     		mov	r0, r6
 6155 01ce 8DF80730 		strb	r3, [sp, #7]
 6156              	.LVL477:
 124:../../../lib/pd2dsy/libdaisy/src/dev/oled_ssd130x.h ****         spi_.BlockingTransmit(&cmd, 1);
 6157              		.loc 3 124 23 view .LVU1443
 6158              	.LBE1642:
 6159              	.LBI1641:
 122:../../../lib/pd2dsy/libdaisy/src/dev/oled_ssd130x.h ****     {
 6160              		.loc 3 122 10 is_stmt 1 view .LVU1444
 6161              	.LBB1643:
 124:../../../lib/pd2dsy/libdaisy/src/dev/oled_ssd130x.h ****         spi_.BlockingTransmit(&cmd, 1);
 6162              		.loc 3 124 9 view .LVU1445
 124:../../../lib/pd2dsy/libdaisy/src/dev/oled_ssd130x.h ****         spi_.BlockingTransmit(&cmd, 1);
 6163              		.loc 3 124 23 is_stmt 0 view .LVU1446
 6164 01d2 FFF7FEFF 		bl	dsy_gpio_write
 6165              	.LVL478:
 125:../../../lib/pd2dsy/libdaisy/src/dev/oled_ssd130x.h ****     };
 6166              		.loc 3 125 9 is_stmt 1 view .LVU1447
 125:../../../lib/pd2dsy/libdaisy/src/dev/oled_ssd130x.h ****     };
 6167              		.loc 3 125 30 is_stmt 0 view .LVU1448
 6168 01d6 2A46     		mov	r2, r5
 6169 01d8 0DF10701 		add	r1, sp, #7
 6170 01dc 6423     		movs	r3, #100
 6171 01de 2046     		mov	r0, r4
 6172 01e0 FFF7FEFF 		bl	_ZN5daisy9SpiHandle16BlockingTransmitEPhjm
 6173              	.LVL479:
 125:../../../lib/pd2dsy/libdaisy/src/dev/oled_ssd130x.h ****     };
 6174              		.loc 3 125 30 view .LVU1449
ARM GAS  /var/folders/fb/yfxt3z4538j6z0vjt03w70vc0000gn/T//cc0qjWS6.s 			page 169


 6175 01e4 A123     		movs	r3, #161
 6176              	.LBE1643:
 6177              	.LBE1641:
 6178              	.LBB1644:
 6179              	.LBB1645:
 124:../../../lib/pd2dsy/libdaisy/src/dev/oled_ssd130x.h ****         spi_.BlockingTransmit(&cmd, 1);
 6180              		.loc 3 124 23 view .LVU1450
 6181 01e6 3946     		mov	r1, r7
 6182 01e8 3046     		mov	r0, r6
 6183 01ea 8DF80730 		strb	r3, [sp, #7]
 6184              	.LVL480:
 124:../../../lib/pd2dsy/libdaisy/src/dev/oled_ssd130x.h ****         spi_.BlockingTransmit(&cmd, 1);
 6185              		.loc 3 124 23 view .LVU1451
 6186              	.LBE1645:
 6187              	.LBI1644:
 122:../../../lib/pd2dsy/libdaisy/src/dev/oled_ssd130x.h ****     {
 6188              		.loc 3 122 10 is_stmt 1 view .LVU1452
 6189              	.LBB1646:
 124:../../../lib/pd2dsy/libdaisy/src/dev/oled_ssd130x.h ****         spi_.BlockingTransmit(&cmd, 1);
 6190              		.loc 3 124 9 view .LVU1453
 124:../../../lib/pd2dsy/libdaisy/src/dev/oled_ssd130x.h ****         spi_.BlockingTransmit(&cmd, 1);
 6191              		.loc 3 124 23 is_stmt 0 view .LVU1454
 6192 01ee FFF7FEFF 		bl	dsy_gpio_write
 6193              	.LVL481:
 125:../../../lib/pd2dsy/libdaisy/src/dev/oled_ssd130x.h ****     };
 6194              		.loc 3 125 9 is_stmt 1 view .LVU1455
 125:../../../lib/pd2dsy/libdaisy/src/dev/oled_ssd130x.h ****     };
 6195              		.loc 3 125 30 is_stmt 0 view .LVU1456
 6196 01f2 2A46     		mov	r2, r5
 6197 01f4 0DF10701 		add	r1, sp, #7
 6198 01f8 6423     		movs	r3, #100
 6199 01fa 2046     		mov	r0, r4
 6200 01fc FFF7FEFF 		bl	_ZN5daisy9SpiHandle16BlockingTransmitEPhjm
 6201              	.LVL482:
 125:../../../lib/pd2dsy/libdaisy/src/dev/oled_ssd130x.h ****     };
 6202              		.loc 3 125 30 view .LVU1457
 6203 0200 C823     		movs	r3, #200
 6204              	.LBE1646:
 6205              	.LBE1644:
 6206              	.LBB1647:
 6207              	.LBB1648:
 124:../../../lib/pd2dsy/libdaisy/src/dev/oled_ssd130x.h ****         spi_.BlockingTransmit(&cmd, 1);
 6208              		.loc 3 124 23 view .LVU1458
 6209 0202 3946     		mov	r1, r7
 6210 0204 3046     		mov	r0, r6
 6211 0206 8DF80730 		strb	r3, [sp, #7]
 6212              	.LVL483:
 124:../../../lib/pd2dsy/libdaisy/src/dev/oled_ssd130x.h ****         spi_.BlockingTransmit(&cmd, 1);
 6213              		.loc 3 124 23 view .LVU1459
 6214              	.LBE1648:
 6215              	.LBI1647:
 122:../../../lib/pd2dsy/libdaisy/src/dev/oled_ssd130x.h ****     {
 6216              		.loc 3 122 10 is_stmt 1 view .LVU1460
 6217              	.LBB1649:
 124:../../../lib/pd2dsy/libdaisy/src/dev/oled_ssd130x.h ****         spi_.BlockingTransmit(&cmd, 1);
 6218              		.loc 3 124 9 view .LVU1461
 124:../../../lib/pd2dsy/libdaisy/src/dev/oled_ssd130x.h ****         spi_.BlockingTransmit(&cmd, 1);
ARM GAS  /var/folders/fb/yfxt3z4538j6z0vjt03w70vc0000gn/T//cc0qjWS6.s 			page 170


 6219              		.loc 3 124 23 is_stmt 0 view .LVU1462
 6220 020a FFF7FEFF 		bl	dsy_gpio_write
 6221              	.LVL484:
 125:../../../lib/pd2dsy/libdaisy/src/dev/oled_ssd130x.h ****     };
 6222              		.loc 3 125 9 is_stmt 1 view .LVU1463
 125:../../../lib/pd2dsy/libdaisy/src/dev/oled_ssd130x.h ****     };
 6223              		.loc 3 125 30 is_stmt 0 view .LVU1464
 6224 020e 2A46     		mov	r2, r5
 6225 0210 0DF10701 		add	r1, sp, #7
 6226 0214 6423     		movs	r3, #100
 6227 0216 2046     		mov	r0, r4
 6228 0218 FFF7FEFF 		bl	_ZN5daisy9SpiHandle16BlockingTransmitEPhjm
 6229              	.LVL485:
 125:../../../lib/pd2dsy/libdaisy/src/dev/oled_ssd130x.h ****     };
 6230              		.loc 3 125 30 view .LVU1465
 6231 021c 8123     		movs	r3, #129
 6232              	.LBE1649:
 6233              	.LBE1647:
 6234              	.LBB1650:
 6235              	.LBB1651:
 124:../../../lib/pd2dsy/libdaisy/src/dev/oled_ssd130x.h ****         spi_.BlockingTransmit(&cmd, 1);
 6236              		.loc 3 124 23 view .LVU1466
 6237 021e 3946     		mov	r1, r7
 6238 0220 3046     		mov	r0, r6
 6239 0222 8DF80730 		strb	r3, [sp, #7]
 6240              	.LVL486:
 124:../../../lib/pd2dsy/libdaisy/src/dev/oled_ssd130x.h ****         spi_.BlockingTransmit(&cmd, 1);
 6241              		.loc 3 124 23 view .LVU1467
 6242              	.LBE1651:
 6243              	.LBI1650:
 122:../../../lib/pd2dsy/libdaisy/src/dev/oled_ssd130x.h ****     {
 6244              		.loc 3 122 10 is_stmt 1 view .LVU1468
 6245              	.LBB1652:
 124:../../../lib/pd2dsy/libdaisy/src/dev/oled_ssd130x.h ****         spi_.BlockingTransmit(&cmd, 1);
 6246              		.loc 3 124 9 view .LVU1469
 124:../../../lib/pd2dsy/libdaisy/src/dev/oled_ssd130x.h ****         spi_.BlockingTransmit(&cmd, 1);
 6247              		.loc 3 124 23 is_stmt 0 view .LVU1470
 6248 0226 FFF7FEFF 		bl	dsy_gpio_write
 6249              	.LVL487:
 125:../../../lib/pd2dsy/libdaisy/src/dev/oled_ssd130x.h ****     };
 6250              		.loc 3 125 9 is_stmt 1 view .LVU1471
 125:../../../lib/pd2dsy/libdaisy/src/dev/oled_ssd130x.h ****     };
 6251              		.loc 3 125 30 is_stmt 0 view .LVU1472
 6252 022a 2A46     		mov	r2, r5
 6253 022c 0DF10701 		add	r1, sp, #7
 6254 0230 6423     		movs	r3, #100
 6255 0232 2046     		mov	r0, r4
 6256 0234 FFF7FEFF 		bl	_ZN5daisy9SpiHandle16BlockingTransmitEPhjm
 6257              	.LVL488:
 125:../../../lib/pd2dsy/libdaisy/src/dev/oled_ssd130x.h ****     };
 6258              		.loc 3 125 30 view .LVU1473
 6259 0238 8F23     		movs	r3, #143
 6260              	.LBE1652:
 6261              	.LBE1650:
 6262              	.LBB1653:
 6263              	.LBB1654:
 124:../../../lib/pd2dsy/libdaisy/src/dev/oled_ssd130x.h ****         spi_.BlockingTransmit(&cmd, 1);
ARM GAS  /var/folders/fb/yfxt3z4538j6z0vjt03w70vc0000gn/T//cc0qjWS6.s 			page 171


 6264              		.loc 3 124 23 view .LVU1474
 6265 023a 3946     		mov	r1, r7
 6266 023c 3046     		mov	r0, r6
 6267 023e 8DF80730 		strb	r3, [sp, #7]
 6268              	.LVL489:
 124:../../../lib/pd2dsy/libdaisy/src/dev/oled_ssd130x.h ****         spi_.BlockingTransmit(&cmd, 1);
 6269              		.loc 3 124 23 view .LVU1475
 6270              	.LBE1654:
 6271              	.LBI1653:
 122:../../../lib/pd2dsy/libdaisy/src/dev/oled_ssd130x.h ****     {
 6272              		.loc 3 122 10 is_stmt 1 view .LVU1476
 6273              	.LBB1655:
 124:../../../lib/pd2dsy/libdaisy/src/dev/oled_ssd130x.h ****         spi_.BlockingTransmit(&cmd, 1);
 6274              		.loc 3 124 9 view .LVU1477
 124:../../../lib/pd2dsy/libdaisy/src/dev/oled_ssd130x.h ****         spi_.BlockingTransmit(&cmd, 1);
 6275              		.loc 3 124 23 is_stmt 0 view .LVU1478
 6276 0242 FFF7FEFF 		bl	dsy_gpio_write
 6277              	.LVL490:
 125:../../../lib/pd2dsy/libdaisy/src/dev/oled_ssd130x.h ****     };
 6278              		.loc 3 125 9 is_stmt 1 view .LVU1479
 125:../../../lib/pd2dsy/libdaisy/src/dev/oled_ssd130x.h ****     };
 6279              		.loc 3 125 30 is_stmt 0 view .LVU1480
 6280 0246 2A46     		mov	r2, r5
 6281 0248 0DF10701 		add	r1, sp, #7
 6282 024c 6423     		movs	r3, #100
 6283 024e 2046     		mov	r0, r4
 6284 0250 FFF7FEFF 		bl	_ZN5daisy9SpiHandle16BlockingTransmitEPhjm
 6285              	.LVL491:
 125:../../../lib/pd2dsy/libdaisy/src/dev/oled_ssd130x.h ****     };
 6286              		.loc 3 125 30 view .LVU1481
 6287 0254 D923     		movs	r3, #217
 6288              	.LBE1655:
 6289              	.LBE1653:
 6290              	.LBB1656:
 6291              	.LBB1657:
 124:../../../lib/pd2dsy/libdaisy/src/dev/oled_ssd130x.h ****         spi_.BlockingTransmit(&cmd, 1);
 6292              		.loc 3 124 23 view .LVU1482
 6293 0256 3946     		mov	r1, r7
 6294 0258 3046     		mov	r0, r6
 6295 025a 8DF80730 		strb	r3, [sp, #7]
 6296              	.LVL492:
 124:../../../lib/pd2dsy/libdaisy/src/dev/oled_ssd130x.h ****         spi_.BlockingTransmit(&cmd, 1);
 6297              		.loc 3 124 23 view .LVU1483
 6298              	.LBE1657:
 6299              	.LBI1656:
 122:../../../lib/pd2dsy/libdaisy/src/dev/oled_ssd130x.h ****     {
 6300              		.loc 3 122 10 is_stmt 1 view .LVU1484
 6301              	.LBB1658:
 124:../../../lib/pd2dsy/libdaisy/src/dev/oled_ssd130x.h ****         spi_.BlockingTransmit(&cmd, 1);
 6302              		.loc 3 124 9 view .LVU1485
 124:../../../lib/pd2dsy/libdaisy/src/dev/oled_ssd130x.h ****         spi_.BlockingTransmit(&cmd, 1);
 6303              		.loc 3 124 23 is_stmt 0 view .LVU1486
 6304 025e FFF7FEFF 		bl	dsy_gpio_write
 6305              	.LVL493:
 125:../../../lib/pd2dsy/libdaisy/src/dev/oled_ssd130x.h ****     };
 6306              		.loc 3 125 9 is_stmt 1 view .LVU1487
 125:../../../lib/pd2dsy/libdaisy/src/dev/oled_ssd130x.h ****     };
ARM GAS  /var/folders/fb/yfxt3z4538j6z0vjt03w70vc0000gn/T//cc0qjWS6.s 			page 172


 6307              		.loc 3 125 30 is_stmt 0 view .LVU1488
 6308 0262 2A46     		mov	r2, r5
 6309 0264 0DF10701 		add	r1, sp, #7
 6310 0268 6423     		movs	r3, #100
 6311 026a 2046     		mov	r0, r4
 6312 026c FFF7FEFF 		bl	_ZN5daisy9SpiHandle16BlockingTransmitEPhjm
 6313              	.LVL494:
 125:../../../lib/pd2dsy/libdaisy/src/dev/oled_ssd130x.h ****     };
 6314              		.loc 3 125 30 view .LVU1489
 6315 0270 2523     		movs	r3, #37
 6316              	.LBE1658:
 6317              	.LBE1656:
 6318              	.LBB1659:
 6319              	.LBB1660:
 124:../../../lib/pd2dsy/libdaisy/src/dev/oled_ssd130x.h ****         spi_.BlockingTransmit(&cmd, 1);
 6320              		.loc 3 124 23 view .LVU1490
 6321 0272 3946     		mov	r1, r7
 6322 0274 3046     		mov	r0, r6
 6323 0276 8DF80730 		strb	r3, [sp, #7]
 6324              	.LVL495:
 124:../../../lib/pd2dsy/libdaisy/src/dev/oled_ssd130x.h ****         spi_.BlockingTransmit(&cmd, 1);
 6325              		.loc 3 124 23 view .LVU1491
 6326              	.LBE1660:
 6327              	.LBI1659:
 122:../../../lib/pd2dsy/libdaisy/src/dev/oled_ssd130x.h ****     {
 6328              		.loc 3 122 10 is_stmt 1 view .LVU1492
 6329              	.LBB1661:
 124:../../../lib/pd2dsy/libdaisy/src/dev/oled_ssd130x.h ****         spi_.BlockingTransmit(&cmd, 1);
 6330              		.loc 3 124 9 view .LVU1493
 124:../../../lib/pd2dsy/libdaisy/src/dev/oled_ssd130x.h ****         spi_.BlockingTransmit(&cmd, 1);
 6331              		.loc 3 124 23 is_stmt 0 view .LVU1494
 6332 027a FFF7FEFF 		bl	dsy_gpio_write
 6333              	.LVL496:
 125:../../../lib/pd2dsy/libdaisy/src/dev/oled_ssd130x.h ****     };
 6334              		.loc 3 125 9 is_stmt 1 view .LVU1495
 125:../../../lib/pd2dsy/libdaisy/src/dev/oled_ssd130x.h ****     };
 6335              		.loc 3 125 30 is_stmt 0 view .LVU1496
 6336 027e 2A46     		mov	r2, r5
 6337 0280 0DF10701 		add	r1, sp, #7
 6338 0284 6423     		movs	r3, #100
 6339 0286 2046     		mov	r0, r4
 6340 0288 FFF7FEFF 		bl	_ZN5daisy9SpiHandle16BlockingTransmitEPhjm
 6341              	.LVL497:
 125:../../../lib/pd2dsy/libdaisy/src/dev/oled_ssd130x.h ****     };
 6342              		.loc 3 125 30 view .LVU1497
 6343 028c DB23     		movs	r3, #219
 6344              	.LBE1661:
 6345              	.LBE1659:
 6346              	.LBB1662:
 6347              	.LBB1663:
 124:../../../lib/pd2dsy/libdaisy/src/dev/oled_ssd130x.h ****         spi_.BlockingTransmit(&cmd, 1);
 6348              		.loc 3 124 23 view .LVU1498
 6349 028e 3946     		mov	r1, r7
 6350 0290 3046     		mov	r0, r6
 6351 0292 8DF80730 		strb	r3, [sp, #7]
 6352              	.LVL498:
 124:../../../lib/pd2dsy/libdaisy/src/dev/oled_ssd130x.h ****         spi_.BlockingTransmit(&cmd, 1);
ARM GAS  /var/folders/fb/yfxt3z4538j6z0vjt03w70vc0000gn/T//cc0qjWS6.s 			page 173


 6353              		.loc 3 124 23 view .LVU1499
 6354              	.LBE1663:
 6355              	.LBI1662:
 122:../../../lib/pd2dsy/libdaisy/src/dev/oled_ssd130x.h ****     {
 6356              		.loc 3 122 10 is_stmt 1 view .LVU1500
 6357              	.LBB1664:
 124:../../../lib/pd2dsy/libdaisy/src/dev/oled_ssd130x.h ****         spi_.BlockingTransmit(&cmd, 1);
 6358              		.loc 3 124 9 view .LVU1501
 124:../../../lib/pd2dsy/libdaisy/src/dev/oled_ssd130x.h ****         spi_.BlockingTransmit(&cmd, 1);
 6359              		.loc 3 124 23 is_stmt 0 view .LVU1502
 6360 0296 FFF7FEFF 		bl	dsy_gpio_write
 6361              	.LVL499:
 125:../../../lib/pd2dsy/libdaisy/src/dev/oled_ssd130x.h ****     };
 6362              		.loc 3 125 9 is_stmt 1 view .LVU1503
 125:../../../lib/pd2dsy/libdaisy/src/dev/oled_ssd130x.h ****     };
 6363              		.loc 3 125 30 is_stmt 0 view .LVU1504
 6364 029a 2A46     		mov	r2, r5
 6365 029c 0DF10701 		add	r1, sp, #7
 6366 02a0 6423     		movs	r3, #100
 6367 02a2 2046     		mov	r0, r4
 6368 02a4 FFF7FEFF 		bl	_ZN5daisy9SpiHandle16BlockingTransmitEPhjm
 6369              	.LVL500:
 125:../../../lib/pd2dsy/libdaisy/src/dev/oled_ssd130x.h ****     };
 6370              		.loc 3 125 30 view .LVU1505
 6371 02a8 3423     		movs	r3, #52
 6372              	.LBE1664:
 6373              	.LBE1662:
 6374              	.LBB1665:
 6375              	.LBB1666:
 124:../../../lib/pd2dsy/libdaisy/src/dev/oled_ssd130x.h ****         spi_.BlockingTransmit(&cmd, 1);
 6376              		.loc 3 124 23 view .LVU1506
 6377 02aa 3946     		mov	r1, r7
 6378 02ac 3046     		mov	r0, r6
 6379 02ae 8DF80730 		strb	r3, [sp, #7]
 6380              	.LVL501:
 124:../../../lib/pd2dsy/libdaisy/src/dev/oled_ssd130x.h ****         spi_.BlockingTransmit(&cmd, 1);
 6381              		.loc 3 124 23 view .LVU1507
 6382              	.LBE1666:
 6383              	.LBI1665:
 122:../../../lib/pd2dsy/libdaisy/src/dev/oled_ssd130x.h ****     {
 6384              		.loc 3 122 10 is_stmt 1 view .LVU1508
 6385              	.LBB1667:
 124:../../../lib/pd2dsy/libdaisy/src/dev/oled_ssd130x.h ****         spi_.BlockingTransmit(&cmd, 1);
 6386              		.loc 3 124 9 view .LVU1509
 124:../../../lib/pd2dsy/libdaisy/src/dev/oled_ssd130x.h ****         spi_.BlockingTransmit(&cmd, 1);
 6387              		.loc 3 124 23 is_stmt 0 view .LVU1510
 6388 02b2 FFF7FEFF 		bl	dsy_gpio_write
 6389              	.LVL502:
 125:../../../lib/pd2dsy/libdaisy/src/dev/oled_ssd130x.h ****     };
 6390              		.loc 3 125 9 is_stmt 1 view .LVU1511
 125:../../../lib/pd2dsy/libdaisy/src/dev/oled_ssd130x.h ****     };
 6391              		.loc 3 125 30 is_stmt 0 view .LVU1512
 6392 02b6 2A46     		mov	r2, r5
 6393 02b8 0DF10701 		add	r1, sp, #7
 6394 02bc 6423     		movs	r3, #100
 6395 02be 2046     		mov	r0, r4
 6396 02c0 FFF7FEFF 		bl	_ZN5daisy9SpiHandle16BlockingTransmitEPhjm
ARM GAS  /var/folders/fb/yfxt3z4538j6z0vjt03w70vc0000gn/T//cc0qjWS6.s 			page 174


 6397              	.LVL503:
 125:../../../lib/pd2dsy/libdaisy/src/dev/oled_ssd130x.h ****     };
 6398              		.loc 3 125 30 view .LVU1513
 6399 02c4 AF23     		movs	r3, #175
 6400              	.LBE1667:
 6401              	.LBE1665:
 6402              	.LBB1668:
 6403              	.LBB1669:
 124:../../../lib/pd2dsy/libdaisy/src/dev/oled_ssd130x.h ****         spi_.BlockingTransmit(&cmd, 1);
 6404              		.loc 3 124 23 view .LVU1514
 6405 02c6 3946     		mov	r1, r7
 6406 02c8 3046     		mov	r0, r6
 6407 02ca 8DF80730 		strb	r3, [sp, #7]
 6408              	.LVL504:
 124:../../../lib/pd2dsy/libdaisy/src/dev/oled_ssd130x.h ****         spi_.BlockingTransmit(&cmd, 1);
 6409              		.loc 3 124 23 view .LVU1515
 6410              	.LBE1669:
 6411              	.LBI1668:
 122:../../../lib/pd2dsy/libdaisy/src/dev/oled_ssd130x.h ****     {
 6412              		.loc 3 122 10 is_stmt 1 view .LVU1516
 6413              	.LBB1670:
 124:../../../lib/pd2dsy/libdaisy/src/dev/oled_ssd130x.h ****         spi_.BlockingTransmit(&cmd, 1);
 6414              		.loc 3 124 9 view .LVU1517
 124:../../../lib/pd2dsy/libdaisy/src/dev/oled_ssd130x.h ****         spi_.BlockingTransmit(&cmd, 1);
 6415              		.loc 3 124 23 is_stmt 0 view .LVU1518
 6416 02ce FFF7FEFF 		bl	dsy_gpio_write
 6417              	.LVL505:
 125:../../../lib/pd2dsy/libdaisy/src/dev/oled_ssd130x.h ****     };
 6418              		.loc 3 125 9 is_stmt 1 view .LVU1519
 125:../../../lib/pd2dsy/libdaisy/src/dev/oled_ssd130x.h ****     };
 6419              		.loc 3 125 30 is_stmt 0 view .LVU1520
 6420 02d2 6423     		movs	r3, #100
 6421 02d4 2A46     		mov	r2, r5
 6422 02d6 0DF10701 		add	r1, sp, #7
 6423 02da 2046     		mov	r0, r4
 6424 02dc FFF7FEFF 		bl	_ZN5daisy9SpiHandle16BlockingTransmitEPhjm
 6425              	.LVL506:
 125:../../../lib/pd2dsy/libdaisy/src/dev/oled_ssd130x.h ****     };
 6426              		.loc 3 125 30 view .LVU1521
 6427              	.LBE1670:
 6428              	.LBE1668:
 247:../../../lib/pd2dsy/libdaisy/src/dev/oled_ssd130x.h **** 
 6429              		.loc 3 247 5 view .LVU1522
 6430 02e0 02B0     		add	sp, sp, #8
 6431              		.cfi_def_cfa_offset 40
 6432              		@ sp needed
 6433 02e2 BDE8F041 		pop	{r4, r5, r6, r7, r8, lr}
 6434              		.cfi_restore 14
 6435              		.cfi_restore 8
 6436              		.cfi_restore 7
 6437              		.cfi_restore 6
 6438              		.cfi_restore 5
 6439              		.cfi_restore 4
 6440              		.cfi_def_cfa_offset 16
 6441              	.LVL507:
 247:../../../lib/pd2dsy/libdaisy/src/dev/oled_ssd130x.h **** 
 6442              		.loc 3 247 5 view .LVU1523
ARM GAS  /var/folders/fb/yfxt3z4538j6z0vjt03w70vc0000gn/T//cc0qjWS6.s 			page 175


 6443 02e6 04B0     		add	sp, sp, #16
 6444              		.cfi_def_cfa_offset 0
 6445 02e8 7047     		bx	lr
 6446              		.cfi_endproc
 6447              	.LFE3056:
 6449 02ea 00BF     		.section	.text._ZN10json2daisy8DaisyPod4InitEb,"axG",%progbits,_ZN10json2daisy8DaisyPod4InitEb,com
 6450              		.align	1
 6451              		.p2align 2,,3
 6452              		.weak	_ZN10json2daisy8DaisyPod4InitEb
 6453              		.syntax unified
 6454              		.thumb
 6455              		.thumb_func
 6457              	_ZN10json2daisy8DaisyPod4InitEb:
 6458              	.LVL508:
 6459              	.LFB2985:
  40:source/HeavyDaisy_daisiSPI.hpp **** 
  41:source/HeavyDaisy_daisiSPI.hpp ****   /** Initializes the board according to the JSON board description
  42:source/HeavyDaisy_daisiSPI.hpp ****    *  \param boost boosts the clock speed from 400 to 480 MHz
  43:source/HeavyDaisy_daisiSPI.hpp ****    */
  44:source/HeavyDaisy_daisiSPI.hpp ****   void Init(bool boost=true) 
 6460              		.loc 5 44 8 is_stmt 1 view -0
 6461              		.cfi_startproc
 6462              		@ args = 0, pretend = 0, frame = 152
 6463              		@ frame_needed = 0, uses_anonymous_args = 0
  45:source/HeavyDaisy_daisiSPI.hpp ****   {
  46:source/HeavyDaisy_daisiSPI.hpp ****     som.Configure();
 6464              		.loc 5 46 5 view .LVU1525
  44:source/HeavyDaisy_daisiSPI.hpp ****   {
 6465              		.loc 5 44 8 is_stmt 0 view .LVU1526
 6466 0000 2DE9F04F 		push	{r4, r5, r6, r7, r8, r9, r10, fp, lr}
 6467              		.cfi_def_cfa_offset 36
 6468              		.cfi_offset 4, -36
 6469              		.cfi_offset 5, -32
 6470              		.cfi_offset 6, -28
 6471              		.cfi_offset 7, -24
 6472              		.cfi_offset 8, -20
 6473              		.cfi_offset 9, -16
 6474              		.cfi_offset 10, -12
 6475              		.cfi_offset 11, -8
 6476              		.cfi_offset 14, -4
 6477 0004 0446     		mov	r4, r0
 6478 0006 AFB0     		sub	sp, sp, #188
 6479              		.cfi_def_cfa_offset 224
  47:source/HeavyDaisy_daisiSPI.hpp ****     som.Init(boost);
  48:source/HeavyDaisy_daisiSPI.hpp ****  
  49:source/HeavyDaisy_daisiSPI.hpp **** 
  50:source/HeavyDaisy_daisiSPI.hpp ****     // Switches
  51:source/HeavyDaisy_daisiSPI.hpp ****     sw1.Init(som.GetPin(27), som.AudioCallbackRate(), daisy::Switch::TYPE_MOMENTARY, daisy::Switch:
 6480              		.loc 5 51 13 view .LVU1527
 6481 0008 4FF00009 		mov	r9, #0
  44:source/HeavyDaisy_daisiSPI.hpp ****   {
 6482              		.loc 5 44 8 view .LVU1528
 6483 000c 0891     		str	r1, [sp, #32]
  46:source/HeavyDaisy_daisiSPI.hpp ****     som.Init(boost);
 6484              		.loc 5 46 18 view .LVU1529
 6485 000e FFF7FEFF 		bl	_ZN5daisy9DaisySeed9ConfigureEv
 6486              	.LVL509:
ARM GAS  /var/folders/fb/yfxt3z4538j6z0vjt03w70vc0000gn/T//cc0qjWS6.s 			page 176


  47:source/HeavyDaisy_daisiSPI.hpp ****     som.Init(boost);
 6487              		.loc 5 47 5 is_stmt 1 view .LVU1530
  47:source/HeavyDaisy_daisiSPI.hpp ****     som.Init(boost);
 6488              		.loc 5 47 13 is_stmt 0 view .LVU1531
 6489 0012 0899     		ldr	r1, [sp, #32]
 6490 0014 2046     		mov	r0, r4
 6491 0016 FFF7FEFF 		bl	_ZN5daisy9DaisySeed4InitEb
 6492              	.LVL510:
 6493              		.loc 5 51 5 is_stmt 1 view .LVU1532
 6494              		.loc 5 51 13 is_stmt 0 view .LVU1533
 6495 001a 1B20     		movs	r0, #27
 6496 001c FFF7FEFF 		bl	_ZN5daisy9DaisySeed6GetPinEh
 6497              	.LVL511:
 6498 0020 0346     		mov	r3, r0	@ movhi
 6499 0022 2046     		mov	r0, r4
  52:source/HeavyDaisy_daisiSPI.hpp ****     sw2.Init(som.GetPin(28), som.AudioCallbackRate(), daisy::Switch::TYPE_MOMENTARY, daisy::Switch:
  53:source/HeavyDaisy_daisiSPI.hpp ****  
  54:source/HeavyDaisy_daisiSPI.hpp **** 
  55:source/HeavyDaisy_daisiSPI.hpp ****     // Rotary encoders
  56:source/HeavyDaisy_daisiSPI.hpp ****     encoder.Init(som.GetPin(26), som.GetPin(25), som.GetPin(13), som.AudioCallbackRate()); 
  57:source/HeavyDaisy_daisiSPI.hpp ****  
  58:source/HeavyDaisy_daisiSPI.hpp **** 
  59:source/HeavyDaisy_daisiSPI.hpp ****     // Single channel ADC initialization
  60:source/HeavyDaisy_daisiSPI.hpp ****     cfg[0].InitSingle(som.GetPin(21));
 6500              		.loc 5 60 22 view .LVU1534
 6501 0024 04F13C05 		add	r5, r4, #60
  51:source/HeavyDaisy_daisiSPI.hpp ****     sw2.Init(som.GetPin(28), som.AudioCallbackRate(), daisy::Switch::TYPE_MOMENTARY, daisy::Switch:
 6502              		.loc 5 51 13 view .LVU1535
 6503 0028 ADF82C30 		strh	r3, [sp, #44]	@ movhi
 6504 002c FFF7FEFF 		bl	_ZNK5daisy9DaisySeed17AudioCallbackRateEv
 6505              	.LVL512:
 6506 0030 0123     		movs	r3, #1
 6507 0032 0B99     		ldr	r1, [sp, #44]
 6508 0034 04F5B870 		add	r0, r4, #368
 6509 0038 CDF80090 		str	r9, [sp]
 6510 003c 1A46     		mov	r2, r3
  61:source/HeavyDaisy_daisiSPI.hpp ****     cfg[1].InitSingle(som.GetPin(15)); 
  62:source/HeavyDaisy_daisiSPI.hpp ****     som.adc.Init(cfg, ANALOG_COUNT);
 6511              		.loc 5 62 17 view .LVU1536
 6512 003e 04F1180A 		add	r10, r4, #24
  51:source/HeavyDaisy_daisiSPI.hpp ****     sw2.Init(som.GetPin(28), som.AudioCallbackRate(), daisy::Switch::TYPE_MOMENTARY, daisy::Switch:
 6513              		.loc 5 51 13 view .LVU1537
 6514 0042 FFF7FEFF 		bl	_ZN5daisy6Switch4InitE12dsy_gpio_pinfNS0_4TypeENS0_8PolarityENS0_4PullE
 6515              	.LVL513:
  52:source/HeavyDaisy_daisiSPI.hpp ****  
 6516              		.loc 5 52 5 is_stmt 1 view .LVU1538
  52:source/HeavyDaisy_daisiSPI.hpp ****  
 6517              		.loc 5 52 13 is_stmt 0 view .LVU1539
 6518 0046 1C20     		movs	r0, #28
 6519 0048 FFF7FEFF 		bl	_ZN5daisy9DaisySeed6GetPinEh
 6520              	.LVL514:
 6521 004c 0346     		mov	r3, r0	@ movhi
 6522 004e 2046     		mov	r0, r4
  63:source/HeavyDaisy_daisiSPI.hpp ****  
  64:source/HeavyDaisy_daisiSPI.hpp **** 
  65:source/HeavyDaisy_daisiSPI.hpp ****     // AnalogControl objects
  66:source/HeavyDaisy_daisiSPI.hpp ****     knob1.Init(som.adc.GetPtr(0), som.AudioCallbackRate(), false, false);
ARM GAS  /var/folders/fb/yfxt3z4538j6z0vjt03w70vc0000gn/T//cc0qjWS6.s 			page 177


  67:source/HeavyDaisy_daisiSPI.hpp ****     knob2.Init(som.adc.GetPtr(1), som.AudioCallbackRate(), false, false); 
  68:source/HeavyDaisy_daisiSPI.hpp **** 
  69:source/HeavyDaisy_daisiSPI.hpp ****     // RBG LEDs 
  70:source/HeavyDaisy_daisiSPI.hpp ****     led1.Init(som.GetPin(20), som.GetPin(19), som.GetPin(18), true);
 6523              		.loc 5 70 14 view .LVU1540
 6524 0050 04F1C806 		add	r6, r4, #200
  52:source/HeavyDaisy_daisiSPI.hpp ****  
 6525              		.loc 5 52 13 view .LVU1541
 6526 0054 ADF83030 		strh	r3, [sp, #48]	@ movhi
 6527 0058 FFF7FEFF 		bl	_ZNK5daisy9DaisySeed17AudioCallbackRateEv
 6528              	.LVL515:
 6529 005c 0123     		movs	r3, #1
 6530 005e 0C99     		ldr	r1, [sp, #48]
 6531 0060 04F5C070 		add	r0, r4, #384
 6532 0064 CDF80090 		str	r9, [sp]
 6533 0068 1A46     		mov	r2, r3
 6534              	.LBB1700:
 6535              	.LBB1701:
  25:../../../lib/pd2dsy/libdaisy/src/hid/disp/oled_display.h **** 
 6536              		.loc 2 25 44 view .LVU1542
 6537 006a EB46     		mov	fp, sp
 6538              	.LBE1701:
 6539              	.LBE1700:
  52:source/HeavyDaisy_daisiSPI.hpp ****  
 6540              		.loc 5 52 13 view .LVU1543
 6541 006c FFF7FEFF 		bl	_ZN5daisy6Switch4InitE12dsy_gpio_pinfNS0_4TypeENS0_8PolarityENS0_4PullE
 6542              	.LVL516:
  56:source/HeavyDaisy_daisiSPI.hpp ****  
 6543              		.loc 5 56 5 is_stmt 1 view .LVU1544
  56:source/HeavyDaisy_daisiSPI.hpp ****  
 6544              		.loc 5 56 17 is_stmt 0 view .LVU1545
 6545 0070 1A20     		movs	r0, #26
 6546 0072 FFF7FEFF 		bl	_ZN5daisy9DaisySeed6GetPinEh
 6547              	.LVL517:
 6548 0076 0346     		mov	r3, r0	@ movhi
 6549 0078 1920     		movs	r0, #25
 6550 007a ADF83430 		strh	r3, [sp, #52]	@ movhi
 6551 007e FFF7FEFF 		bl	_ZN5daisy9DaisySeed6GetPinEh
 6552              	.LVL518:
 6553 0082 0346     		mov	r3, r0	@ movhi
 6554 0084 0D20     		movs	r0, #13
 6555 0086 ADF83830 		strh	r3, [sp, #56]	@ movhi
 6556 008a FFF7FEFF 		bl	_ZN5daisy9DaisySeed6GetPinEh
 6557              	.LVL519:
 6558 008e 0346     		mov	r3, r0	@ movhi
 6559 0090 2046     		mov	r0, r4
 6560 0092 ADF83C30 		strh	r3, [sp, #60]	@ movhi
 6561 0096 FFF7FEFF 		bl	_ZNK5daisy9DaisySeed17AudioCallbackRateEv
 6562              	.LVL520:
 6563 009a 0D99     		ldr	r1, [sp, #52]
 6564 009c 04F1A000 		add	r0, r4, #160
 6565 00a0 DDE90E23 		ldrd	r2, r3, [sp, #56]
 6566 00a4 FFF7FEFF 		bl	_ZN5daisy7Encoder4InitE12dsy_gpio_pinS1_S1_f
 6567              	.LVL521:
  60:source/HeavyDaisy_daisiSPI.hpp ****     cfg[1].InitSingle(som.GetPin(15)); 
 6568              		.loc 5 60 5 is_stmt 1 view .LVU1546
  60:source/HeavyDaisy_daisiSPI.hpp ****     cfg[1].InitSingle(som.GetPin(15)); 
ARM GAS  /var/folders/fb/yfxt3z4538j6z0vjt03w70vc0000gn/T//cc0qjWS6.s 			page 178


 6569              		.loc 5 60 22 is_stmt 0 view .LVU1547
 6570 00a8 1520     		movs	r0, #21
 6571 00aa FFF7FEFF 		bl	_ZN5daisy9DaisySeed6GetPinEh
 6572              	.LVL522:
 6573 00ae ADF84000 		strh	r0, [sp, #64]	@ movhi
 6574 00b2 1099     		ldr	r1, [sp, #64]
 6575 00b4 2846     		mov	r0, r5
 6576 00b6 FFF7FEFF 		bl	_ZN5daisy16AdcChannelConfig10InitSingleE12dsy_gpio_pin
 6577              	.LVL523:
  61:source/HeavyDaisy_daisiSPI.hpp ****     som.adc.Init(cfg, ANALOG_COUNT);
 6578              		.loc 5 61 5 is_stmt 1 view .LVU1548
  61:source/HeavyDaisy_daisiSPI.hpp ****     som.adc.Init(cfg, ANALOG_COUNT);
 6579              		.loc 5 61 22 is_stmt 0 view .LVU1549
 6580 00ba 0F20     		movs	r0, #15
 6581 00bc FFF7FEFF 		bl	_ZN5daisy9DaisySeed6GetPinEh
 6582              	.LVL524:
 6583 00c0 0346     		mov	r3, r0	@ movhi
 6584 00c2 04F14D00 		add	r0, r4, #77
 6585 00c6 ADF84430 		strh	r3, [sp, #68]	@ movhi
 6586 00ca 1199     		ldr	r1, [sp, #68]
 6587 00cc FFF7FEFF 		bl	_ZN5daisy16AdcChannelConfig10InitSingleE12dsy_gpio_pin
 6588              	.LVL525:
  62:source/HeavyDaisy_daisiSPI.hpp ****  
 6589              		.loc 5 62 5 is_stmt 1 view .LVU1550
  62:source/HeavyDaisy_daisiSPI.hpp ****  
 6590              		.loc 5 62 17 is_stmt 0 view .LVU1551
 6591 00d0 0423     		movs	r3, #4
 6592 00d2 0222     		movs	r2, #2
 6593 00d4 2946     		mov	r1, r5
 6594 00d6 5046     		mov	r0, r10
 6595              		.loc 5 70 14 view .LVU1552
 6596 00d8 0125     		movs	r5, #1
  62:source/HeavyDaisy_daisiSPI.hpp ****  
 6597              		.loc 5 62 17 view .LVU1553
 6598 00da FFF7FEFF 		bl	_ZN5daisy9AdcHandle4InitEPNS_16AdcChannelConfigEjNS0_12OverSamplingE
 6599              	.LVL526:
  66:source/HeavyDaisy_daisiSPI.hpp ****     knob2.Init(som.adc.GetPtr(1), som.AudioCallbackRate(), false, false); 
 6600              		.loc 5 66 5 is_stmt 1 view .LVU1554
  66:source/HeavyDaisy_daisiSPI.hpp ****     knob2.Init(som.adc.GetPtr(1), som.AudioCallbackRate(), false, false); 
 6601              		.loc 5 66 15 is_stmt 0 view .LVU1555
 6602 00de 4946     		mov	r1, r9
 6603 00e0 5046     		mov	r0, r10
 6604 00e2 FFF7FEFF 		bl	_ZNK5daisy9AdcHandle6GetPtrEh
 6605              	.LVL527:
 6606 00e6 0146     		mov	r1, r0
 6607 00e8 2046     		mov	r0, r4
 6608 00ea 0891     		str	r1, [sp, #32]
 6609 00ec FFF7FEFF 		bl	_ZNK5daisy9DaisySeed17AudioCallbackRateEv
 6610              	.LVL528:
 6611 00f0 DFED6D0A 		vldr.32	s1, .L408
 6612 00f4 4B46     		mov	r3, r9
 6613 00f6 4A46     		mov	r2, r9
 6614 00f8 04F16000 		add	r0, r4, #96
 6615 00fc 0899     		ldr	r1, [sp, #32]
 6616 00fe FFF7FEFF 		bl	_ZN5daisy13AnalogControl4InitEPtfbbf
 6617              	.LVL529:
  67:source/HeavyDaisy_daisiSPI.hpp **** 
ARM GAS  /var/folders/fb/yfxt3z4538j6z0vjt03w70vc0000gn/T//cc0qjWS6.s 			page 179


 6618              		.loc 5 67 5 is_stmt 1 view .LVU1556
  67:source/HeavyDaisy_daisiSPI.hpp **** 
 6619              		.loc 5 67 15 is_stmt 0 view .LVU1557
 6620 0102 0121     		movs	r1, #1
 6621 0104 5046     		mov	r0, r10
 6622 0106 FFF7FEFF 		bl	_ZNK5daisy9AdcHandle6GetPtrEh
 6623              	.LVL530:
 6624 010a 0146     		mov	r1, r0
 6625 010c 2046     		mov	r0, r4
 6626 010e 0891     		str	r1, [sp, #32]
 6627 0110 FFF7FEFF 		bl	_ZNK5daisy9DaisySeed17AudioCallbackRateEv
 6628              	.LVL531:
 6629 0114 DFED640A 		vldr.32	s1, .L408
 6630 0118 4A46     		mov	r2, r9
 6631 011a 0899     		ldr	r1, [sp, #32]
 6632 011c 4B46     		mov	r3, r9
 6633 011e 04F18000 		add	r0, r4, #128
 6634 0122 FFF7FEFF 		bl	_ZN5daisy13AnalogControl4InitEPtfbbf
 6635              	.LVL532:
 6636              		.loc 5 70 5 is_stmt 1 view .LVU1558
 6637              		.loc 5 70 14 is_stmt 0 view .LVU1559
 6638 0126 1420     		movs	r0, #20
 6639 0128 FFF7FEFF 		bl	_ZN5daisy9DaisySeed6GetPinEh
 6640              	.LVL533:
 6641 012c 0346     		mov	r3, r0	@ movhi
 6642 012e 1320     		movs	r0, #19
 6643 0130 ADF84830 		strh	r3, [sp, #72]	@ movhi
 6644 0134 FFF7FEFF 		bl	_ZN5daisy9DaisySeed6GetPinEh
 6645              	.LVL534:
 6646 0138 ADF84C00 		strh	r0, [sp, #76]	@ movhi
 6647 013c 1220     		movs	r0, #18
 6648 013e FFF7FEFF 		bl	_ZN5daisy9DaisySeed6GetPinEh
 6649              	.LVL535:
 6650 0142 1299     		ldr	r1, [sp, #72]
 6651 0144 ADF85000 		strh	r0, [sp, #80]	@ movhi
 6652 0148 3046     		mov	r0, r6
 6653 014a 0095     		str	r5, [sp]
 6654 014c DDE91323 		ldrd	r2, r3, [sp, #76]
 6655 0150 FFF7FEFF 		bl	_ZN5daisy6RgbLed4InitE12dsy_gpio_pinS1_S1_b
 6656              	.LVL536:
  71:source/HeavyDaisy_daisiSPI.hpp ****     led1.Set(0.0f, 0.0f, 0.0f);
 6657              		.loc 5 71 5 is_stmt 1 view .LVU1560
 6658              		.loc 5 71 13 is_stmt 0 view .LVU1561
 6659 0154 9FED551A 		vldr.32	s2, .L408+4
 6660 0158 3046     		mov	r0, r6
  72:source/HeavyDaisy_daisiSPI.hpp ****     led2.Init(som.GetPin(17), som.GetPin(24), som.GetPin(23), true);
 6661              		.loc 5 72 14 view .LVU1562
 6662 015a 04F58E76 		add	r6, r4, #284
  71:source/HeavyDaisy_daisiSPI.hpp ****     led1.Set(0.0f, 0.0f, 0.0f);
 6663              		.loc 5 71 13 view .LVU1563
 6664 015e F0EE410A 		vmov.f32	s1, s2
 6665 0162 B0EE410A 		vmov.f32	s0, s2
 6666 0166 FFF7FEFF 		bl	_ZN5daisy6RgbLed3SetEfff
 6667              	.LVL537:
 6668              		.loc 5 72 5 is_stmt 1 view .LVU1564
 6669              		.loc 5 72 14 is_stmt 0 view .LVU1565
 6670 016a 1120     		movs	r0, #17
ARM GAS  /var/folders/fb/yfxt3z4538j6z0vjt03w70vc0000gn/T//cc0qjWS6.s 			page 180


 6671 016c FFF7FEFF 		bl	_ZN5daisy9DaisySeed6GetPinEh
 6672              	.LVL538:
 6673 0170 ADF85400 		strh	r0, [sp, #84]	@ movhi
 6674 0174 1820     		movs	r0, #24
 6675 0176 FFF7FEFF 		bl	_ZN5daisy9DaisySeed6GetPinEh
 6676              	.LVL539:
 6677 017a ADF85800 		strh	r0, [sp, #88]	@ movhi
 6678 017e 1720     		movs	r0, #23
 6679 0180 FFF7FEFF 		bl	_ZN5daisy9DaisySeed6GetPinEh
 6680              	.LVL540:
 6681 0184 1599     		ldr	r1, [sp, #84]
 6682 0186 ADF85C00 		strh	r0, [sp, #92]	@ movhi
 6683 018a 3046     		mov	r0, r6
 6684 018c 0095     		str	r5, [sp]
 6685 018e DDE91623 		ldrd	r2, r3, [sp, #88]
 6686 0192 FFF7FEFF 		bl	_ZN5daisy6RgbLed4InitE12dsy_gpio_pinS1_S1_b
 6687              	.LVL541:
  73:source/HeavyDaisy_daisiSPI.hpp ****     led2.Set(0.0f, 0.0f, 0.0f); 
 6688              		.loc 5 73 5 is_stmt 1 view .LVU1566
 6689              		.loc 5 73 13 is_stmt 0 view .LVU1567
 6690 0196 9FED451A 		vldr.32	s2, .L408+4
 6691 019a 3046     		mov	r0, r6
 6692              	.LBB1706:
 6693              	.LBB1702:
  25:../../../lib/pd2dsy/libdaisy/src/hid/disp/oled_display.h **** 
 6694              		.loc 2 25 44 view .LVU1568
 6695 019c 04F5CC76 		add	r6, r4, #408
 6696              	.LBE1702:
 6697              	.LBE1706:
 6698              		.loc 5 73 13 view .LVU1569
 6699 01a0 F0EE410A 		vmov.f32	s1, s2
 6700 01a4 B0EE410A 		vmov.f32	s0, s2
 6701 01a8 FFF7FEFF 		bl	_ZN5daisy6RgbLed3SetEfff
 6702              	.LVL542:
  74:source/HeavyDaisy_daisiSPI.hpp **** 
  75:source/HeavyDaisy_daisiSPI.hpp ****     // Display
  76:source/HeavyDaisy_daisiSPI.hpp ****     
  77:source/HeavyDaisy_daisiSPI.hpp ****     daisy::OledDisplay<daisy::SSD130x4WireSpi128x64Driver>::Config display_config;
 6703              		.loc 5 77 5 is_stmt 1 view .LVU1570
 6704              	.LBB1707:
 6705              	.LBI1707:
  20:../../../lib/pd2dsy/libdaisy/src/hid/disp/oled_display.h ****     {
 6706              		.loc 2 20 12 view .LVU1571
 6707              	.LBB1708:
 6708              	.LBI1708:
 148:../../../lib/pd2dsy/libdaisy/src/dev/oled_ssd130x.h ****     {
 6709              		.loc 3 148 12 view .LVU1572
 6710              	.LBB1709:
 6711              	.LBI1709:
  70:../../../lib/pd2dsy/libdaisy/src/dev/oled_ssd130x.h ****         {
 6712              		.loc 3 70 9 view .LVU1573
 6713              	.LBB1710:
 6714              	.LBB1711:
 6715              	.LBI1711:
 6716              		.file 18 "../../../lib/pd2dsy/libdaisy/src/per/spi.h"
   1:../../../lib/pd2dsy/libdaisy/src/per/spi.h **** #pragma once
   2:../../../lib/pd2dsy/libdaisy/src/per/spi.h **** #ifndef DSY_SPI_H
ARM GAS  /var/folders/fb/yfxt3z4538j6z0vjt03w70vc0000gn/T//cc0qjWS6.s 			page 181


   3:../../../lib/pd2dsy/libdaisy/src/per/spi.h **** #define DSY_SPI_H
   4:../../../lib/pd2dsy/libdaisy/src/per/spi.h **** 
   5:../../../lib/pd2dsy/libdaisy/src/per/spi.h **** #include "daisy_core.h"
   6:../../../lib/pd2dsy/libdaisy/src/per/spi.h **** 
   7:../../../lib/pd2dsy/libdaisy/src/per/spi.h **** /* TODO:
   8:../../../lib/pd2dsy/libdaisy/src/per/spi.h **** - Add documentation
   9:../../../lib/pd2dsy/libdaisy/src/per/spi.h **** - Add IT
  10:../../../lib/pd2dsy/libdaisy/src/per/spi.h **** */
  11:../../../lib/pd2dsy/libdaisy/src/per/spi.h **** 
  12:../../../lib/pd2dsy/libdaisy/src/per/spi.h **** namespace daisy
  13:../../../lib/pd2dsy/libdaisy/src/per/spi.h **** {
  14:../../../lib/pd2dsy/libdaisy/src/per/spi.h **** /** @addtogroup serial
  15:../../../lib/pd2dsy/libdaisy/src/per/spi.h **** @{
  16:../../../lib/pd2dsy/libdaisy/src/per/spi.h **** */
  17:../../../lib/pd2dsy/libdaisy/src/per/spi.h **** 
  18:../../../lib/pd2dsy/libdaisy/src/per/spi.h **** /**  Handler for serial peripheral interface */
  19:../../../lib/pd2dsy/libdaisy/src/per/spi.h **** class SpiHandle
  20:../../../lib/pd2dsy/libdaisy/src/per/spi.h **** {
  21:../../../lib/pd2dsy/libdaisy/src/per/spi.h ****   public:
  22:../../../lib/pd2dsy/libdaisy/src/per/spi.h ****     struct Config
  23:../../../lib/pd2dsy/libdaisy/src/per/spi.h ****     {
  24:../../../lib/pd2dsy/libdaisy/src/per/spi.h ****         enum class Peripheral
  25:../../../lib/pd2dsy/libdaisy/src/per/spi.h ****         {
  26:../../../lib/pd2dsy/libdaisy/src/per/spi.h ****             SPI_1,
  27:../../../lib/pd2dsy/libdaisy/src/per/spi.h ****             SPI_2,
  28:../../../lib/pd2dsy/libdaisy/src/per/spi.h ****             SPI_3,
  29:../../../lib/pd2dsy/libdaisy/src/per/spi.h ****             SPI_4,
  30:../../../lib/pd2dsy/libdaisy/src/per/spi.h ****             SPI_5,
  31:../../../lib/pd2dsy/libdaisy/src/per/spi.h ****             SPI_6,
  32:../../../lib/pd2dsy/libdaisy/src/per/spi.h ****         };
  33:../../../lib/pd2dsy/libdaisy/src/per/spi.h **** 
  34:../../../lib/pd2dsy/libdaisy/src/per/spi.h ****         enum class Mode
  35:../../../lib/pd2dsy/libdaisy/src/per/spi.h ****         {
  36:../../../lib/pd2dsy/libdaisy/src/per/spi.h ****             MASTER,
  37:../../../lib/pd2dsy/libdaisy/src/per/spi.h ****             SLAVE,
  38:../../../lib/pd2dsy/libdaisy/src/per/spi.h ****         };
  39:../../../lib/pd2dsy/libdaisy/src/per/spi.h **** 
  40:../../../lib/pd2dsy/libdaisy/src/per/spi.h ****         enum class Direction
  41:../../../lib/pd2dsy/libdaisy/src/per/spi.h ****         {
  42:../../../lib/pd2dsy/libdaisy/src/per/spi.h ****             TWO_LINES,
  43:../../../lib/pd2dsy/libdaisy/src/per/spi.h ****             TWO_LINES_TX_ONLY,
  44:../../../lib/pd2dsy/libdaisy/src/per/spi.h ****             TWO_LINES_RX_ONLY,
  45:../../../lib/pd2dsy/libdaisy/src/per/spi.h ****             ONE_LINE,
  46:../../../lib/pd2dsy/libdaisy/src/per/spi.h ****         };
  47:../../../lib/pd2dsy/libdaisy/src/per/spi.h **** 
  48:../../../lib/pd2dsy/libdaisy/src/per/spi.h ****         enum class ClockPolarity
  49:../../../lib/pd2dsy/libdaisy/src/per/spi.h ****         {
  50:../../../lib/pd2dsy/libdaisy/src/per/spi.h ****             LOW,
  51:../../../lib/pd2dsy/libdaisy/src/per/spi.h ****             HIGH,
  52:../../../lib/pd2dsy/libdaisy/src/per/spi.h ****         };
  53:../../../lib/pd2dsy/libdaisy/src/per/spi.h **** 
  54:../../../lib/pd2dsy/libdaisy/src/per/spi.h ****         enum class ClockPhase
  55:../../../lib/pd2dsy/libdaisy/src/per/spi.h ****         {
  56:../../../lib/pd2dsy/libdaisy/src/per/spi.h ****             ONE_EDGE,
  57:../../../lib/pd2dsy/libdaisy/src/per/spi.h ****             TWO_EDGE,
  58:../../../lib/pd2dsy/libdaisy/src/per/spi.h ****         };
  59:../../../lib/pd2dsy/libdaisy/src/per/spi.h **** 
ARM GAS  /var/folders/fb/yfxt3z4538j6z0vjt03w70vc0000gn/T//cc0qjWS6.s 			page 182


  60:../../../lib/pd2dsy/libdaisy/src/per/spi.h ****         enum class NSS
  61:../../../lib/pd2dsy/libdaisy/src/per/spi.h ****         {
  62:../../../lib/pd2dsy/libdaisy/src/per/spi.h ****             SOFT,
  63:../../../lib/pd2dsy/libdaisy/src/per/spi.h ****             HARD_INPUT,
  64:../../../lib/pd2dsy/libdaisy/src/per/spi.h ****             HARD_OUTPUT,
  65:../../../lib/pd2dsy/libdaisy/src/per/spi.h ****         };
  66:../../../lib/pd2dsy/libdaisy/src/per/spi.h **** 
  67:../../../lib/pd2dsy/libdaisy/src/per/spi.h ****         enum class BaudPrescaler
  68:../../../lib/pd2dsy/libdaisy/src/per/spi.h ****         {
  69:../../../lib/pd2dsy/libdaisy/src/per/spi.h ****             PS_2,
  70:../../../lib/pd2dsy/libdaisy/src/per/spi.h ****             PS_4,
  71:../../../lib/pd2dsy/libdaisy/src/per/spi.h ****             PS_8,
  72:../../../lib/pd2dsy/libdaisy/src/per/spi.h ****             PS_16,
  73:../../../lib/pd2dsy/libdaisy/src/per/spi.h ****             PS_32,
  74:../../../lib/pd2dsy/libdaisy/src/per/spi.h ****             PS_64,
  75:../../../lib/pd2dsy/libdaisy/src/per/spi.h ****             PS_128,
  76:../../../lib/pd2dsy/libdaisy/src/per/spi.h ****             PS_256,
  77:../../../lib/pd2dsy/libdaisy/src/per/spi.h ****         };
  78:../../../lib/pd2dsy/libdaisy/src/per/spi.h **** 
  79:../../../lib/pd2dsy/libdaisy/src/per/spi.h ****         struct
  80:../../../lib/pd2dsy/libdaisy/src/per/spi.h ****         {
  81:../../../lib/pd2dsy/libdaisy/src/per/spi.h ****             dsy_gpio_pin sclk; /**< & */
  82:../../../lib/pd2dsy/libdaisy/src/per/spi.h ****             dsy_gpio_pin miso; /**< & */
  83:../../../lib/pd2dsy/libdaisy/src/per/spi.h ****             dsy_gpio_pin mosi; /**< & */
  84:../../../lib/pd2dsy/libdaisy/src/per/spi.h ****             dsy_gpio_pin nss;  /**< & */
  85:../../../lib/pd2dsy/libdaisy/src/per/spi.h ****         } pin_config;
  86:../../../lib/pd2dsy/libdaisy/src/per/spi.h **** 
  87:../../../lib/pd2dsy/libdaisy/src/per/spi.h ****         Config()
 6717              		.loc 18 87 9 view .LVU1574
 6718              	.LBE1711:
 6719              	.LBE1710:
 6720              	.LBE1709:
 6721              	.LBE1708:
 6722              	.LBE1707:
  88:../../../lib/pd2dsy/libdaisy/src/per/spi.h ****         {
  89:../../../lib/pd2dsy/libdaisy/src/per/spi.h ****             // user must specify periph, mode, direction, nss, and pin_config
  90:../../../lib/pd2dsy/libdaisy/src/per/spi.h ****             datasize       = 8;
 6723              		.loc 18 90 13 view .LVU1575
  91:../../../lib/pd2dsy/libdaisy/src/per/spi.h ****             clock_polarity = ClockPolarity::LOW;
 6724              		.loc 18 91 13 view .LVU1576
  92:../../../lib/pd2dsy/libdaisy/src/per/spi.h ****             clock_phase    = ClockPhase::ONE_EDGE;
 6725              		.loc 18 92 13 view .LVU1577
  93:../../../lib/pd2dsy/libdaisy/src/per/spi.h ****             baud_prescaler = BaudPrescaler::PS_8;
 6726              		.loc 18 93 13 view .LVU1578
  73:../../../lib/pd2dsy/libdaisy/src/dev/oled_ssd130x.h ****         }
 6727              		.loc 3 73 13 view .LVU1579
 6728              	.LBB1725:
 6729              	.LBB1721:
 6730              	.LBB1717:
 6731              	.LBB1713:
 6732              	.LBB1712:
 6733              	.LBI1712:
  81:../../../lib/pd2dsy/libdaisy/src/dev/oled_ssd130x.h ****         {
 6734              		.loc 3 81 14 view .LVU1580
 6735              	.LBE1712:
 6736              	.LBE1713:
 6737              	.LBE1717:
ARM GAS  /var/folders/fb/yfxt3z4538j6z0vjt03w70vc0000gn/T//cc0qjWS6.s 			page 183


 6738              	.LBE1721:
 6739              	.LBE1725:
  84:../../../lib/pd2dsy/libdaisy/src/dev/oled_ssd130x.h ****             spi_config.mode   = SpiHandle::Config::Mode::MASTER;
 6740              		.loc 3 84 13 view .LVU1581
  85:../../../lib/pd2dsy/libdaisy/src/dev/oled_ssd130x.h ****             spi_config.direction
 6741              		.loc 3 85 13 view .LVU1582
  86:../../../lib/pd2dsy/libdaisy/src/dev/oled_ssd130x.h ****                 = SpiHandle::Config::Direction::TWO_LINES_TX_ONLY;
 6742              		.loc 3 86 13 view .LVU1583
  88:../../../lib/pd2dsy/libdaisy/src/dev/oled_ssd130x.h ****             spi_config.clock_polarity = SpiHandle::Config::ClockPolarity::LOW;
 6743              		.loc 3 88 13 view .LVU1584
  89:../../../lib/pd2dsy/libdaisy/src/dev/oled_ssd130x.h ****             spi_config.clock_phase    = SpiHandle::Config::ClockPhase::ONE_EDGE;
 6744              		.loc 3 89 13 view .LVU1585
  90:../../../lib/pd2dsy/libdaisy/src/dev/oled_ssd130x.h ****             spi_config.nss            = SpiHandle::Config::NSS::HARD_OUTPUT;
 6745              		.loc 3 90 13 view .LVU1586
  91:../../../lib/pd2dsy/libdaisy/src/dev/oled_ssd130x.h ****             spi_config.baud_prescaler = SpiHandle::Config::BaudPrescaler::PS_8;
 6746              		.loc 3 91 13 view .LVU1587
  92:../../../lib/pd2dsy/libdaisy/src/dev/oled_ssd130x.h ****             // SPI pin config
 6747              		.loc 3 92 13 view .LVU1588
  94:../../../lib/pd2dsy/libdaisy/src/dev/oled_ssd130x.h ****             spi_config.pin_config.miso = {DSY_GPIOX, 0};
 6748              		.loc 3 94 13 view .LVU1589
  95:../../../lib/pd2dsy/libdaisy/src/dev/oled_ssd130x.h ****             spi_config.pin_config.mosi = {DSY_GPIOB, 5};
 6749              		.loc 3 95 13 view .LVU1590
  96:../../../lib/pd2dsy/libdaisy/src/dev/oled_ssd130x.h ****             spi_config.pin_config.nss  = {DSY_GPIOG, 10};
 6750              		.loc 3 96 13 view .LVU1591
  97:../../../lib/pd2dsy/libdaisy/src/dev/oled_ssd130x.h ****             // SSD130x control pin config
 6751              		.loc 3 97 13 view .LVU1592
  99:../../../lib/pd2dsy/libdaisy/src/dev/oled_ssd130x.h ****             pin_config.reset = {DSY_GPIOB, 15};
 6752              		.loc 3 99 13 view .LVU1593
 100:../../../lib/pd2dsy/libdaisy/src/dev/oled_ssd130x.h ****         }
 6753              		.loc 3 100 13 view .LVU1594
  78:source/HeavyDaisy_daisiSPI.hpp ****     display_config.driver_config.transport_config.Defaults();
 6754              		.loc 5 78 5 view .LVU1595
  84:../../../lib/pd2dsy/libdaisy/src/dev/oled_ssd130x.h ****             spi_config.mode   = SpiHandle::Config::Mode::MASTER;
 6755              		.loc 3 84 13 view .LVU1596
  85:../../../lib/pd2dsy/libdaisy/src/dev/oled_ssd130x.h ****             spi_config.direction
 6756              		.loc 3 85 13 view .LVU1597
  86:../../../lib/pd2dsy/libdaisy/src/dev/oled_ssd130x.h ****                 = SpiHandle::Config::Direction::TWO_LINES_TX_ONLY;
 6757              		.loc 3 86 13 view .LVU1598
  88:../../../lib/pd2dsy/libdaisy/src/dev/oled_ssd130x.h ****             spi_config.clock_polarity = SpiHandle::Config::ClockPolarity::LOW;
 6758              		.loc 3 88 13 view .LVU1599
  89:../../../lib/pd2dsy/libdaisy/src/dev/oled_ssd130x.h ****             spi_config.clock_phase    = SpiHandle::Config::ClockPhase::ONE_EDGE;
 6759              		.loc 3 89 13 view .LVU1600
  90:../../../lib/pd2dsy/libdaisy/src/dev/oled_ssd130x.h ****             spi_config.nss            = SpiHandle::Config::NSS::HARD_OUTPUT;
 6760              		.loc 3 90 13 view .LVU1601
  91:../../../lib/pd2dsy/libdaisy/src/dev/oled_ssd130x.h ****             spi_config.baud_prescaler = SpiHandle::Config::BaudPrescaler::PS_8;
 6761              		.loc 3 91 13 view .LVU1602
  92:../../../lib/pd2dsy/libdaisy/src/dev/oled_ssd130x.h ****             // SPI pin config
 6762              		.loc 3 92 13 view .LVU1603
  94:../../../lib/pd2dsy/libdaisy/src/dev/oled_ssd130x.h ****             spi_config.pin_config.miso = {DSY_GPIOX, 0};
 6763              		.loc 3 94 13 view .LVU1604
  95:../../../lib/pd2dsy/libdaisy/src/dev/oled_ssd130x.h ****             spi_config.pin_config.mosi = {DSY_GPIOB, 5};
 6764              		.loc 3 95 13 view .LVU1605
  96:../../../lib/pd2dsy/libdaisy/src/dev/oled_ssd130x.h ****             spi_config.pin_config.nss  = {DSY_GPIOG, 10};
 6765              		.loc 3 96 13 view .LVU1606
  97:../../../lib/pd2dsy/libdaisy/src/dev/oled_ssd130x.h ****             // SSD130x control pin config
 6766              		.loc 3 97 13 view .LVU1607
  99:../../../lib/pd2dsy/libdaisy/src/dev/oled_ssd130x.h ****             pin_config.reset = {DSY_GPIOB, 15};
ARM GAS  /var/folders/fb/yfxt3z4538j6z0vjt03w70vc0000gn/T//cc0qjWS6.s 			page 184


 6767              		.loc 3 99 13 view .LVU1608
 100:../../../lib/pd2dsy/libdaisy/src/dev/oled_ssd130x.h ****         }
 6768              		.loc 3 100 13 view .LVU1609
  79:source/HeavyDaisy_daisiSPI.hpp ****     
  80:source/HeavyDaisy_daisiSPI.hpp ****     display.Init(display_config);
 6769              		.loc 5 80 5 view .LVU1610
 6770              		.loc 5 80 5 is_stmt 0 view .LVU1611
 6771 01ac 0823     		movs	r3, #8
 6772              	.LBB1726:
 6773              	.LBB1722:
 6774              	.LBB1718:
 6775              	.LBB1714:
  71:../../../lib/pd2dsy/libdaisy/src/dev/oled_ssd130x.h ****             // Initialize using defaults
 6776              		.loc 3 71 9 view .LVU1612
 6777 01ae 404A     		ldr	r2, .L408+8
 6778 01b0 0DF1600E 		add	lr, sp, #96
 6779 01b4 1D93     		str	r3, [sp, #116]
 6780 01b6 0223     		movs	r3, #2
 6781 01b8 1892     		str	r2, [sp, #96]
 6782 01ba 0DF18C0C 		add	ip, sp, #140
 6783 01be 3D4A     		ldr	r2, .L408+12
 6784 01c0 1C95     		str	r5, [sp, #112]
 6785              	.LBE1714:
 6786              	.LBE1718:
 6787              	.LBE1722:
 6788              	.LBE1726:
 6789              	.LBB1727:
 6790              	.LBB1703:
  25:../../../lib/pd2dsy/libdaisy/src/hid/disp/oled_display.h **** 
 6791              		.loc 2 25 44 view .LVU1613
 6792 01c2 6746     		mov	r7, ip
 6793              	.LBE1703:
 6794              	.LBE1727:
 6795              	.LBB1728:
 6796              	.LBB1723:
 6797              	.LBB1719:
 6798              	.LBB1715:
  71:../../../lib/pd2dsy/libdaisy/src/dev/oled_ssd130x.h ****             // Initialize using defaults
 6799              		.loc 3 71 9 view .LVU1614
 6800 01c4 1992     		str	r2, [sp, #100]
 6801 01c6 04F5D272 		add	r2, r4, #420
 6802 01ca CDF87890 		str	r9, [sp, #120]
 6803              	.LBE1715:
 6804              	.LBE1719:
 6805              	.LBE1723:
 6806              	.LBE1728:
 6807              	.LBB1729:
 6808              	.LBB1730:
 6809              	.LBB1731:
 6810              	.LBB1732:
 6811              	.LBB1733:
 124:../../../lib/pd2dsy/libdaisy/src/dev/oled_ssd130x.h ****         spi_.BlockingTransmit(&cmd, 1);
 6812              		.loc 3 124 24 view .LVU1615
 6813 01ce 04F5D074 		add	r4, r4, #416
 6814              	.LVL543:
 124:../../../lib/pd2dsy/libdaisy/src/dev/oled_ssd130x.h ****         spi_.BlockingTransmit(&cmd, 1);
 6815              		.loc 3 124 24 view .LVU1616
ARM GAS  /var/folders/fb/yfxt3z4538j6z0vjt03w70vc0000gn/T//cc0qjWS6.s 			page 185


 6816 01d2 CDF87C90 		str	r9, [sp, #124]
 6817 01d6 9046     		mov	r8, r2
 6818 01d8 CDF86890 		str	r9, [sp, #104]
 6819 01dc CDF86C90 		str	r9, [sp, #108]
 6820 01e0 0992     		str	r2, [sp, #36]
 6821 01e2 CDE92033 		strd	r3, r3, [sp, #128]
 6822              	.LBE1733:
 6823              	.LBE1732:
 6824              	.LBE1731:
 6825              	.LBE1730:
 6826              	.LBE1729:
 6827              	.LBB1757:
 6828              	.LBB1724:
 6829              	.LBB1720:
 6830              	.LBB1716:
  71:../../../lib/pd2dsy/libdaisy/src/dev/oled_ssd130x.h ****             // Initialize using defaults
 6831              		.loc 3 71 9 view .LVU1617
 6832 01e6 344B     		ldr	r3, .L408+16
 6833 01e8 2293     		str	r3, [sp, #136]
 6834              	.LBE1716:
 6835              	.LBE1720:
 6836              	.LBE1724:
 6837              	.LBE1757:
 6838              	.LBB1758:
 6839              	.LBB1704:
  25:../../../lib/pd2dsy/libdaisy/src/hid/disp/oled_display.h **** 
 6840              		.loc 2 25 44 view .LVU1618
 6841 01ea 26AB     		add	r3, sp, #152
 6842 01ec 1D46     		mov	r5, r3
 6843              	.LBE1704:
 6844              	.LBE1758:
 6845              	.LBB1759:
 6846              	.LBB1755:
 6847              	.LBB1753:
 6848              	.LBB1739:
 6849              	.LBB1734:
 124:../../../lib/pd2dsy/libdaisy/src/dev/oled_ssd130x.h ****         spi_.BlockingTransmit(&cmd, 1);
 6850              		.loc 3 124 24 view .LVU1619
 6851 01ee B023     		movs	r3, #176
 6852 01f0 0893     		str	r3, [sp, #32]
 6853 01f2 BEE80F00 		ldmia	lr!, {r0, r1, r2, r3}
 6854 01f6 ACE80F00 		stmia	ip!, {r0, r1, r2, r3}
 6855 01fa BEE80F00 		ldmia	lr!, {r0, r1, r2, r3}
 6856 01fe ACE80F00 		stmia	ip!, {r0, r1, r2, r3}
 6857 0202 9EE80700 		ldm	lr, {r0, r1, r2}
 6858 0206 8CE80700 		stm	ip, {r0, r1, r2}
 6859              	.LBE1734:
 6860              	.LBE1739:
 6861              	.LBE1753:
 6862              	.LBE1755:
 6863              	.LBE1759:
 6864              	.LBB1760:
 6865              	.LBI1700:
  25:../../../lib/pd2dsy/libdaisy/src/hid/disp/oled_display.h **** 
 6866              		.loc 2 25 10 is_stmt 1 view .LVU1620
 6867              	.LBB1705:
  25:../../../lib/pd2dsy/libdaisy/src/hid/disp/oled_display.h **** 
ARM GAS  /var/folders/fb/yfxt3z4538j6z0vjt03w70vc0000gn/T//cc0qjWS6.s 			page 186


 6868              		.loc 2 25 44 is_stmt 0 view .LVU1621
 6869 020a 0FCD     		ldmia	r5!, {r0, r1, r2, r3}
 6870 020c ABE80F00 		stmia	fp!, {r0, r1, r2, r3}
 6871 0210 95E80F00 		ldm	r5, {r0, r1, r2, r3}
 6872 0214 8BE80F00 		stm	fp, {r0, r1, r2, r3}
 6873 0218 3046     		mov	r0, r6
 6874 021a 97E80E00 		ldm	r7, {r1, r2, r3}
 6875 021e FFF7FEFF 		bl	_ZN5daisy13SSD130xDriverILj128ELj64ENS_24SSD130x4WireSpiTransportEE4InitENS2_6ConfigE
 6876              	.LVL544:
  25:../../../lib/pd2dsy/libdaisy/src/hid/disp/oled_display.h **** 
 6877              		.loc 2 25 44 view .LVU1622
 6878              	.LBE1705:
 6879              	.LBE1760:
  81:source/HeavyDaisy_daisiSPI.hpp ****       display.Fill(0);
 6880              		.loc 5 81 7 is_stmt 1 view .LVU1623
 6881              	.LBB1761:
 6882              	.LBI1761:
  34:../../../lib/pd2dsy/libdaisy/src/hid/disp/oled_display.h **** 
 6883              		.loc 2 34 10 view .LVU1624
 6884              	.LBB1762:
 6885              	.LBB1763:
 264:../../../lib/pd2dsy/libdaisy/src/dev/oled_ssd130x.h ****         {
 6886              		.loc 3 264 29 view .LVU1625
 266:../../../lib/pd2dsy/libdaisy/src/dev/oled_ssd130x.h ****         }
 6887              		.loc 3 266 24 is_stmt 0 view .LVU1626
 6888 0222 4946     		mov	r1, r9
 6889 0224 0998     		ldr	r0, [sp, #36]
 6890 0226 4FF48062 		mov	r2, #1024
 6891 022a FFF7FEFF 		bl	memset
 6892              	.LVL545:
 266:../../../lib/pd2dsy/libdaisy/src/dev/oled_ssd130x.h ****         }
 6893              		.loc 3 266 24 view .LVU1627
 6894 022e 089D     		ldr	r5, [sp, #32]
 6895              	.LVL546:
 6896              	.L405:
 266:../../../lib/pd2dsy/libdaisy/src/dev/oled_ssd130x.h ****         }
 6897              		.loc 3 266 24 view .LVU1628
 6898 0230 4FF00009 		mov	r9, #0
 6899              	.LBE1763:
 6900              	.LBE1762:
 6901              	.LBE1761:
 6902              	.LBB1764:
 6903              	.LBB1756:
 6904              	.LBB1754:
 6905              	.LBB1740:
 6906              	.LBB1735:
 124:../../../lib/pd2dsy/libdaisy/src/dev/oled_ssd130x.h ****         spi_.BlockingTransmit(&cmd, 1);
 6907              		.loc 3 124 23 view .LVU1629
 6908 0234 2046     		mov	r0, r4
 6909 0236 8DF88C50 		strb	r5, [sp, #140]
 6910              	.LVL547:
 124:../../../lib/pd2dsy/libdaisy/src/dev/oled_ssd130x.h ****         spi_.BlockingTransmit(&cmd, 1);
 6911              		.loc 3 124 23 view .LVU1630
 6912              	.LBE1735:
 6913              	.LBI1732:
 122:../../../lib/pd2dsy/libdaisy/src/dev/oled_ssd130x.h ****     {
 6914              		.loc 3 122 10 is_stmt 1 view .LVU1631
ARM GAS  /var/folders/fb/yfxt3z4538j6z0vjt03w70vc0000gn/T//cc0qjWS6.s 			page 187


 6915              	.LBB1736:
 124:../../../lib/pd2dsy/libdaisy/src/dev/oled_ssd130x.h ****         spi_.BlockingTransmit(&cmd, 1);
 6916              		.loc 3 124 9 view .LVU1632
 6917              	.LBE1736:
 6918              	.LBE1740:
 6919              		.loc 3 283 22 is_stmt 0 view .LVU1633
 6920 023a 0135     		adds	r5, r5, #1
 6921              	.LVL548:
 6922              	.LBB1741:
 6923              	.LBB1737:
 124:../../../lib/pd2dsy/libdaisy/src/dev/oled_ssd130x.h ****         spi_.BlockingTransmit(&cmd, 1);
 6924              		.loc 3 124 23 view .LVU1634
 6925 023c 4946     		mov	r1, r9
 6926 023e FFF7FEFF 		bl	dsy_gpio_write
 6927              	.LVL549:
 125:../../../lib/pd2dsy/libdaisy/src/dev/oled_ssd130x.h ****     };
 6928              		.loc 3 125 9 is_stmt 1 view .LVU1635
 125:../../../lib/pd2dsy/libdaisy/src/dev/oled_ssd130x.h ****     };
 6929              		.loc 3 125 30 is_stmt 0 view .LVU1636
 6930 0242 6423     		movs	r3, #100
 6931 0244 0122     		movs	r2, #1
 6932 0246 3946     		mov	r1, r7
 6933 0248 3046     		mov	r0, r6
 6934              	.LBE1737:
 6935              	.LBE1741:
 6936              		.loc 3 283 22 view .LVU1637
 6937 024a EDB2     		uxtb	r5, r5
 6938              	.LBB1742:
 6939              	.LBB1738:
 125:../../../lib/pd2dsy/libdaisy/src/dev/oled_ssd130x.h ****     };
 6940              		.loc 3 125 30 view .LVU1638
 6941 024c FFF7FEFF 		bl	_ZN5daisy9SpiHandle16BlockingTransmitEPhjm
 6942              	.LVL550:
 125:../../../lib/pd2dsy/libdaisy/src/dev/oled_ssd130x.h ****     };
 6943              		.loc 3 125 30 view .LVU1639
 6944              	.LBE1738:
 6945              	.LBE1742:
 6946              	.LBB1743:
 6947              	.LBB1744:
 124:../../../lib/pd2dsy/libdaisy/src/dev/oled_ssd130x.h ****         spi_.BlockingTransmit(&cmd, 1);
 6948              		.loc 3 124 23 view .LVU1640
 6949 0250 4946     		mov	r1, r9
 6950 0252 2046     		mov	r0, r4
 6951 0254 8DF88C90 		strb	r9, [sp, #140]
 6952              	.LVL551:
 124:../../../lib/pd2dsy/libdaisy/src/dev/oled_ssd130x.h ****         spi_.BlockingTransmit(&cmd, 1);
 6953              		.loc 3 124 23 view .LVU1641
 6954              	.LBE1744:
 6955              	.LBI1743:
 122:../../../lib/pd2dsy/libdaisy/src/dev/oled_ssd130x.h ****     {
 6956              		.loc 3 122 10 is_stmt 1 view .LVU1642
 6957              	.LBB1745:
 124:../../../lib/pd2dsy/libdaisy/src/dev/oled_ssd130x.h ****         spi_.BlockingTransmit(&cmd, 1);
 6958              		.loc 3 124 9 view .LVU1643
 124:../../../lib/pd2dsy/libdaisy/src/dev/oled_ssd130x.h ****         spi_.BlockingTransmit(&cmd, 1);
 6959              		.loc 3 124 23 is_stmt 0 view .LVU1644
 6960 0258 FFF7FEFF 		bl	dsy_gpio_write
ARM GAS  /var/folders/fb/yfxt3z4538j6z0vjt03w70vc0000gn/T//cc0qjWS6.s 			page 188


 6961              	.LVL552:
 125:../../../lib/pd2dsy/libdaisy/src/dev/oled_ssd130x.h ****     };
 6962              		.loc 3 125 9 is_stmt 1 view .LVU1645
 125:../../../lib/pd2dsy/libdaisy/src/dev/oled_ssd130x.h ****     };
 6963              		.loc 3 125 30 is_stmt 0 view .LVU1646
 6964 025c 0122     		movs	r2, #1
 6965 025e 6423     		movs	r3, #100
 6966 0260 3946     		mov	r1, r7
 6967 0262 3046     		mov	r0, r6
 6968 0264 FFF7FEFF 		bl	_ZN5daisy9SpiHandle16BlockingTransmitEPhjm
 6969              	.LVL553:
 125:../../../lib/pd2dsy/libdaisy/src/dev/oled_ssd130x.h ****     };
 6970              		.loc 3 125 30 view .LVU1647
 6971 0268 1023     		movs	r3, #16
 6972              	.LBE1745:
 6973              	.LBE1743:
 6974              	.LBB1746:
 6975              	.LBB1747:
 124:../../../lib/pd2dsy/libdaisy/src/dev/oled_ssd130x.h ****         spi_.BlockingTransmit(&cmd, 1);
 6976              		.loc 3 124 23 view .LVU1648
 6977 026a 4946     		mov	r1, r9
 6978 026c 2046     		mov	r0, r4
 6979 026e 8DF88C30 		strb	r3, [sp, #140]
 6980              	.LVL554:
 124:../../../lib/pd2dsy/libdaisy/src/dev/oled_ssd130x.h ****         spi_.BlockingTransmit(&cmd, 1);
 6981              		.loc 3 124 23 view .LVU1649
 6982              	.LBE1747:
 6983              	.LBI1746:
 122:../../../lib/pd2dsy/libdaisy/src/dev/oled_ssd130x.h ****     {
 6984              		.loc 3 122 10 is_stmt 1 view .LVU1650
 6985              	.LBB1748:
 124:../../../lib/pd2dsy/libdaisy/src/dev/oled_ssd130x.h ****         spi_.BlockingTransmit(&cmd, 1);
 6986              		.loc 3 124 9 view .LVU1651
 124:../../../lib/pd2dsy/libdaisy/src/dev/oled_ssd130x.h ****         spi_.BlockingTransmit(&cmd, 1);
 6987              		.loc 3 124 23 is_stmt 0 view .LVU1652
 6988 0272 FFF7FEFF 		bl	dsy_gpio_write
 6989              	.LVL555:
 125:../../../lib/pd2dsy/libdaisy/src/dev/oled_ssd130x.h ****     };
 6990              		.loc 3 125 9 is_stmt 1 view .LVU1653
 125:../../../lib/pd2dsy/libdaisy/src/dev/oled_ssd130x.h ****     };
 6991              		.loc 3 125 30 is_stmt 0 view .LVU1654
 6992 0276 6423     		movs	r3, #100
 6993 0278 0122     		movs	r2, #1
 6994 027a 3946     		mov	r1, r7
 6995 027c 3046     		mov	r0, r6
 6996 027e FFF7FEFF 		bl	_ZN5daisy9SpiHandle16BlockingTransmitEPhjm
 6997              	.LVL556:
 125:../../../lib/pd2dsy/libdaisy/src/dev/oled_ssd130x.h ****     };
 6998              		.loc 3 125 30 view .LVU1655
 6999              	.LBE1748:
 7000              	.LBE1746:
 7001              	.LBB1749:
 7002              	.LBI1749:
 128:../../../lib/pd2dsy/libdaisy/src/dev/oled_ssd130x.h ****     {
 7003              		.loc 3 128 10 is_stmt 1 view .LVU1656
 7004              	.LBB1750:
 130:../../../lib/pd2dsy/libdaisy/src/dev/oled_ssd130x.h ****         spi_.BlockingTransmit(buff, size);
ARM GAS  /var/folders/fb/yfxt3z4538j6z0vjt03w70vc0000gn/T//cc0qjWS6.s 			page 189


 7005              		.loc 3 130 9 view .LVU1657
 130:../../../lib/pd2dsy/libdaisy/src/dev/oled_ssd130x.h ****         spi_.BlockingTransmit(buff, size);
 7006              		.loc 3 130 23 is_stmt 0 view .LVU1658
 7007 0282 0121     		movs	r1, #1
 7008 0284 2046     		mov	r0, r4
 7009 0286 FFF7FEFF 		bl	dsy_gpio_write
 7010              	.LVL557:
 131:../../../lib/pd2dsy/libdaisy/src/dev/oled_ssd130x.h ****     };
 7011              		.loc 3 131 9 is_stmt 1 view .LVU1659
 131:../../../lib/pd2dsy/libdaisy/src/dev/oled_ssd130x.h ****     };
 7012              		.loc 3 131 30 is_stmt 0 view .LVU1660
 7013 028a 8022     		movs	r2, #128
 7014 028c 4146     		mov	r1, r8
 7015 028e 6423     		movs	r3, #100
 7016 0290 3046     		mov	r0, r6
 7017              	.LBE1750:
 7018              	.LBE1749:
 7019              		.loc 3 283 22 view .LVU1661
 7020 0292 9044     		add	r8, r8, r2
 7021              	.LVL558:
 7022              	.LBB1752:
 7023              	.LBB1751:
 131:../../../lib/pd2dsy/libdaisy/src/dev/oled_ssd130x.h ****     };
 7024              		.loc 3 131 30 view .LVU1662
 7025 0294 FFF7FEFF 		bl	_ZN5daisy9SpiHandle16BlockingTransmitEPhjm
 7026              	.LVL559:
 131:../../../lib/pd2dsy/libdaisy/src/dev/oled_ssd130x.h ****     };
 7027              		.loc 3 131 30 view .LVU1663
 7028              	.LBE1751:
 7029              	.LBE1752:
 7030              		.loc 3 283 9 is_stmt 1 view .LVU1664
 7031              		.loc 3 283 22 view .LVU1665
 7032 0298 B82D     		cmp	r5, #184
 7033 029a C9D1     		bne	.L405
 7034              	.LBE1754:
 7035              	.LBE1756:
 7036              	.LBE1764:
  82:source/HeavyDaisy_daisiSPI.hpp ****       display.Update();
  83:source/HeavyDaisy_daisiSPI.hpp ****      
  84:source/HeavyDaisy_daisiSPI.hpp **** 
  85:source/HeavyDaisy_daisiSPI.hpp ****     som.adc.Start();
 7037              		.loc 5 85 5 view .LVU1666
 7038              		.loc 5 85 18 is_stmt 0 view .LVU1667
 7039 029c 5046     		mov	r0, r10
  86:source/HeavyDaisy_daisiSPI.hpp ****   }
 7040              		.loc 5 86 3 view .LVU1668
 7041 029e 2FB0     		add	sp, sp, #188
 7042              		.cfi_def_cfa_offset 36
 7043              		@ sp needed
 7044 02a0 BDE8F04F 		pop	{r4, r5, r6, r7, r8, r9, r10, fp, lr}
 7045              		.cfi_restore 14
 7046              		.cfi_restore 11
 7047              		.cfi_restore 10
 7048              		.cfi_restore 9
 7049              		.cfi_restore 8
 7050              		.cfi_restore 7
 7051              		.cfi_restore 6
ARM GAS  /var/folders/fb/yfxt3z4538j6z0vjt03w70vc0000gn/T//cc0qjWS6.s 			page 190


 7052              		.cfi_restore 5
 7053              		.cfi_restore 4
 7054              		.cfi_def_cfa_offset 0
 7055              	.LVL560:
  85:source/HeavyDaisy_daisiSPI.hpp ****   }
 7056              		.loc 5 85 18 view .LVU1669
 7057 02a4 FFF7FEBF 		b	_ZN5daisy9AdcHandle5StartEv
 7058              	.LVL561:
 7059              	.L409:
 7060              		.align	2
 7061              	.L408:
 7062 02a8 6F12033B 		.word	990057071
 7063 02ac 00000000 		.word	0
 7064 02b0 060B0B00 		.word	723718
 7065 02b4 0105060A 		.word	168166657
 7066 02b8 0104010F 		.word	251724801
 7067              		.cfi_endproc
 7068              	.LFE2985:
 7070              		.section	.text.startup.main,"ax",%progbits
 7071              		.align	1
 7072              		.p2align 2,,3
 7073              		.global	main
 7074              		.syntax unified
 7075              		.thumb
 7076              		.thumb_func
 7078              	main:
 7079              	.LFB3001:
  56:HeavyDaisy_daisiSPI.cpp ****   hardware.Init(true);
 7080              		.loc 1 56 1 is_stmt 1 view -0
 7081              		.cfi_startproc
 7082              		@ Volatile: function does not return.
 7083              		@ args = 0, pretend = 0, frame = 0
 7084              		@ frame_needed = 0, uses_anonymous_args = 0
  57:HeavyDaisy_daisiSPI.cpp ****   hardware.StartAudio(audiocallback);
 7085              		.loc 1 57 3 view .LVU1671
  56:HeavyDaisy_daisiSPI.cpp ****   hardware.Init(true);
 7086              		.loc 1 56 1 is_stmt 0 view .LVU1672
 7087 0000 08B5     		push	{r3, lr}
 7088              		.cfi_def_cfa_offset 8
 7089              		.cfi_offset 3, -8
 7090              		.cfi_offset 14, -4
  57:HeavyDaisy_daisiSPI.cpp ****   hardware.StartAudio(audiocallback);
 7091              		.loc 1 57 16 view .LVU1673
 7092 0002 0121     		movs	r1, #1
 7093 0004 0548     		ldr	r0, .L413
 7094 0006 FFF7FEFF 		bl	_ZN10json2daisy8DaisyPod4InitEb
 7095              	.LVL562:
  58:HeavyDaisy_daisiSPI.cpp **** 
 7096              		.loc 1 58 3 is_stmt 1 view .LVU1674
 7097              	.LBB1765:
 7098              	.LBI1765:
  87:source/HeavyDaisy_daisiSPI.hpp **** 
  88:source/HeavyDaisy_daisiSPI.hpp ****   /** Handles all the controls processing that needs to occur at the block rate
  89:source/HeavyDaisy_daisiSPI.hpp ****    * 
  90:source/HeavyDaisy_daisiSPI.hpp ****    */
  91:source/HeavyDaisy_daisiSPI.hpp ****   void ProcessAllControls() 
  92:source/HeavyDaisy_daisiSPI.hpp ****   {
ARM GAS  /var/folders/fb/yfxt3z4538j6z0vjt03w70vc0000gn/T//cc0qjWS6.s 			page 191


  93:source/HeavyDaisy_daisiSPI.hpp ****  
  94:source/HeavyDaisy_daisiSPI.hpp ****     knob1.Process();
  95:source/HeavyDaisy_daisiSPI.hpp ****     knob2.Process();
  96:source/HeavyDaisy_daisiSPI.hpp ****     encoder.Debounce();
  97:source/HeavyDaisy_daisiSPI.hpp ****     sw1.Debounce();
  98:source/HeavyDaisy_daisiSPI.hpp ****     sw2.Debounce(); 
  99:source/HeavyDaisy_daisiSPI.hpp ****   }
 100:source/HeavyDaisy_daisiSPI.hpp **** 
 101:source/HeavyDaisy_daisiSPI.hpp ****   /** Handles all the maintenance processing. This should be run last within the audio callback.
 102:source/HeavyDaisy_daisiSPI.hpp ****    * 
 103:source/HeavyDaisy_daisiSPI.hpp ****    */
 104:source/HeavyDaisy_daisiSPI.hpp ****   void PostProcess()
 105:source/HeavyDaisy_daisiSPI.hpp ****   {
 106:source/HeavyDaisy_daisiSPI.hpp ****     led1.Update();
 107:source/HeavyDaisy_daisiSPI.hpp ****     led2.Update();
 108:source/HeavyDaisy_daisiSPI.hpp ****   }
 109:source/HeavyDaisy_daisiSPI.hpp **** 
 110:source/HeavyDaisy_daisiSPI.hpp ****   /** Handles processing that shouldn't occur in the audio block, such as blocking transfers
 111:source/HeavyDaisy_daisiSPI.hpp ****    * 
 112:source/HeavyDaisy_daisiSPI.hpp ****    */
 113:source/HeavyDaisy_daisiSPI.hpp ****   void LoopProcess()
 114:source/HeavyDaisy_daisiSPI.hpp ****   {
 115:source/HeavyDaisy_daisiSPI.hpp ****     
 116:source/HeavyDaisy_daisiSPI.hpp ****   }
 117:source/HeavyDaisy_daisiSPI.hpp **** 
 118:source/HeavyDaisy_daisiSPI.hpp ****   /** Sets the audio sample rate
 119:source/HeavyDaisy_daisiSPI.hpp ****    *  \param sample_rate the new sample rate in Hz
 120:source/HeavyDaisy_daisiSPI.hpp ****    */
 121:source/HeavyDaisy_daisiSPI.hpp ****   void SetAudioSampleRate(size_t sample_rate) 
 122:source/HeavyDaisy_daisiSPI.hpp ****   {
 123:source/HeavyDaisy_daisiSPI.hpp ****     daisy::SaiHandle::Config::SampleRate enum_rate;
 124:source/HeavyDaisy_daisiSPI.hpp ****     if (sample_rate >= 96000)
 125:source/HeavyDaisy_daisiSPI.hpp ****       enum_rate = daisy::SaiHandle::Config::SampleRate::SAI_96KHZ;
 126:source/HeavyDaisy_daisiSPI.hpp ****     else if (sample_rate >= 48000)
 127:source/HeavyDaisy_daisiSPI.hpp ****       enum_rate = daisy::SaiHandle::Config::SampleRate::SAI_48KHZ;
 128:source/HeavyDaisy_daisiSPI.hpp ****     else if (sample_rate >= 32000)
 129:source/HeavyDaisy_daisiSPI.hpp ****       enum_rate = daisy::SaiHandle::Config::SampleRate::SAI_32KHZ;
 130:source/HeavyDaisy_daisiSPI.hpp ****     else if (sample_rate >= 16000)
 131:source/HeavyDaisy_daisiSPI.hpp ****       enum_rate = daisy::SaiHandle::Config::SampleRate::SAI_16KHZ;
 132:source/HeavyDaisy_daisiSPI.hpp ****     else
 133:source/HeavyDaisy_daisiSPI.hpp ****       enum_rate = daisy::SaiHandle::Config::SampleRate::SAI_8KHZ;
 134:source/HeavyDaisy_daisiSPI.hpp ****     som.SetAudioSampleRate(enum_rate);
 135:source/HeavyDaisy_daisiSPI.hpp ****     knob1.SetSampleRate(som.AudioCallbackRate());
 136:source/HeavyDaisy_daisiSPI.hpp ****     knob2.SetSampleRate(som.AudioCallbackRate());
 137:source/HeavyDaisy_daisiSPI.hpp ****     encoder.SetUpdateRate(som.AudioCallbackRate());
 138:source/HeavyDaisy_daisiSPI.hpp ****     sw1.SetUpdateRate(som.AudioCallbackRate());
 139:source/HeavyDaisy_daisiSPI.hpp ****     sw2.SetUpdateRate(som.AudioCallbackRate());
 140:source/HeavyDaisy_daisiSPI.hpp ****   }
 141:source/HeavyDaisy_daisiSPI.hpp **** 
 142:source/HeavyDaisy_daisiSPI.hpp ****   /** Sets the audio block size
 143:source/HeavyDaisy_daisiSPI.hpp ****    *  \param block_size the new block size in words
 144:source/HeavyDaisy_daisiSPI.hpp ****    */
 145:source/HeavyDaisy_daisiSPI.hpp ****   inline void SetAudioBlockSize(size_t block_size) 
 146:source/HeavyDaisy_daisiSPI.hpp ****   {
 147:source/HeavyDaisy_daisiSPI.hpp ****     som.SetAudioBlockSize(block_size);
 148:source/HeavyDaisy_daisiSPI.hpp ****   }
 149:source/HeavyDaisy_daisiSPI.hpp **** 
ARM GAS  /var/folders/fb/yfxt3z4538j6z0vjt03w70vc0000gn/T//cc0qjWS6.s 			page 192


 150:source/HeavyDaisy_daisiSPI.hpp ****   /** Starts up the audio callback process with the given callback
 151:source/HeavyDaisy_daisiSPI.hpp ****    * 
 152:source/HeavyDaisy_daisiSPI.hpp ****    */
 153:source/HeavyDaisy_daisiSPI.hpp ****   inline void StartAudio(daisy::AudioHandle::AudioCallback cb)
 7099              		.loc 5 153 15 view .LVU1675
 7100              	.LBB1766:
 154:source/HeavyDaisy_daisiSPI.hpp ****   {
 155:source/HeavyDaisy_daisiSPI.hpp ****     som.StartAudio(cb);
 7101              		.loc 5 155 5 view .LVU1676
 7102              		.loc 5 155 19 is_stmt 0 view .LVU1677
 7103 000a 0549     		ldr	r1, .L413+4
 7104 000c 0348     		ldr	r0, .L413
 7105 000e FFF7FEFF 		bl	_ZN5daisy9DaisySeed10StartAudioEPFvPKPKfPPfjE
 7106              	.LVL563:
 7107              		.loc 5 155 19 view .LVU1678
 7108              	.LBE1766:
 7109              	.LBE1765:
  60:HeavyDaisy_daisiSPI.cpp **** 
 7110              		.loc 1 60 3 is_stmt 1 view .LVU1679
 7111              	.LBB1767:
 7112              	.LBI1767:
 7113              		.file 19 "source/HeavyContext.hpp"
   1:source/HeavyContext.hpp **** /**
   2:source/HeavyContext.hpp ****  * Copyright (c) 2014-2018 Enzien Audio Ltd.
   3:source/HeavyContext.hpp ****  *
   4:source/HeavyContext.hpp ****  * Permission to use, copy, modify, and/or distribute this software for any
   5:source/HeavyContext.hpp ****  * purpose with or without fee is hereby granted, provided that the above
   6:source/HeavyContext.hpp ****  * copyright notice and this permission notice appear in all copies.
   7:source/HeavyContext.hpp ****  *
   8:source/HeavyContext.hpp ****  * THE SOFTWARE IS PROVIDED "AS IS" AND THE AUTHOR DISCLAIMS ALL WARRANTIES WITH
   9:source/HeavyContext.hpp ****  * REGARD TO THIS SOFTWARE INCLUDING ALL IMPLIED WARRANTIES OF MERCHANTABILITY
  10:source/HeavyContext.hpp ****  * AND FITNESS. IN NO EVENT SHALL THE AUTHOR BE LIABLE FOR ANY SPECIAL, DIRECT,
  11:source/HeavyContext.hpp ****  * INDIRECT, OR CONSEQUENTIAL DAMAGES OR ANY DAMAGES WHATSOEVER RESULTING FROM
  12:source/HeavyContext.hpp ****  * LOSS OF USE, DATA OR PROFITS, WHETHER IN AN ACTION OF CONTRACT, NEGLIGENCE OR
  13:source/HeavyContext.hpp ****  * OTHER TORTIOUS ACTION, ARISING OUT OF OR IN CONNECTION WITH THE USE OR
  14:source/HeavyContext.hpp ****  * PERFORMANCE OF THIS SOFTWARE.
  15:source/HeavyContext.hpp ****  */
  16:source/HeavyContext.hpp **** 
  17:source/HeavyContext.hpp **** #ifndef _HEAVY_CONTEXT_H_
  18:source/HeavyContext.hpp **** #define _HEAVY_CONTEXT_H_
  19:source/HeavyContext.hpp **** 
  20:source/HeavyContext.hpp **** #include "HeavyContextInterface.hpp"
  21:source/HeavyContext.hpp **** #include "HvLightPipe.h"
  22:source/HeavyContext.hpp **** #include "HvMessageQueue.h"
  23:source/HeavyContext.hpp **** #include "HvMath.h"
  24:source/HeavyContext.hpp **** 
  25:source/HeavyContext.hpp **** struct HvTable;
  26:source/HeavyContext.hpp **** 
  27:source/HeavyContext.hpp **** class HeavyContext : public HeavyContextInterface {
  28:source/HeavyContext.hpp **** 
  29:source/HeavyContext.hpp ****  public:
  30:source/HeavyContext.hpp ****   HeavyContext(double sampleRate, int poolKb=10, int inQueueKb=2, int outQueueKb=0);
  31:source/HeavyContext.hpp ****   virtual ~HeavyContext();
  32:source/HeavyContext.hpp **** 
  33:source/HeavyContext.hpp ****   int getSize() override { return (int) numBytes; }
  34:source/HeavyContext.hpp **** 
  35:source/HeavyContext.hpp ****   double getSampleRate() override { return sampleRate; }
ARM GAS  /var/folders/fb/yfxt3z4538j6z0vjt03w70vc0000gn/T//cc0qjWS6.s 			page 193


  36:source/HeavyContext.hpp **** 
  37:source/HeavyContext.hpp ****   hv_uint32_t getCurrentSample() override { return blockStartTimestamp; }
  38:source/HeavyContext.hpp ****   float samplesToMilliseconds(hv_uint32_t numSamples) override { return (float) (1000.0*numSamples/
  39:source/HeavyContext.hpp ****   hv_uint32_t millisecondsToSamples(float ms) override { return (hv_uint32_t) (hv_max_f(0.0f,ms)*sa
  40:source/HeavyContext.hpp **** 
  41:source/HeavyContext.hpp ****   void setUserData(void *x) override { userData = x; }
  42:source/HeavyContext.hpp ****   void *getUserData() override { return userData; }
  43:source/HeavyContext.hpp **** 
  44:source/HeavyContext.hpp ****   // hook management
  45:source/HeavyContext.hpp ****   void setSendHook(HvSendHook_t *f) override { sendHook = f; }
 7114              		.loc 19 45 8 view .LVU1680
 7115              	.LBB1768:
 7116              		.loc 19 45 48 view .LVU1681
 7117              		.loc 19 45 57 is_stmt 0 view .LVU1682
 7118 0012 044B     		ldr	r3, .L413+8
 7119 0014 044A     		ldr	r2, .L413+12
 7120 0016 1A65     		str	r2, [r3, #80]
 7121              	.LVL564:
 7122              	.L411:
 7123              		.loc 19 45 57 view .LVU1683
 7124              	.LBE1768:
 7125              	.LBE1767:
  62:HeavyDaisy_daisiSPI.cpp ****   {
 7126              		.loc 1 62 3 is_stmt 1 discriminator 1 view .LVU1684
  64:HeavyDaisy_daisiSPI.cpp ****     Display();
 7127              		.loc 1 64 5 discriminator 1 view .LVU1685
  62:HeavyDaisy_daisiSPI.cpp ****   {
 7128              		.loc 1 62 3 discriminator 1 view .LVU1686
  64:HeavyDaisy_daisiSPI.cpp ****     Display();
 7129              		.loc 1 64 5 discriminator 1 view .LVU1687
  64:HeavyDaisy_daisiSPI.cpp ****     Display();
 7130              		.loc 1 64 5 is_stmt 0 discriminator 1 view .LVU1688
 7131 0018 FEE7     		b	.L411
 7132              	.L414:
 7133 001a 00BF     		.align	2
 7134              	.L413:
 7135 001c 00000000 		.word	.LANCHOR0
 7136 0020 00000000 		.word	_Z13audiocallbackPKPKfPPfj
 7137 0024 00000000 		.word	.LANCHOR1
 7138 0028 00000000 		.word	_ZL8sendHookP21HeavyContextInterfacePKcmPK9HvMessage
 7139              		.cfi_endproc
 7140              	.LFE3001:
 7142              		.section	.text.startup._GLOBAL__sub_I_hardware,"ax",%progbits
 7143              		.align	1
 7144              		.p2align 2,,3
 7145              		.syntax unified
 7146              		.thumb
 7147              		.thumb_func
 7149              	_GLOBAL__sub_I_hardware:
 7150              	.LFB3085:
 110:HeavyDaisy_daisiSPI.cpp **** 
 111:HeavyDaisy_daisiSPI.cpp **** /** Handles the display code if the hardware defines a display
 112:HeavyDaisy_daisiSPI.cpp ****  * 
 113:HeavyDaisy_daisiSPI.cpp ****  */
 114:HeavyDaisy_daisiSPI.cpp **** void Display() {
 115:HeavyDaisy_daisiSPI.cpp ****   
 116:HeavyDaisy_daisiSPI.cpp **** }...
ARM GAS  /var/folders/fb/yfxt3z4538j6z0vjt03w70vc0000gn/T//cc0qjWS6.s 			page 194


 7151              		.loc 1 116 1 is_stmt 1 view -0
 7152              		.cfi_startproc
 7153              		@ args = 0, pretend = 0, frame = 0
 7154              		@ frame_needed = 0, uses_anonymous_args = 0
 7155              	.LBB1827:
 7156              	.LBI1827:
 7157              		.loc 1 116 1 view .LVU1690
 7158              	.LVL565:
 7159              	.LBB1828:
 7160              	.LBB1829:
 7161              	.LBI1829:
  39:source/HeavyDaisy_daisiSPI.hpp **** 
 7162              		.loc 5 39 8 view .LVU1691
 7163              	.LBB1830:
 7164              	.LBI1830:
  21:../../../lib/pd2dsy/libdaisy/src/daisy_seed.h ****     ~DaisySeed() {}
 7165              		.loc 11 21 5 view .LVU1692
 7166              	.LBB1831:
 7167              	.LBB1832:
 7168              	.LBI1832:
 7169              		.file 20 "../../../lib/pd2dsy/libdaisy/src/per/qspi.h"
   1:../../../lib/pd2dsy/libdaisy/src/per/qspi.h **** #ifndef DSY_QSPI
   2:../../../lib/pd2dsy/libdaisy/src/per/qspi.h **** #define DSY_QSPI /**< Macro */
   3:../../../lib/pd2dsy/libdaisy/src/per/qspi.h **** 
   4:../../../lib/pd2dsy/libdaisy/src/per/qspi.h **** #ifndef UNIT_TEST // for unit tests, a dummy implementation
   5:../../../lib/pd2dsy/libdaisy/src/per/qspi.h **** 
   6:../../../lib/pd2dsy/libdaisy/src/per/qspi.h **** #include <cstdint>
   7:../../../lib/pd2dsy/libdaisy/src/per/qspi.h **** #include "daisy_core.h" // Added for dsy_gpio_pin typedef
   8:../../../lib/pd2dsy/libdaisy/src/per/qspi.h **** 
   9:../../../lib/pd2dsy/libdaisy/src/per/qspi.h **** #define DSY_QSPI_TEXT       \
  10:../../../lib/pd2dsy/libdaisy/src/per/qspi.h ****     __attribute__((section( \
  11:../../../lib/pd2dsy/libdaisy/src/per/qspi.h ****         ".qspiflash_text"))) /**< used for reading memory in memory_mapped mode. */
  12:../../../lib/pd2dsy/libdaisy/src/per/qspi.h **** #define DSY_QSPI_DATA       \
  13:../../../lib/pd2dsy/libdaisy/src/per/qspi.h ****     __attribute__((section( \
  14:../../../lib/pd2dsy/libdaisy/src/per/qspi.h ****         ".qspiflash_data"))) /**< used for reading memory in memory_mapped mode. */
  15:../../../lib/pd2dsy/libdaisy/src/per/qspi.h **** #define DSY_QSPI_BSS        \
  16:../../../lib/pd2dsy/libdaisy/src/per/qspi.h ****     __attribute__((section( \
  17:../../../lib/pd2dsy/libdaisy/src/per/qspi.h ****         ".qspiflash_bss"))) /**< used for reading memory in memory_mapped mode. */
  18:../../../lib/pd2dsy/libdaisy/src/per/qspi.h **** 
  19:../../../lib/pd2dsy/libdaisy/src/per/qspi.h **** namespace daisy
  20:../../../lib/pd2dsy/libdaisy/src/per/qspi.h **** {
  21:../../../lib/pd2dsy/libdaisy/src/per/qspi.h **** /** @addtogroup serial
  22:../../../lib/pd2dsy/libdaisy/src/per/qspi.h **** @{
  23:../../../lib/pd2dsy/libdaisy/src/per/qspi.h **** */
  24:../../../lib/pd2dsy/libdaisy/src/per/qspi.h **** 
  25:../../../lib/pd2dsy/libdaisy/src/per/qspi.h **** /** 
  26:../../../lib/pd2dsy/libdaisy/src/per/qspi.h ****  Driver for QSPI peripheral to interface with external flash memory. \n 
  27:../../../lib/pd2dsy/libdaisy/src/per/qspi.h ****     Currently supported QSPI Devices: \n 
  28:../../../lib/pd2dsy/libdaisy/src/per/qspi.h ****     * IS25LP080D
  29:../../../lib/pd2dsy/libdaisy/src/per/qspi.h **** */
  30:../../../lib/pd2dsy/libdaisy/src/per/qspi.h **** class QSPIHandle
  31:../../../lib/pd2dsy/libdaisy/src/per/qspi.h **** {
  32:../../../lib/pd2dsy/libdaisy/src/per/qspi.h ****   public:
  33:../../../lib/pd2dsy/libdaisy/src/per/qspi.h ****     enum Result
  34:../../../lib/pd2dsy/libdaisy/src/per/qspi.h ****     {
  35:../../../lib/pd2dsy/libdaisy/src/per/qspi.h ****         OK = 0,
  36:../../../lib/pd2dsy/libdaisy/src/per/qspi.h ****         ERR
ARM GAS  /var/folders/fb/yfxt3z4538j6z0vjt03w70vc0000gn/T//cc0qjWS6.s 			page 195


  37:../../../lib/pd2dsy/libdaisy/src/per/qspi.h ****     };
  38:../../../lib/pd2dsy/libdaisy/src/per/qspi.h **** 
  39:../../../lib/pd2dsy/libdaisy/src/per/qspi.h ****     /** Indicates the current status of the module. 
  40:../../../lib/pd2dsy/libdaisy/src/per/qspi.h ****          *  Warnings are indicated by a leading W.
  41:../../../lib/pd2dsy/libdaisy/src/per/qspi.h ****          *  Errors are indicated by a leading E and cause an immediate exit.
  42:../../../lib/pd2dsy/libdaisy/src/per/qspi.h ****          * 
  43:../../../lib/pd2dsy/libdaisy/src/per/qspi.h ****          *  \param GOOD - No errors have been reported.
  44:../../../lib/pd2dsy/libdaisy/src/per/qspi.h ****          *  \param E_HAL_ERROR - HAL code did not return HAL_OK.
  45:../../../lib/pd2dsy/libdaisy/src/per/qspi.h ****          *  \param E_SWITCHING_MODES - An error was encountered while switching QSPI peripheral mod
  46:../../../lib/pd2dsy/libdaisy/src/per/qspi.h ****          *  \param E_INVALID_MODE - QSPI should not be written to while the program is executing fr
  47:../../../lib/pd2dsy/libdaisy/src/per/qspi.h ****          */
  48:../../../lib/pd2dsy/libdaisy/src/per/qspi.h ****     enum Status
  49:../../../lib/pd2dsy/libdaisy/src/per/qspi.h ****     {
  50:../../../lib/pd2dsy/libdaisy/src/per/qspi.h ****         GOOD = 0,
  51:../../../lib/pd2dsy/libdaisy/src/per/qspi.h ****         E_HAL_ERROR,
  52:../../../lib/pd2dsy/libdaisy/src/per/qspi.h ****         E_SWITCHING_MODES,
  53:../../../lib/pd2dsy/libdaisy/src/per/qspi.h ****         E_INVALID_MODE,
  54:../../../lib/pd2dsy/libdaisy/src/per/qspi.h ****     };
  55:../../../lib/pd2dsy/libdaisy/src/per/qspi.h **** 
  56:../../../lib/pd2dsy/libdaisy/src/per/qspi.h ****     /** Configuration structure for interfacing with QSPI Driver */
  57:../../../lib/pd2dsy/libdaisy/src/per/qspi.h ****     struct Config
  58:../../../lib/pd2dsy/libdaisy/src/per/qspi.h ****     {
  59:../../../lib/pd2dsy/libdaisy/src/per/qspi.h ****         /** Flash Devices supported. (Both of these are more-or-less the same, just different sizes
  60:../../../lib/pd2dsy/libdaisy/src/per/qspi.h ****         enum Device
  61:../../../lib/pd2dsy/libdaisy/src/per/qspi.h ****         {
  62:../../../lib/pd2dsy/libdaisy/src/per/qspi.h ****             IS25LP080D,  /**< & */
  63:../../../lib/pd2dsy/libdaisy/src/per/qspi.h ****             IS25LP064A,  /**< & */
  64:../../../lib/pd2dsy/libdaisy/src/per/qspi.h ****             DEVICE_LAST, /**< & */
  65:../../../lib/pd2dsy/libdaisy/src/per/qspi.h ****         };
  66:../../../lib/pd2dsy/libdaisy/src/per/qspi.h **** 
  67:../../../lib/pd2dsy/libdaisy/src/per/qspi.h ****         /** 
  68:../../../lib/pd2dsy/libdaisy/src/per/qspi.h ****         Modes of operation.
  69:../../../lib/pd2dsy/libdaisy/src/per/qspi.h ****         Memory Mapped mode: QSPI configured so that the QSPI can be
  70:../../../lib/pd2dsy/libdaisy/src/per/qspi.h ****         read from starting address 0x90000000. Writing is not
  71:../../../lib/pd2dsy/libdaisy/src/per/qspi.h ****         possible in this mode. \n 
  72:../../../lib/pd2dsy/libdaisy/src/per/qspi.h ****         Indirect Polling mode: Device driver enabled. 
  73:../../../lib/pd2dsy/libdaisy/src/per/qspi.h ****         */
  74:../../../lib/pd2dsy/libdaisy/src/per/qspi.h ****         enum Mode
  75:../../../lib/pd2dsy/libdaisy/src/per/qspi.h ****         {
  76:../../../lib/pd2dsy/libdaisy/src/per/qspi.h ****             MEMORY_MAPPED,    /**< & */
  77:../../../lib/pd2dsy/libdaisy/src/per/qspi.h ****             INDIRECT_POLLING, /**< & */
  78:../../../lib/pd2dsy/libdaisy/src/per/qspi.h ****             MODE_LAST,
  79:../../../lib/pd2dsy/libdaisy/src/per/qspi.h ****         };
  80:../../../lib/pd2dsy/libdaisy/src/per/qspi.h **** 
  81:../../../lib/pd2dsy/libdaisy/src/per/qspi.h ****         //SCK,  CE# (active low)
  82:../../../lib/pd2dsy/libdaisy/src/per/qspi.h ****         struct
  83:../../../lib/pd2dsy/libdaisy/src/per/qspi.h ****         {
  84:../../../lib/pd2dsy/libdaisy/src/per/qspi.h ****             dsy_gpio_pin io0; /**< & */
  85:../../../lib/pd2dsy/libdaisy/src/per/qspi.h ****             dsy_gpio_pin io1; /**< & */
  86:../../../lib/pd2dsy/libdaisy/src/per/qspi.h ****             dsy_gpio_pin io2; /**< & */
  87:../../../lib/pd2dsy/libdaisy/src/per/qspi.h ****             dsy_gpio_pin io3; /**< & */
  88:../../../lib/pd2dsy/libdaisy/src/per/qspi.h ****             dsy_gpio_pin clk; /**< & */
  89:../../../lib/pd2dsy/libdaisy/src/per/qspi.h ****             dsy_gpio_pin ncs; /**< & */
  90:../../../lib/pd2dsy/libdaisy/src/per/qspi.h ****         } pin_config;
  91:../../../lib/pd2dsy/libdaisy/src/per/qspi.h **** 
  92:../../../lib/pd2dsy/libdaisy/src/per/qspi.h ****         Device device;
  93:../../../lib/pd2dsy/libdaisy/src/per/qspi.h ****         Mode   mode;
ARM GAS  /var/folders/fb/yfxt3z4538j6z0vjt03w70vc0000gn/T//cc0qjWS6.s 			page 196


  94:../../../lib/pd2dsy/libdaisy/src/per/qspi.h ****     };
  95:../../../lib/pd2dsy/libdaisy/src/per/qspi.h **** 
  96:../../../lib/pd2dsy/libdaisy/src/per/qspi.h ****     /** 
  97:../../../lib/pd2dsy/libdaisy/src/per/qspi.h ****         Initializes QSPI peripheral, and Resets, and prepares memory for access.
  98:../../../lib/pd2dsy/libdaisy/src/per/qspi.h ****         \param config should be populated with the mode, device and pin_config before calling this 
  99:../../../lib/pd2dsy/libdaisy/src/per/qspi.h ****         \return Result::OK or Result::ERR
 100:../../../lib/pd2dsy/libdaisy/src/per/qspi.h ****         */
 101:../../../lib/pd2dsy/libdaisy/src/per/qspi.h ****     Result Init(const Config& config);
 102:../../../lib/pd2dsy/libdaisy/src/per/qspi.h **** 
 103:../../../lib/pd2dsy/libdaisy/src/per/qspi.h ****     /** Returns the current config. */
 104:../../../lib/pd2dsy/libdaisy/src/per/qspi.h ****     const Config& GetConfig() const;
 105:../../../lib/pd2dsy/libdaisy/src/per/qspi.h **** 
 106:../../../lib/pd2dsy/libdaisy/src/per/qspi.h ****     // Couldn't this just be called before anything else in init? That
 107:../../../lib/pd2dsy/libdaisy/src/per/qspi.h ****     // would make manually calling it unnecessary.
 108:../../../lib/pd2dsy/libdaisy/src/per/qspi.h ****     /** 
 109:../../../lib/pd2dsy/libdaisy/src/per/qspi.h ****         Deinitializes the peripheral
 110:../../../lib/pd2dsy/libdaisy/src/per/qspi.h ****         This should be called before reinitializing QSPI in a different mode.
 111:../../../lib/pd2dsy/libdaisy/src/per/qspi.h ****         \return Result::OK or Result::ERR
 112:../../../lib/pd2dsy/libdaisy/src/per/qspi.h ****         */
 113:../../../lib/pd2dsy/libdaisy/src/per/qspi.h ****     Result DeInit();
 114:../../../lib/pd2dsy/libdaisy/src/per/qspi.h **** 
 115:../../../lib/pd2dsy/libdaisy/src/per/qspi.h ****     /** 
 116:../../../lib/pd2dsy/libdaisy/src/per/qspi.h ****         Writes a single page to to the specified address on the QSPI chip.
 117:../../../lib/pd2dsy/libdaisy/src/per/qspi.h ****         For IS25LP*, page size is 256 bytes.
 118:../../../lib/pd2dsy/libdaisy/src/per/qspi.h ****         \param address Address to write to
 119:../../../lib/pd2dsy/libdaisy/src/per/qspi.h ****         \param size Buffer size
 120:../../../lib/pd2dsy/libdaisy/src/per/qspi.h ****         \param buffer Buffer to write
 121:../../../lib/pd2dsy/libdaisy/src/per/qspi.h ****         \return Result::OK or Result::ERR
 122:../../../lib/pd2dsy/libdaisy/src/per/qspi.h ****         */
 123:../../../lib/pd2dsy/libdaisy/src/per/qspi.h ****     Result WritePage(uint32_t address, uint32_t size, uint8_t* buffer);
 124:../../../lib/pd2dsy/libdaisy/src/per/qspi.h **** 
 125:../../../lib/pd2dsy/libdaisy/src/per/qspi.h ****     /** 
 126:../../../lib/pd2dsy/libdaisy/src/per/qspi.h ****         Writes data in buffer to to the QSPI. Starting at address to address+size 
 127:../../../lib/pd2dsy/libdaisy/src/per/qspi.h ****         \param address Address to write to
 128:../../../lib/pd2dsy/libdaisy/src/per/qspi.h ****         \param size Buffer size
 129:../../../lib/pd2dsy/libdaisy/src/per/qspi.h ****         \param buffer Buffer to write
 130:../../../lib/pd2dsy/libdaisy/src/per/qspi.h ****         \return Result::OK or Result::ERR
 131:../../../lib/pd2dsy/libdaisy/src/per/qspi.h ****         */
 132:../../../lib/pd2dsy/libdaisy/src/per/qspi.h ****     Result Write(uint32_t address, uint32_t size, uint8_t* buffer);
 133:../../../lib/pd2dsy/libdaisy/src/per/qspi.h **** 
 134:../../../lib/pd2dsy/libdaisy/src/per/qspi.h ****     /** 
 135:../../../lib/pd2dsy/libdaisy/src/per/qspi.h ****         Erases the area specified on the chip.
 136:../../../lib/pd2dsy/libdaisy/src/per/qspi.h ****         Erasures will happen by 4K, 32K or 64K increments.
 137:../../../lib/pd2dsy/libdaisy/src/per/qspi.h ****         Smallest erase possible is 4kB at a time. (on IS25LP*)
 138:../../../lib/pd2dsy/libdaisy/src/per/qspi.h ****         \param start_addr Address to begin erasing from
 139:../../../lib/pd2dsy/libdaisy/src/per/qspi.h ****         \param end_addr  Address to stop erasing at
 140:../../../lib/pd2dsy/libdaisy/src/per/qspi.h ****         \return Result::OK or Result::ERR
 141:../../../lib/pd2dsy/libdaisy/src/per/qspi.h ****         */
 142:../../../lib/pd2dsy/libdaisy/src/per/qspi.h ****     Result Erase(uint32_t start_addr, uint32_t end_addr);
 143:../../../lib/pd2dsy/libdaisy/src/per/qspi.h **** 
 144:../../../lib/pd2dsy/libdaisy/src/per/qspi.h ****     /**  
 145:../../../lib/pd2dsy/libdaisy/src/per/qspi.h ****          Erases a single sector of the chip.  
 146:../../../lib/pd2dsy/libdaisy/src/per/qspi.h ****         TODO: Document the size of this function. 
 147:../../../lib/pd2dsy/libdaisy/src/per/qspi.h ****         \param address Address of sector to erase
 148:../../../lib/pd2dsy/libdaisy/src/per/qspi.h ****         \return Result::OK or Result::ERR
 149:../../../lib/pd2dsy/libdaisy/src/per/qspi.h ****         */
 150:../../../lib/pd2dsy/libdaisy/src/per/qspi.h ****     Result EraseSector(uint32_t address);
ARM GAS  /var/folders/fb/yfxt3z4538j6z0vjt03w70vc0000gn/T//cc0qjWS6.s 			page 197


 151:../../../lib/pd2dsy/libdaisy/src/per/qspi.h **** 
 152:../../../lib/pd2dsy/libdaisy/src/per/qspi.h ****     /** Returns the current class status. Useful for debugging.
 153:../../../lib/pd2dsy/libdaisy/src/per/qspi.h ****      *  \returns Status
 154:../../../lib/pd2dsy/libdaisy/src/per/qspi.h ****      */
 155:../../../lib/pd2dsy/libdaisy/src/per/qspi.h ****     Status GetStatus();
 156:../../../lib/pd2dsy/libdaisy/src/per/qspi.h **** 
 157:../../../lib/pd2dsy/libdaisy/src/per/qspi.h ****     /** Returns a pointer to the actual memory used 
 158:../../../lib/pd2dsy/libdaisy/src/per/qspi.h ****      *  The memory at this address is read-only
 159:../../../lib/pd2dsy/libdaisy/src/per/qspi.h ****      *  to write to it use the Write function.
 160:../../../lib/pd2dsy/libdaisy/src/per/qspi.h ****      * 
 161:../../../lib/pd2dsy/libdaisy/src/per/qspi.h ****      *  \param offset returns the pointer starting this 
 162:../../../lib/pd2dsy/libdaisy/src/per/qspi.h ****      *                many bytes into the memory
 163:../../../lib/pd2dsy/libdaisy/src/per/qspi.h ****     */
 164:../../../lib/pd2dsy/libdaisy/src/per/qspi.h ****     void* GetData(uint32_t offset = 0);
 165:../../../lib/pd2dsy/libdaisy/src/per/qspi.h **** 
 166:../../../lib/pd2dsy/libdaisy/src/per/qspi.h ****     QSPIHandle() : pimpl_(nullptr) {}
 7170              		.loc 20 166 5 view .LVU1693
 7171              	.LBE1832:
 7172              	.LBE1831:
 7173              	.LBE1830:
 7174              	.LBE1829:
 7175              	.LBE1828:
 7176              	.LBE1827:
 7177              		.loc 1 116 1 is_stmt 0 view .LVU1694
 7178 0000 70B5     		push	{r4, r5, r6, lr}
 7179              		.cfi_def_cfa_offset 16
 7180              		.cfi_offset 4, -16
 7181              		.cfi_offset 5, -12
 7182              		.cfi_offset 6, -8
 7183              		.cfi_offset 14, -4
 7184              	.LBB1887:
 7185              	.LBB1885:
 7186              	.LBB1882:
 7187              	.LBB1850:
 7188              	.LBB1848:
 7189              	.LBB1837:
 7190              	.LBB1833:
 7191              	.LBB1834:
 7192              		.loc 20 166 34 view .LVU1695
 7193 0002 1148     		ldr	r0, .L417+8
 7194 0004 0024     		movs	r4, #0
 7195              	.LBE1834:
 7196              	.LBE1833:
 7197              	.LBE1837:
 7198              	.LBE1848:
 7199              	.LBE1850:
 7200              	.LBE1882:
  41:HeavyDaisy_daisiSPI.cpp **** json2daisy::DaisyPod hardware;
 7201              		.loc 1 41 22 view .LVU1696
 7202 0006 114E     		ldr	r6, .L417+12
 7203              	.LBB1883:
 7204              	.LBB1851:
 7205              	.LBB1852:
 7206              	.LBB1853:
  17:../../../lib/pd2dsy/libdaisy/src/hid/disp/oled_display.h ****     virtual ~OledDisplay() {}
 7207              		.loc 2 17 19 view .LVU1697
 7208 0008 114B     		ldr	r3, .L417+16
ARM GAS  /var/folders/fb/yfxt3z4538j6z0vjt03w70vc0000gn/T//cc0qjWS6.s 			page 198


 7209              	.LBE1853:
 7210              	.LBE1852:
 7211              	.LBE1851:
 7212              	.LBE1883:
  43:HeavyDaisy_daisiSPI.cpp **** Heavy_daisiSPI hv(SAMPLE_RATE);
 7213              		.loc 1 43 30 view .LVU1698
 7214 000a 124D     		ldr	r5, .L417+20
  41:HeavyDaisy_daisiSPI.cpp **** json2daisy::DaisyPod hardware;
 7215              		.loc 1 41 22 view .LVU1699
 7216 000c 3246     		mov	r2, r6
 7217 000e 1249     		ldr	r1, .L417+24
 7218              	.LBB1884:
 7219              	.LBB1863:
 7220              	.LBB1849:
 7221              	.LBB1838:
 7222              	.LBB1836:
 7223              	.LBB1835:
 7224              		.loc 20 166 34 view .LVU1700
 7225 0010 0460     		str	r4, [r0]
 7226              	.LVL566:
 7227              		.loc 20 166 34 view .LVU1701
 7228              	.LBE1835:
 7229              	.LBE1836:
 7230              	.LBE1838:
 7231              	.LBB1839:
 7232              	.LBI1839:
  95:../../../lib/pd2dsy/libdaisy/src/hid/audio.h ****     ~AudioHandle() {}
 7233              		.loc 15 95 5 is_stmt 1 view .LVU1702
 7234              	.LBB1840:
 7235              	.LBB1841:
  95:../../../lib/pd2dsy/libdaisy/src/hid/audio.h ****     ~AudioHandle() {}
 7236              		.loc 15 95 35 is_stmt 0 view .LVU1703
 7237 0012 4461     		str	r4, [r0, #20]
 7238              	.LVL567:
  95:../../../lib/pd2dsy/libdaisy/src/hid/audio.h ****     ~AudioHandle() {}
 7239              		.loc 15 95 35 view .LVU1704
 7240              	.LBE1841:
 7241              	.LBE1840:
 7242              	.LBE1839:
 7243              	.LBB1842:
 7244              	.LBI1842:
  92:../../../lib/pd2dsy/libdaisy/src/per/adc.h ****     ~AdcHandle() {}
 7245              		.loc 14 92 5 is_stmt 1 view .LVU1705
  92:../../../lib/pd2dsy/libdaisy/src/per/adc.h ****     ~AdcHandle() {}
 7246              		.loc 14 92 5 is_stmt 0 view .LVU1706
 7247              	.LBE1842:
 7248              	.LBB1843:
 7249              	.LBI1843:
 7250              		.file 21 "../../../lib/pd2dsy/libdaisy/src/per/dac.h"
   1:../../../lib/pd2dsy/libdaisy/src/per/dac.h **** #pragma once
   2:../../../lib/pd2dsy/libdaisy/src/per/dac.h **** #ifndef DSY_DAC_H
   3:../../../lib/pd2dsy/libdaisy/src/per/dac.h **** #define DSY_DAC_H
   4:../../../lib/pd2dsy/libdaisy/src/per/dac.h **** 
   5:../../../lib/pd2dsy/libdaisy/src/per/dac.h **** #include "daisy_core.h"
   6:../../../lib/pd2dsy/libdaisy/src/per/dac.h **** 
   7:../../../lib/pd2dsy/libdaisy/src/per/dac.h **** namespace daisy
   8:../../../lib/pd2dsy/libdaisy/src/per/dac.h **** {
ARM GAS  /var/folders/fb/yfxt3z4538j6z0vjt03w70vc0000gn/T//cc0qjWS6.s 			page 199


   9:../../../lib/pd2dsy/libdaisy/src/per/dac.h **** /** @brief DAC handle for Built-in DAC Peripheral 
  10:../../../lib/pd2dsy/libdaisy/src/per/dac.h ****  *  @ingroup per_analog
  11:../../../lib/pd2dsy/libdaisy/src/per/dac.h ****  ** 
  12:../../../lib/pd2dsy/libdaisy/src/per/dac.h ****  ** For now only Normal Mode is supported,
  13:../../../lib/pd2dsy/libdaisy/src/per/dac.h ****  ** Sample and hold mode provides reduced power consumption, but requires a bit more setup.
  14:../../../lib/pd2dsy/libdaisy/src/per/dac.h ****  **
  15:../../../lib/pd2dsy/libdaisy/src/per/dac.h ****  ** For now connecting the DAC through other internal peripherals is also not supported.
  16:../../../lib/pd2dsy/libdaisy/src/per/dac.h ****  **
  17:../../../lib/pd2dsy/libdaisy/src/per/dac.h ****  ** Since the DAC channels have dedicated pins we don't need to pass in a pin config like with
  18:../../../lib/pd2dsy/libdaisy/src/per/dac.h ****  ** other modules. However, it is still important to not try to use the DAC pins for anything else.
  19:../../../lib/pd2dsy/libdaisy/src/per/dac.h ****  ** DAC Channel 1 is on PA4, and DAC Channel 2 is on PA5
  20:../../../lib/pd2dsy/libdaisy/src/per/dac.h ****  ***/
  21:../../../lib/pd2dsy/libdaisy/src/per/dac.h **** class DacHandle
  22:../../../lib/pd2dsy/libdaisy/src/per/dac.h **** {
  23:../../../lib/pd2dsy/libdaisy/src/per/dac.h ****   public:
  24:../../../lib/pd2dsy/libdaisy/src/per/dac.h ****     /** Return Values for the DacHandle class */
  25:../../../lib/pd2dsy/libdaisy/src/per/dac.h ****     enum class Result
  26:../../../lib/pd2dsy/libdaisy/src/per/dac.h ****     {
  27:../../../lib/pd2dsy/libdaisy/src/per/dac.h ****         OK,
  28:../../../lib/pd2dsy/libdaisy/src/per/dac.h ****         ERR,
  29:../../../lib/pd2dsy/libdaisy/src/per/dac.h ****     };
  30:../../../lib/pd2dsy/libdaisy/src/per/dac.h **** 
  31:../../../lib/pd2dsy/libdaisy/src/per/dac.h ****     /** Selects which channel(s) will be configured for use. */
  32:../../../lib/pd2dsy/libdaisy/src/per/dac.h ****     enum class Channel
  33:../../../lib/pd2dsy/libdaisy/src/per/dac.h ****     {
  34:../../../lib/pd2dsy/libdaisy/src/per/dac.h ****         ONE,
  35:../../../lib/pd2dsy/libdaisy/src/per/dac.h ****         TWO,
  36:../../../lib/pd2dsy/libdaisy/src/per/dac.h ****         BOTH,
  37:../../../lib/pd2dsy/libdaisy/src/per/dac.h ****     };
  38:../../../lib/pd2dsy/libdaisy/src/per/dac.h **** 
  39:../../../lib/pd2dsy/libdaisy/src/per/dac.h ****     /** Sets the Mode for the DAC channels.
  40:../../../lib/pd2dsy/libdaisy/src/per/dac.h ****      **
  41:../../../lib/pd2dsy/libdaisy/src/per/dac.h ****      ** Polling mode uses the blocking mode to transmit a single value at a time.
  42:../../../lib/pd2dsy/libdaisy/src/per/dac.h ****      **
  43:../../../lib/pd2dsy/libdaisy/src/per/dac.h ****      ** DMA mode uses a buffer, and periodically transmits it triggering a 
  44:../../../lib/pd2dsy/libdaisy/src/per/dac.h ****      ** callback to fill the buffer when it is ready for more samples.
  45:../../../lib/pd2dsy/libdaisy/src/per/dac.h ****      ***/
  46:../../../lib/pd2dsy/libdaisy/src/per/dac.h ****     enum class Mode
  47:../../../lib/pd2dsy/libdaisy/src/per/dac.h ****     {
  48:../../../lib/pd2dsy/libdaisy/src/per/dac.h ****         POLLING,
  49:../../../lib/pd2dsy/libdaisy/src/per/dac.h ****         DMA,
  50:../../../lib/pd2dsy/libdaisy/src/per/dac.h ****     };
  51:../../../lib/pd2dsy/libdaisy/src/per/dac.h **** 
  52:../../../lib/pd2dsy/libdaisy/src/per/dac.h ****     /** Sets the number of bits per sample transmitted out of the DAC.
  53:../../../lib/pd2dsy/libdaisy/src/per/dac.h ****      ** The output range will be: 0V - VDDA
  54:../../../lib/pd2dsy/libdaisy/src/per/dac.h ****      ** The resolution will be roughly: bitdepth / (VDDA - 0V) 
  55:../../../lib/pd2dsy/libdaisy/src/per/dac.h ****      ***/
  56:../../../lib/pd2dsy/libdaisy/src/per/dac.h ****     enum class BitDepth
  57:../../../lib/pd2dsy/libdaisy/src/per/dac.h ****     {
  58:../../../lib/pd2dsy/libdaisy/src/per/dac.h ****         BITS_8,
  59:../../../lib/pd2dsy/libdaisy/src/per/dac.h ****         BITS_12
  60:../../../lib/pd2dsy/libdaisy/src/per/dac.h ****     };
  61:../../../lib/pd2dsy/libdaisy/src/per/dac.h **** 
  62:../../../lib/pd2dsy/libdaisy/src/per/dac.h ****     /** Sets whether the DAC output is buffered for higher drive ability. */
  63:../../../lib/pd2dsy/libdaisy/src/per/dac.h ****     enum class BufferState
  64:../../../lib/pd2dsy/libdaisy/src/per/dac.h ****     {
  65:../../../lib/pd2dsy/libdaisy/src/per/dac.h ****         ENABLED,
ARM GAS  /var/folders/fb/yfxt3z4538j6z0vjt03w70vc0000gn/T//cc0qjWS6.s 			page 200


  66:../../../lib/pd2dsy/libdaisy/src/per/dac.h ****         DISABLED,
  67:../../../lib/pd2dsy/libdaisy/src/per/dac.h ****     };
  68:../../../lib/pd2dsy/libdaisy/src/per/dac.h **** 
  69:../../../lib/pd2dsy/libdaisy/src/per/dac.h ****     /** Configuration structure for initializing the DAC structure. */
  70:../../../lib/pd2dsy/libdaisy/src/per/dac.h ****     struct Config
  71:../../../lib/pd2dsy/libdaisy/src/per/dac.h ****     {
  72:../../../lib/pd2dsy/libdaisy/src/per/dac.h ****         /** Target Samplerate in Hz used to configure the internal 
  73:../../../lib/pd2dsy/libdaisy/src/per/dac.h ****          ** timebase for DMA mode. Does nothing in POLLING mode.
  74:../../../lib/pd2dsy/libdaisy/src/per/dac.h ****          ** If the value is 0 at Init time this will default to 48000Hz 
  75:../../../lib/pd2dsy/libdaisy/src/per/dac.h ****          ** otherwise the driver will attempt meet the target.*/
  76:../../../lib/pd2dsy/libdaisy/src/per/dac.h ****         uint32_t target_samplerate;
  77:../../../lib/pd2dsy/libdaisy/src/per/dac.h **** 
  78:../../../lib/pd2dsy/libdaisy/src/per/dac.h ****         Channel     chn;
  79:../../../lib/pd2dsy/libdaisy/src/per/dac.h ****         Mode        mode;
  80:../../../lib/pd2dsy/libdaisy/src/per/dac.h ****         BitDepth    bitdepth;
  81:../../../lib/pd2dsy/libdaisy/src/per/dac.h ****         BufferState buff_state;
  82:../../../lib/pd2dsy/libdaisy/src/per/dac.h ****     };
  83:../../../lib/pd2dsy/libdaisy/src/per/dac.h **** 
  84:../../../lib/pd2dsy/libdaisy/src/per/dac.h ****     DacHandle() : pimpl_(nullptr) {}
 7251              		.loc 21 84 5 is_stmt 1 view .LVU1707
 7252              	.LBB1844:
 7253              	.LBB1845:
 7254              		.loc 21 84 33 is_stmt 0 view .LVU1708
 7255 0014 0462     		str	r4, [r0, #32]
 7256              	.LVL568:
 7257              		.loc 21 84 33 view .LVU1709
 7258              	.LBE1845:
 7259              	.LBE1844:
 7260              	.LBE1843:
 7261              	.LBB1846:
 7262              	.LBI1846:
  40:../../../lib/pd2dsy/libdaisy/src/hid/usb.h **** 
 7263              		.loc 13 40 5 is_stmt 1 view .LVU1710
  40:../../../lib/pd2dsy/libdaisy/src/hid/usb.h **** 
 7264              		.loc 13 40 5 is_stmt 0 view .LVU1711
 7265              	.LBE1846:
 7266              	.LBB1847:
 7267              	.LBI1847:
  77:../../../lib/pd2dsy/libdaisy/src/sys/system.h ****     ~System() {}
 7268              		.loc 12 77 5 is_stmt 1 view .LVU1712
  77:../../../lib/pd2dsy/libdaisy/src/sys/system.h ****     ~System() {}
 7269              		.loc 12 77 5 is_stmt 0 view .LVU1713
 7270              	.LBE1847:
 7271              	.LBE1849:
 7272              	.LBE1863:
 7273              	.LBB1864:
 7274              	.LBI1864:
  21:../../../lib/pd2dsy/libdaisy/src/hid/ctrl.h ****     /** destructor */
 7275              		.loc 10 21 5 is_stmt 1 view .LVU1714
  21:../../../lib/pd2dsy/libdaisy/src/hid/ctrl.h ****     /** destructor */
 7276              		.loc 10 21 5 is_stmt 0 view .LVU1715
 7277              	.LBE1864:
 7278              	.LBB1865:
 7279              	.LBI1865:
  21:../../../lib/pd2dsy/libdaisy/src/hid/ctrl.h ****     /** destructor */
 7280              		.loc 10 21 5 is_stmt 1 view .LVU1716
  21:../../../lib/pd2dsy/libdaisy/src/hid/ctrl.h ****     /** destructor */
ARM GAS  /var/folders/fb/yfxt3z4538j6z0vjt03w70vc0000gn/T//cc0qjWS6.s 			page 201


 7281              		.loc 10 21 5 is_stmt 0 view .LVU1717
 7282              	.LBE1865:
 7283              	.LBB1866:
 7284              	.LBI1866:
  20:../../../lib/pd2dsy/libdaisy/src/hid/encoder.h ****     ~Encoder() {}
 7285              		.loc 9 20 5 is_stmt 1 view .LVU1718
 7286              	.LBB1867:
 7287              	.LBB1868:
 7288              	.LBI1868:
  41:../../../lib/pd2dsy/libdaisy/src/hid/switch.h ****     ~Switch() {}
 7289              		.loc 6 41 5 view .LVU1719
  41:../../../lib/pd2dsy/libdaisy/src/hid/switch.h ****     ~Switch() {}
 7290              		.loc 6 41 5 is_stmt 0 view .LVU1720
 7291              	.LBE1868:
 7292              	.LBE1867:
 7293              	.LBE1866:
 7294              	.LBB1869:
 7295              	.LBI1869:
  17:../../../lib/pd2dsy/libdaisy/src/hid/rgb_led.h ****     ~RgbLed() {}
 7296              		.loc 7 17 5 is_stmt 1 view .LVU1721
 7297              	.LBB1870:
 7298              	.LBB1871:
 7299              	.LBI1871:
  24:../../../lib/pd2dsy/libdaisy/src/hid/led.h ****     ~Led() {}
 7300              		.loc 8 24 5 view .LVU1722
  24:../../../lib/pd2dsy/libdaisy/src/hid/led.h ****     ~Led() {}
 7301              		.loc 8 24 5 is_stmt 0 view .LVU1723
 7302              	.LBE1871:
 7303              	.LBB1872:
 7304              	.LBI1872:
  24:../../../lib/pd2dsy/libdaisy/src/hid/led.h ****     ~Led() {}
 7305              		.loc 8 24 5 is_stmt 1 view .LVU1724
  24:../../../lib/pd2dsy/libdaisy/src/hid/led.h ****     ~Led() {}
 7306              		.loc 8 24 5 is_stmt 0 view .LVU1725
 7307              	.LBE1872:
 7308              	.LBB1873:
 7309              	.LBI1873:
  24:../../../lib/pd2dsy/libdaisy/src/hid/led.h ****     ~Led() {}
 7310              		.loc 8 24 5 is_stmt 1 view .LVU1726
  24:../../../lib/pd2dsy/libdaisy/src/hid/led.h ****     ~Led() {}
 7311              		.loc 8 24 5 is_stmt 0 view .LVU1727
 7312              	.LBE1873:
 7313              	.LBE1870:
 7314              	.LBE1869:
 7315              	.LBB1874:
 7316              	.LBI1874:
  17:../../../lib/pd2dsy/libdaisy/src/hid/rgb_led.h ****     ~RgbLed() {}
 7317              		.loc 7 17 5 is_stmt 1 view .LVU1728
 7318              	.LBB1875:
 7319              	.LBB1876:
 7320              	.LBI1876:
  24:../../../lib/pd2dsy/libdaisy/src/hid/led.h ****     ~Led() {}
 7321              		.loc 8 24 5 view .LVU1729
  24:../../../lib/pd2dsy/libdaisy/src/hid/led.h ****     ~Led() {}
 7322              		.loc 8 24 5 is_stmt 0 view .LVU1730
 7323              	.LBE1876:
 7324              	.LBB1877:
ARM GAS  /var/folders/fb/yfxt3z4538j6z0vjt03w70vc0000gn/T//cc0qjWS6.s 			page 202


 7325              	.LBI1877:
  24:../../../lib/pd2dsy/libdaisy/src/hid/led.h ****     ~Led() {}
 7326              		.loc 8 24 5 is_stmt 1 view .LVU1731
  24:../../../lib/pd2dsy/libdaisy/src/hid/led.h ****     ~Led() {}
 7327              		.loc 8 24 5 is_stmt 0 view .LVU1732
 7328              	.LBE1877:
 7329              	.LBB1878:
 7330              	.LBI1878:
  24:../../../lib/pd2dsy/libdaisy/src/hid/led.h ****     ~Led() {}
 7331              		.loc 8 24 5 is_stmt 1 view .LVU1733
  24:../../../lib/pd2dsy/libdaisy/src/hid/led.h ****     ~Led() {}
 7332              		.loc 8 24 5 is_stmt 0 view .LVU1734
 7333              	.LBE1878:
 7334              	.LBE1875:
 7335              	.LBE1874:
 7336              	.LBB1879:
 7337              	.LBI1879:
  41:../../../lib/pd2dsy/libdaisy/src/hid/switch.h ****     ~Switch() {}
 7338              		.loc 6 41 5 is_stmt 1 view .LVU1735
  41:../../../lib/pd2dsy/libdaisy/src/hid/switch.h ****     ~Switch() {}
 7339              		.loc 6 41 5 is_stmt 0 view .LVU1736
 7340              	.LBE1879:
 7341              	.LBB1880:
 7342              	.LBI1880:
  41:../../../lib/pd2dsy/libdaisy/src/hid/switch.h ****     ~Switch() {}
 7343              		.loc 6 41 5 is_stmt 1 view .LVU1737
  41:../../../lib/pd2dsy/libdaisy/src/hid/switch.h ****     ~Switch() {}
 7344              		.loc 6 41 5 is_stmt 0 view .LVU1738
 7345              	.LBE1880:
 7346              	.LBB1881:
 7347              	.LBI1851:
  17:../../../lib/pd2dsy/libdaisy/src/hid/disp/oled_display.h ****     virtual ~OledDisplay() {}
 7348              		.loc 2 17 5 is_stmt 1 view .LVU1739
 7349              	.LBB1862:
 7350              	.LBB1861:
 7351              	.LBB1854:
 7352              	.LBI1854:
 218:../../../lib/pd2dsy/libdaisy/src/hid/disp/display.h ****     virtual ~OneBitGraphicsDisplayImpl() {}
 7353              		.loc 4 218 5 view .LVU1740
 7354              	.LBB1855:
 7355              	.LBI1855:
  22:../../../lib/pd2dsy/libdaisy/src/hid/disp/display.h ****     virtual ~OneBitGraphicsDisplay() {}
 7356              		.loc 4 22 5 view .LVU1741
  22:../../../lib/pd2dsy/libdaisy/src/hid/disp/display.h ****     virtual ~OneBitGraphicsDisplay() {}
 7357              		.loc 4 22 5 is_stmt 0 view .LVU1742
 7358              	.LBE1855:
 7359              	.LBE1854:
  17:../../../lib/pd2dsy/libdaisy/src/hid/disp/oled_display.h ****     virtual ~OledDisplay() {}
 7360              		.loc 2 17 19 view .LVU1743
 7361 0016 C0F89031 		str	r3, [r0, #400]
 7362              	.LVL569:
 7363              	.LBB1856:
 7364              	.LBI1856:
 145:../../../lib/pd2dsy/libdaisy/src/dev/oled_ssd130x.h **** {
 7365              		.loc 3 145 7 is_stmt 1 view .LVU1744
 7366              	.LBB1857:
 7367              	.LBI1857:
ARM GAS  /var/folders/fb/yfxt3z4538j6z0vjt03w70vc0000gn/T//cc0qjWS6.s 			page 203


  65:../../../lib/pd2dsy/libdaisy/src/dev/oled_ssd130x.h **** {
 7368              		.loc 3 65 7 view .LVU1745
 7369              	.LBB1858:
 7370              	.LBI1858:
  94:../../../lib/pd2dsy/libdaisy/src/per/spi.h ****         }
  95:../../../lib/pd2dsy/libdaisy/src/per/spi.h **** 
  96:../../../lib/pd2dsy/libdaisy/src/per/spi.h ****         Peripheral    periph;
  97:../../../lib/pd2dsy/libdaisy/src/per/spi.h ****         Mode          mode;
  98:../../../lib/pd2dsy/libdaisy/src/per/spi.h ****         Direction     direction;
  99:../../../lib/pd2dsy/libdaisy/src/per/spi.h ****         unsigned long datasize;
 100:../../../lib/pd2dsy/libdaisy/src/per/spi.h ****         ClockPolarity clock_polarity;
 101:../../../lib/pd2dsy/libdaisy/src/per/spi.h ****         ClockPhase    clock_phase;
 102:../../../lib/pd2dsy/libdaisy/src/per/spi.h ****         NSS           nss;
 103:../../../lib/pd2dsy/libdaisy/src/per/spi.h ****         BaudPrescaler baud_prescaler;
 104:../../../lib/pd2dsy/libdaisy/src/per/spi.h ****     };
 105:../../../lib/pd2dsy/libdaisy/src/per/spi.h **** 
 106:../../../lib/pd2dsy/libdaisy/src/per/spi.h ****     SpiHandle() : pimpl_(nullptr) {}
 7371              		.loc 18 106 5 view .LVU1746
 7372              	.LBB1859:
 7373              	.LBB1860:
 7374              		.loc 18 106 33 is_stmt 0 view .LVU1747
 7375 001a C0F89841 		str	r4, [r0, #408]
 7376              	.LVL570:
 7377              		.loc 18 106 33 view .LVU1748
 7378              	.LBE1860:
 7379              	.LBE1859:
 7380              	.LBE1858:
 7381              	.LBE1857:
 7382              	.LBE1856:
 7383              	.LBE1861:
 7384              	.LBE1862:
 7385              	.LBE1881:
 7386              	.LBE1884:
  41:HeavyDaisy_daisiSPI.cpp **** json2daisy::DaisyPod hardware;
 7387              		.loc 1 41 22 view .LVU1749
 7388 001e FFF7FEFF 		bl	__aeabi_atexit
 7389              	.LVL571:
  43:HeavyDaisy_daisiSPI.cpp **** Heavy_daisiSPI hv(SAMPLE_RATE);
 7390              		.loc 1 43 30 view .LVU1750
 7391 0022 0A21     		movs	r1, #10
 7392 0024 2346     		mov	r3, r4
 7393 0026 0222     		movs	r2, #2
 7394 0028 2846     		mov	r0, r5
 7395 002a 9FED050B 		vldr.64	d0, .L417
 7396 002e FFF7FEFF 		bl	_ZN14Heavy_daisiSPIC1Ediii
 7397              	.LVL572:
  43:HeavyDaisy_daisiSPI.cpp **** Heavy_daisiSPI hv(SAMPLE_RATE);
 7398              		.loc 1 43 16 view .LVU1751
 7399 0032 3246     		mov	r2, r6
 7400 0034 2846     		mov	r0, r5
 7401 0036 0949     		ldr	r1, .L417+28
 7402              	.LBE1885:
 7403              	.LBE1887:
 7404              		.loc 1 116 1 view .LVU1752
 7405 0038 BDE87040 		pop	{r4, r5, r6, lr}
 7406              		.cfi_restore 14
 7407              		.cfi_restore 6
ARM GAS  /var/folders/fb/yfxt3z4538j6z0vjt03w70vc0000gn/T//cc0qjWS6.s 			page 204


 7408              		.cfi_restore 5
 7409              		.cfi_restore 4
 7410              		.cfi_def_cfa_offset 0
 7411              	.LBB1888:
 7412              	.LBB1886:
  43:HeavyDaisy_daisiSPI.cpp **** Heavy_daisiSPI hv(SAMPLE_RATE);
 7413              		.loc 1 43 16 view .LVU1753
 7414 003c FFF7FEBF 		b	__aeabi_atexit
 7415              	.LVL573:
 7416              	.L418:
 7417              		.align	3
 7418              	.L417:
 7419 0040 00000000 		.word	0
 7420 0044 0070E740 		.word	1088909312
 7421 0048 00000000 		.word	.LANCHOR0
 7422 004c 00000000 		.word	__dso_handle
 7423 0050 08000000 		.word	_ZTVN5daisy11OledDisplayINS_13SSD130xDriverILj128ELj64ENS_24SSD130x4WireSpiTransportEEEEE+8
 7424 0054 00000000 		.word	.LANCHOR1
 7425 0058 00000000 		.word	_ZN10json2daisy8DaisyPodD1Ev
 7426 005c 00000000 		.word	_ZN14Heavy_daisiSPID1Ev
 7427              	.LBE1886:
 7428              	.LBE1888:
 7429              		.cfi_endproc
 7430              	.LFE3085:
 7432              		.section	.init_array,"aw",%init_array
 7433              		.align	2
 7434 0000 00000000 		.word	_GLOBAL__sub_I_hardware(target1)
 7435              		.section	.text._Z13audiocallbackPKPKfPPfj,"ax",%progbits
 7436              		.align	1
 7437              		.p2align 2,,3
 7438              		.global	_Z13audiocallbackPKPKfPPfj
 7439              		.syntax unified
 7440              		.thumb
 7441              		.thumb_func
 7443              	_Z13audiocallbackPKPKfPPfj:
 7444              	.LVL574:
 7445              	.LFB3002:
  73:HeavyDaisy_daisiSPI.cpp **** {
 7446              		.loc 1 73 1 is_stmt 1 view -0
 7447              		.cfi_startproc
 7448              		@ args = 0, pretend = 0, frame = 0
 7449              		@ frame_needed = 0, uses_anonymous_args = 0
  74:HeavyDaisy_daisiSPI.cpp ****   hv.process((float**)in, (float**)out, size);
 7450              		.loc 1 74 3 view .LVU1755
  73:HeavyDaisy_daisiSPI.cpp **** {
 7451              		.loc 1 73 1 is_stmt 0 view .LVU1756
 7452 0000 10B5     		push	{r4, lr}
 7453              		.cfi_def_cfa_offset 8
 7454              		.cfi_offset 4, -8
 7455              		.cfi_offset 14, -4
 7456              	.LBB1889:
 7457              	.LBB1890:
 106:source/HeavyDaisy_daisiSPI.hpp ****     led2.Update();
 7458              		.loc 5 106 16 view .LVU1757
 7459 0002 084C     		ldr	r4, .L421
 7460              	.LBE1890:
 7461              	.LBE1889:
ARM GAS  /var/folders/fb/yfxt3z4538j6z0vjt03w70vc0000gn/T//cc0qjWS6.s 			page 205


  73:HeavyDaisy_daisiSPI.cpp **** {
 7462              		.loc 1 73 1 view .LVU1758
 7463 0004 1346     		mov	r3, r2
  74:HeavyDaisy_daisiSPI.cpp ****   hv.process((float**)in, (float**)out, size);
 7464              		.loc 1 74 13 view .LVU1759
 7465 0006 0A46     		mov	r2, r1
 7466              	.LVL575:
  74:HeavyDaisy_daisiSPI.cpp ****   hv.process((float**)in, (float**)out, size);
 7467              		.loc 1 74 13 view .LVU1760
 7468 0008 0146     		mov	r1, r0
 7469              	.LVL576:
  74:HeavyDaisy_daisiSPI.cpp ****   hv.process((float**)in, (float**)out, size);
 7470              		.loc 1 74 13 view .LVU1761
 7471 000a 0748     		ldr	r0, .L421+4
 7472              	.LVL577:
  74:HeavyDaisy_daisiSPI.cpp ****   hv.process((float**)in, (float**)out, size);
 7473              		.loc 1 74 13 view .LVU1762
 7474 000c FFF7FEFF 		bl	_ZN14Heavy_daisiSPI7processEPPfS1_i
 7475              	.LVL578:
  75:HeavyDaisy_daisiSPI.cpp ****   hardware.PostProcess();
 7476              		.loc 1 75 3 is_stmt 1 view .LVU1763
 7477              	.LBB1893:
 7478              	.LBI1889:
 104:source/HeavyDaisy_daisiSPI.hpp ****   {
 7479              		.loc 5 104 8 view .LVU1764
 7480              	.LBB1891:
 106:source/HeavyDaisy_daisiSPI.hpp ****     led2.Update();
 7481              		.loc 5 106 5 view .LVU1765
 106:source/HeavyDaisy_daisiSPI.hpp ****     led2.Update();
 7482              		.loc 5 106 16 is_stmt 0 view .LVU1766
 7483 0010 04F1C800 		add	r0, r4, #200
 7484 0014 FFF7FEFF 		bl	_ZN5daisy6RgbLed6UpdateEv
 7485              	.LVL579:
 107:source/HeavyDaisy_daisiSPI.hpp ****   }
 7486              		.loc 5 107 5 is_stmt 1 view .LVU1767
 107:source/HeavyDaisy_daisiSPI.hpp ****   }
 7487              		.loc 5 107 16 is_stmt 0 view .LVU1768
 7488 0018 04F58E70 		add	r0, r4, #284
 7489              	.LBE1891:
 7490              	.LBE1893:
  76:HeavyDaisy_daisiSPI.cpp **** }
 7491              		.loc 1 76 1 view .LVU1769
 7492 001c BDE81040 		pop	{r4, lr}
 7493              		.cfi_restore 14
 7494              		.cfi_restore 4
 7495              		.cfi_def_cfa_offset 0
 7496              	.LBB1894:
 7497              	.LBB1892:
 107:source/HeavyDaisy_daisiSPI.hpp ****   }
 7498              		.loc 5 107 16 view .LVU1770
 7499 0020 FFF7FEBF 		b	_ZN5daisy6RgbLed6UpdateEv
 7500              	.LVL580:
 7501              	.L422:
 7502              		.align	2
 7503              	.L421:
 7504 0024 00000000 		.word	.LANCHOR0
 7505 0028 00000000 		.word	.LANCHOR1
ARM GAS  /var/folders/fb/yfxt3z4538j6z0vjt03w70vc0000gn/T//cc0qjWS6.s 			page 206


 7506              	.LBE1892:
 7507              	.LBE1894:
 7508              		.cfi_endproc
 7509              	.LFE3002:
 7511              		.weak	_ZTVN5daisy11OledDisplayINS_13SSD130xDriverILj128ELj64ENS_24SSD130x4WireSpiTransportEEEEE
 7512              		.section	.rodata._ZTVN5daisy11OledDisplayINS_13SSD130xDriverILj128ELj64ENS_24SSD130x4WireSpiTransp
 7513              		.align	2
 7516              	_ZTVN5daisy11OledDisplayINS_13SSD130xDriverILj128ELj64ENS_24SSD130x4WireSpiTransportEEEEE:
 7517 0000 00000000 		.word	0
 7518 0004 00000000 		.word	0
 7519 0008 00000000 		.word	_ZN5daisy11OledDisplayINS_13SSD130xDriverILj128ELj64ENS_24SSD130x4WireSpiTransportEEEED1Ev
 7520 000c 00000000 		.word	_ZN5daisy11OledDisplayINS_13SSD130xDriverILj128ELj64ENS_24SSD130x4WireSpiTransportEEEED0Ev
 7521 0010 00000000 		.word	_ZNK5daisy11OledDisplayINS_13SSD130xDriverILj128ELj64ENS_24SSD130x4WireSpiTransportEEEE6Heig
 7522 0014 00000000 		.word	_ZNK5daisy11OledDisplayINS_13SSD130xDriverILj128ELj64ENS_24SSD130x4WireSpiTransportEEEE5Widt
 7523 0018 00000000 		.word	_ZN5daisy11OledDisplayINS_13SSD130xDriverILj128ELj64ENS_24SSD130x4WireSpiTransportEEEE4FillE
 7524 001c 00000000 		.word	_ZN5daisy11OledDisplayINS_13SSD130xDriverILj128ELj64ENS_24SSD130x4WireSpiTransportEEEE9DrawP
 7525 0020 00000000 		.word	_ZN5daisy25OneBitGraphicsDisplayImplINS_11OledDisplayINS_13SSD130xDriverILj128ELj64ENS_24SSD
 7526 0024 00000000 		.word	_ZN5daisy25OneBitGraphicsDisplayImplINS_11OledDisplayINS_13SSD130xDriverILj128ELj64ENS_24SSD
 7527 0028 00000000 		.word	_ZN5daisy25OneBitGraphicsDisplayImplINS_11OledDisplayINS_13SSD130xDriverILj128ELj64ENS_24SSD
 7528 002c 00000000 		.word	_ZN5daisy25OneBitGraphicsDisplayImplINS_11OledDisplayINS_13SSD130xDriverILj128ELj64ENS_24SSD
 7529 0030 00000000 		.word	_ZN5daisy25OneBitGraphicsDisplayImplINS_11OledDisplayINS_13SSD130xDriverILj128ELj64ENS_24SSD
 7530 0034 00000000 		.word	_ZN5daisy25OneBitGraphicsDisplayImplINS_11OledDisplayINS_13SSD130xDriverILj128ELj64ENS_24SSD
 7531 0038 00000000 		.word	_ZN5daisy11OledDisplayINS_13SSD130xDriverILj128ELj64ENS_24SSD130x4WireSpiTransportEEEE6Updat
 7532              		.global	hv
 7533              		.global	hardware
 7534              		.section	.bss.hardware,"aw",%nobits
 7535              		.align	2
 7536              		.set	.LANCHOR0,. + 0
 7539              	hardware:
 7540 0000 00000000 		.space	1444
 7540      00000000 
 7540      00000000 
 7540      00000000 
 7540      00000000 
 7541              		.section	.bss.hv,"aw",%nobits
 7542              		.align	3
 7543              		.set	.LANCHOR1,. + 0
 7546              	hv:
 7547 0000 00000000 		.space	184
 7547      00000000 
 7547      00000000 
 7547      00000000 
 7547      00000000 
 7548              		.text
 7549              	.Letext0:
 7550              		.file 22 "/Library/DaisyToolchain/0.2.0/arm/arm-none-eabi/include/machine/_default_types.h"
 7551              		.file 23 "/Library/DaisyToolchain/0.2.0/arm/arm-none-eabi/include/sys/_stdint.h"
 7552              		.file 24 "/Library/DaisyToolchain/0.2.0/arm/arm-none-eabi/include/stdint.h"
 7553              		.file 25 "/Library/DaisyToolchain/0.2.0/arm/lib/gcc/arm-none-eabi/10.3.1/include/stddef.h"
 7554              		.file 26 "/Library/DaisyToolchain/0.2.0/arm/arm-none-eabi/include/c++/10.3.1/bits/std_abs.h"
 7555              		.file 27 "/Library/DaisyToolchain/0.2.0/arm/arm-none-eabi/include/c++/10.3.1/cstdlib"
 7556              		.file 28 "/Library/DaisyToolchain/0.2.0/arm/arm-none-eabi/include/c++/10.3.1/type_traits"
 7557              		.file 29 "/Library/DaisyToolchain/0.2.0/arm/arm-none-eabi/include/c++/10.3.1/cstdint"
 7558              		.file 30 "/Library/DaisyToolchain/0.2.0/arm/arm-none-eabi/include/c++/10.3.1/debug/debug.h"
 7559              		.file 31 "/Library/DaisyToolchain/0.2.0/arm/arm-none-eabi/include/c++/10.3.1/arm-none-eabi/thumb/v
 7560              		.file 32 "/Library/DaisyToolchain/0.2.0/arm/arm-none-eabi/include/c++/10.3.1/bits/algorithmfwd.h"
 7561              		.file 33 "/Library/DaisyToolchain/0.2.0/arm/arm-none-eabi/include/c++/10.3.1/bits/stl_pair.h"
ARM GAS  /var/folders/fb/yfxt3z4538j6z0vjt03w70vc0000gn/T//cc0qjWS6.s 			page 207


 7562              		.file 34 "/Library/DaisyToolchain/0.2.0/arm/arm-none-eabi/include/c++/10.3.1/bits/exception_ptr.h"
 7563              		.file 35 "/Library/DaisyToolchain/0.2.0/arm/arm-none-eabi/include/c++/10.3.1/cstdarg"
 7564              		.file 36 "/Library/DaisyToolchain/0.2.0/arm/arm-none-eabi/include/c++/10.3.1/cstdio"
 7565              		.file 37 "/Library/DaisyToolchain/0.2.0/arm/arm-none-eabi/include/c++/10.3.1/cstring"
 7566              		.file 38 "/Library/DaisyToolchain/0.2.0/arm/arm-none-eabi/include/c++/10.3.1/bits/predefined_ops.h
 7567              		.file 39 "/Library/DaisyToolchain/0.2.0/arm/arm-none-eabi/include/sys/_types.h"
 7568              		.file 40 "/Library/DaisyToolchain/0.2.0/arm/arm-none-eabi/include/sys/reent.h"
 7569              		.file 41 "/Library/DaisyToolchain/0.2.0/arm/arm-none-eabi/include/sys/lock.h"
 7570              		.file 42 "/Library/DaisyToolchain/0.2.0/arm/arm-none-eabi/include/math.h"
 7571              		.file 43 "/Library/DaisyToolchain/0.2.0/arm/arm-none-eabi/include/stdlib.h"
 7572              		.file 44 "/Library/DaisyToolchain/0.2.0/arm/arm-none-eabi/include/c++/10.3.1/math.h"
 7573              		.file 45 "/Library/DaisyToolchain/0.2.0/arm/lib/gcc/arm-none-eabi/10.3.1/include/stdarg.h"
 7574              		.file 46 "/Library/DaisyToolchain/0.2.0/arm/arm-none-eabi/include/stdio.h"
 7575              		.file 47 "/Library/DaisyToolchain/0.2.0/arm/arm-none-eabi/include/c++/10.3.1/stdlib.h"
 7576              		.file 48 "source/HvHeavy.h"
 7577              		.file 49 "source/HvMessage.h"
 7578              		.file 50 "source/HeavyContextInterface.hpp"
 7579              		.file 51 "../../../lib/pd2dsy/libdaisy/src/daisy_core.h"
 7580              		.file 52 "../../../lib/pd2dsy/libdaisy/src/per/tim.h"
 7581              		.file 53 "../../../lib/pd2dsy/libdaisy/src/per/sai.h"
 7582              		.file 54 "../../../lib/pd2dsy/libdaisy/src/util/wav_format.h"
 7583              		.file 55 "../../../lib/pd2dsy/libdaisy/src/util/color.h"
 7584              		.file 56 "../../../lib/pd2dsy/libdaisy/src/dev/max11300.h"
 7585              		.file 57 "../../../lib/pd2dsy/libdaisy/src/per/gpio.h"
 7586              		.file 58 "../../../lib/pd2dsy/libdaisy/src/dev/sdram.h"
 7587              		.file 59 "../../../lib/pd2dsy/libdaisy/src/util/oled_fonts.h"
 7588              		.file 60 "/Library/DaisyToolchain/0.2.0/arm/arm-none-eabi/include/string.h"
 7589              		.file 61 "source/Heavy_daisiSPI.hpp"
 7590              		.file 62 "/Library/DaisyToolchain/0.2.0/arm/arm-none-eabi/include/c++/10.3.1/new"
 7591              		.file 63 "<built-in>"
 7592              		.file 64 "../../../lib/pd2dsy/libdaisy/src/dev/sr_595.h"
ARM GAS  /var/folders/fb/yfxt3z4538j6z0vjt03w70vc0000gn/T//cc0qjWS6.s 			page 208


DEFINED SYMBOLS
                            *ABS*:0000000000000000 HeavyDaisy_daisiSPI.cpp
/var/folders/fb/yfxt3z4538j6z0vjt03w70vc0000gn/T//cc0qjWS6.s:19     .text._ZL8sendHookP21HeavyContextInterfacePKcmPK9HvMessage:0000000000000000 $t
/var/folders/fb/yfxt3z4538j6z0vjt03w70vc0000gn/T//cc0qjWS6.s:25     .text._ZL8sendHookP21HeavyContextInterfacePKcmPK9HvMessage:0000000000000000 _ZL8sendHookP21HeavyContextInterfacePKcmPK9HvMessage
/var/folders/fb/yfxt3z4538j6z0vjt03w70vc0000gn/T//cc0qjWS6.s:40     .text._ZN5daisy11OledDisplayINS_13SSD130xDriverILj128ELj64ENS_24SSD130x4WireSpiTransportEEEE4FillEb:0000000000000000 $t
/var/folders/fb/yfxt3z4538j6z0vjt03w70vc0000gn/T//cc0qjWS6.s:47     .text._ZN5daisy11OledDisplayINS_13SSD130xDriverILj128ELj64ENS_24SSD130x4WireSpiTransportEEEE4FillEb:0000000000000000 _ZN5daisy11OledDisplayINS_13SSD130xDriverILj128ELj64ENS_24SSD130x4WireSpiTransportEEEE4FillEb
/var/folders/fb/yfxt3z4538j6z0vjt03w70vc0000gn/T//cc0qjWS6.s:80     .text._ZN5daisy11OledDisplayINS_13SSD130xDriverILj128ELj64ENS_24SSD130x4WireSpiTransportEEEED2Ev:0000000000000000 $t
/var/folders/fb/yfxt3z4538j6z0vjt03w70vc0000gn/T//cc0qjWS6.s:87     .text._ZN5daisy11OledDisplayINS_13SSD130xDriverILj128ELj64ENS_24SSD130x4WireSpiTransportEEEED2Ev:0000000000000000 _ZN5daisy11OledDisplayINS_13SSD130xDriverILj128ELj64ENS_24SSD130x4WireSpiTransportEEEED2Ev
/var/folders/fb/yfxt3z4538j6z0vjt03w70vc0000gn/T//cc0qjWS6.s:87     .text._ZN5daisy11OledDisplayINS_13SSD130xDriverILj128ELj64ENS_24SSD130x4WireSpiTransportEEEED2Ev:0000000000000000 _ZN5daisy11OledDisplayINS_13SSD130xDriverILj128ELj64ENS_24SSD130x4WireSpiTransportEEEED1Ev
/var/folders/fb/yfxt3z4538j6z0vjt03w70vc0000gn/T//cc0qjWS6.s:113    .text._ZN10json2daisy8DaisyPodD2Ev:0000000000000000 $t
/var/folders/fb/yfxt3z4538j6z0vjt03w70vc0000gn/T//cc0qjWS6.s:120    .text._ZN10json2daisy8DaisyPodD2Ev:0000000000000000 _ZN10json2daisy8DaisyPodD2Ev
/var/folders/fb/yfxt3z4538j6z0vjt03w70vc0000gn/T//cc0qjWS6.s:120    .text._ZN10json2daisy8DaisyPodD2Ev:0000000000000000 _ZN10json2daisy8DaisyPodD1Ev
/var/folders/fb/yfxt3z4538j6z0vjt03w70vc0000gn/T//cc0qjWS6.s:251    .text._ZNK5daisy11OledDisplayINS_13SSD130xDriverILj128ELj64ENS_24SSD130x4WireSpiTransportEEEE6HeightEv:0000000000000000 $t
/var/folders/fb/yfxt3z4538j6z0vjt03w70vc0000gn/T//cc0qjWS6.s:258    .text._ZNK5daisy11OledDisplayINS_13SSD130xDriverILj128ELj64ENS_24SSD130x4WireSpiTransportEEEE6HeightEv:0000000000000000 _ZNK5daisy11OledDisplayINS_13SSD130xDriverILj128ELj64ENS_24SSD130x4WireSpiTransportEEEE6HeightEv
/var/folders/fb/yfxt3z4538j6z0vjt03w70vc0000gn/T//cc0qjWS6.s:275    .text._ZNK5daisy11OledDisplayINS_13SSD130xDriverILj128ELj64ENS_24SSD130x4WireSpiTransportEEEE5WidthEv:0000000000000000 $t
/var/folders/fb/yfxt3z4538j6z0vjt03w70vc0000gn/T//cc0qjWS6.s:282    .text._ZNK5daisy11OledDisplayINS_13SSD130xDriverILj128ELj64ENS_24SSD130x4WireSpiTransportEEEE5WidthEv:0000000000000000 _ZNK5daisy11OledDisplayINS_13SSD130xDriverILj128ELj64ENS_24SSD130x4WireSpiTransportEEEE5WidthEv
/var/folders/fb/yfxt3z4538j6z0vjt03w70vc0000gn/T//cc0qjWS6.s:299    .text._ZN5daisy11OledDisplayINS_13SSD130xDriverILj128ELj64ENS_24SSD130x4WireSpiTransportEEEED0Ev:0000000000000000 $t
/var/folders/fb/yfxt3z4538j6z0vjt03w70vc0000gn/T//cc0qjWS6.s:306    .text._ZN5daisy11OledDisplayINS_13SSD130xDriverILj128ELj64ENS_24SSD130x4WireSpiTransportEEEED0Ev:0000000000000000 _ZN5daisy11OledDisplayINS_13SSD130xDriverILj128ELj64ENS_24SSD130x4WireSpiTransportEEEED0Ev
/var/folders/fb/yfxt3z4538j6z0vjt03w70vc0000gn/T//cc0qjWS6.s:346    .text._ZN5daisy11OledDisplayINS_13SSD130xDriverILj128ELj64ENS_24SSD130x4WireSpiTransportEEEE6UpdateEv:0000000000000000 $t
/var/folders/fb/yfxt3z4538j6z0vjt03w70vc0000gn/T//cc0qjWS6.s:353    .text._ZN5daisy11OledDisplayINS_13SSD130xDriverILj128ELj64ENS_24SSD130x4WireSpiTransportEEEE6UpdateEv:0000000000000000 _ZN5daisy11OledDisplayINS_13SSD130xDriverILj128ELj64ENS_24SSD130x4WireSpiTransportEEEE6UpdateEv
/var/folders/fb/yfxt3z4538j6z0vjt03w70vc0000gn/T//cc0qjWS6.s:540    .text._ZN5daisy25OneBitGraphicsDisplayImplINS_11OledDisplayINS_13SSD130xDriverILj128ELj64ENS_24SSD130x4WireSpiTransportEEEEEE11WriteStringEPKc7FontDefb:0000000000000000 $t
/var/folders/fb/yfxt3z4538j6z0vjt03w70vc0000gn/T//cc0qjWS6.s:547    .text._ZN5daisy25OneBitGraphicsDisplayImplINS_11OledDisplayINS_13SSD130xDriverILj128ELj64ENS_24SSD130x4WireSpiTransportEEEEEE11WriteStringEPKc7FontDefb:0000000000000000 _ZN5daisy25OneBitGraphicsDisplayImplINS_11OledDisplayINS_13SSD130xDriverILj128ELj64ENS_24SSD130x4WireSpiTransportEEEEEE11WriteStringEPKc7FontDefb
/var/folders/fb/yfxt3z4538j6z0vjt03w70vc0000gn/T//cc0qjWS6.s:1004   .text._ZN5daisy25OneBitGraphicsDisplayImplINS_11OledDisplayINS_13SSD130xDriverILj128ELj64ENS_24SSD130x4WireSpiTransportEEEEEE11WriteStringEPKc7FontDefb:00000000000001b8 $d
/var/folders/fb/yfxt3z4538j6z0vjt03w70vc0000gn/T//cc0qjWS6.s:1014   .text._ZN5daisy25OneBitGraphicsDisplayImplINS_11OledDisplayINS_13SSD130xDriverILj128ELj64ENS_24SSD130x4WireSpiTransportEEEEEE9WriteCharEc7FontDefb:0000000000000000 $t
/var/folders/fb/yfxt3z4538j6z0vjt03w70vc0000gn/T//cc0qjWS6.s:1021   .text._ZN5daisy25OneBitGraphicsDisplayImplINS_11OledDisplayINS_13SSD130xDriverILj128ELj64ENS_24SSD130x4WireSpiTransportEEEEEE9WriteCharEc7FontDefb:0000000000000000 _ZN5daisy25OneBitGraphicsDisplayImplINS_11OledDisplayINS_13SSD130xDriverILj128ELj64ENS_24SSD130x4WireSpiTransportEEEEEE9WriteCharEc7FontDefb
/var/folders/fb/yfxt3z4538j6z0vjt03w70vc0000gn/T//cc0qjWS6.s:1447   .text._ZN5daisy25OneBitGraphicsDisplayImplINS_11OledDisplayINS_13SSD130xDriverILj128ELj64ENS_24SSD130x4WireSpiTransportEEEEEE9WriteCharEc7FontDefb:0000000000000198 $d
/var/folders/fb/yfxt3z4538j6z0vjt03w70vc0000gn/T//cc0qjWS6.s:1455   .text._ZN5daisy25OneBitGraphicsDisplayImplINS_11OledDisplayINS_13SSD130xDriverILj128ELj64ENS_24SSD130x4WireSpiTransportEEEEEE18WriteStringAlignedEPKcRK7FontDefNS_9RectangleENS_9AlignmentEb:0000000000000000 $t
/var/folders/fb/yfxt3z4538j6z0vjt03w70vc0000gn/T//cc0qjWS6.s:1462   .text._ZN5daisy25OneBitGraphicsDisplayImplINS_11OledDisplayINS_13SSD130xDriverILj128ELj64ENS_24SSD130x4WireSpiTransportEEEEEE18WriteStringAlignedEPKcRK7FontDefNS_9RectangleENS_9AlignmentEb:0000000000000000 _ZN5daisy25OneBitGraphicsDisplayImplINS_11OledDisplayINS_13SSD130xDriverILj128ELj64ENS_24SSD130x4WireSpiTransportEEEEEE18WriteStringAlignedEPKcRK7FontDefNS_9RectangleENS_9AlignmentEb
/var/folders/fb/yfxt3z4538j6z0vjt03w70vc0000gn/T//cc0qjWS6.s:1601   .text._ZN5daisy25OneBitGraphicsDisplayImplINS_11OledDisplayINS_13SSD130xDriverILj128ELj64ENS_24SSD130x4WireSpiTransportEEEEEE18WriteStringAlignedEPKcRK7FontDefNS_9RectangleENS_9AlignmentEb:0000000000000046 $d
/var/folders/fb/yfxt3z4538j6z0vjt03w70vc0000gn/T//cc0qjWS6.s:1610   .text._ZN5daisy25OneBitGraphicsDisplayImplINS_11OledDisplayINS_13SSD130xDriverILj128ELj64ENS_24SSD130x4WireSpiTransportEEEEEE18WriteStringAlignedEPKcRK7FontDefNS_9RectangleENS_9AlignmentEb:0000000000000058 $t
/var/folders/fb/yfxt3z4538j6z0vjt03w70vc0000gn/T//cc0qjWS6.s:2818   .text._ZN5daisy25OneBitGraphicsDisplayImplINS_11OledDisplayINS_13SSD130xDriverILj128ELj64ENS_24SSD130x4WireSpiTransportEEEEEE18WriteStringAlignedEPKcRK7FontDefNS_9RectangleENS_9AlignmentEb:000000000000031c $d
/var/folders/fb/yfxt3z4538j6z0vjt03w70vc0000gn/T//cc0qjWS6.s:2827   .text._ZN5daisy25OneBitGraphicsDisplayImplINS_11OledDisplayINS_13SSD130xDriverILj128ELj64ENS_24SSD130x4WireSpiTransportEEEEEE18WriteStringAlignedEPKcRK7FontDefNS_9RectangleENS_9AlignmentEb:0000000000000324 $t
/var/folders/fb/yfxt3z4538j6z0vjt03w70vc0000gn/T//cc0qjWS6.s:3143   .text._ZN5daisy25OneBitGraphicsDisplayImplINS_11OledDisplayINS_13SSD130xDriverILj128ELj64ENS_24SSD130x4WireSpiTransportEEEEEE18WriteStringAlignedEPKcRK7FontDefNS_9RectangleENS_9AlignmentEb:00000000000003e4 $d
/var/folders/fb/yfxt3z4538j6z0vjt03w70vc0000gn/T//cc0qjWS6.s:3151   .text._ZN5daisy11OledDisplayINS_13SSD130xDriverILj128ELj64ENS_24SSD130x4WireSpiTransportEEEE9DrawPixelEjjb:0000000000000000 $t
/var/folders/fb/yfxt3z4538j6z0vjt03w70vc0000gn/T//cc0qjWS6.s:3158   .text._ZN5daisy11OledDisplayINS_13SSD130xDriverILj128ELj64ENS_24SSD130x4WireSpiTransportEEEE9DrawPixelEjjb:0000000000000000 _ZN5daisy11OledDisplayINS_13SSD130xDriverILj128ELj64ENS_24SSD130x4WireSpiTransportEEEE9DrawPixelEjjb
/var/folders/fb/yfxt3z4538j6z0vjt03w70vc0000gn/T//cc0qjWS6.s:3235   .text._ZN5daisy25OneBitGraphicsDisplayImplINS_11OledDisplayINS_13SSD130xDriverILj128ELj64ENS_24SSD130x4WireSpiTransportEEEEEE8DrawLineEjjjjb:0000000000000000 $t
/var/folders/fb/yfxt3z4538j6z0vjt03w70vc0000gn/T//cc0qjWS6.s:3242   .text._ZN5daisy25OneBitGraphicsDisplayImplINS_11OledDisplayINS_13SSD130xDriverILj128ELj64ENS_24SSD130x4WireSpiTransportEEEEEE8DrawLineEjjjjb:0000000000000000 _ZN5daisy25OneBitGraphicsDisplayImplINS_11OledDisplayINS_13SSD130xDriverILj128ELj64ENS_24SSD130x4WireSpiTransportEEEEEE8DrawLineEjjjjb
/var/folders/fb/yfxt3z4538j6z0vjt03w70vc0000gn/T//cc0qjWS6.s:3527   .text._ZN5daisy25OneBitGraphicsDisplayImplINS_11OledDisplayINS_13SSD130xDriverILj128ELj64ENS_24SSD130x4WireSpiTransportEEEEEE7DrawArcEjjjiib:0000000000000000 $t
/var/folders/fb/yfxt3z4538j6z0vjt03w70vc0000gn/T//cc0qjWS6.s:3534   .text._ZN5daisy25OneBitGraphicsDisplayImplINS_11OledDisplayINS_13SSD130xDriverILj128ELj64ENS_24SSD130x4WireSpiTransportEEEEEE7DrawArcEjjjiib:0000000000000000 _ZN5daisy25OneBitGraphicsDisplayImplINS_11OledDisplayINS_13SSD130xDriverILj128ELj64ENS_24SSD130x4WireSpiTransportEEEEEE7DrawArcEjjjiib
/var/folders/fb/yfxt3z4538j6z0vjt03w70vc0000gn/T//cc0qjWS6.s:4219   .text._ZN5daisy25OneBitGraphicsDisplayImplINS_11OledDisplayINS_13SSD130xDriverILj128ELj64ENS_24SSD130x4WireSpiTransportEEEEEE7DrawArcEjjjiib:0000000000000368 $d
/var/folders/fb/yfxt3z4538j6z0vjt03w70vc0000gn/T//cc0qjWS6.s:4233   .text._ZN5daisy25OneBitGraphicsDisplayImplINS_11OledDisplayINS_13SSD130xDriverILj128ELj64ENS_24SSD130x4WireSpiTransportEEEEEE7DrawArcEjjjiib:0000000000000378 $t
/var/folders/fb/yfxt3z4538j6z0vjt03w70vc0000gn/T//cc0qjWS6.s:4459   .text._ZN5daisy25OneBitGraphicsDisplayImplINS_11OledDisplayINS_13SSD130xDriverILj128ELj64ENS_24SSD130x4WireSpiTransportEEEEEE8DrawRectEjjjjbb:0000000000000000 $t
/var/folders/fb/yfxt3z4538j6z0vjt03w70vc0000gn/T//cc0qjWS6.s:4466   .text._ZN5daisy25OneBitGraphicsDisplayImplINS_11OledDisplayINS_13SSD130xDriverILj128ELj64ENS_24SSD130x4WireSpiTransportEEEEEE8DrawRectEjjjjbb:0000000000000000 _ZN5daisy25OneBitGraphicsDisplayImplINS_11OledDisplayINS_13SSD130xDriverILj128ELj64ENS_24SSD130x4WireSpiTransportEEEEEE8DrawRectEjjjjbb
/var/folders/fb/yfxt3z4538j6z0vjt03w70vc0000gn/T//cc0qjWS6.s:5576   .text._Z11LoopWriteInR14Heavy_daisiSPI:0000000000000000 $t
/var/folders/fb/yfxt3z4538j6z0vjt03w70vc0000gn/T//cc0qjWS6.s:5583   .text._Z11LoopWriteInR14Heavy_daisiSPI:0000000000000000 _Z11LoopWriteInR14Heavy_daisiSPI
/var/folders/fb/yfxt3z4538j6z0vjt03w70vc0000gn/T//cc0qjWS6.s:5594   .text._Z15CallbackWriteInR14Heavy_daisiSPI:0000000000000000 $t
/var/folders/fb/yfxt3z4538j6z0vjt03w70vc0000gn/T//cc0qjWS6.s:5601   .text._Z15CallbackWriteInR14Heavy_daisiSPI:0000000000000000 _Z15CallbackWriteInR14Heavy_daisiSPI
/var/folders/fb/yfxt3z4538j6z0vjt03w70vc0000gn/T//cc0qjWS6.s:5615   .text._Z12LoopWriteOutv:0000000000000000 $t
/var/folders/fb/yfxt3z4538j6z0vjt03w70vc0000gn/T//cc0qjWS6.s:5622   .text._Z12LoopWriteOutv:0000000000000000 _Z12LoopWriteOutv
/var/folders/fb/yfxt3z4538j6z0vjt03w70vc0000gn/T//cc0qjWS6.s:5633   .text._Z16CallbackWriteOutv:0000000000000000 $t
/var/folders/fb/yfxt3z4538j6z0vjt03w70vc0000gn/T//cc0qjWS6.s:5640   .text._Z16CallbackWriteOutv:0000000000000000 _Z16CallbackWriteOutv
/var/folders/fb/yfxt3z4538j6z0vjt03w70vc0000gn/T//cc0qjWS6.s:5653   .text._Z7Displayv:0000000000000000 $t
/var/folders/fb/yfxt3z4538j6z0vjt03w70vc0000gn/T//cc0qjWS6.s:5660   .text._Z7Displayv:0000000000000000 _Z7Displayv
/var/folders/fb/yfxt3z4538j6z0vjt03w70vc0000gn/T//cc0qjWS6.s:5671   .text._ZN5daisy13SSD130xDriverILj128ELj64ENS_24SSD130x4WireSpiTransportEE4InitENS2_6ConfigE:0000000000000000 $t
/var/folders/fb/yfxt3z4538j6z0vjt03w70vc0000gn/T//cc0qjWS6.s:5678   .text._ZN5daisy13SSD130xDriverILj128ELj64ENS_24SSD130x4WireSpiTransportEE4InitENS2_6ConfigE:0000000000000000 _ZN5daisy13SSD130xDriverILj128ELj64ENS_24SSD130x4WireSpiTransportEE4InitENS2_6ConfigE
/var/folders/fb/yfxt3z4538j6z0vjt03w70vc0000gn/T//cc0qjWS6.s:6450   .text._ZN10json2daisy8DaisyPod4InitEb:0000000000000000 $t
/var/folders/fb/yfxt3z4538j6z0vjt03w70vc0000gn/T//cc0qjWS6.s:6457   .text._ZN10json2daisy8DaisyPod4InitEb:0000000000000000 _ZN10json2daisy8DaisyPod4InitEb
ARM GAS  /var/folders/fb/yfxt3z4538j6z0vjt03w70vc0000gn/T//cc0qjWS6.s 			page 209


/var/folders/fb/yfxt3z4538j6z0vjt03w70vc0000gn/T//cc0qjWS6.s:7062   .text._ZN10json2daisy8DaisyPod4InitEb:00000000000002a8 $d
/var/folders/fb/yfxt3z4538j6z0vjt03w70vc0000gn/T//cc0qjWS6.s:7071   .text.startup.main:0000000000000000 $t
/var/folders/fb/yfxt3z4538j6z0vjt03w70vc0000gn/T//cc0qjWS6.s:7078   .text.startup.main:0000000000000000 main
/var/folders/fb/yfxt3z4538j6z0vjt03w70vc0000gn/T//cc0qjWS6.s:7135   .text.startup.main:000000000000001c $d
/var/folders/fb/yfxt3z4538j6z0vjt03w70vc0000gn/T//cc0qjWS6.s:7443   .text._Z13audiocallbackPKPKfPPfj:0000000000000000 _Z13audiocallbackPKPKfPPfj
/var/folders/fb/yfxt3z4538j6z0vjt03w70vc0000gn/T//cc0qjWS6.s:7143   .text.startup._GLOBAL__sub_I_hardware:0000000000000000 $t
/var/folders/fb/yfxt3z4538j6z0vjt03w70vc0000gn/T//cc0qjWS6.s:7149   .text.startup._GLOBAL__sub_I_hardware:0000000000000000 _GLOBAL__sub_I_hardware
/var/folders/fb/yfxt3z4538j6z0vjt03w70vc0000gn/T//cc0qjWS6.s:7419   .text.startup._GLOBAL__sub_I_hardware:0000000000000040 $d
/var/folders/fb/yfxt3z4538j6z0vjt03w70vc0000gn/T//cc0qjWS6.s:7516   .rodata._ZTVN5daisy11OledDisplayINS_13SSD130xDriverILj128ELj64ENS_24SSD130x4WireSpiTransportEEEEE:0000000000000000 _ZTVN5daisy11OledDisplayINS_13SSD130xDriverILj128ELj64ENS_24SSD130x4WireSpiTransportEEEEE
/var/folders/fb/yfxt3z4538j6z0vjt03w70vc0000gn/T//cc0qjWS6.s:7433   .init_array:0000000000000000 $d
/var/folders/fb/yfxt3z4538j6z0vjt03w70vc0000gn/T//cc0qjWS6.s:7436   .text._Z13audiocallbackPKPKfPPfj:0000000000000000 $t
/var/folders/fb/yfxt3z4538j6z0vjt03w70vc0000gn/T//cc0qjWS6.s:7504   .text._Z13audiocallbackPKPKfPPfj:0000000000000024 $d
/var/folders/fb/yfxt3z4538j6z0vjt03w70vc0000gn/T//cc0qjWS6.s:7513   .rodata._ZTVN5daisy11OledDisplayINS_13SSD130xDriverILj128ELj64ENS_24SSD130x4WireSpiTransportEEEEE:0000000000000000 $d
/var/folders/fb/yfxt3z4538j6z0vjt03w70vc0000gn/T//cc0qjWS6.s:7546   .bss.hv:0000000000000000 hv
/var/folders/fb/yfxt3z4538j6z0vjt03w70vc0000gn/T//cc0qjWS6.s:7539   .bss.hardware:0000000000000000 hardware
/var/folders/fb/yfxt3z4538j6z0vjt03w70vc0000gn/T//cc0qjWS6.s:7535   .bss.hardware:0000000000000000 $d
/var/folders/fb/yfxt3z4538j6z0vjt03w70vc0000gn/T//cc0qjWS6.s:7542   .bss.hv:0000000000000000 $d
                           .group:0000000000000000 _ZN5daisy11OledDisplayINS_13SSD130xDriverILj128ELj64ENS_24SSD130x4WireSpiTransportEEEED5Ev
                           .group:0000000000000000 _ZN10json2daisy8DaisyPodD5Ev

UNDEFINED SYMBOLS
memset
_ZdlPvj
dsy_gpio_write
_ZN5daisy9SpiHandle16BlockingTransmitEPhjm
cosf
sinf
dsy_gpio_init
_ZN5daisy9SpiHandle4InitERKNS0_6ConfigE
_ZN5daisy6System5DelayEm
_ZN5daisy9DaisySeed9ConfigureEv
_ZN5daisy9DaisySeed4InitEb
_ZN5daisy9DaisySeed6GetPinEh
_ZNK5daisy9DaisySeed17AudioCallbackRateEv
_ZN5daisy6Switch4InitE12dsy_gpio_pinfNS0_4TypeENS0_8PolarityENS0_4PullE
_ZN5daisy7Encoder4InitE12dsy_gpio_pinS1_S1_f
_ZN5daisy16AdcChannelConfig10InitSingleE12dsy_gpio_pin
_ZN5daisy9AdcHandle4InitEPNS_16AdcChannelConfigEjNS0_12OverSamplingE
_ZNK5daisy9AdcHandle6GetPtrEh
_ZN5daisy13AnalogControl4InitEPtfbbf
_ZN5daisy6RgbLed4InitE12dsy_gpio_pinS1_S1_b
_ZN5daisy6RgbLed3SetEfff
_ZN5daisy9AdcHandle5StartEv
_ZN5daisy9DaisySeed10StartAudioEPFvPKPKfPPfjE
__aeabi_atexit
_ZN14Heavy_daisiSPIC1Ediii
__dso_handle
_ZN14Heavy_daisiSPID1Ev
_ZN14Heavy_daisiSPI7processEPPfS1_i
_ZN5daisy6RgbLed6UpdateEv
