ARM GAS  /var/folders/fb/yfxt3z4538j6z0vjt03w70vc0000gn/T//ccfQbMBb.s 			page 1


   1              		.cpu cortex-m7
   2              		.arch armv7e-m
   3              		.fpu fpv5-d16
   4              		.eabi_attribute 28, 1
   5              		.eabi_attribute 20, 1
   6              		.eabi_attribute 21, 1
   7              		.eabi_attribute 23, 3
   8              		.eabi_attribute 24, 1
   9              		.eabi_attribute 25, 1
  10              		.eabi_attribute 26, 1
  11              		.eabi_attribute 30, 2
  12              		.eabi_attribute 34, 1
  13              		.eabi_attribute 18, 4
  14              		.file	"HvHeavy.cpp"
  15              		.text
  16              	.Ltext0:
  17              		.cfi_sections	.debug_frame
  18              		.section	.text._ZN12HeavyContext7getSizeEv,"axG",%progbits,_ZN12HeavyContext7getSizeEv,comdat
  19              		.align	1
  20              		.p2align 2,,3
  21              		.weak	_ZN12HeavyContext7getSizeEv
  22              		.syntax unified
  23              		.thumb
  24              		.thumb_func
  26              	_ZN12HeavyContext7getSizeEv:
  27              	.LVL0:
  28              	.LFB965:
  29              		.file 1 "source/HeavyContext.hpp"
   1:source/HeavyContext.hpp **** /**
   2:source/HeavyContext.hpp ****  * Copyright (c) 2014-2018 Enzien Audio Ltd.
   3:source/HeavyContext.hpp ****  *
   4:source/HeavyContext.hpp ****  * Permission to use, copy, modify, and/or distribute this software for any
   5:source/HeavyContext.hpp ****  * purpose with or without fee is hereby granted, provided that the above
   6:source/HeavyContext.hpp ****  * copyright notice and this permission notice appear in all copies.
   7:source/HeavyContext.hpp ****  *
   8:source/HeavyContext.hpp ****  * THE SOFTWARE IS PROVIDED "AS IS" AND THE AUTHOR DISCLAIMS ALL WARRANTIES WITH
   9:source/HeavyContext.hpp ****  * REGARD TO THIS SOFTWARE INCLUDING ALL IMPLIED WARRANTIES OF MERCHANTABILITY
  10:source/HeavyContext.hpp ****  * AND FITNESS. IN NO EVENT SHALL THE AUTHOR BE LIABLE FOR ANY SPECIAL, DIRECT,
  11:source/HeavyContext.hpp ****  * INDIRECT, OR CONSEQUENTIAL DAMAGES OR ANY DAMAGES WHATSOEVER RESULTING FROM
  12:source/HeavyContext.hpp ****  * LOSS OF USE, DATA OR PROFITS, WHETHER IN AN ACTION OF CONTRACT, NEGLIGENCE OR
  13:source/HeavyContext.hpp ****  * OTHER TORTIOUS ACTION, ARISING OUT OF OR IN CONNECTION WITH THE USE OR
  14:source/HeavyContext.hpp ****  * PERFORMANCE OF THIS SOFTWARE.
  15:source/HeavyContext.hpp ****  */
  16:source/HeavyContext.hpp **** 
  17:source/HeavyContext.hpp **** #ifndef _HEAVY_CONTEXT_H_
  18:source/HeavyContext.hpp **** #define _HEAVY_CONTEXT_H_
  19:source/HeavyContext.hpp **** 
  20:source/HeavyContext.hpp **** #include "HeavyContextInterface.hpp"
  21:source/HeavyContext.hpp **** #include "HvLightPipe.h"
  22:source/HeavyContext.hpp **** #include "HvMessageQueue.h"
  23:source/HeavyContext.hpp **** #include "HvMath.h"
  24:source/HeavyContext.hpp **** 
  25:source/HeavyContext.hpp **** struct HvTable;
  26:source/HeavyContext.hpp **** 
  27:source/HeavyContext.hpp **** class HeavyContext : public HeavyContextInterface {
  28:source/HeavyContext.hpp **** 
  29:source/HeavyContext.hpp ****  public:
ARM GAS  /var/folders/fb/yfxt3z4538j6z0vjt03w70vc0000gn/T//ccfQbMBb.s 			page 2


  30:source/HeavyContext.hpp ****   HeavyContext(double sampleRate, int poolKb=10, int inQueueKb=2, int outQueueKb=0);
  31:source/HeavyContext.hpp ****   virtual ~HeavyContext();
  32:source/HeavyContext.hpp **** 
  33:source/HeavyContext.hpp ****   int getSize() override { return (int) numBytes; }
  30              		.loc 1 33 7 view -0
  31              		.cfi_startproc
  32              		@ args = 0, pretend = 0, frame = 0
  33              		@ frame_needed = 0, uses_anonymous_args = 0
  34              		@ link register save eliminated.
  35              		.loc 1 33 28 view .LVU1
  36              		.loc 1 33 51 is_stmt 0 view .LVU2
  37 0000 4069     		ldr	r0, [r0, #20]
  38              	.LVL1:
  39              		.loc 1 33 51 view .LVU3
  40 0002 7047     		bx	lr
  41              		.cfi_endproc
  42              	.LFE965:
  44              		.section	.text._ZN12HeavyContext13getSampleRateEv,"axG",%progbits,_ZN12HeavyContext13getSampleRate
  45              		.align	1
  46              		.p2align 2,,3
  47              		.weak	_ZN12HeavyContext13getSampleRateEv
  48              		.syntax unified
  49              		.thumb
  50              		.thumb_func
  52              	_ZN12HeavyContext13getSampleRateEv:
  53              	.LVL2:
  54              	.LFB966:
  34:source/HeavyContext.hpp **** 
  35:source/HeavyContext.hpp ****   double getSampleRate() override { return sampleRate; }
  55              		.loc 1 35 10 is_stmt 1 view -0
  56              		.cfi_startproc
  57              		@ args = 0, pretend = 0, frame = 0
  58              		@ frame_needed = 0, uses_anonymous_args = 0
  59              		@ link register save eliminated.
  60              		.loc 1 35 37 view .LVU5
  61              		.loc 1 35 56 is_stmt 0 view .LVU6
  62 0000 90ED020B 		vldr.64	d0, [r0, #8]
  63 0004 7047     		bx	lr
  64              		.cfi_endproc
  65              	.LFE966:
  67 0006 00BF     		.section	.text._ZN12HeavyContext16getCurrentSampleEv,"axG",%progbits,_ZN12HeavyContext16getCurrent
  68              		.align	1
  69              		.p2align 2,,3
  70              		.weak	_ZN12HeavyContext16getCurrentSampleEv
  71              		.syntax unified
  72              		.thumb
  73              		.thumb_func
  75              	_ZN12HeavyContext16getCurrentSampleEv:
  76              	.LVL3:
  77              	.LFB967:
  36:source/HeavyContext.hpp **** 
  37:source/HeavyContext.hpp ****   hv_uint32_t getCurrentSample() override { return blockStartTimestamp; }
  78              		.loc 1 37 15 is_stmt 1 view -0
  79              		.cfi_startproc
  80              		@ args = 0, pretend = 0, frame = 0
  81              		@ frame_needed = 0, uses_anonymous_args = 0
  82              		@ link register save eliminated.
ARM GAS  /var/folders/fb/yfxt3z4538j6z0vjt03w70vc0000gn/T//ccfQbMBb.s 			page 3


  83              		.loc 1 37 45 view .LVU8
  84              		.loc 1 37 73 is_stmt 0 view .LVU9
  85 0000 0069     		ldr	r0, [r0, #16]
  86              	.LVL4:
  87              		.loc 1 37 73 view .LVU10
  88 0002 7047     		bx	lr
  89              		.cfi_endproc
  90              	.LFE967:
  92              		.section	.text._ZN12HeavyContext21samplesToMillisecondsEm,"axG",%progbits,_ZN12HeavyContext21sampl
  93              		.align	1
  94              		.p2align 2,,3
  95              		.weak	_ZN12HeavyContext21samplesToMillisecondsEm
  96              		.syntax unified
  97              		.thumb
  98              		.thumb_func
 100              	_ZN12HeavyContext21samplesToMillisecondsEm:
 101              	.LVL5:
 102              	.LFB968:
  38:source/HeavyContext.hpp ****   float samplesToMilliseconds(hv_uint32_t numSamples) override { return (float) (1000.0*numSamples/
 103              		.loc 1 38 9 is_stmt 1 view -0
 104              		.cfi_startproc
 105              		@ args = 0, pretend = 0, frame = 0
 106              		@ frame_needed = 0, uses_anonymous_args = 0
 107              		@ link register save eliminated.
 108              		.loc 1 38 66 view .LVU12
 109              		.loc 1 38 88 is_stmt 0 view .LVU13
 110 0000 07EE901A 		vmov	s15, r1	@ int
 111 0004 9FED065B 		vldr.64	d5, .L6
 112 0008 B8EE677B 		vcvt.f64.u32	d7, s15
 113              		.loc 1 38 99 view .LVU14
 114 000c 90ED026B 		vldr.64	d6, [r0, #8]
 115              		.loc 1 38 88 view .LVU15
 116 0010 27EE057B 		vmul.f64	d7, d7, d5
 117              		.loc 1 38 99 view .LVU16
 118 0014 87EE060B 		vdiv.f64	d0, d7, d6
 119              		.loc 1 38 113 view .LVU17
 120 0018 B7EEC00B 		vcvt.f32.f64	s0, d0
 121 001c 7047     		bx	lr
 122              	.L7:
 123 001e 00BF     		.align	3
 124              	.L6:
 125 0020 00000000 		.word	0
 126 0024 00408F40 		.word	1083129856
 127              		.cfi_endproc
 128              	.LFE968:
 130              		.section	.text._ZN12HeavyContext11setUserDataEPv,"axG",%progbits,_ZN12HeavyContext11setUserDataEPv
 131              		.align	1
 132              		.p2align 2,,3
 133              		.weak	_ZN12HeavyContext11setUserDataEPv
 134              		.syntax unified
 135              		.thumb
 136              		.thumb_func
 138              	_ZN12HeavyContext11setUserDataEPv:
 139              	.LVL6:
 140              	.LFB970:
  39:source/HeavyContext.hpp ****   hv_uint32_t millisecondsToSamples(float ms) override { return (hv_uint32_t) (hv_max_f(0.0f,ms)*sa
  40:source/HeavyContext.hpp **** 
ARM GAS  /var/folders/fb/yfxt3z4538j6z0vjt03w70vc0000gn/T//ccfQbMBb.s 			page 4


  41:source/HeavyContext.hpp ****   void setUserData(void *x) override { userData = x; }
 141              		.loc 1 41 8 is_stmt 1 view -0
 142              		.cfi_startproc
 143              		@ args = 0, pretend = 0, frame = 0
 144              		@ frame_needed = 0, uses_anonymous_args = 0
 145              		@ link register save eliminated.
 146              		.loc 1 41 40 view .LVU19
 147              		.loc 1 41 49 is_stmt 0 view .LVU20
 148 0000 8165     		str	r1, [r0, #88]
 149              		.loc 1 41 54 view .LVU21
 150 0002 7047     		bx	lr
 151              		.cfi_endproc
 152              	.LFE970:
 154              		.section	.text._ZN12HeavyContext11getUserDataEv,"axG",%progbits,_ZN12HeavyContext11getUserDataEv,c
 155              		.align	1
 156              		.p2align 2,,3
 157              		.weak	_ZN12HeavyContext11getUserDataEv
 158              		.syntax unified
 159              		.thumb
 160              		.thumb_func
 162              	_ZN12HeavyContext11getUserDataEv:
 163              	.LVL7:
 164              	.LFB971:
  42:source/HeavyContext.hpp ****   void *getUserData() override { return userData; }
 165              		.loc 1 42 9 is_stmt 1 view -0
 166              		.cfi_startproc
 167              		@ args = 0, pretend = 0, frame = 0
 168              		@ frame_needed = 0, uses_anonymous_args = 0
 169              		@ link register save eliminated.
 170              		.loc 1 42 34 view .LVU23
 171              		.loc 1 42 51 is_stmt 0 view .LVU24
 172 0000 806D     		ldr	r0, [r0, #88]
 173              	.LVL8:
 174              		.loc 1 42 51 view .LVU25
 175 0002 7047     		bx	lr
 176              		.cfi_endproc
 177              	.LFE971:
 179              		.section	.text._ZN12HeavyContext11setSendHookEPFvP21HeavyContextInterfacePKcmPK9HvMessageE,"axG",%
 180              		.align	1
 181              		.p2align 2,,3
 182              		.weak	_ZN12HeavyContext11setSendHookEPFvP21HeavyContextInterfacePKcmPK9HvMessageE
 183              		.syntax unified
 184              		.thumb
 185              		.thumb_func
 187              	_ZN12HeavyContext11setSendHookEPFvP21HeavyContextInterfacePKcmPK9HvMessageE:
 188              	.LVL9:
 189              	.LFB972:
  43:source/HeavyContext.hpp **** 
  44:source/HeavyContext.hpp ****   // hook management
  45:source/HeavyContext.hpp ****   void setSendHook(HvSendHook_t *f) override { sendHook = f; }
 190              		.loc 1 45 8 is_stmt 1 view -0
 191              		.cfi_startproc
 192              		@ args = 0, pretend = 0, frame = 0
 193              		@ frame_needed = 0, uses_anonymous_args = 0
 194              		@ link register save eliminated.
 195              		.loc 1 45 48 view .LVU27
 196              		.loc 1 45 57 is_stmt 0 view .LVU28
ARM GAS  /var/folders/fb/yfxt3z4538j6z0vjt03w70vc0000gn/T//ccfQbMBb.s 			page 5


 197 0000 0165     		str	r1, [r0, #80]
 198              		.loc 1 45 62 view .LVU29
 199 0002 7047     		bx	lr
 200              		.cfi_endproc
 201              	.LFE972:
 203              		.section	.text._ZN12HeavyContext12setPrintHookEPFvP21HeavyContextInterfacePKcS3_PK9HvMessageE,"axG
 204              		.align	1
 205              		.p2align 2,,3
 206              		.weak	_ZN12HeavyContext12setPrintHookEPFvP21HeavyContextInterfacePKcS3_PK9HvMessageE
 207              		.syntax unified
 208              		.thumb
 209              		.thumb_func
 211              	_ZN12HeavyContext12setPrintHookEPFvP21HeavyContextInterfacePKcS3_PK9HvMessageE:
 212              	.LVL10:
 213              	.LFB974:
  46:source/HeavyContext.hpp ****   HvSendHook_t *getSendHook() override { return sendHook; }
  47:source/HeavyContext.hpp **** 
  48:source/HeavyContext.hpp ****   void setPrintHook(HvPrintHook_t *f) override { printHook = f; }
 214              		.loc 1 48 8 is_stmt 1 view -0
 215              		.cfi_startproc
 216              		@ args = 0, pretend = 0, frame = 0
 217              		@ frame_needed = 0, uses_anonymous_args = 0
 218              		@ link register save eliminated.
 219              		.loc 1 48 50 view .LVU31
 220              		.loc 1 48 60 is_stmt 0 view .LVU32
 221 0000 4165     		str	r1, [r0, #84]
 222              		.loc 1 48 65 view .LVU33
 223 0002 7047     		bx	lr
 224              		.cfi_endproc
 225              	.LFE974:
 227              		.section	.text._ZN12HeavyContext12getPrintHookEv,"axG",%progbits,_ZN12HeavyContext12getPrintHookEv
 228              		.align	1
 229              		.p2align 2,,3
 230              		.weak	_ZN12HeavyContext12getPrintHookEv
 231              		.syntax unified
 232              		.thumb
 233              		.thumb_func
 235              	_ZN12HeavyContext12getPrintHookEv:
 236              	.LVL11:
 237              	.LFB975:
  49:source/HeavyContext.hpp ****   HvPrintHook_t *getPrintHook() override { return printHook; }
 238              		.loc 1 49 18 is_stmt 1 view -0
 239              		.cfi_startproc
 240              		@ args = 0, pretend = 0, frame = 0
 241              		@ frame_needed = 0, uses_anonymous_args = 0
 242              		@ link register save eliminated.
 243              		.loc 1 49 44 view .LVU35
 244              		.loc 1 49 62 is_stmt 0 view .LVU36
 245 0000 406D     		ldr	r0, [r0, #84]
 246              	.LVL12:
 247              		.loc 1 49 62 view .LVU37
 248 0002 7047     		bx	lr
 249              		.cfi_endproc
 250              	.LFE975:
 252              		.section	.text._ZN12HeavyContext21millisecondsToSamplesEf,"axG",%progbits,_ZN12HeavyContext21milli
 253              		.align	1
 254              		.p2align 2,,3
ARM GAS  /var/folders/fb/yfxt3z4538j6z0vjt03w70vc0000gn/T//ccfQbMBb.s 			page 6


 255              		.weak	_ZN12HeavyContext21millisecondsToSamplesEf
 256              		.syntax unified
 257              		.thumb
 258              		.thumb_func
 260              	_ZN12HeavyContext21millisecondsToSamplesEf:
 261              	.LVL13:
 262              	.LFB969:
  39:source/HeavyContext.hpp **** 
 263              		.loc 1 39 15 is_stmt 1 view -0
 264              		.cfi_startproc
 265              		@ args = 0, pretend = 0, frame = 0
 266              		@ frame_needed = 0, uses_anonymous_args = 0
 267              		@ link register save eliminated.
  39:source/HeavyContext.hpp **** 
 268              		.loc 1 39 58 view .LVU39
  39:source/HeavyContext.hpp **** 
 269              		.loc 1 39 80 is_stmt 0 view .LVU40
 270 0000 DFED0B7A 		vldr.32	s15, .L14+8
  39:source/HeavyContext.hpp **** 
 271              		.loc 1 39 97 view .LVU41
 272 0004 90ED025B 		vldr.64	d5, [r0, #8]
  39:source/HeavyContext.hpp **** 
 273              		.loc 1 39 80 view .LVU42
 274 0008 87FE800A 		vmaxnm.f32	s0, s15, s0
 275              	.LVL14:
  39:source/HeavyContext.hpp **** 
 276              		.loc 1 39 80 view .LVU43
 277 000c B7EEC00A 		vcvt.f64.f32	d0, s0
  39:source/HeavyContext.hpp **** 
 278              		.loc 1 39 108 view .LVU44
 279 0010 9FED056B 		vldr.64	d6, .L14
  39:source/HeavyContext.hpp **** 
 280              		.loc 1 39 97 view .LVU45
 281 0014 20EE050B 		vmul.f64	d0, d0, d5
  39:source/HeavyContext.hpp **** 
 282              		.loc 1 39 108 view .LVU46
 283 0018 80EE067B 		vdiv.f64	d7, d0, d6
  39:source/HeavyContext.hpp **** 
 284              		.loc 1 39 118 view .LVU47
 285 001c FCEEC77B 		vcvt.u32.f64	s15, d7
 286 0020 17EE900A 		vmov	r0, s15	@ int
 287              	.LVL15:
  39:source/HeavyContext.hpp **** 
 288              		.loc 1 39 118 view .LVU48
 289 0024 7047     		bx	lr
 290              	.L15:
 291 0026 00BF     		.align	3
 292              	.L14:
 293 0028 00000000 		.word	0
 294 002c 00408F40 		.word	1083129856
 295 0030 00000000 		.word	0
 296              		.cfi_endproc
 297              	.LFE969:
 299              		.section	.rodata.msg_getCoreSize.part.0.str1.4,"aMS",%progbits,1
 300              		.align	2
 301              	.LC0:
 302 0000 6E756D45 		.ascii	"numElements > 0\000"
ARM GAS  /var/folders/fb/yfxt3z4538j6z0vjt03w70vc0000gn/T//ccfQbMBb.s 			page 7


 302      6C656D65 
 302      6E747320 
 302      3E203000 
 303              		.align	2
 304              	.LC1:
 305 0010 73697A65 		.ascii	"size_t msg_getCoreSize(size_t)\000"
 305      5F74206D 
 305      73675F67 
 305      6574436F 
 305      72655369 
 306 002f 00       		.align	2
 307              	.LC2:
 308 0030 736F7572 		.ascii	"source/HvMessage.h\000"
 308      63652F48 
 308      764D6573 
 308      73616765 
 308      2E6800
 309              		.section	.text.msg_getCoreSize.part.0,"ax",%progbits
 310              		.align	1
 311              		.p2align 2,,3
 312              		.syntax unified
 313              		.thumb
 314              		.thumb_func
 316              	msg_getCoreSize.part.0:
 317              	.LFB1048:
 318              		.file 2 "source/HvMessage.h"
   1:source/HvMessage.h **** /**
   2:source/HvMessage.h ****  * Copyright (c) 2014-2018 Enzien Audio Ltd.
   3:source/HvMessage.h ****  *
   4:source/HvMessage.h ****  * Permission to use, copy, modify, and/or distribute this software for any
   5:source/HvMessage.h ****  * purpose with or without fee is hereby granted, provided that the above
   6:source/HvMessage.h ****  * copyright notice and this permission notice appear in all copies.
   7:source/HvMessage.h ****  *
   8:source/HvMessage.h ****  * THE SOFTWARE IS PROVIDED "AS IS" AND THE AUTHOR DISCLAIMS ALL WARRANTIES WITH
   9:source/HvMessage.h ****  * REGARD TO THIS SOFTWARE INCLUDING ALL IMPLIED WARRANTIES OF MERCHANTABILITY
  10:source/HvMessage.h ****  * AND FITNESS. IN NO EVENT SHALL THE AUTHOR BE LIABLE FOR ANY SPECIAL, DIRECT,
  11:source/HvMessage.h ****  * INDIRECT, OR CONSEQUENTIAL DAMAGES OR ANY DAMAGES WHATSOEVER RESULTING FROM
  12:source/HvMessage.h ****  * LOSS OF USE, DATA OR PROFITS, WHETHER IN AN ACTION OF CONTRACT, NEGLIGENCE OR
  13:source/HvMessage.h ****  * OTHER TORTIOUS ACTION, ARISING OUT OF OR IN CONNECTION WITH THE USE OR
  14:source/HvMessage.h ****  * PERFORMANCE OF THIS SOFTWARE.
  15:source/HvMessage.h ****  */
  16:source/HvMessage.h **** 
  17:source/HvMessage.h **** #ifndef _HEAVY_MESSAGE_H_
  18:source/HvMessage.h **** #define _HEAVY_MESSAGE_H_
  19:source/HvMessage.h **** 
  20:source/HvMessage.h **** #include "HvUtils.h"
  21:source/HvMessage.h **** 
  22:source/HvMessage.h **** #ifdef __cplusplus
  23:source/HvMessage.h **** extern "C" {
  24:source/HvMessage.h **** #endif
  25:source/HvMessage.h **** 
  26:source/HvMessage.h **** typedef enum ElementType {
  27:source/HvMessage.h ****   HV_MSG_BANG = 0,
  28:source/HvMessage.h ****   HV_MSG_FLOAT = 1,
  29:source/HvMessage.h ****   HV_MSG_SYMBOL = 2,
  30:source/HvMessage.h ****   HV_MSG_HASH = 3
  31:source/HvMessage.h **** } ElementType;
ARM GAS  /var/folders/fb/yfxt3z4538j6z0vjt03w70vc0000gn/T//ccfQbMBb.s 			page 8


  32:source/HvMessage.h **** 
  33:source/HvMessage.h **** typedef struct Element {
  34:source/HvMessage.h ****   ElementType type;
  35:source/HvMessage.h ****   union {
  36:source/HvMessage.h ****     float f; // float
  37:source/HvMessage.h ****     const char *s; // symbol
  38:source/HvMessage.h ****     hv_uint32_t h; // hash
  39:source/HvMessage.h ****   } data;
  40:source/HvMessage.h **** } Element;
  41:source/HvMessage.h **** 
  42:source/HvMessage.h **** typedef struct HvMessage {
  43:source/HvMessage.h ****   hv_uint32_t timestamp; // the sample at which this message should be processed
  44:source/HvMessage.h ****   hv_uint16_t numElements;
  45:source/HvMessage.h ****   hv_uint16_t numBytes; // the total number of bytes that this message occupies in memory, includin
  46:source/HvMessage.h ****   Element elem;
  47:source/HvMessage.h **** } HvMessage;
  48:source/HvMessage.h **** 
  49:source/HvMessage.h **** typedef struct ReceiverMessagePair {
  50:source/HvMessage.h ****   hv_uint32_t receiverHash;
  51:source/HvMessage.h ****   HvMessage msg;
  52:source/HvMessage.h **** } ReceiverMessagePair;
  53:source/HvMessage.h **** 
  54:source/HvMessage.h **** #define HV_MESSAGE_ON_STACK(_x) (HvMessage *) hv_alloca(msg_getCoreSize(_x))
  55:source/HvMessage.h **** 
  56:source/HvMessage.h **** /** Returns the number of bytes that this message consumes in memory, not including strings. */
  57:source/HvMessage.h **** static inline hv_size_t msg_getCoreSize(hv_size_t numElements) {
 319              		.loc 2 57 25 is_stmt 1 view -0
 320              		.cfi_startproc
 321              		@ Volatile: function does not return.
 322              		@ args = 0, pretend = 0, frame = 0
 323              		@ frame_needed = 0, uses_anonymous_args = 0
 324              	.LVL16:
 325              		.loc 2 57 25 is_stmt 0 view .LVU50
 326 0000 08B5     		push	{r3, lr}
 327              		.cfi_def_cfa_offset 8
 328              		.cfi_offset 3, -8
 329              		.cfi_offset 14, -4
  58:source/HvMessage.h ****   hv_assert(numElements > 0);
 330              		.loc 2 58 3 view .LVU51
 331 0002 034A     		ldr	r2, .L18
 332 0004 3A21     		movs	r1, #58
 333 0006 034B     		ldr	r3, .L18+4
 334 0008 0348     		ldr	r0, .L18+8
 335 000a FFF7FEFF 		bl	__assert_func
 336              	.LVL17:
 337              	.L19:
 338 000e 00BF     		.align	2
 339              	.L18:
 340 0010 10000000 		.word	.LC1
 341 0014 00000000 		.word	.LC0
 342 0018 30000000 		.word	.LC2
 343              		.cfi_endproc
 344              	.LFE1048:
 346              		.section	.rodata.msg_setBang.part.0.str1.4,"aMS",%progbits,1
 347              		.align	2
 348              	.LC3:
 349 0000 696E6465 		.ascii	"index < msg_getNumElements(m)\000"
ARM GAS  /var/folders/fb/yfxt3z4538j6z0vjt03w70vc0000gn/T//ccfQbMBb.s 			page 9


 349      78203C20 
 349      6D73675F 
 349      6765744E 
 349      756D456C 
 350 001e 0000     		.align	2
 351              	.LC4:
 352 0020 766F6964 		.ascii	"void msg_setBang(HvMessage*, int)\000"
 352      206D7367 
 352      5F736574 
 352      42616E67 
 352      2848764D 
 353              		.section	.text.msg_setBang.part.0,"ax",%progbits
 354              		.align	1
 355              		.p2align 2,,3
 356              		.syntax unified
 357              		.thumb
 358              		.thumb_func
 360              	msg_setBang.part.0:
 361              	.LFB1050:
  59:source/HvMessage.h ****   return sizeof(HvMessage) + ((numElements-1) * sizeof(Element));
  60:source/HvMessage.h **** }
  61:source/HvMessage.h **** 
  62:source/HvMessage.h **** HvMessage *msg_copy(const HvMessage *m);
  63:source/HvMessage.h **** 
  64:source/HvMessage.h **** /** Copies the message into the given buffer. The buffer must be at least as large as msg_getNumHea
  65:source/HvMessage.h **** void msg_copyToBuffer(const HvMessage *m, char *buffer, hv_size_t len);
  66:source/HvMessage.h **** 
  67:source/HvMessage.h **** void msg_setElementToFrom(HvMessage *n, int indexN, const HvMessage *const m, int indexM);
  68:source/HvMessage.h **** 
  69:source/HvMessage.h **** /** Frees a message on the heap. Does nothing if argument is NULL. */
  70:source/HvMessage.h **** void msg_free(HvMessage *m);
  71:source/HvMessage.h **** 
  72:source/HvMessage.h **** HvMessage *msg_init(HvMessage *m, hv_size_t numElements, hv_uint32_t timestamp);
  73:source/HvMessage.h **** 
  74:source/HvMessage.h **** HvMessage *msg_initWithFloat(HvMessage *m, hv_uint32_t timestamp, float f);
  75:source/HvMessage.h **** 
  76:source/HvMessage.h **** HvMessage *msg_initWithBang(HvMessage *m, hv_uint32_t timestamp);
  77:source/HvMessage.h **** 
  78:source/HvMessage.h **** HvMessage *msg_initWithSymbol(HvMessage *m, hv_uint32_t timestamp, const char *s);
  79:source/HvMessage.h **** 
  80:source/HvMessage.h **** HvMessage *msg_initWithHash(HvMessage *m, hv_uint32_t timestamp, hv_uint32_t h);
  81:source/HvMessage.h **** 
  82:source/HvMessage.h **** static inline hv_uint32_t msg_getTimestamp(const HvMessage *m) {
  83:source/HvMessage.h ****   return m->timestamp;
  84:source/HvMessage.h **** }
  85:source/HvMessage.h **** 
  86:source/HvMessage.h **** static inline void msg_setTimestamp(HvMessage *m, hv_uint32_t timestamp) {
  87:source/HvMessage.h ****   m->timestamp = timestamp;
  88:source/HvMessage.h **** }
  89:source/HvMessage.h **** 
  90:source/HvMessage.h **** static inline int msg_getNumElements(const HvMessage *m) {
  91:source/HvMessage.h ****   return (int) m->numElements;
  92:source/HvMessage.h **** }
  93:source/HvMessage.h **** 
  94:source/HvMessage.h **** /** Returns the total number of bytes this message consumes in memory. */
  95:source/HvMessage.h **** static inline hv_uint32_t msg_getSize(const HvMessage *m) {
  96:source/HvMessage.h ****   return m->numBytes;
ARM GAS  /var/folders/fb/yfxt3z4538j6z0vjt03w70vc0000gn/T//ccfQbMBb.s 			page 10


  97:source/HvMessage.h **** }
  98:source/HvMessage.h **** 
  99:source/HvMessage.h **** static inline ElementType msg_getType(const HvMessage *m, int index) {
 100:source/HvMessage.h ****   hv_assert(index < msg_getNumElements(m)); // invalid index
 101:source/HvMessage.h ****   return (&(m->elem)+index)->type;
 102:source/HvMessage.h **** }
 103:source/HvMessage.h **** 
 104:source/HvMessage.h **** static inline void msg_setBang(HvMessage *m, int index) {
 362              		.loc 2 104 20 is_stmt 1 view -0
 363              		.cfi_startproc
 364              		@ Volatile: function does not return.
 365              		@ args = 0, pretend = 0, frame = 0
 366              		@ frame_needed = 0, uses_anonymous_args = 0
 367              	.LVL18:
 368              		.loc 2 104 20 is_stmt 0 view .LVU53
 369 0000 08B5     		push	{r3, lr}
 370              		.cfi_def_cfa_offset 8
 371              		.cfi_offset 3, -8
 372              		.cfi_offset 14, -4
 105:source/HvMessage.h ****   hv_assert(index < msg_getNumElements(m)); // invalid index
 373              		.loc 2 105 3 view .LVU54
 374 0002 034A     		ldr	r2, .L22
 375 0004 6921     		movs	r1, #105
 376 0006 034B     		ldr	r3, .L22+4
 377 0008 0348     		ldr	r0, .L22+8
 378 000a FFF7FEFF 		bl	__assert_func
 379              	.LVL19:
 380              	.L23:
 381 000e 00BF     		.align	2
 382              	.L22:
 383 0010 20000000 		.word	.LC4
 384 0014 00000000 		.word	.LC3
 385 0018 30000000 		.word	.LC2
 386              		.cfi_endproc
 387              	.LFE1050:
 389              		.section	.rodata.msg_setFloat.part.0.str1.4,"aMS",%progbits,1
 390              		.align	2
 391              	.LC5:
 392 0000 766F6964 		.ascii	"void msg_setFloat(HvMessage*, int, float)\000"
 392      206D7367 
 392      5F736574 
 392      466C6F61 
 392      74284876 
 393              		.section	.text.msg_setFloat.part.0,"ax",%progbits
 394              		.align	1
 395              		.p2align 2,,3
 396              		.syntax unified
 397              		.thumb
 398              		.thumb_func
 400              	msg_setFloat.part.0:
 401              	.LFB1051:
 106:source/HvMessage.h ****   (&(m->elem)+index)->type = HV_MSG_BANG;
 107:source/HvMessage.h ****   (&(m->elem)+index)->data.s = NULL;
 108:source/HvMessage.h **** }
 109:source/HvMessage.h **** 
 110:source/HvMessage.h **** static inline bool msg_isBang(const HvMessage *m, int index) {
 111:source/HvMessage.h ****   return (index < msg_getNumElements(m)) ? (msg_getType(m,index) == HV_MSG_BANG) : false;
ARM GAS  /var/folders/fb/yfxt3z4538j6z0vjt03w70vc0000gn/T//ccfQbMBb.s 			page 11


 112:source/HvMessage.h **** }
 113:source/HvMessage.h **** 
 114:source/HvMessage.h **** static inline void msg_setFloat(HvMessage *m, int index, float f) {
 402              		.loc 2 114 20 is_stmt 1 view -0
 403              		.cfi_startproc
 404              		@ Volatile: function does not return.
 405              		@ args = 0, pretend = 0, frame = 0
 406              		@ frame_needed = 0, uses_anonymous_args = 0
 407              	.LVL20:
 408              		.loc 2 114 20 is_stmt 0 view .LVU56
 409 0000 08B5     		push	{r3, lr}
 410              		.cfi_def_cfa_offset 8
 411              		.cfi_offset 3, -8
 412              		.cfi_offset 14, -4
 115:source/HvMessage.h ****   hv_assert(index < msg_getNumElements(m)); // invalid index
 413              		.loc 2 115 3 view .LVU57
 414 0002 034A     		ldr	r2, .L26
 415 0004 7321     		movs	r1, #115
 416 0006 034B     		ldr	r3, .L26+4
 417 0008 0348     		ldr	r0, .L26+8
 418 000a FFF7FEFF 		bl	__assert_func
 419              	.LVL21:
 420              	.L27:
 421 000e 00BF     		.align	2
 422              	.L26:
 423 0010 00000000 		.word	.LC5
 424 0014 00000000 		.word	.LC3
 425 0018 30000000 		.word	.LC2
 426              		.cfi_endproc
 427              	.LFE1051:
 429              		.section	.rodata.msg_setSymbol.part.0.str1.4,"aMS",%progbits,1
 430              		.align	2
 431              	.LC6:
 432 0000 7320213D 		.ascii	"s != __null\000"
 432      205F5F6E 
 432      756C6C00 
 433              		.align	2
 434              	.LC7:
 435 000c 766F6964 		.ascii	"void msg_setSymbol(HvMessage*, int, const char*)\000"
 435      206D7367 
 435      5F736574 
 435      53796D62 
 435      6F6C2848 
 436              		.section	.text.msg_setSymbol.part.0,"ax",%progbits
 437              		.align	1
 438              		.p2align 2,,3
 439              		.syntax unified
 440              		.thumb
 441              		.thumb_func
 443              	msg_setSymbol.part.0:
 444              	.LFB1052:
 116:source/HvMessage.h ****   (&(m->elem)+index)->type = HV_MSG_FLOAT;
 117:source/HvMessage.h ****   (&(m->elem)+index)->data.f = f;
 118:source/HvMessage.h **** }
 119:source/HvMessage.h **** 
 120:source/HvMessage.h **** static inline float msg_getFloat(const HvMessage *const m, int index) {
 121:source/HvMessage.h ****   hv_assert(index < msg_getNumElements(m)); // invalid index
ARM GAS  /var/folders/fb/yfxt3z4538j6z0vjt03w70vc0000gn/T//ccfQbMBb.s 			page 12


 122:source/HvMessage.h ****   return (&(m->elem)+index)->data.f;
 123:source/HvMessage.h **** }
 124:source/HvMessage.h **** 
 125:source/HvMessage.h **** static inline bool msg_isFloat(const HvMessage *const m, int index) {
 126:source/HvMessage.h ****   return (index < msg_getNumElements(m)) ? (msg_getType(m,index) == HV_MSG_FLOAT) : false;
 127:source/HvMessage.h **** }
 128:source/HvMessage.h **** 
 129:source/HvMessage.h **** static inline void msg_setHash(HvMessage *m, int index, hv_uint32_t h) {
 130:source/HvMessage.h ****   hv_assert(index < msg_getNumElements(m)); // invalid index
 131:source/HvMessage.h ****   (&(m->elem)+index)->type = HV_MSG_HASH;
 132:source/HvMessage.h ****   (&(m->elem)+index)->data.h = h;
 133:source/HvMessage.h **** }
 134:source/HvMessage.h **** 
 135:source/HvMessage.h **** static inline bool msg_isHash(const HvMessage *m, int index) {
 136:source/HvMessage.h ****   return (index < msg_getNumElements(m)) ? (msg_getType(m, index) == HV_MSG_HASH) : false;
 137:source/HvMessage.h **** }
 138:source/HvMessage.h **** 
 139:source/HvMessage.h **** /** Returns true if the element is a hash or symbol. False otherwise. */
 140:source/HvMessage.h **** static inline bool msg_isHashLike(const HvMessage *m, int index) {
 141:source/HvMessage.h ****   return (index < msg_getNumElements(m)) ? ((msg_getType(m, index) == HV_MSG_HASH) || (msg_getType(
 142:source/HvMessage.h **** }
 143:source/HvMessage.h **** 
 144:source/HvMessage.h **** /** Returns a 32-bit hash of the given element. */
 145:source/HvMessage.h **** hv_uint32_t msg_getHash(const HvMessage *const m, int i);
 146:source/HvMessage.h **** 
 147:source/HvMessage.h **** static inline void msg_setSymbol(HvMessage *m, int index, const char *s) {
 445              		.loc 2 147 20 is_stmt 1 view -0
 446              		.cfi_startproc
 447              		@ Volatile: function does not return.
 448              		@ args = 0, pretend = 0, frame = 0
 449              		@ frame_needed = 0, uses_anonymous_args = 0
 450              	.LVL22:
 451              		.loc 2 147 20 is_stmt 0 view .LVU59
 452 0000 08B5     		push	{r3, lr}
 453              		.cfi_def_cfa_offset 8
 454              		.cfi_offset 3, -8
 455              		.cfi_offset 14, -4
 148:source/HvMessage.h ****   hv_assert(index < msg_getNumElements(m)); // invalid index
 149:source/HvMessage.h ****   hv_assert(s != NULL);
 456              		.loc 2 149 3 view .LVU60
 457 0002 034A     		ldr	r2, .L30
 458 0004 9521     		movs	r1, #149
 459 0006 034B     		ldr	r3, .L30+4
 460 0008 0348     		ldr	r0, .L30+8
 461 000a FFF7FEFF 		bl	__assert_func
 462              	.LVL23:
 463              	.L31:
 464 000e 00BF     		.align	2
 465              	.L30:
 466 0010 0C000000 		.word	.LC7
 467 0014 00000000 		.word	.LC6
 468 0018 30000000 		.word	.LC2
 469              		.cfi_endproc
 470              	.LFE1052:
 472              		.section	.rodata.hv_table_setLength.str1.4,"aMS",%progbits,1
 473              		.align	2
 474              	.LC8:
ARM GAS  /var/folders/fb/yfxt3z4538j6z0vjt03w70vc0000gn/T//ccfQbMBb.s 			page 13


 475 0000 6320213D 		.ascii	"c != nullptr\000"
 475      206E756C 
 475      6C707472 
 475      00
 476 000d 000000   		.align	2
 477              	.LC9:
 478 0010 626F6F6C 		.ascii	"bool hv_table_setLength(HeavyContextInterface*, uin"
 478      2068765F 
 478      7461626C 
 478      655F7365 
 478      744C656E 
 479 0043 7433325F 		.ascii	"t32_t, uint32_t)\000"
 479      742C2075 
 479      696E7433 
 479      325F7429 
 479      00
 480              		.align	2
 481              	.LC10:
 482 0054 736F7572 		.ascii	"source/HvHeavy.cpp\000"
 482      63652F48 
 482      76486561 
 482      76792E63 
 482      707000
 483              		.section	.text.hv_table_setLength,"ax",%progbits
 484              		.align	1
 485              		.p2align 2,,3
 486              		.global	hv_table_setLength
 487              		.syntax unified
 488              		.thumb
 489              		.thumb_func
 491              	hv_table_setLength:
 492              	.LVL24:
 493              	.LFB976:
 494              		.file 3 "source/HvHeavy.cpp"
   1:source/HvHeavy.cpp **** /**
   2:source/HvHeavy.cpp ****  * Copyright (c) 2014-2018 Enzien Audio Ltd.
   3:source/HvHeavy.cpp ****  *
   4:source/HvHeavy.cpp ****  * Permission to use, copy, modify, and/or distribute this software for any
   5:source/HvHeavy.cpp ****  * purpose with or without fee is hereby granted, provided that the above
   6:source/HvHeavy.cpp ****  * copyright notice and this permission notice appear in all copies.
   7:source/HvHeavy.cpp ****  *
   8:source/HvHeavy.cpp ****  * THE SOFTWARE IS PROVIDED "AS IS" AND THE AUTHOR DISCLAIMS ALL WARRANTIES WITH
   9:source/HvHeavy.cpp ****  * REGARD TO THIS SOFTWARE INCLUDING ALL IMPLIED WARRANTIES OF MERCHANTABILITY
  10:source/HvHeavy.cpp ****  * AND FITNESS. IN NO EVENT SHALL THE AUTHOR BE LIABLE FOR ANY SPECIAL, DIRECT,
  11:source/HvHeavy.cpp ****  * INDIRECT, OR CONSEQUENTIAL DAMAGES OR ANY DAMAGES WHATSOEVER RESULTING FROM
  12:source/HvHeavy.cpp ****  * LOSS OF USE, DATA OR PROFITS, WHETHER IN AN ACTION OF CONTRACT, NEGLIGENCE OR
  13:source/HvHeavy.cpp ****  * OTHER TORTIOUS ACTION, ARISING OUT OF OR IN CONNECTION WITH THE USE OR
  14:source/HvHeavy.cpp ****  * PERFORMANCE OF THIS SOFTWARE.
  15:source/HvHeavy.cpp ****  */
  16:source/HvHeavy.cpp **** 
  17:source/HvHeavy.cpp **** #include "HeavyContext.hpp"
  18:source/HvHeavy.cpp **** 
  19:source/HvHeavy.cpp **** #ifdef __cplusplus
  20:source/HvHeavy.cpp **** extern "C" {
  21:source/HvHeavy.cpp **** #endif
  22:source/HvHeavy.cpp **** 
  23:source/HvHeavy.cpp **** #if !HV_WIN
ARM GAS  /var/folders/fb/yfxt3z4538j6z0vjt03w70vc0000gn/T//ccfQbMBb.s 			page 14


  24:source/HvHeavy.cpp **** #pragma mark - Heavy Table
  25:source/HvHeavy.cpp **** #endif
  26:source/HvHeavy.cpp **** 
  27:source/HvHeavy.cpp **** HV_EXPORT bool hv_table_setLength(HeavyContextInterface *c, hv_uint32_t tableHash, hv_uint32_t newS
 495              		.loc 3 27 113 is_stmt 1 view -0
 496              		.cfi_startproc
 497              		@ args = 0, pretend = 0, frame = 0
 498              		@ frame_needed = 0, uses_anonymous_args = 0
  28:source/HvHeavy.cpp ****   hv_assert(c != nullptr);
 499              		.loc 3 28 3 view .LVU62
 500 0000 10B1     		cbz	r0, .L37
  29:source/HvHeavy.cpp ****   return c->setLengthForTable(tableHash, newSampleLength);
 501              		.loc 3 29 3 view .LVU63
 502              		.loc 3 29 57 is_stmt 0 view .LVU64
 503 0002 0368     		ldr	r3, [r0]
 504              		.loc 3 29 30 view .LVU65
 505 0004 1B6F     		ldr	r3, [r3, #112]
 506 0006 1847     		bx	r3
 507              	.LVL25:
 508              	.L37:
  28:source/HvHeavy.cpp ****   hv_assert(c != nullptr);
 509              		.loc 3 28 3 discriminator 1 view .LVU66
 510 0008 034B     		ldr	r3, .L38
 511 000a 1C21     		movs	r1, #28
 512              	.LVL26:
  28:source/HvHeavy.cpp ****   hv_assert(c != nullptr);
 513              		.loc 3 28 3 discriminator 1 view .LVU67
 514 000c 034A     		ldr	r2, .L38+4
 515              	.LVL27:
  28:source/HvHeavy.cpp ****   hv_assert(c != nullptr);
 516              		.loc 3 28 3 discriminator 1 view .LVU68
 517 000e 0448     		ldr	r0, .L38+8
 518              	.LVL28:
  27:source/HvHeavy.cpp ****   hv_assert(c != nullptr);
 519              		.loc 3 27 113 discriminator 1 view .LVU69
 520 0010 10B5     		push	{r4, lr}
 521              		.cfi_def_cfa_offset 8
 522              		.cfi_offset 4, -8
 523              		.cfi_offset 14, -4
  28:source/HvHeavy.cpp ****   hv_assert(c != nullptr);
 524              		.loc 3 28 3 discriminator 1 view .LVU70
 525 0012 FFF7FEFF 		bl	__assert_func
 526              	.LVL29:
 527              	.L39:
 528 0016 00BF     		.align	2
 529              	.L38:
 530 0018 00000000 		.word	.LC8
 531 001c 10000000 		.word	.LC9
 532 0020 54000000 		.word	.LC10
 533              		.cfi_endproc
 534              	.LFE976:
 536              		.section	.rodata.hv_table_getBuffer.str1.4,"aMS",%progbits,1
 537              		.align	2
 538              	.LC11:
 539 0000 666C6F61 		.ascii	"float* hv_table_getBuffer(HeavyContextInterface*, u"
 539      742A2068 
 539      765F7461 
ARM GAS  /var/folders/fb/yfxt3z4538j6z0vjt03w70vc0000gn/T//ccfQbMBb.s 			page 15


 539      626C655F 
 539      67657442 
 540 0033 696E7433 		.ascii	"int32_t)\000"
 540      325F7429 
 540      00
 541              		.section	.text.hv_table_getBuffer,"ax",%progbits
 542              		.align	1
 543              		.p2align 2,,3
 544              		.global	hv_table_getBuffer
 545              		.syntax unified
 546              		.thumb
 547              		.thumb_func
 549              	hv_table_getBuffer:
 550              	.LVL30:
 551              	.LFB977:
  30:source/HvHeavy.cpp **** }
  31:source/HvHeavy.cpp **** 
  32:source/HvHeavy.cpp **** HV_EXPORT float *hv_table_getBuffer(HeavyContextInterface *c, hv_uint32_t tableHash) {
 552              		.loc 3 32 86 is_stmt 1 view -0
 553              		.cfi_startproc
 554              		@ args = 0, pretend = 0, frame = 0
 555              		@ frame_needed = 0, uses_anonymous_args = 0
  33:source/HvHeavy.cpp ****   hv_assert(c != nullptr);
 556              		.loc 3 33 3 view .LVU72
 557 0000 10B1     		cbz	r0, .L45
  34:source/HvHeavy.cpp ****   return c->getBufferForTable(tableHash);
 558              		.loc 3 34 3 view .LVU73
 559              		.loc 3 34 40 is_stmt 0 view .LVU74
 560 0002 0368     		ldr	r3, [r0]
 561              		.loc 3 34 30 view .LVU75
 562 0004 9B6E     		ldr	r3, [r3, #104]
 563 0006 1847     		bx	r3
 564              	.LVL31:
 565              	.L45:
  33:source/HvHeavy.cpp ****   hv_assert(c != nullptr);
 566              		.loc 3 33 3 discriminator 1 view .LVU76
 567 0008 034B     		ldr	r3, .L46
 568 000a 2121     		movs	r1, #33
 569              	.LVL32:
  33:source/HvHeavy.cpp ****   hv_assert(c != nullptr);
 570              		.loc 3 33 3 discriminator 1 view .LVU77
 571 000c 034A     		ldr	r2, .L46+4
 572 000e 0448     		ldr	r0, .L46+8
 573              	.LVL33:
  32:source/HvHeavy.cpp ****   hv_assert(c != nullptr);
 574              		.loc 3 32 86 discriminator 1 view .LVU78
 575 0010 10B5     		push	{r4, lr}
 576              		.cfi_def_cfa_offset 8
 577              		.cfi_offset 4, -8
 578              		.cfi_offset 14, -4
  33:source/HvHeavy.cpp ****   hv_assert(c != nullptr);
 579              		.loc 3 33 3 discriminator 1 view .LVU79
 580 0012 FFF7FEFF 		bl	__assert_func
 581              	.LVL34:
 582              	.L47:
 583 0016 00BF     		.align	2
 584              	.L46:
ARM GAS  /var/folders/fb/yfxt3z4538j6z0vjt03w70vc0000gn/T//ccfQbMBb.s 			page 16


 585 0018 00000000 		.word	.LC8
 586 001c 00000000 		.word	.LC11
 587 0020 54000000 		.word	.LC10
 588              		.cfi_endproc
 589              	.LFE977:
 591              		.section	.rodata.hv_table_getLength.str1.4,"aMS",%progbits,1
 592              		.align	2
 593              	.LC12:
 594 0000 75696E74 		.ascii	"uint32_t hv_table_getLength(HeavyContextInterface*,"
 594      33325F74 
 594      2068765F 
 594      7461626C 
 594      655F6765 
 595 0033 2075696E 		.ascii	" uint32_t)\000"
 595      7433325F 
 595      742900
 596              		.section	.text.hv_table_getLength,"ax",%progbits
 597              		.align	1
 598              		.p2align 2,,3
 599              		.global	hv_table_getLength
 600              		.syntax unified
 601              		.thumb
 602              		.thumb_func
 604              	hv_table_getLength:
 605              	.LVL35:
 606              	.LFB978:
  35:source/HvHeavy.cpp **** }
  36:source/HvHeavy.cpp **** 
  37:source/HvHeavy.cpp **** HV_EXPORT hv_uint32_t hv_table_getLength(HeavyContextInterface *c, hv_uint32_t tableHash) {
 607              		.loc 3 37 91 is_stmt 1 view -0
 608              		.cfi_startproc
 609              		@ args = 0, pretend = 0, frame = 0
 610              		@ frame_needed = 0, uses_anonymous_args = 0
  38:source/HvHeavy.cpp ****   hv_assert(c != nullptr);
 611              		.loc 3 38 3 view .LVU81
 612 0000 10B1     		cbz	r0, .L53
  39:source/HvHeavy.cpp ****   return c->getLengthForTable(tableHash);
 613              		.loc 3 39 3 view .LVU82
 614              		.loc 3 39 40 is_stmt 0 view .LVU83
 615 0002 0368     		ldr	r3, [r0]
 616              		.loc 3 39 30 view .LVU84
 617 0004 DB6E     		ldr	r3, [r3, #108]
 618 0006 1847     		bx	r3
 619              	.LVL36:
 620              	.L53:
  38:source/HvHeavy.cpp ****   hv_assert(c != nullptr);
 621              		.loc 3 38 3 discriminator 1 view .LVU85
 622 0008 034B     		ldr	r3, .L54
 623 000a 2621     		movs	r1, #38
 624              	.LVL37:
  38:source/HvHeavy.cpp ****   hv_assert(c != nullptr);
 625              		.loc 3 38 3 discriminator 1 view .LVU86
 626 000c 034A     		ldr	r2, .L54+4
 627 000e 0448     		ldr	r0, .L54+8
 628              	.LVL38:
  37:source/HvHeavy.cpp ****   hv_assert(c != nullptr);
 629              		.loc 3 37 91 discriminator 1 view .LVU87
ARM GAS  /var/folders/fb/yfxt3z4538j6z0vjt03w70vc0000gn/T//ccfQbMBb.s 			page 17


 630 0010 10B5     		push	{r4, lr}
 631              		.cfi_def_cfa_offset 8
 632              		.cfi_offset 4, -8
 633              		.cfi_offset 14, -4
  38:source/HvHeavy.cpp ****   hv_assert(c != nullptr);
 634              		.loc 3 38 3 discriminator 1 view .LVU88
 635 0012 FFF7FEFF 		bl	__assert_func
 636              	.LVL39:
 637              	.L55:
 638 0016 00BF     		.align	2
 639              	.L54:
 640 0018 00000000 		.word	.LC8
 641 001c 00000000 		.word	.LC12
 642 0020 54000000 		.word	.LC10
 643              		.cfi_endproc
 644              	.LFE978:
 646              		.section	.text.hv_msg_getByteSize,"ax",%progbits
 647              		.align	1
 648              		.p2align 2,,3
 649              		.global	hv_msg_getByteSize
 650              		.syntax unified
 651              		.thumb
 652              		.thumb_func
 654              	hv_msg_getByteSize:
 655              	.LVL40:
 656              	.LFB979:
  40:source/HvHeavy.cpp **** }
  41:source/HvHeavy.cpp **** 
  42:source/HvHeavy.cpp **** 
  43:source/HvHeavy.cpp **** 
  44:source/HvHeavy.cpp **** #if !HV_WIN
  45:source/HvHeavy.cpp **** #pragma mark - Heavy Message
  46:source/HvHeavy.cpp **** #endif
  47:source/HvHeavy.cpp **** 
  48:source/HvHeavy.cpp **** HV_EXPORT hv_size_t hv_msg_getByteSize(hv_uint32_t numElements) {
 657              		.loc 3 48 65 is_stmt 1 view -0
 658              		.cfi_startproc
 659              		@ args = 0, pretend = 0, frame = 0
 660              		@ frame_needed = 0, uses_anonymous_args = 0
  49:source/HvHeavy.cpp ****   return msg_getCoreSize(numElements);
 661              		.loc 3 49 3 view .LVU90
 662              	.LBB83:
 663              	.LBI83:
  57:source/HvMessage.h ****   hv_assert(numElements > 0);
 664              		.loc 2 57 25 view .LVU91
 665              	.LBB84:
  58:source/HvMessage.h ****   return sizeof(HvMessage) + ((numElements-1) * sizeof(Element));
 666              		.loc 2 58 3 view .LVU92
 667 0000 10B1     		cbz	r0, .L61
  59:source/HvMessage.h **** }
 668              		.loc 2 59 3 view .LVU93
 669              	.LVL41:
  59:source/HvMessage.h **** }
 670              		.loc 2 59 28 is_stmt 0 view .LVU94
 671 0002 0130     		adds	r0, r0, #1
 672              	.LVL42:
  59:source/HvMessage.h **** }
ARM GAS  /var/folders/fb/yfxt3z4538j6z0vjt03w70vc0000gn/T//ccfQbMBb.s 			page 18


 673              		.loc 2 59 28 view .LVU95
 674              	.LBE84:
 675              	.LBE83:
  50:source/HvHeavy.cpp **** }
 676              		.loc 3 50 1 view .LVU96
 677 0004 C000     		lsls	r0, r0, #3
 678              	.LVL43:
 679              		.loc 3 50 1 view .LVU97
 680 0006 7047     		bx	lr
 681              	.LVL44:
 682              	.L61:
  48:source/HvHeavy.cpp ****   return msg_getCoreSize(numElements);
 683              		.loc 3 48 65 view .LVU98
 684 0008 08B5     		push	{r3, lr}
 685              		.cfi_def_cfa_offset 8
 686              		.cfi_offset 3, -8
 687              		.cfi_offset 14, -4
 688              	.LBB86:
 689              	.LBB85:
 690 000a FFF7FEFF 		bl	msg_getCoreSize.part.0
 691              	.LVL45:
  48:source/HvHeavy.cpp ****   return msg_getCoreSize(numElements);
 692              		.loc 3 48 65 view .LVU99
 693              	.LBE85:
 694              	.LBE86:
 695              		.cfi_endproc
 696              	.LFE979:
 698 000e 00BF     		.section	.text.hv_msg_init,"ax",%progbits
 699              		.align	1
 700              		.p2align 2,,3
 701              		.global	hv_msg_init
 702              		.syntax unified
 703              		.thumb
 704              		.thumb_func
 706              	hv_msg_init:
 707              	.LVL46:
 708              	.LFB980:
  51:source/HvHeavy.cpp **** 
  52:source/HvHeavy.cpp **** HV_EXPORT void hv_msg_init(HvMessage *m, int numElements, hv_uint32_t timestamp) {
 709              		.loc 3 52 82 is_stmt 1 view -0
 710              		.cfi_startproc
 711              		@ args = 0, pretend = 0, frame = 0
 712              		@ frame_needed = 0, uses_anonymous_args = 0
 713              		@ link register save eliminated.
  53:source/HvHeavy.cpp ****   msg_init(m, numElements, timestamp);
 714              		.loc 3 53 3 view .LVU101
 715              		.loc 3 53 11 is_stmt 0 view .LVU102
 716 0000 FFF7FEBF 		b	msg_init
 717              	.LVL47:
 718              		.loc 3 53 11 view .LVU103
 719              		.cfi_endproc
 720              	.LFE980:
 722              		.section	.text.hv_msg_getNumElements,"ax",%progbits
 723              		.align	1
 724              		.p2align 2,,3
 725              		.global	hv_msg_getNumElements
 726              		.syntax unified
ARM GAS  /var/folders/fb/yfxt3z4538j6z0vjt03w70vc0000gn/T//ccfQbMBb.s 			page 19


 727              		.thumb
 728              		.thumb_func
 730              	hv_msg_getNumElements:
 731              	.LVL48:
 732              	.LFB981:
  54:source/HvHeavy.cpp **** }
  55:source/HvHeavy.cpp **** 
  56:source/HvHeavy.cpp **** HV_EXPORT hv_size_t hv_msg_getNumElements(const HvMessage *m) {
 733              		.loc 3 56 63 is_stmt 1 view -0
 734              		.cfi_startproc
 735              		@ args = 0, pretend = 0, frame = 0
 736              		@ frame_needed = 0, uses_anonymous_args = 0
 737              		@ link register save eliminated.
  57:source/HvHeavy.cpp ****   return msg_getNumElements(m);
 738              		.loc 3 57 3 view .LVU105
 739              	.LBB87:
 740              	.LBI87:
  90:source/HvMessage.h ****   return (int) m->numElements;
 741              		.loc 2 90 19 view .LVU106
 742              	.LBB88:
  91:source/HvMessage.h **** }
 743              		.loc 2 91 3 view .LVU107
  91:source/HvMessage.h **** }
 744              		.loc 2 91 3 is_stmt 0 view .LVU108
 745              	.LBE88:
 746              	.LBE87:
  58:source/HvHeavy.cpp **** }
 747              		.loc 3 58 1 view .LVU109
 748 0000 8088     		ldrh	r0, [r0, #4]
 749              	.LVL49:
 750              		.loc 3 58 1 view .LVU110
 751 0002 7047     		bx	lr
 752              		.cfi_endproc
 753              	.LFE981:
 755              		.section	.text.hv_msg_getTimestamp,"ax",%progbits
 756              		.align	1
 757              		.p2align 2,,3
 758              		.global	hv_msg_getTimestamp
 759              		.syntax unified
 760              		.thumb
 761              		.thumb_func
 763              	hv_msg_getTimestamp:
 764              	.LVL50:
 765              	.LFB982:
  59:source/HvHeavy.cpp **** 
  60:source/HvHeavy.cpp **** HV_EXPORT hv_uint32_t hv_msg_getTimestamp(const HvMessage *m) {
 766              		.loc 3 60 63 is_stmt 1 view -0
 767              		.cfi_startproc
 768              		@ args = 0, pretend = 0, frame = 0
 769              		@ frame_needed = 0, uses_anonymous_args = 0
 770              		@ link register save eliminated.
  61:source/HvHeavy.cpp ****   return msg_getTimestamp(m);
 771              		.loc 3 61 3 view .LVU112
 772              	.LBB89:
 773              	.LBI89:
  82:source/HvMessage.h ****   return m->timestamp;
 774              		.loc 2 82 27 view .LVU113
ARM GAS  /var/folders/fb/yfxt3z4538j6z0vjt03w70vc0000gn/T//ccfQbMBb.s 			page 20


 775              	.LBB90:
  83:source/HvMessage.h **** }
 776              		.loc 2 83 3 view .LVU114
  83:source/HvMessage.h **** }
 777              		.loc 2 83 3 is_stmt 0 view .LVU115
 778              	.LBE90:
 779              	.LBE89:
  62:source/HvHeavy.cpp **** }
 780              		.loc 3 62 1 view .LVU116
 781 0000 0068     		ldr	r0, [r0]
 782              	.LVL51:
 783              		.loc 3 62 1 view .LVU117
 784 0002 7047     		bx	lr
 785              		.cfi_endproc
 786              	.LFE982:
 788              		.section	.text.hv_msg_setTimestamp,"ax",%progbits
 789              		.align	1
 790              		.p2align 2,,3
 791              		.global	hv_msg_setTimestamp
 792              		.syntax unified
 793              		.thumb
 794              		.thumb_func
 796              	hv_msg_setTimestamp:
 797              	.LVL52:
 798              	.LFB983:
  63:source/HvHeavy.cpp **** 
  64:source/HvHeavy.cpp **** HV_EXPORT void hv_msg_setTimestamp(HvMessage *m, hv_uint32_t timestamp) {
 799              		.loc 3 64 73 is_stmt 1 view -0
 800              		.cfi_startproc
 801              		@ args = 0, pretend = 0, frame = 0
 802              		@ frame_needed = 0, uses_anonymous_args = 0
 803              		@ link register save eliminated.
  65:source/HvHeavy.cpp ****   msg_setTimestamp(m, timestamp);
 804              		.loc 3 65 3 view .LVU119
 805              	.LBB91:
 806              	.LBI91:
  86:source/HvMessage.h ****   m->timestamp = timestamp;
 807              		.loc 2 86 20 view .LVU120
 808              	.LBB92:
  87:source/HvMessage.h **** }
 809              		.loc 2 87 3 view .LVU121
  87:source/HvMessage.h **** }
 810              		.loc 2 87 16 is_stmt 0 view .LVU122
 811 0000 0160     		str	r1, [r0]
 812              	.LVL53:
  87:source/HvMessage.h **** }
 813              		.loc 2 87 16 view .LVU123
 814              	.LBE92:
 815              	.LBE91:
  66:source/HvHeavy.cpp **** }
 816              		.loc 3 66 1 view .LVU124
 817 0002 7047     		bx	lr
 818              		.cfi_endproc
 819              	.LFE983:
 821              		.section	.text.hv_msg_isBang,"ax",%progbits
 822              		.align	1
 823              		.p2align 2,,3
ARM GAS  /var/folders/fb/yfxt3z4538j6z0vjt03w70vc0000gn/T//ccfQbMBb.s 			page 21


 824              		.global	hv_msg_isBang
 825              		.syntax unified
 826              		.thumb
 827              		.thumb_func
 829              	hv_msg_isBang:
 830              	.LVL54:
 831              	.LFB984:
  67:source/HvHeavy.cpp **** 
  68:source/HvHeavy.cpp **** HV_EXPORT bool hv_msg_isBang(const HvMessage *const m, int i) {
 832              		.loc 3 68 63 is_stmt 1 view -0
 833              		.cfi_startproc
 834              		@ args = 0, pretend = 0, frame = 0
 835              		@ frame_needed = 0, uses_anonymous_args = 0
 836              		@ link register save eliminated.
  69:source/HvHeavy.cpp ****   return msg_isBang(m,i);
 837              		.loc 3 69 3 view .LVU126
 838              	.LBB93:
 839              	.LBI93:
 110:source/HvMessage.h ****   return (index < msg_getNumElements(m)) ? (msg_getType(m,index) == HV_MSG_BANG) : false;
 840              		.loc 2 110 20 view .LVU127
 841              	.LBB94:
 111:source/HvMessage.h **** }
 842              		.loc 2 111 3 view .LVU128
 843              	.LBB95:
 844              	.LBI95:
  90:source/HvMessage.h ****   return (int) m->numElements;
 845              		.loc 2 90 19 view .LVU129
 846              	.LBB96:
  91:source/HvMessage.h **** }
 847              		.loc 2 91 3 view .LVU130
  91:source/HvMessage.h **** }
 848              		.loc 2 91 19 is_stmt 0 view .LVU131
 849 0000 8388     		ldrh	r3, [r0, #4]
 850              	.LBE96:
 851              	.LBE95:
 111:source/HvMessage.h **** }
 852              		.loc 2 111 42 view .LVU132
 853 0002 9942     		cmp	r1, r3
 854 0004 06DA     		bge	.L68
 855              	.LVL55:
 856              	.LBB97:
 857              	.LBI97:
  99:source/HvMessage.h ****   hv_assert(index < msg_getNumElements(m)); // invalid index
 858              		.loc 2 99 27 is_stmt 1 view .LVU133
 859              	.LBB98:
 100:source/HvMessage.h ****   return (&(m->elem)+index)->type;
 860              		.loc 2 100 3 view .LVU134
 100:source/HvMessage.h ****   return (&(m->elem)+index)->type;
 861              		.loc 2 100 3 is_stmt 0 view .LVU135
 862              	.LBE98:
 863              	.LBE97:
 864              	.LBE94:
 865              	.LBE93:
  91:source/HvMessage.h **** }
 866              		.loc 2 91 3 is_stmt 1 view .LVU136
 867              	.LBB102:
 868              	.LBB101:
ARM GAS  /var/folders/fb/yfxt3z4538j6z0vjt03w70vc0000gn/T//ccfQbMBb.s 			page 22


 869              	.LBB100:
 870              	.LBB99:
 101:source/HvMessage.h **** }
 871              		.loc 2 101 3 view .LVU137
 101:source/HvMessage.h **** }
 872              		.loc 2 101 30 is_stmt 0 view .LVU138
 873 0006 00EBC100 		add	r0, r0, r1, lsl #3
 874              	.LVL56:
 101:source/HvMessage.h **** }
 875              		.loc 2 101 30 view .LVU139
 876              	.LBE99:
 877              	.LBE100:
 111:source/HvMessage.h **** }
 878              		.loc 2 111 42 view .LVU140
 879 000a 007A     		ldrb	r0, [r0, #8]	@ zero_extendqisi2
 880 000c B0FA80F0 		clz	r0, r0
 881 0010 4009     		lsrs	r0, r0, #5
 882 0012 7047     		bx	lr
 883              	.LVL57:
 884              	.L68:
 111:source/HvMessage.h **** }
 885              		.loc 2 111 42 view .LVU141
 886 0014 0020     		movs	r0, #0
 887              	.LVL58:
 111:source/HvMessage.h **** }
 888              		.loc 2 111 42 view .LVU142
 889              	.LBE101:
 890              	.LBE102:
  70:source/HvHeavy.cpp **** }
 891              		.loc 3 70 1 view .LVU143
 892 0016 7047     		bx	lr
 893              		.cfi_endproc
 894              	.LFE984:
 896              		.section	.text.hv_msg_setBang,"ax",%progbits
 897              		.align	1
 898              		.p2align 2,,3
 899              		.global	hv_msg_setBang
 900              		.syntax unified
 901              		.thumb
 902              		.thumb_func
 904              	hv_msg_setBang:
 905              	.LVL59:
 906              	.LFB985:
  71:source/HvHeavy.cpp **** 
  72:source/HvHeavy.cpp **** HV_EXPORT void hv_msg_setBang(HvMessage *m, int i) {
 907              		.loc 3 72 52 is_stmt 1 view -0
 908              		.cfi_startproc
 909              		@ args = 0, pretend = 0, frame = 0
 910              		@ frame_needed = 0, uses_anonymous_args = 0
  73:source/HvHeavy.cpp ****   msg_setBang(m,i);
 911              		.loc 3 73 3 view .LVU145
 912              	.LBB107:
 913              	.LBI107:
 104:source/HvMessage.h ****   hv_assert(index < msg_getNumElements(m)); // invalid index
 914              		.loc 2 104 20 view .LVU146
 915              	.LBB108:
 105:source/HvMessage.h ****   (&(m->elem)+index)->type = HV_MSG_BANG;
ARM GAS  /var/folders/fb/yfxt3z4538j6z0vjt03w70vc0000gn/T//ccfQbMBb.s 			page 23


 916              		.loc 2 105 3 view .LVU147
 917              	.LBB109:
 918              	.LBI109:
  90:source/HvMessage.h ****   return (int) m->numElements;
 919              		.loc 2 90 19 view .LVU148
 920              	.LBB110:
  91:source/HvMessage.h **** }
 921              		.loc 2 91 3 view .LVU149
  91:source/HvMessage.h **** }
 922              		.loc 2 91 3 is_stmt 0 view .LVU150
 923              	.LBE110:
 924              	.LBE109:
 925              	.LBE108:
 926              	.LBE107:
  72:source/HvHeavy.cpp ****   msg_setBang(m,i);
 927              		.loc 3 72 52 view .LVU151
 928 0000 08B5     		push	{r3, lr}
 929              		.cfi_def_cfa_offset 8
 930              		.cfi_offset 3, -8
 931              		.cfi_offset 14, -4
 932              	.LBB115:
 933              	.LBB113:
 934              	.LBB112:
 935              	.LBB111:
  91:source/HvMessage.h **** }
 936              		.loc 2 91 19 view .LVU152
 937 0002 8388     		ldrh	r3, [r0, #4]
 938              	.LBE111:
 939              	.LBE112:
 105:source/HvMessage.h ****   (&(m->elem)+index)->type = HV_MSG_BANG;
 940              		.loc 2 105 3 view .LVU153
 941 0004 9942     		cmp	r1, r3
 942 0006 07DA     		bge	.L72
 106:source/HvMessage.h ****   (&(m->elem)+index)->data.s = NULL;
 943              		.loc 2 106 3 is_stmt 1 view .LVU154
 106:source/HvMessage.h ****   (&(m->elem)+index)->data.s = NULL;
 944              		.loc 2 106 4 is_stmt 0 view .LVU155
 945 0008 0830     		adds	r0, r0, #8
 946              	.LVL60:
 106:source/HvMessage.h ****   (&(m->elem)+index)->data.s = NULL;
 947              		.loc 2 106 28 view .LVU156
 948 000a 0023     		movs	r3, #0
 106:source/HvMessage.h ****   (&(m->elem)+index)->data.s = NULL;
 949              		.loc 2 106 14 view .LVU157
 950 000c 00EBC102 		add	r2, r0, r1, lsl #3
 106:source/HvMessage.h ****   (&(m->elem)+index)->data.s = NULL;
 951              		.loc 2 106 28 view .LVU158
 952 0010 00F83130 		strb	r3, [r0, r1, lsl #3]
 107:source/HvMessage.h **** }
 953              		.loc 2 107 3 is_stmt 1 view .LVU159
 107:source/HvMessage.h **** }
 954              		.loc 2 107 30 is_stmt 0 view .LVU160
 955 0014 5360     		str	r3, [r2, #4]
 956              	.LVL61:
 107:source/HvMessage.h **** }
 957              		.loc 2 107 30 view .LVU161
 958              	.LBE113:
ARM GAS  /var/folders/fb/yfxt3z4538j6z0vjt03w70vc0000gn/T//ccfQbMBb.s 			page 24


 959              	.LBE115:
  74:source/HvHeavy.cpp **** }
 960              		.loc 3 74 1 view .LVU162
 961 0016 08BD     		pop	{r3, pc}
 962              	.LVL62:
 963              	.L72:
 964              	.LBB116:
 965              	.LBB114:
 966              		.loc 3 74 1 view .LVU163
 967 0018 FFF7FEFF 		bl	msg_setBang.part.0
 968              	.LVL63:
 969              		.loc 3 74 1 view .LVU164
 970              	.LBE114:
 971              	.LBE116:
 972              		.cfi_endproc
 973              	.LFE985:
 975              		.section	.text.hv_msg_isFloat,"ax",%progbits
 976              		.align	1
 977              		.p2align 2,,3
 978              		.global	hv_msg_isFloat
 979              		.syntax unified
 980              		.thumb
 981              		.thumb_func
 983              	hv_msg_isFloat:
 984              	.LVL64:
 985              	.LFB986:
  75:source/HvHeavy.cpp **** 
  76:source/HvHeavy.cpp **** HV_EXPORT bool hv_msg_isFloat(const HvMessage *const m, int i) {
 986              		.loc 3 76 64 is_stmt 1 view -0
 987              		.cfi_startproc
 988              		@ args = 0, pretend = 0, frame = 0
 989              		@ frame_needed = 0, uses_anonymous_args = 0
 990              		@ link register save eliminated.
  77:source/HvHeavy.cpp ****   return msg_isFloat(m, i);
 991              		.loc 3 77 3 view .LVU166
 992              	.LBB117:
 993              	.LBI117:
 125:source/HvMessage.h ****   return (index < msg_getNumElements(m)) ? (msg_getType(m,index) == HV_MSG_FLOAT) : false;
 994              		.loc 2 125 20 view .LVU167
 995              	.LBB118:
 126:source/HvMessage.h **** }
 996              		.loc 2 126 3 view .LVU168
 997              	.LBB119:
 998              	.LBI119:
  90:source/HvMessage.h ****   return (int) m->numElements;
 999              		.loc 2 90 19 view .LVU169
 1000              	.LBB120:
  91:source/HvMessage.h **** }
 1001              		.loc 2 91 3 view .LVU170
  91:source/HvMessage.h **** }
 1002              		.loc 2 91 19 is_stmt 0 view .LVU171
 1003 0000 8388     		ldrh	r3, [r0, #4]
 1004              	.LBE120:
 1005              	.LBE119:
 126:source/HvMessage.h **** }
 1006              		.loc 2 126 42 view .LVU172
 1007 0002 9942     		cmp	r1, r3
ARM GAS  /var/folders/fb/yfxt3z4538j6z0vjt03w70vc0000gn/T//ccfQbMBb.s 			page 25


 1008 0004 08DA     		bge	.L75
 1009              	.LVL65:
 1010              	.LBB121:
 1011              	.LBI121:
  99:source/HvMessage.h ****   hv_assert(index < msg_getNumElements(m)); // invalid index
 1012              		.loc 2 99 27 is_stmt 1 view .LVU173
 1013              	.LBB122:
 100:source/HvMessage.h ****   return (&(m->elem)+index)->type;
 1014              		.loc 2 100 3 view .LVU174
 100:source/HvMessage.h ****   return (&(m->elem)+index)->type;
 1015              		.loc 2 100 3 is_stmt 0 view .LVU175
 1016              	.LBE122:
 1017              	.LBE121:
 1018              	.LBE118:
 1019              	.LBE117:
  91:source/HvMessage.h **** }
 1020              		.loc 2 91 3 is_stmt 1 view .LVU176
 1021              	.LBB126:
 1022              	.LBB125:
 1023              	.LBB124:
 1024              	.LBB123:
 101:source/HvMessage.h **** }
 1025              		.loc 2 101 3 view .LVU177
 101:source/HvMessage.h **** }
 1026              		.loc 2 101 30 is_stmt 0 view .LVU178
 1027 0006 00EBC100 		add	r0, r0, r1, lsl #3
 1028              	.LVL66:
 101:source/HvMessage.h **** }
 1029              		.loc 2 101 30 view .LVU179
 1030              	.LBE123:
 1031              	.LBE124:
 126:source/HvMessage.h **** }
 1032              		.loc 2 126 42 view .LVU180
 1033 000a 007A     		ldrb	r0, [r0, #8]	@ zero_extendqisi2
 1034 000c A0F10100 		sub	r0, #1
 1035 0010 B0FA80F0 		clz	r0, r0
 1036 0014 4009     		lsrs	r0, r0, #5
 1037 0016 7047     		bx	lr
 1038              	.LVL67:
 1039              	.L75:
 126:source/HvMessage.h **** }
 1040              		.loc 2 126 42 view .LVU181
 1041 0018 0020     		movs	r0, #0
 1042              	.LVL68:
 126:source/HvMessage.h **** }
 1043              		.loc 2 126 42 view .LVU182
 1044              	.LBE125:
 1045              	.LBE126:
  78:source/HvHeavy.cpp **** }
 1046              		.loc 3 78 1 view .LVU183
 1047 001a 7047     		bx	lr
 1048              		.cfi_endproc
 1049              	.LFE986:
 1051              		.section	.rodata.hv_msg_getFloat.str1.4,"aMS",%progbits,1
 1052              		.align	2
 1053              	.LC13:
 1054 0000 666C6F61 		.ascii	"float msg_getFloat(const HvMessage*, int)\000"
ARM GAS  /var/folders/fb/yfxt3z4538j6z0vjt03w70vc0000gn/T//ccfQbMBb.s 			page 26


 1054      74206D73 
 1054      675F6765 
 1054      74466C6F 
 1054      61742863 
 1055              		.section	.text.hv_msg_getFloat,"ax",%progbits
 1056              		.align	1
 1057              		.p2align 2,,3
 1058              		.global	hv_msg_getFloat
 1059              		.syntax unified
 1060              		.thumb
 1061              		.thumb_func
 1063              	hv_msg_getFloat:
 1064              	.LVL69:
 1065              	.LFB987:
  79:source/HvHeavy.cpp **** 
  80:source/HvHeavy.cpp **** HV_EXPORT float hv_msg_getFloat(const HvMessage *const m, int i) {
 1066              		.loc 3 80 66 is_stmt 1 view -0
 1067              		.cfi_startproc
 1068              		@ args = 0, pretend = 0, frame = 0
 1069              		@ frame_needed = 0, uses_anonymous_args = 0
  81:source/HvHeavy.cpp ****   return msg_getFloat(m,i);
 1070              		.loc 3 81 3 view .LVU185
 1071              	.LBB131:
 1072              	.LBI131:
 120:source/HvMessage.h ****   hv_assert(index < msg_getNumElements(m)); // invalid index
 1073              		.loc 2 120 21 view .LVU186
 1074              	.LBB132:
 121:source/HvMessage.h ****   return (&(m->elem)+index)->data.f;
 1075              		.loc 2 121 3 view .LVU187
 1076              	.LBB133:
 1077              	.LBI133:
  90:source/HvMessage.h ****   return (int) m->numElements;
 1078              		.loc 2 90 19 view .LVU188
 1079              	.LBB134:
  91:source/HvMessage.h **** }
 1080              		.loc 2 91 3 view .LVU189
  91:source/HvMessage.h **** }
 1081              		.loc 2 91 3 is_stmt 0 view .LVU190
 1082              	.LBE134:
 1083              	.LBE133:
 1084              	.LBE132:
 1085              	.LBE131:
  80:source/HvHeavy.cpp ****   return msg_getFloat(m,i);
 1086              		.loc 3 80 66 view .LVU191
 1087 0000 08B5     		push	{r3, lr}
 1088              		.cfi_def_cfa_offset 8
 1089              		.cfi_offset 3, -8
 1090              		.cfi_offset 14, -4
 1091              	.LBB139:
 1092              	.LBB137:
 1093              	.LBB136:
 1094              	.LBB135:
  91:source/HvMessage.h **** }
 1095              		.loc 2 91 19 view .LVU192
 1096 0002 8388     		ldrh	r3, [r0, #4]
 1097              	.LBE135:
 1098              	.LBE136:
ARM GAS  /var/folders/fb/yfxt3z4538j6z0vjt03w70vc0000gn/T//ccfQbMBb.s 			page 27


 121:source/HvMessage.h ****   return (&(m->elem)+index)->data.f;
 1099              		.loc 2 121 3 view .LVU193
 1100 0004 9942     		cmp	r1, r3
 1101 0006 04DA     		bge	.L79
 122:source/HvMessage.h **** }
 1102              		.loc 2 122 3 is_stmt 1 view .LVU194
 1103              	.LVL70:
 122:source/HvMessage.h **** }
 1104              		.loc 2 122 35 is_stmt 0 view .LVU195
 1105 0008 00EBC100 		add	r0, r0, r1, lsl #3
 1106              	.LVL71:
 122:source/HvMessage.h **** }
 1107              		.loc 2 122 35 view .LVU196
 1108              	.LBE137:
 1109              	.LBE139:
  82:source/HvHeavy.cpp **** }
 1110              		.loc 3 82 1 view .LVU197
 1111 000c 90ED030A 		vldr.32	s0, [r0, #12]
 1112 0010 08BD     		pop	{r3, pc}
 1113              	.LVL72:
 1114              	.L79:
 1115              	.LBB140:
 1116              	.LBB138:
 121:source/HvMessage.h ****   return (&(m->elem)+index)->data.f;
 1117              		.loc 2 121 3 view .LVU198
 1118 0012 034B     		ldr	r3, .L80
 1119 0014 7921     		movs	r1, #121
 1120              	.LVL73:
 121:source/HvMessage.h ****   return (&(m->elem)+index)->data.f;
 1121              		.loc 2 121 3 view .LVU199
 1122 0016 034A     		ldr	r2, .L80+4
 1123 0018 0348     		ldr	r0, .L80+8
 1124              	.LVL74:
 121:source/HvMessage.h ****   return (&(m->elem)+index)->data.f;
 1125              		.loc 2 121 3 view .LVU200
 1126 001a FFF7FEFF 		bl	__assert_func
 1127              	.LVL75:
 1128              	.L81:
 1129 001e 00BF     		.align	2
 1130              	.L80:
 1131 0020 00000000 		.word	.LC3
 1132 0024 00000000 		.word	.LC13
 1133 0028 30000000 		.word	.LC2
 1134              	.LBE138:
 1135              	.LBE140:
 1136              		.cfi_endproc
 1137              	.LFE987:
 1139              		.section	.text.hv_msg_setFloat,"ax",%progbits
 1140              		.align	1
 1141              		.p2align 2,,3
 1142              		.global	hv_msg_setFloat
 1143              		.syntax unified
 1144              		.thumb
 1145              		.thumb_func
 1147              	hv_msg_setFloat:
 1148              	.LVL76:
 1149              	.LFB988:
ARM GAS  /var/folders/fb/yfxt3z4538j6z0vjt03w70vc0000gn/T//ccfQbMBb.s 			page 28


  83:source/HvHeavy.cpp **** 
  84:source/HvHeavy.cpp **** HV_EXPORT void hv_msg_setFloat(HvMessage *m, int i, float f) {
 1150              		.loc 3 84 62 is_stmt 1 view -0
 1151              		.cfi_startproc
 1152              		@ args = 0, pretend = 0, frame = 0
 1153              		@ frame_needed = 0, uses_anonymous_args = 0
  85:source/HvHeavy.cpp ****   msg_setFloat(m,i,f);
 1154              		.loc 3 85 3 view .LVU202
 1155              	.LBB145:
 1156              	.LBI145:
 114:source/HvMessage.h ****   hv_assert(index < msg_getNumElements(m)); // invalid index
 1157              		.loc 2 114 20 view .LVU203
 1158              	.LBB146:
 115:source/HvMessage.h ****   (&(m->elem)+index)->type = HV_MSG_FLOAT;
 1159              		.loc 2 115 3 view .LVU204
 1160              	.LBB147:
 1161              	.LBI147:
  90:source/HvMessage.h ****   return (int) m->numElements;
 1162              		.loc 2 90 19 view .LVU205
 1163              	.LBB148:
  91:source/HvMessage.h **** }
 1164              		.loc 2 91 3 view .LVU206
  91:source/HvMessage.h **** }
 1165              		.loc 2 91 3 is_stmt 0 view .LVU207
 1166              	.LBE148:
 1167              	.LBE147:
 1168              	.LBE146:
 1169              	.LBE145:
  84:source/HvHeavy.cpp ****   msg_setFloat(m,i,f);
 1170              		.loc 3 84 62 view .LVU208
 1171 0000 08B5     		push	{r3, lr}
 1172              		.cfi_def_cfa_offset 8
 1173              		.cfi_offset 3, -8
 1174              		.cfi_offset 14, -4
 1175              	.LBB153:
 1176              	.LBB151:
 1177              	.LBB150:
 1178              	.LBB149:
  91:source/HvMessage.h **** }
 1179              		.loc 2 91 19 view .LVU209
 1180 0002 8388     		ldrh	r3, [r0, #4]
 1181              	.LBE149:
 1182              	.LBE150:
 115:source/HvMessage.h ****   (&(m->elem)+index)->type = HV_MSG_FLOAT;
 1183              		.loc 2 115 3 view .LVU210
 1184 0004 9942     		cmp	r1, r3
 1185 0006 08DA     		bge	.L85
 116:source/HvMessage.h ****   (&(m->elem)+index)->data.f = f;
 1186              		.loc 2 116 3 is_stmt 1 view .LVU211
 116:source/HvMessage.h ****   (&(m->elem)+index)->data.f = f;
 1187              		.loc 2 116 4 is_stmt 0 view .LVU212
 1188 0008 0830     		adds	r0, r0, #8
 1189              	.LVL77:
 116:source/HvMessage.h ****   (&(m->elem)+index)->data.f = f;
 1190              		.loc 2 116 28 view .LVU213
 1191 000a 0122     		movs	r2, #1
 116:source/HvMessage.h ****   (&(m->elem)+index)->data.f = f;
ARM GAS  /var/folders/fb/yfxt3z4538j6z0vjt03w70vc0000gn/T//ccfQbMBb.s 			page 29


 1192              		.loc 2 116 14 view .LVU214
 1193 000c 00EBC103 		add	r3, r0, r1, lsl #3
 116:source/HvMessage.h ****   (&(m->elem)+index)->data.f = f;
 1194              		.loc 2 116 28 view .LVU215
 1195 0010 00F83120 		strb	r2, [r0, r1, lsl #3]
 117:source/HvMessage.h **** }
 1196              		.loc 2 117 3 is_stmt 1 view .LVU216
 117:source/HvMessage.h **** }
 1197              		.loc 2 117 30 is_stmt 0 view .LVU217
 1198 0014 83ED010A 		vstr.32	s0, [r3, #4]
 1199              	.LVL78:
 117:source/HvMessage.h **** }
 1200              		.loc 2 117 30 view .LVU218
 1201              	.LBE151:
 1202              	.LBE153:
  86:source/HvHeavy.cpp **** }
 1203              		.loc 3 86 1 view .LVU219
 1204 0018 08BD     		pop	{r3, pc}
 1205              	.LVL79:
 1206              	.L85:
 1207              	.LBB154:
 1208              	.LBB152:
 1209              		.loc 3 86 1 view .LVU220
 1210 001a FFF7FEFF 		bl	msg_setFloat.part.0
 1211              	.LVL80:
 1212              		.loc 3 86 1 view .LVU221
 1213              	.LBE152:
 1214              	.LBE154:
 1215              		.cfi_endproc
 1216              	.LFE988:
 1218 001e 00BF     		.section	.text.hv_msg_isSymbol,"ax",%progbits
 1219              		.align	1
 1220              		.p2align 2,,3
 1221              		.global	hv_msg_isSymbol
 1222              		.syntax unified
 1223              		.thumb
 1224              		.thumb_func
 1226              	hv_msg_isSymbol:
 1227              	.LVL81:
 1228              	.LFB989:
  87:source/HvHeavy.cpp **** 
  88:source/HvHeavy.cpp **** HV_EXPORT bool hv_msg_isSymbol(const HvMessage *const m, int i) {
 1229              		.loc 3 88 65 is_stmt 1 view -0
 1230              		.cfi_startproc
 1231              		@ args = 0, pretend = 0, frame = 0
 1232              		@ frame_needed = 0, uses_anonymous_args = 0
 1233              		@ link register save eliminated.
  89:source/HvHeavy.cpp ****   return msg_isSymbol(m,i);
 1234              		.loc 3 89 3 view .LVU223
 1235              	.LBB155:
 1236              	.LBI155:
 150:source/HvMessage.h ****   (&(m->elem)+index)->type = HV_MSG_SYMBOL;
 151:source/HvMessage.h ****   (&(m->elem)+index)->data.s = s;
 152:source/HvMessage.h ****   // NOTE(mhroth): if the same message container is reused and string reset,
 153:source/HvMessage.h ****   // then the message size will be overcounted
 154:source/HvMessage.h ****   m->numBytes += (hv_uint16_t) (hv_strlen(s) + 1); // also count '\0'
 155:source/HvMessage.h **** }
ARM GAS  /var/folders/fb/yfxt3z4538j6z0vjt03w70vc0000gn/T//ccfQbMBb.s 			page 30


 156:source/HvMessage.h **** 
 157:source/HvMessage.h **** static inline const char *msg_getSymbol(const HvMessage *m, int index) {
 158:source/HvMessage.h ****   hv_assert(index < msg_getNumElements(m)); // invalid index
 159:source/HvMessage.h ****   return (&(m->elem)+index)->data.s;
 160:source/HvMessage.h **** }
 161:source/HvMessage.h **** 
 162:source/HvMessage.h **** static inline bool msg_isSymbol(const HvMessage *m, int index) {
 1237              		.loc 2 162 20 view .LVU224
 1238              	.LBB156:
 163:source/HvMessage.h ****   return (index < msg_getNumElements(m)) ? (msg_getType(m, index) == HV_MSG_SYMBOL) : false;
 1239              		.loc 2 163 3 view .LVU225
 1240              	.LBB157:
 1241              	.LBI157:
  90:source/HvMessage.h ****   return (int) m->numElements;
 1242              		.loc 2 90 19 view .LVU226
 1243              	.LBB158:
  91:source/HvMessage.h **** }
 1244              		.loc 2 91 3 view .LVU227
  91:source/HvMessage.h **** }
 1245              		.loc 2 91 19 is_stmt 0 view .LVU228
 1246 0000 8388     		ldrh	r3, [r0, #4]
 1247              	.LBE158:
 1248              	.LBE157:
 1249              		.loc 2 163 42 view .LVU229
 1250 0002 9942     		cmp	r1, r3
 1251 0004 08DA     		bge	.L88
 1252              	.LVL82:
 1253              	.LBB159:
 1254              	.LBI159:
  99:source/HvMessage.h ****   hv_assert(index < msg_getNumElements(m)); // invalid index
 1255              		.loc 2 99 27 is_stmt 1 view .LVU230
 1256              	.LBB160:
 100:source/HvMessage.h ****   return (&(m->elem)+index)->type;
 1257              		.loc 2 100 3 view .LVU231
 100:source/HvMessage.h ****   return (&(m->elem)+index)->type;
 1258              		.loc 2 100 3 is_stmt 0 view .LVU232
 1259              	.LBE160:
 1260              	.LBE159:
 1261              	.LBE156:
 1262              	.LBE155:
  91:source/HvMessage.h **** }
 1263              		.loc 2 91 3 is_stmt 1 view .LVU233
 1264              	.LBB164:
 1265              	.LBB163:
 1266              	.LBB162:
 1267              	.LBB161:
 101:source/HvMessage.h **** }
 1268              		.loc 2 101 3 view .LVU234
 101:source/HvMessage.h **** }
 1269              		.loc 2 101 30 is_stmt 0 view .LVU235
 1270 0006 00EBC100 		add	r0, r0, r1, lsl #3
 1271              	.LVL83:
 101:source/HvMessage.h **** }
 1272              		.loc 2 101 30 view .LVU236
 1273              	.LBE161:
 1274              	.LBE162:
 1275              		.loc 2 163 42 view .LVU237
ARM GAS  /var/folders/fb/yfxt3z4538j6z0vjt03w70vc0000gn/T//ccfQbMBb.s 			page 31


 1276 000a 007A     		ldrb	r0, [r0, #8]	@ zero_extendqisi2
 1277 000c A0F10200 		sub	r0, #2
 1278 0010 B0FA80F0 		clz	r0, r0
 1279 0014 4009     		lsrs	r0, r0, #5
 1280 0016 7047     		bx	lr
 1281              	.LVL84:
 1282              	.L88:
 1283              		.loc 2 163 42 view .LVU238
 1284 0018 0020     		movs	r0, #0
 1285              	.LVL85:
 1286              		.loc 2 163 42 view .LVU239
 1287              	.LBE163:
 1288              	.LBE164:
  90:source/HvHeavy.cpp **** }
 1289              		.loc 3 90 1 view .LVU240
 1290 001a 7047     		bx	lr
 1291              		.cfi_endproc
 1292              	.LFE989:
 1294              		.section	.rodata.hv_msg_getSymbol.str1.4,"aMS",%progbits,1
 1295              		.align	2
 1296              	.LC14:
 1297 0000 636F6E73 		.ascii	"const char* msg_getSymbol(const HvMessage*, int)\000"
 1297      74206368 
 1297      61722A20 
 1297      6D73675F 
 1297      67657453 
 1298              		.section	.text.hv_msg_getSymbol,"ax",%progbits
 1299              		.align	1
 1300              		.p2align 2,,3
 1301              		.global	hv_msg_getSymbol
 1302              		.syntax unified
 1303              		.thumb
 1304              		.thumb_func
 1306              	hv_msg_getSymbol:
 1307              	.LVL86:
 1308              	.LFB990:
  91:source/HvHeavy.cpp **** 
  92:source/HvHeavy.cpp **** HV_EXPORT const char *hv_msg_getSymbol(const HvMessage *const m, int i) {
 1309              		.loc 3 92 73 is_stmt 1 view -0
 1310              		.cfi_startproc
 1311              		@ args = 0, pretend = 0, frame = 0
 1312              		@ frame_needed = 0, uses_anonymous_args = 0
  93:source/HvHeavy.cpp ****   return msg_getSymbol(m,i);
 1313              		.loc 3 93 3 view .LVU242
 1314              	.LBB169:
 1315              	.LBI169:
 157:source/HvMessage.h ****   hv_assert(index < msg_getNumElements(m)); // invalid index
 1316              		.loc 2 157 27 view .LVU243
 1317              	.LBB170:
 158:source/HvMessage.h ****   return (&(m->elem)+index)->data.s;
 1318              		.loc 2 158 3 view .LVU244
 1319              	.LBB171:
 1320              	.LBI171:
  90:source/HvMessage.h ****   return (int) m->numElements;
 1321              		.loc 2 90 19 view .LVU245
 1322              	.LBB172:
  91:source/HvMessage.h **** }
ARM GAS  /var/folders/fb/yfxt3z4538j6z0vjt03w70vc0000gn/T//ccfQbMBb.s 			page 32


 1323              		.loc 2 91 3 view .LVU246
  91:source/HvMessage.h **** }
 1324              		.loc 2 91 3 is_stmt 0 view .LVU247
 1325              	.LBE172:
 1326              	.LBE171:
 1327              	.LBE170:
 1328              	.LBE169:
  92:source/HvHeavy.cpp ****   return msg_getSymbol(m,i);
 1329              		.loc 3 92 73 view .LVU248
 1330 0000 08B5     		push	{r3, lr}
 1331              		.cfi_def_cfa_offset 8
 1332              		.cfi_offset 3, -8
 1333              		.cfi_offset 14, -4
 1334              	.LBB177:
 1335              	.LBB175:
 1336              	.LBB174:
 1337              	.LBB173:
  91:source/HvMessage.h **** }
 1338              		.loc 2 91 19 view .LVU249
 1339 0002 8388     		ldrh	r3, [r0, #4]
 1340              	.LBE173:
 1341              	.LBE174:
 158:source/HvMessage.h ****   return (&(m->elem)+index)->data.s;
 1342              		.loc 2 158 3 view .LVU250
 1343 0004 9942     		cmp	r1, r3
 1344 0006 03DA     		bge	.L92
 159:source/HvMessage.h **** }
 1345              		.loc 2 159 3 is_stmt 1 view .LVU251
 1346              	.LVL87:
 159:source/HvMessage.h **** }
 1347              		.loc 2 159 35 is_stmt 0 view .LVU252
 1348 0008 00EBC100 		add	r0, r0, r1, lsl #3
 1349              	.LVL88:
 159:source/HvMessage.h **** }
 1350              		.loc 2 159 35 view .LVU253
 1351              	.LBE175:
 1352              	.LBE177:
  94:source/HvHeavy.cpp **** }
 1353              		.loc 3 94 1 view .LVU254
 1354 000c C068     		ldr	r0, [r0, #12]
 1355 000e 08BD     		pop	{r3, pc}
 1356              	.LVL89:
 1357              	.L92:
 1358              	.LBB178:
 1359              	.LBB176:
 158:source/HvMessage.h ****   return (&(m->elem)+index)->data.s;
 1360              		.loc 2 158 3 view .LVU255
 1361 0010 024B     		ldr	r3, .L93
 1362 0012 9E21     		movs	r1, #158
 1363              	.LVL90:
 158:source/HvMessage.h ****   return (&(m->elem)+index)->data.s;
 1364              		.loc 2 158 3 view .LVU256
 1365 0014 024A     		ldr	r2, .L93+4
 1366 0016 0348     		ldr	r0, .L93+8
 1367              	.LVL91:
 158:source/HvMessage.h ****   return (&(m->elem)+index)->data.s;
 1368              		.loc 2 158 3 view .LVU257
ARM GAS  /var/folders/fb/yfxt3z4538j6z0vjt03w70vc0000gn/T//ccfQbMBb.s 			page 33


 1369 0018 FFF7FEFF 		bl	__assert_func
 1370              	.LVL92:
 1371              	.L94:
 1372              		.align	2
 1373              	.L93:
 1374 001c 00000000 		.word	.LC3
 1375 0020 00000000 		.word	.LC14
 1376 0024 30000000 		.word	.LC2
 1377              	.LBE176:
 1378              	.LBE178:
 1379              		.cfi_endproc
 1380              	.LFE990:
 1382              		.section	.text.hv_msg_setSymbol,"ax",%progbits
 1383              		.align	1
 1384              		.p2align 2,,3
 1385              		.global	hv_msg_setSymbol
 1386              		.syntax unified
 1387              		.thumb
 1388              		.thumb_func
 1390              	hv_msg_setSymbol:
 1391              	.LVL93:
 1392              	.LFB991:
  95:source/HvHeavy.cpp **** 
  96:source/HvHeavy.cpp **** HV_EXPORT void hv_msg_setSymbol(HvMessage *m, int i, const char *s) {
 1393              		.loc 3 96 69 is_stmt 1 view -0
 1394              		.cfi_startproc
 1395              		@ args = 0, pretend = 0, frame = 0
 1396              		@ frame_needed = 0, uses_anonymous_args = 0
  97:source/HvHeavy.cpp ****   msg_setSymbol(m,i,s);
 1397              		.loc 3 97 3 view .LVU259
 1398              	.LBB183:
 1399              	.LBI183:
 147:source/HvMessage.h ****   hv_assert(index < msg_getNumElements(m)); // invalid index
 1400              		.loc 2 147 20 view .LVU260
 1401              	.LBB184:
 148:source/HvMessage.h ****   hv_assert(s != NULL);
 1402              		.loc 2 148 3 view .LVU261
 1403              	.LBB185:
 1404              	.LBI185:
  90:source/HvMessage.h ****   return (int) m->numElements;
 1405              		.loc 2 90 19 view .LVU262
 1406              	.LBB186:
  91:source/HvMessage.h **** }
 1407              		.loc 2 91 3 view .LVU263
  91:source/HvMessage.h **** }
 1408              		.loc 2 91 19 is_stmt 0 view .LVU264
 1409 0000 8388     		ldrh	r3, [r0, #4]
 1410              	.LBE186:
 1411              	.LBE185:
 148:source/HvMessage.h ****   hv_assert(s != NULL);
 1412              		.loc 2 148 3 view .LVU265
 1413 0002 9942     		cmp	r1, r3
 1414              	.LBE184:
 1415              	.LBE183:
  96:source/HvHeavy.cpp ****   msg_setSymbol(m,i,s);
 1416              		.loc 3 96 69 view .LVU266
 1417 0004 10B5     		push	{r4, lr}
ARM GAS  /var/folders/fb/yfxt3z4538j6z0vjt03w70vc0000gn/T//ccfQbMBb.s 			page 34


 1418              		.cfi_def_cfa_offset 8
 1419              		.cfi_offset 4, -8
 1420              		.cfi_offset 14, -4
 1421              	.LBB189:
 1422              	.LBB187:
 148:source/HvMessage.h ****   hv_assert(s != NULL);
 1423              		.loc 2 148 3 view .LVU267
 1424 0006 12DA     		bge	.L99
 149:source/HvMessage.h ****   (&(m->elem)+index)->type = HV_MSG_SYMBOL;
 1425              		.loc 2 149 3 is_stmt 1 view .LVU268
 1426 0008 BAB1     		cbz	r2, .L100
 150:source/HvMessage.h ****   (&(m->elem)+index)->data.s = s;
 1427              		.loc 2 150 3 view .LVU269
 150:source/HvMessage.h ****   (&(m->elem)+index)->data.s = s;
 1428              		.loc 2 150 4 is_stmt 0 view .LVU270
 1429 000a 00F10803 		add	r3, r0, #8
 1430 000e 0446     		mov	r4, r0
 150:source/HvMessage.h ****   (&(m->elem)+index)->data.s = s;
 1431              		.loc 2 150 28 view .LVU271
 1432 0010 0220     		movs	r0, #2
 1433              	.LVL94:
 150:source/HvMessage.h ****   (&(m->elem)+index)->data.s = s;
 1434              		.loc 2 150 14 view .LVU272
 1435 0012 03EBC10C 		add	ip, r3, r1, lsl #3
 150:source/HvMessage.h ****   (&(m->elem)+index)->data.s = s;
 1436              		.loc 2 150 28 view .LVU273
 1437 0016 03F83100 		strb	r0, [r3, r1, lsl #3]
 151:source/HvMessage.h ****   // NOTE(mhroth): if the same message container is reused and string reset,
 1438              		.loc 2 151 3 is_stmt 1 view .LVU274
 154:source/HvMessage.h **** }
 1439              		.loc 2 154 33 is_stmt 0 view .LVU275
 1440 001a 1046     		mov	r0, r2
 151:source/HvMessage.h ****   // NOTE(mhroth): if the same message container is reused and string reset,
 1441              		.loc 2 151 30 view .LVU276
 1442 001c CCF80420 		str	r2, [ip, #4]
 154:source/HvMessage.h **** }
 1443              		.loc 2 154 3 is_stmt 1 view .LVU277
 154:source/HvMessage.h **** }
 1444              		.loc 2 154 33 is_stmt 0 view .LVU278
 1445 0020 FFF7FEFF 		bl	strlen
 1446              	.LVL95:
 154:source/HvMessage.h **** }
 1447              		.loc 2 154 15 view .LVU279
 1448 0024 E388     		ldrh	r3, [r4, #6]
 1449 0026 0133     		adds	r3, r3, #1
 1450 0028 1844     		add	r0, r0, r3
 1451 002a E080     		strh	r0, [r4, #6]	@ movhi
 1452              	.LVL96:
 154:source/HvMessage.h **** }
 1453              		.loc 2 154 15 view .LVU280
 1454              	.LBE187:
 1455              	.LBE189:
  98:source/HvHeavy.cpp **** }
 1456              		.loc 3 98 1 view .LVU281
 1457 002c 10BD     		pop	{r4, pc}
 1458              	.LVL97:
 1459              	.L99:
ARM GAS  /var/folders/fb/yfxt3z4538j6z0vjt03w70vc0000gn/T//ccfQbMBb.s 			page 35


 1460              	.LBB190:
 1461              	.LBB188:
 148:source/HvMessage.h ****   hv_assert(s != NULL);
 1462              		.loc 2 148 3 view .LVU282
 1463 002e 044B     		ldr	r3, .L101
 1464 0030 9421     		movs	r1, #148
 1465              	.LVL98:
 148:source/HvMessage.h ****   hv_assert(s != NULL);
 1466              		.loc 2 148 3 view .LVU283
 1467 0032 044A     		ldr	r2, .L101+4
 1468              	.LVL99:
 148:source/HvMessage.h ****   hv_assert(s != NULL);
 1469              		.loc 2 148 3 view .LVU284
 1470 0034 0448     		ldr	r0, .L101+8
 1471              	.LVL100:
 148:source/HvMessage.h ****   hv_assert(s != NULL);
 1472              		.loc 2 148 3 view .LVU285
 1473 0036 FFF7FEFF 		bl	__assert_func
 1474              	.LVL101:
 1475              	.L100:
 148:source/HvMessage.h ****   hv_assert(s != NULL);
 1476              		.loc 2 148 3 view .LVU286
 1477 003a FFF7FEFF 		bl	msg_setSymbol.part.0
 1478              	.LVL102:
 1479              	.L102:
 148:source/HvMessage.h ****   hv_assert(s != NULL);
 1480              		.loc 2 148 3 view .LVU287
 1481 003e 00BF     		.align	2
 1482              	.L101:
 1483 0040 00000000 		.word	.LC3
 1484 0044 0C000000 		.word	.LC7
 1485 0048 30000000 		.word	.LC2
 1486              	.LBE188:
 1487              	.LBE190:
 1488              		.cfi_endproc
 1489              	.LFE991:
 1491              		.section	.text.hv_msg_isHash,"ax",%progbits
 1492              		.align	1
 1493              		.p2align 2,,3
 1494              		.global	hv_msg_isHash
 1495              		.syntax unified
 1496              		.thumb
 1497              		.thumb_func
 1499              	hv_msg_isHash:
 1500              	.LVL103:
 1501              	.LFB992:
  99:source/HvHeavy.cpp **** 
 100:source/HvHeavy.cpp **** HV_EXPORT bool hv_msg_isHash(const HvMessage *const m, int i) {
 1502              		.loc 3 100 63 is_stmt 1 view -0
 1503              		.cfi_startproc
 1504              		@ args = 0, pretend = 0, frame = 0
 1505              		@ frame_needed = 0, uses_anonymous_args = 0
 1506              		@ link register save eliminated.
 101:source/HvHeavy.cpp ****   return msg_isHash(m, i);
 1507              		.loc 3 101 3 view .LVU289
 1508              	.LBB191:
 1509              	.LBI191:
ARM GAS  /var/folders/fb/yfxt3z4538j6z0vjt03w70vc0000gn/T//ccfQbMBb.s 			page 36


 135:source/HvMessage.h ****   return (index < msg_getNumElements(m)) ? (msg_getType(m, index) == HV_MSG_HASH) : false;
 1510              		.loc 2 135 20 view .LVU290
 1511              	.LBB192:
 136:source/HvMessage.h **** }
 1512              		.loc 2 136 3 view .LVU291
 1513              	.LBB193:
 1514              	.LBI193:
  90:source/HvMessage.h ****   return (int) m->numElements;
 1515              		.loc 2 90 19 view .LVU292
 1516              	.LBB194:
  91:source/HvMessage.h **** }
 1517              		.loc 2 91 3 view .LVU293
  91:source/HvMessage.h **** }
 1518              		.loc 2 91 19 is_stmt 0 view .LVU294
 1519 0000 8388     		ldrh	r3, [r0, #4]
 1520              	.LBE194:
 1521              	.LBE193:
 136:source/HvMessage.h **** }
 1522              		.loc 2 136 42 view .LVU295
 1523 0002 9942     		cmp	r1, r3
 1524 0004 08DA     		bge	.L105
 1525              	.LVL104:
 1526              	.LBB195:
 1527              	.LBI195:
  99:source/HvMessage.h ****   hv_assert(index < msg_getNumElements(m)); // invalid index
 1528              		.loc 2 99 27 is_stmt 1 view .LVU296
 1529              	.LBB196:
 100:source/HvMessage.h ****   return (&(m->elem)+index)->type;
 1530              		.loc 2 100 3 view .LVU297
 100:source/HvMessage.h ****   return (&(m->elem)+index)->type;
 1531              		.loc 2 100 3 is_stmt 0 view .LVU298
 1532              	.LBE196:
 1533              	.LBE195:
 1534              	.LBE192:
 1535              	.LBE191:
  91:source/HvMessage.h **** }
 1536              		.loc 2 91 3 is_stmt 1 view .LVU299
 1537              	.LBB200:
 1538              	.LBB199:
 1539              	.LBB198:
 1540              	.LBB197:
 101:source/HvMessage.h **** }
 1541              		.loc 2 101 3 view .LVU300
 101:source/HvMessage.h **** }
 1542              		.loc 2 101 30 is_stmt 0 view .LVU301
 1543 0006 00EBC100 		add	r0, r0, r1, lsl #3
 1544              	.LVL105:
 101:source/HvMessage.h **** }
 1545              		.loc 2 101 30 view .LVU302
 1546              	.LBE197:
 1547              	.LBE198:
 136:source/HvMessage.h **** }
 1548              		.loc 2 136 42 view .LVU303
 1549 000a 007A     		ldrb	r0, [r0, #8]	@ zero_extendqisi2
 1550 000c A0F10300 		sub	r0, #3
 1551 0010 B0FA80F0 		clz	r0, r0
 1552 0014 4009     		lsrs	r0, r0, #5
ARM GAS  /var/folders/fb/yfxt3z4538j6z0vjt03w70vc0000gn/T//ccfQbMBb.s 			page 37


 1553 0016 7047     		bx	lr
 1554              	.LVL106:
 1555              	.L105:
 136:source/HvMessage.h **** }
 1556              		.loc 2 136 42 view .LVU304
 1557 0018 0020     		movs	r0, #0
 1558              	.LVL107:
 136:source/HvMessage.h **** }
 1559              		.loc 2 136 42 view .LVU305
 1560              	.LBE199:
 1561              	.LBE200:
 102:source/HvHeavy.cpp **** }
 1562              		.loc 3 102 1 view .LVU306
 1563 001a 7047     		bx	lr
 1564              		.cfi_endproc
 1565              	.LFE992:
 1567              		.section	.text.hv_msg_getHash,"ax",%progbits
 1568              		.align	1
 1569              		.p2align 2,,3
 1570              		.global	hv_msg_getHash
 1571              		.syntax unified
 1572              		.thumb
 1573              		.thumb_func
 1575              	hv_msg_getHash:
 1576              	.LVL108:
 1577              	.LFB993:
 103:source/HvHeavy.cpp **** 
 104:source/HvHeavy.cpp **** HV_EXPORT hv_uint32_t hv_msg_getHash(const HvMessage *const m, int i) {
 1578              		.loc 3 104 71 is_stmt 1 view -0
 1579              		.cfi_startproc
 1580              		@ args = 0, pretend = 0, frame = 0
 1581              		@ frame_needed = 0, uses_anonymous_args = 0
 1582              		@ link register save eliminated.
 105:source/HvHeavy.cpp ****   return msg_getHash(m, i);
 1583              		.loc 3 105 3 view .LVU308
 1584              		.loc 3 105 21 is_stmt 0 view .LVU309
 1585 0000 FFF7FEBF 		b	msg_getHash
 1586              	.LVL109:
 1587              		.loc 3 105 21 view .LVU310
 1588              		.cfi_endproc
 1589              	.LFE993:
 1591              		.section	.text.hv_msg_hasFormat,"ax",%progbits
 1592              		.align	1
 1593              		.p2align 2,,3
 1594              		.global	hv_msg_hasFormat
 1595              		.syntax unified
 1596              		.thumb
 1597              		.thumb_func
 1599              	hv_msg_hasFormat:
 1600              	.LVL110:
 1601              	.LFB994:
 106:source/HvHeavy.cpp **** }
 107:source/HvHeavy.cpp **** 
 108:source/HvHeavy.cpp **** HV_EXPORT bool hv_msg_hasFormat(const HvMessage *const m, const char *fmt) {
 1602              		.loc 3 108 76 is_stmt 1 view -0
 1603              		.cfi_startproc
 1604              		@ args = 0, pretend = 0, frame = 0
ARM GAS  /var/folders/fb/yfxt3z4538j6z0vjt03w70vc0000gn/T//ccfQbMBb.s 			page 38


 1605              		@ frame_needed = 0, uses_anonymous_args = 0
 1606              		@ link register save eliminated.
 109:source/HvHeavy.cpp ****   return msg_hasFormat(m, fmt);
 1607              		.loc 3 109 3 view .LVU312
 1608              		.loc 3 109 23 is_stmt 0 view .LVU313
 1609 0000 FFF7FEBF 		b	msg_hasFormat
 1610              	.LVL111:
 1611              		.loc 3 109 23 view .LVU314
 1612              		.cfi_endproc
 1613              	.LFE994:
 1615              		.section	.text.hv_msg_toString,"ax",%progbits
 1616              		.align	1
 1617              		.p2align 2,,3
 1618              		.global	hv_msg_toString
 1619              		.syntax unified
 1620              		.thumb
 1621              		.thumb_func
 1623              	hv_msg_toString:
 1624              	.LVL112:
 1625              	.LFB995:
 110:source/HvHeavy.cpp **** }
 111:source/HvHeavy.cpp **** 
 112:source/HvHeavy.cpp **** HV_EXPORT char *hv_msg_toString(const HvMessage *const m) {
 1626              		.loc 3 112 59 is_stmt 1 view -0
 1627              		.cfi_startproc
 1628              		@ args = 0, pretend = 0, frame = 0
 1629              		@ frame_needed = 0, uses_anonymous_args = 0
 1630              		@ link register save eliminated.
 113:source/HvHeavy.cpp ****   return msg_toString(m);
 1631              		.loc 3 113 3 view .LVU316
 1632              		.loc 3 113 22 is_stmt 0 view .LVU317
 1633 0000 FFF7FEBF 		b	msg_toString
 1634              	.LVL113:
 1635              		.loc 3 113 22 view .LVU318
 1636              		.cfi_endproc
 1637              	.LFE995:
 1639              		.section	.text.hv_msg_copy,"ax",%progbits
 1640              		.align	1
 1641              		.p2align 2,,3
 1642              		.global	hv_msg_copy
 1643              		.syntax unified
 1644              		.thumb
 1645              		.thumb_func
 1647              	hv_msg_copy:
 1648              	.LVL114:
 1649              	.LFB996:
 114:source/HvHeavy.cpp **** }
 115:source/HvHeavy.cpp **** 
 116:source/HvHeavy.cpp **** HV_EXPORT HvMessage *hv_msg_copy(const HvMessage *const m) {
 1650              		.loc 3 116 60 is_stmt 1 view -0
 1651              		.cfi_startproc
 1652              		@ args = 0, pretend = 0, frame = 0
 1653              		@ frame_needed = 0, uses_anonymous_args = 0
 1654              		@ link register save eliminated.
 117:source/HvHeavy.cpp ****   return msg_copy(m);
 1655              		.loc 3 117 3 view .LVU320
 1656              		.loc 3 117 18 is_stmt 0 view .LVU321
ARM GAS  /var/folders/fb/yfxt3z4538j6z0vjt03w70vc0000gn/T//ccfQbMBb.s 			page 39


 1657 0000 FFF7FEBF 		b	msg_copy
 1658              	.LVL115:
 1659              		.loc 3 117 18 view .LVU322
 1660              		.cfi_endproc
 1661              	.LFE996:
 1663              		.section	.text.hv_msg_free,"ax",%progbits
 1664              		.align	1
 1665              		.p2align 2,,3
 1666              		.global	hv_msg_free
 1667              		.syntax unified
 1668              		.thumb
 1669              		.thumb_func
 1671              	hv_msg_free:
 1672              	.LVL116:
 1673              	.LFB997:
 118:source/HvHeavy.cpp **** }
 119:source/HvHeavy.cpp **** 
 120:source/HvHeavy.cpp **** HV_EXPORT void hv_msg_free(HvMessage *m) {
 1674              		.loc 3 120 42 is_stmt 1 view -0
 1675              		.cfi_startproc
 1676              		@ args = 0, pretend = 0, frame = 0
 1677              		@ frame_needed = 0, uses_anonymous_args = 0
 1678              		@ link register save eliminated.
 121:source/HvHeavy.cpp ****   msg_free(m);
 1679              		.loc 3 121 3 view .LVU324
 1680              		.loc 3 121 11 is_stmt 0 view .LVU325
 1681 0000 FFF7FEBF 		b	msg_free
 1682              	.LVL117:
 1683              		.loc 3 121 11 view .LVU326
 1684              		.cfi_endproc
 1685              	.LFE997:
 1687              		.section	.rodata.hv_getSize.str1.4,"aMS",%progbits,1
 1688              		.align	2
 1689              	.LC15:
 1690 0000 696E7420 		.ascii	"int hv_getSize(HeavyContextInterface*)\000"
 1690      68765F67 
 1690      65745369 
 1690      7A652848 
 1690      65617679 
 1691              		.section	.text.hv_getSize,"ax",%progbits
 1692              		.align	1
 1693              		.p2align 2,,3
 1694              		.global	hv_getSize
 1695              		.syntax unified
 1696              		.thumb
 1697              		.thumb_func
 1699              	hv_getSize:
 1700              	.LVL118:
 1701              	.LFB998:
 122:source/HvHeavy.cpp **** }
 123:source/HvHeavy.cpp **** 
 124:source/HvHeavy.cpp **** 
 125:source/HvHeavy.cpp **** 
 126:source/HvHeavy.cpp **** #if !HV_WIN
 127:source/HvHeavy.cpp **** #pragma mark - Heavy Common
 128:source/HvHeavy.cpp **** #endif
 129:source/HvHeavy.cpp **** 
ARM GAS  /var/folders/fb/yfxt3z4538j6z0vjt03w70vc0000gn/T//ccfQbMBb.s 			page 40


 130:source/HvHeavy.cpp **** HV_EXPORT int hv_getSize(HeavyContextInterface *c) {
 1702              		.loc 3 130 52 is_stmt 1 view -0
 1703              		.cfi_startproc
 1704              		@ args = 0, pretend = 0, frame = 0
 1705              		@ frame_needed = 0, uses_anonymous_args = 0
 131:source/HvHeavy.cpp ****   hv_assert(c != nullptr);
 1706              		.loc 3 131 3 view .LVU328
 1707 0000 38B1     		cbz	r0, .L120
 132:source/HvHeavy.cpp ****   return (int) c->getSize();
 1708              		.loc 3 132 3 view .LVU329
 1709              		.loc 3 132 27 is_stmt 0 view .LVU330
 1710 0002 0268     		ldr	r2, [r0]
 1711 0004 0649     		ldr	r1, .L122
 1712 0006 5269     		ldr	r2, [r2, #20]
 1713 0008 8A42     		cmp	r2, r1
 1714 000a 01D1     		bne	.L121
 1715              	.LVL119:
 1716              	.LBB203:
 1717              	.LBI203:
  33:source/HeavyContext.hpp **** 
 1718              		.loc 1 33 7 is_stmt 1 view .LVU331
 1719              	.LBB204:
  33:source/HeavyContext.hpp **** 
 1720              		.loc 1 33 28 view .LVU332
  33:source/HeavyContext.hpp **** 
 1721              		.loc 1 33 41 is_stmt 0 view .LVU333
 1722 000c 4069     		ldr	r0, [r0, #20]
 1723              	.LVL120:
  33:source/HeavyContext.hpp **** 
 1724              		.loc 1 33 41 view .LVU334
 1725              	.LBE204:
 1726              	.LBE203:
 133:source/HvHeavy.cpp **** }
 1727              		.loc 3 133 1 view .LVU335
 1728 000e 7047     		bx	lr
 1729              	.LVL121:
 1730              	.L121:
 132:source/HvHeavy.cpp ****   return (int) c->getSize();
 1731              		.loc 3 132 26 view .LVU336
 1732 0010 1047     		bx	r2
 1733              	.LVL122:
 1734              	.L120:
 131:source/HvHeavy.cpp ****   return (int) c->getSize();
 1735              		.loc 3 131 3 discriminator 1 view .LVU337
 1736 0012 044B     		ldr	r3, .L122+4
 1737 0014 8321     		movs	r1, #131
 1738 0016 044A     		ldr	r2, .L122+8
 1739 0018 0448     		ldr	r0, .L122+12
 1740              	.LVL123:
 130:source/HvHeavy.cpp ****   hv_assert(c != nullptr);
 1741              		.loc 3 130 52 discriminator 1 view .LVU338
 1742 001a 10B5     		push	{r4, lr}
 1743              		.cfi_def_cfa_offset 8
 1744              		.cfi_offset 4, -8
 1745              		.cfi_offset 14, -4
 131:source/HvHeavy.cpp ****   return (int) c->getSize();
 1746              		.loc 3 131 3 discriminator 1 view .LVU339
ARM GAS  /var/folders/fb/yfxt3z4538j6z0vjt03w70vc0000gn/T//ccfQbMBb.s 			page 41


 1747 001c FFF7FEFF 		bl	__assert_func
 1748              	.LVL124:
 1749              	.L123:
 1750              		.align	2
 1751              	.L122:
 1752 0020 00000000 		.word	_ZN12HeavyContext7getSizeEv
 1753 0024 00000000 		.word	.LC8
 1754 0028 00000000 		.word	.LC15
 1755 002c 54000000 		.word	.LC10
 1756              		.cfi_endproc
 1757              	.LFE998:
 1759              		.section	.rodata.hv_getSampleRate.str1.4,"aMS",%progbits,1
 1760              		.align	2
 1761              	.LC16:
 1762 0000 646F7562 		.ascii	"double hv_getSampleRate(HeavyContextInterface*)\000"
 1762      6C652068 
 1762      765F6765 
 1762      7453616D 
 1762      706C6552 
 1763              		.section	.text.hv_getSampleRate,"ax",%progbits
 1764              		.align	1
 1765              		.p2align 2,,3
 1766              		.global	hv_getSampleRate
 1767              		.syntax unified
 1768              		.thumb
 1769              		.thumb_func
 1771              	hv_getSampleRate:
 1772              	.LVL125:
 1773              	.LFB999:
 134:source/HvHeavy.cpp **** 
 135:source/HvHeavy.cpp **** HV_EXPORT double hv_getSampleRate(HeavyContextInterface *c) {
 1774              		.loc 3 135 61 is_stmt 1 view -0
 1775              		.cfi_startproc
 1776              		@ args = 0, pretend = 0, frame = 0
 1777              		@ frame_needed = 0, uses_anonymous_args = 0
 136:source/HvHeavy.cpp ****   hv_assert(c != nullptr);
 1778              		.loc 3 136 3 view .LVU341
 1779 0000 40B1     		cbz	r0, .L133
 137:source/HvHeavy.cpp ****   return c->getSampleRate();
 1780              		.loc 3 137 3 view .LVU342
 1781              		.loc 3 137 27 is_stmt 0 view .LVU343
 1782 0002 0268     		ldr	r2, [r0]
 1783 0004 0749     		ldr	r1, .L135
 1784 0006 9269     		ldr	r2, [r2, #24]
 1785 0008 8A42     		cmp	r2, r1
 1786 000a 02D1     		bne	.L134
 1787              	.LVL126:
 1788              	.LBB207:
 1789              	.LBI207:
  35:source/HeavyContext.hpp **** 
 1790              		.loc 1 35 10 is_stmt 1 view .LVU344
 1791              	.LBB208:
  35:source/HeavyContext.hpp **** 
 1792              		.loc 1 35 37 view .LVU345
  35:source/HeavyContext.hpp **** 
 1793              		.loc 1 35 44 is_stmt 0 view .LVU346
 1794 000c 90ED020B 		vldr.64	d0, [r0, #8]
ARM GAS  /var/folders/fb/yfxt3z4538j6z0vjt03w70vc0000gn/T//ccfQbMBb.s 			page 42


 1795              	.LVL127:
  35:source/HeavyContext.hpp **** 
 1796              		.loc 1 35 44 view .LVU347
 1797              	.LBE208:
 1798              	.LBE207:
 138:source/HvHeavy.cpp **** }
 1799              		.loc 3 138 1 view .LVU348
 1800 0010 7047     		bx	lr
 1801              	.L134:
 137:source/HvHeavy.cpp ****   return c->getSampleRate();
 1802              		.loc 3 137 26 view .LVU349
 1803 0012 1047     		bx	r2
 1804              	.LVL128:
 1805              	.L133:
 136:source/HvHeavy.cpp ****   return c->getSampleRate();
 1806              		.loc 3 136 3 discriminator 1 view .LVU350
 1807 0014 044B     		ldr	r3, .L135+4
 1808 0016 8821     		movs	r1, #136
 1809 0018 044A     		ldr	r2, .L135+8
 1810 001a 0548     		ldr	r0, .L135+12
 1811              	.LVL129:
 135:source/HvHeavy.cpp ****   hv_assert(c != nullptr);
 1812              		.loc 3 135 61 discriminator 1 view .LVU351
 1813 001c 10B5     		push	{r4, lr}
 1814              		.cfi_def_cfa_offset 8
 1815              		.cfi_offset 4, -8
 1816              		.cfi_offset 14, -4
 136:source/HvHeavy.cpp ****   return c->getSampleRate();
 1817              		.loc 3 136 3 discriminator 1 view .LVU352
 1818 001e FFF7FEFF 		bl	__assert_func
 1819              	.LVL130:
 1820              	.L136:
 1821 0022 00BF     		.align	2
 1822              	.L135:
 1823 0024 00000000 		.word	_ZN12HeavyContext13getSampleRateEv
 1824 0028 00000000 		.word	.LC8
 1825 002c 00000000 		.word	.LC16
 1826 0030 54000000 		.word	.LC10
 1827              		.cfi_endproc
 1828              	.LFE999:
 1830              		.section	.rodata.hv_getNumInputChannels.str1.4,"aMS",%progbits,1
 1831              		.align	2
 1832              	.LC17:
 1833 0000 696E7420 		.ascii	"int hv_getNumInputChannels(HeavyContextInterface*)\000"
 1833      68765F67 
 1833      65744E75 
 1833      6D496E70 
 1833      75744368 
 1834              		.section	.text.hv_getNumInputChannels,"ax",%progbits
 1835              		.align	1
 1836              		.p2align 2,,3
 1837              		.global	hv_getNumInputChannels
 1838              		.syntax unified
 1839              		.thumb
 1840              		.thumb_func
 1842              	hv_getNumInputChannels:
 1843              	.LVL131:
ARM GAS  /var/folders/fb/yfxt3z4538j6z0vjt03w70vc0000gn/T//ccfQbMBb.s 			page 43


 1844              	.LFB1000:
 139:source/HvHeavy.cpp **** 
 140:source/HvHeavy.cpp **** HV_EXPORT int hv_getNumInputChannels(HeavyContextInterface *c) {
 1845              		.loc 3 140 64 is_stmt 1 view -0
 1846              		.cfi_startproc
 1847              		@ args = 0, pretend = 0, frame = 0
 1848              		@ frame_needed = 0, uses_anonymous_args = 0
 141:source/HvHeavy.cpp ****   hv_assert(c != nullptr);
 1849              		.loc 3 141 3 view .LVU354
 1850 0000 10B1     		cbz	r0, .L142
 142:source/HvHeavy.cpp ****   return c->getNumInputChannels();
 1851              		.loc 3 142 3 view .LVU355
 1852              		.loc 3 142 33 is_stmt 0 view .LVU356
 1853 0002 0368     		ldr	r3, [r0]
 1854              		.loc 3 142 32 view .LVU357
 1855 0004 DB68     		ldr	r3, [r3, #12]
 1856 0006 1847     		bx	r3
 1857              	.LVL132:
 1858              	.L142:
 141:source/HvHeavy.cpp ****   hv_assert(c != nullptr);
 1859              		.loc 3 141 3 discriminator 1 view .LVU358
 1860 0008 034B     		ldr	r3, .L143
 1861 000a 8D21     		movs	r1, #141
 1862 000c 034A     		ldr	r2, .L143+4
 1863 000e 0448     		ldr	r0, .L143+8
 1864              	.LVL133:
 140:source/HvHeavy.cpp ****   hv_assert(c != nullptr);
 1865              		.loc 3 140 64 discriminator 1 view .LVU359
 1866 0010 10B5     		push	{r4, lr}
 1867              		.cfi_def_cfa_offset 8
 1868              		.cfi_offset 4, -8
 1869              		.cfi_offset 14, -4
 141:source/HvHeavy.cpp ****   hv_assert(c != nullptr);
 1870              		.loc 3 141 3 discriminator 1 view .LVU360
 1871 0012 FFF7FEFF 		bl	__assert_func
 1872              	.LVL134:
 1873              	.L144:
 1874 0016 00BF     		.align	2
 1875              	.L143:
 1876 0018 00000000 		.word	.LC8
 1877 001c 00000000 		.word	.LC17
 1878 0020 54000000 		.word	.LC10
 1879              		.cfi_endproc
 1880              	.LFE1000:
 1882              		.section	.rodata.hv_getNumOutputChannels.str1.4,"aMS",%progbits,1
 1883              		.align	2
 1884              	.LC18:
 1885 0000 696E7420 		.ascii	"int hv_getNumOutputChannels(HeavyContextInterface*)"
 1885      68765F67 
 1885      65744E75 
 1885      6D4F7574 
 1885      70757443 
 1886 0033 00       		.ascii	"\000"
 1887              		.section	.text.hv_getNumOutputChannels,"ax",%progbits
 1888              		.align	1
 1889              		.p2align 2,,3
 1890              		.global	hv_getNumOutputChannels
ARM GAS  /var/folders/fb/yfxt3z4538j6z0vjt03w70vc0000gn/T//ccfQbMBb.s 			page 44


 1891              		.syntax unified
 1892              		.thumb
 1893              		.thumb_func
 1895              	hv_getNumOutputChannels:
 1896              	.LVL135:
 1897              	.LFB1001:
 143:source/HvHeavy.cpp **** }
 144:source/HvHeavy.cpp **** 
 145:source/HvHeavy.cpp **** HV_EXPORT int hv_getNumOutputChannels(HeavyContextInterface *c) {
 1898              		.loc 3 145 65 is_stmt 1 view -0
 1899              		.cfi_startproc
 1900              		@ args = 0, pretend = 0, frame = 0
 1901              		@ frame_needed = 0, uses_anonymous_args = 0
 146:source/HvHeavy.cpp ****   hv_assert(c != nullptr);
 1902              		.loc 3 146 3 view .LVU362
 1903 0000 10B1     		cbz	r0, .L150
 147:source/HvHeavy.cpp ****   return c->getNumOutputChannels();
 1904              		.loc 3 147 3 view .LVU363
 1905              		.loc 3 147 34 is_stmt 0 view .LVU364
 1906 0002 0368     		ldr	r3, [r0]
 1907              		.loc 3 147 33 view .LVU365
 1908 0004 1B69     		ldr	r3, [r3, #16]
 1909 0006 1847     		bx	r3
 1910              	.LVL136:
 1911              	.L150:
 146:source/HvHeavy.cpp ****   hv_assert(c != nullptr);
 1912              		.loc 3 146 3 discriminator 1 view .LVU366
 1913 0008 034B     		ldr	r3, .L151
 1914 000a 9221     		movs	r1, #146
 1915 000c 034A     		ldr	r2, .L151+4
 1916 000e 0448     		ldr	r0, .L151+8
 1917              	.LVL137:
 145:source/HvHeavy.cpp ****   hv_assert(c != nullptr);
 1918              		.loc 3 145 65 discriminator 1 view .LVU367
 1919 0010 10B5     		push	{r4, lr}
 1920              		.cfi_def_cfa_offset 8
 1921              		.cfi_offset 4, -8
 1922              		.cfi_offset 14, -4
 146:source/HvHeavy.cpp ****   hv_assert(c != nullptr);
 1923              		.loc 3 146 3 discriminator 1 view .LVU368
 1924 0012 FFF7FEFF 		bl	__assert_func
 1925              	.LVL138:
 1926              	.L152:
 1927 0016 00BF     		.align	2
 1928              	.L151:
 1929 0018 00000000 		.word	.LC8
 1930 001c 00000000 		.word	.LC18
 1931 0020 54000000 		.word	.LC10
 1932              		.cfi_endproc
 1933              	.LFE1001:
 1935              		.section	.rodata.hv_setPrintHook.str1.4,"aMS",%progbits,1
 1936              		.align	2
 1937              	.LC19:
 1938 0000 766F6964 		.ascii	"void hv_setPrintHook(HeavyContextInterface*, void ("
 1938      2068765F 
 1938      73657450 
 1938      72696E74 
ARM GAS  /var/folders/fb/yfxt3z4538j6z0vjt03w70vc0000gn/T//ccfQbMBb.s 			page 45


 1938      486F6F6B 
 1939 0033 2A292848 		.ascii	"*)(HeavyContextInterface*, const char*, const char*"
 1939      65617679 
 1939      436F6E74 
 1939      65787449 
 1939      6E746572 
 1940 0066 2C20636F 		.ascii	", const HvMessage*))\000"
 1940      6E737420 
 1940      48764D65 
 1940      73736167 
 1940      652A2929 
 1941              		.section	.text.hv_setPrintHook,"ax",%progbits
 1942              		.align	1
 1943              		.p2align 2,,3
 1944              		.global	hv_setPrintHook
 1945              		.syntax unified
 1946              		.thumb
 1947              		.thumb_func
 1949              	hv_setPrintHook:
 1950              	.LVL139:
 1951              	.LFB1002:
 148:source/HvHeavy.cpp **** }
 149:source/HvHeavy.cpp **** 
 150:source/HvHeavy.cpp **** HV_EXPORT void hv_setPrintHook(HeavyContextInterface *c, HvPrintHook_t *f) {
 1952              		.loc 3 150 76 is_stmt 1 view -0
 1953              		.cfi_startproc
 1954              		@ args = 0, pretend = 0, frame = 0
 1955              		@ frame_needed = 0, uses_anonymous_args = 0
 151:source/HvHeavy.cpp ****   hv_assert(c != nullptr);
 1956              		.loc 3 151 3 view .LVU370
 150:source/HvHeavy.cpp ****   hv_assert(c != nullptr);
 1957              		.loc 3 150 76 is_stmt 0 view .LVU371
 1958 0000 70B5     		push	{r4, r5, r6, lr}
 1959              		.cfi_def_cfa_offset 16
 1960              		.cfi_offset 4, -16
 1961              		.cfi_offset 5, -12
 1962              		.cfi_offset 6, -8
 1963              		.cfi_offset 14, -4
 1964              		.loc 3 151 3 view .LVU372
 1965 0002 50B1     		cbz	r0, .L159
 152:source/HvHeavy.cpp ****   c->setPrintHook(f);
 1966              		.loc 3 152 3 is_stmt 1 view .LVU373
 1967              		.loc 3 152 20 is_stmt 0 view .LVU374
 1968 0004 0468     		ldr	r4, [r0]
 1969 0006 084D     		ldr	r5, .L160
 1970 0008 A46B     		ldr	r4, [r4, #56]
 1971 000a AC42     		cmp	r4, r5
 1972 000c 01D1     		bne	.L155
 1973              	.LVL140:
 1974              	.LBB211:
 1975              	.LBI211:
  48:source/HeavyContext.hpp ****   HvPrintHook_t *getPrintHook() override { return printHook; }
 1976              		.loc 1 48 8 is_stmt 1 view .LVU375
 1977              	.LBB212:
  48:source/HeavyContext.hpp ****   HvPrintHook_t *getPrintHook() override { return printHook; }
 1978              		.loc 1 48 50 view .LVU376
  48:source/HeavyContext.hpp ****   HvPrintHook_t *getPrintHook() override { return printHook; }
ARM GAS  /var/folders/fb/yfxt3z4538j6z0vjt03w70vc0000gn/T//ccfQbMBb.s 			page 46


 1979              		.loc 1 48 60 is_stmt 0 view .LVU377
 1980 000e 4165     		str	r1, [r0, #84]
 1981              	.LBE212:
 1982              	.LBE211:
 153:source/HvHeavy.cpp **** }
 1983              		.loc 3 153 1 view .LVU378
 1984 0010 70BD     		pop	{r4, r5, r6, pc}
 1985              	.LVL141:
 1986              	.L155:
 152:source/HvHeavy.cpp ****   c->setPrintHook(f);
 1987              		.loc 3 152 18 view .LVU379
 1988 0012 2346     		mov	r3, r4
 1989              		.loc 3 153 1 view .LVU380
 1990 0014 BDE87040 		pop	{r4, r5, r6, lr}
 1991              		.cfi_remember_state
 1992              		.cfi_restore 14
 1993              		.cfi_restore 6
 1994              		.cfi_restore 5
 1995              		.cfi_restore 4
 1996              		.cfi_def_cfa_offset 0
 152:source/HvHeavy.cpp ****   c->setPrintHook(f);
 1997              		.loc 3 152 18 view .LVU381
 1998 0018 1847     		bx	r3	@ indirect register sibling call
 1999              	.LVL142:
 2000              	.L159:
 2001              		.cfi_restore_state
 151:source/HvHeavy.cpp ****   c->setPrintHook(f);
 2002              		.loc 3 151 3 discriminator 1 view .LVU382
 2003 001a 044B     		ldr	r3, .L160+4
 2004 001c 9721     		movs	r1, #151
 2005              	.LVL143:
 151:source/HvHeavy.cpp ****   c->setPrintHook(f);
 2006              		.loc 3 151 3 discriminator 1 view .LVU383
 2007 001e 044A     		ldr	r2, .L160+8
 2008 0020 0448     		ldr	r0, .L160+12
 2009              	.LVL144:
 151:source/HvHeavy.cpp ****   c->setPrintHook(f);
 2010              		.loc 3 151 3 discriminator 1 view .LVU384
 2011 0022 FFF7FEFF 		bl	__assert_func
 2012              	.LVL145:
 2013              	.L161:
 2014 0026 00BF     		.align	2
 2015              	.L160:
 2016 0028 00000000 		.word	_ZN12HeavyContext12setPrintHookEPFvP21HeavyContextInterfacePKcS3_PK9HvMessageE
 2017 002c 00000000 		.word	.LC8
 2018 0030 00000000 		.word	.LC19
 2019 0034 54000000 		.word	.LC10
 2020              		.cfi_endproc
 2021              	.LFE1002:
 2023              		.section	.rodata.hv_getPrintHook.str1.4,"aMS",%progbits,1
 2024              		.align	2
 2025              	.LC20:
 2026 0000 766F6964 		.ascii	"void (* hv_getPrintHook(HeavyContextInterface*))(He"
 2026      20282A20 
 2026      68765F67 
 2026      65745072 
 2026      696E7448 
ARM GAS  /var/folders/fb/yfxt3z4538j6z0vjt03w70vc0000gn/T//ccfQbMBb.s 			page 47


 2027 0033 61767943 		.ascii	"avyContextInterface*, const char*, const char*, con"
 2027      6F6E7465 
 2027      7874496E 
 2027      74657266 
 2027      6163652A 
 2028 0066 73742048 		.ascii	"st HvMessage*)\000"
 2028      764D6573 
 2028      73616765 
 2028      2A2900
 2029              		.section	.text.hv_getPrintHook,"ax",%progbits
 2030              		.align	1
 2031              		.p2align 2,,3
 2032              		.global	hv_getPrintHook
 2033              		.syntax unified
 2034              		.thumb
 2035              		.thumb_func
 2037              	hv_getPrintHook:
 2038              	.LVL146:
 2039              	.LFB1003:
 154:source/HvHeavy.cpp **** 
 155:source/HvHeavy.cpp **** HV_EXPORT HvPrintHook_t *hv_getPrintHook(HeavyContextInterface *c) {
 2040              		.loc 3 155 68 is_stmt 1 view -0
 2041              		.cfi_startproc
 2042              		@ args = 0, pretend = 0, frame = 0
 2043              		@ frame_needed = 0, uses_anonymous_args = 0
 156:source/HvHeavy.cpp ****   hv_assert(c != nullptr);
 2044              		.loc 3 156 3 view .LVU386
 2045 0000 38B1     		cbz	r0, .L171
 157:source/HvHeavy.cpp ****   return c->getPrintHook();
 2046              		.loc 3 157 3 view .LVU387
 2047              		.loc 3 157 26 is_stmt 0 view .LVU388
 2048 0002 0268     		ldr	r2, [r0]
 2049 0004 0649     		ldr	r1, .L173
 2050 0006 D26B     		ldr	r2, [r2, #60]
 2051 0008 8A42     		cmp	r2, r1
 2052 000a 01D1     		bne	.L172
 2053              	.LVL147:
 2054              	.LBB215:
 2055              	.LBI215:
 2056              		.loc 1 49 18 is_stmt 1 view .LVU389
 2057              	.LBB216:
 2058              		.loc 1 49 44 view .LVU390
 2059              		.loc 1 49 51 is_stmt 0 view .LVU391
 2060 000c 406D     		ldr	r0, [r0, #84]
 2061              	.LVL148:
 2062              		.loc 1 49 51 view .LVU392
 2063              	.LBE216:
 2064              	.LBE215:
 158:source/HvHeavy.cpp **** }
 2065              		.loc 3 158 1 view .LVU393
 2066 000e 7047     		bx	lr
 2067              	.LVL149:
 2068              	.L172:
 157:source/HvHeavy.cpp ****   return c->getPrintHook();
 2069              		.loc 3 157 25 view .LVU394
 2070 0010 1047     		bx	r2
 2071              	.LVL150:
ARM GAS  /var/folders/fb/yfxt3z4538j6z0vjt03w70vc0000gn/T//ccfQbMBb.s 			page 48


 2072              	.L171:
 156:source/HvHeavy.cpp ****   hv_assert(c != nullptr);
 2073              		.loc 3 156 3 discriminator 1 view .LVU395
 2074 0012 044B     		ldr	r3, .L173+4
 2075 0014 9C21     		movs	r1, #156
 2076 0016 044A     		ldr	r2, .L173+8
 2077 0018 0448     		ldr	r0, .L173+12
 2078              	.LVL151:
 155:source/HvHeavy.cpp ****   hv_assert(c != nullptr);
 2079              		.loc 3 155 68 discriminator 1 view .LVU396
 2080 001a 10B5     		push	{r4, lr}
 2081              		.cfi_def_cfa_offset 8
 2082              		.cfi_offset 4, -8
 2083              		.cfi_offset 14, -4
 156:source/HvHeavy.cpp ****   return c->getPrintHook();
 2084              		.loc 3 156 3 discriminator 1 view .LVU397
 2085 001c FFF7FEFF 		bl	__assert_func
 2086              	.LVL152:
 2087              	.L174:
 2088              		.align	2
 2089              	.L173:
 2090 0020 00000000 		.word	_ZN12HeavyContext12getPrintHookEv
 2091 0024 00000000 		.word	.LC8
 2092 0028 00000000 		.word	.LC20
 2093 002c 54000000 		.word	.LC10
 2094              		.cfi_endproc
 2095              	.LFE1003:
 2097              		.section	.rodata.hv_setSendHook.str1.4,"aMS",%progbits,1
 2098              		.align	2
 2099              	.LC21:
 2100 0000 766F6964 		.ascii	"void hv_setSendHook(HeavyContextInterface*, void (*"
 2100      2068765F 
 2100      73657453 
 2100      656E6448 
 2100      6F6F6B28 
 2101 0033 29284865 		.ascii	")(HeavyContextInterface*, const char*, uint32_t, co"
 2101      61767943 
 2101      6F6E7465 
 2101      7874496E 
 2101      74657266 
 2102 0066 6E737420 		.ascii	"nst HvMessage*))\000"
 2102      48764D65 
 2102      73736167 
 2102      652A2929 
 2102      00
 2103              		.section	.text.hv_setSendHook,"ax",%progbits
 2104              		.align	1
 2105              		.p2align 2,,3
 2106              		.global	hv_setSendHook
 2107              		.syntax unified
 2108              		.thumb
 2109              		.thumb_func
 2111              	hv_setSendHook:
 2112              	.LVL153:
 2113              	.LFB1004:
 159:source/HvHeavy.cpp **** 
 160:source/HvHeavy.cpp **** HV_EXPORT void hv_setSendHook(HeavyContextInterface *c, HvSendHook_t *f) {
ARM GAS  /var/folders/fb/yfxt3z4538j6z0vjt03w70vc0000gn/T//ccfQbMBb.s 			page 49


 2114              		.loc 3 160 74 is_stmt 1 view -0
 2115              		.cfi_startproc
 2116              		@ args = 0, pretend = 0, frame = 0
 2117              		@ frame_needed = 0, uses_anonymous_args = 0
 161:source/HvHeavy.cpp ****   hv_assert(c != nullptr);
 2118              		.loc 3 161 3 view .LVU399
 160:source/HvHeavy.cpp ****   hv_assert(c != nullptr);
 2119              		.loc 3 160 74 is_stmt 0 view .LVU400
 2120 0000 70B5     		push	{r4, r5, r6, lr}
 2121              		.cfi_def_cfa_offset 16
 2122              		.cfi_offset 4, -16
 2123              		.cfi_offset 5, -12
 2124              		.cfi_offset 6, -8
 2125              		.cfi_offset 14, -4
 2126              		.loc 3 161 3 view .LVU401
 2127 0002 50B1     		cbz	r0, .L181
 162:source/HvHeavy.cpp ****   c->setSendHook(f);
 2128              		.loc 3 162 3 is_stmt 1 view .LVU402
 2129              		.loc 3 162 19 is_stmt 0 view .LVU403
 2130 0004 0468     		ldr	r4, [r0]
 2131 0006 084D     		ldr	r5, .L182
 2132 0008 246B     		ldr	r4, [r4, #48]
 2133 000a AC42     		cmp	r4, r5
 2134 000c 01D1     		bne	.L177
 2135              	.LVL154:
 2136              	.LBB219:
 2137              	.LBI219:
  45:source/HeavyContext.hpp ****   HvSendHook_t *getSendHook() override { return sendHook; }
 2138              		.loc 1 45 8 is_stmt 1 view .LVU404
 2139              	.LBB220:
  45:source/HeavyContext.hpp ****   HvSendHook_t *getSendHook() override { return sendHook; }
 2140              		.loc 1 45 48 view .LVU405
  45:source/HeavyContext.hpp ****   HvSendHook_t *getSendHook() override { return sendHook; }
 2141              		.loc 1 45 57 is_stmt 0 view .LVU406
 2142 000e 0165     		str	r1, [r0, #80]
 2143              	.LBE220:
 2144              	.LBE219:
 163:source/HvHeavy.cpp **** }
 2145              		.loc 3 163 1 view .LVU407
 2146 0010 70BD     		pop	{r4, r5, r6, pc}
 2147              	.LVL155:
 2148              	.L177:
 162:source/HvHeavy.cpp ****   c->setSendHook(f);
 2149              		.loc 3 162 17 view .LVU408
 2150 0012 2346     		mov	r3, r4
 2151              		.loc 3 163 1 view .LVU409
 2152 0014 BDE87040 		pop	{r4, r5, r6, lr}
 2153              		.cfi_remember_state
 2154              		.cfi_restore 14
 2155              		.cfi_restore 6
 2156              		.cfi_restore 5
 2157              		.cfi_restore 4
 2158              		.cfi_def_cfa_offset 0
 162:source/HvHeavy.cpp ****   c->setSendHook(f);
 2159              		.loc 3 162 17 view .LVU410
 2160 0018 1847     		bx	r3	@ indirect register sibling call
 2161              	.LVL156:
ARM GAS  /var/folders/fb/yfxt3z4538j6z0vjt03w70vc0000gn/T//ccfQbMBb.s 			page 50


 2162              	.L181:
 2163              		.cfi_restore_state
 161:source/HvHeavy.cpp ****   c->setSendHook(f);
 2164              		.loc 3 161 3 discriminator 1 view .LVU411
 2165 001a 044B     		ldr	r3, .L182+4
 2166 001c A121     		movs	r1, #161
 2167              	.LVL157:
 161:source/HvHeavy.cpp ****   c->setSendHook(f);
 2168              		.loc 3 161 3 discriminator 1 view .LVU412
 2169 001e 044A     		ldr	r2, .L182+8
 2170 0020 0448     		ldr	r0, .L182+12
 2171              	.LVL158:
 161:source/HvHeavy.cpp ****   c->setSendHook(f);
 2172              		.loc 3 161 3 discriminator 1 view .LVU413
 2173 0022 FFF7FEFF 		bl	__assert_func
 2174              	.LVL159:
 2175              	.L183:
 2176 0026 00BF     		.align	2
 2177              	.L182:
 2178 0028 00000000 		.word	_ZN12HeavyContext11setSendHookEPFvP21HeavyContextInterfacePKcmPK9HvMessageE
 2179 002c 00000000 		.word	.LC8
 2180 0030 00000000 		.word	.LC21
 2181 0034 54000000 		.word	.LC10
 2182              		.cfi_endproc
 2183              	.LFE1004:
 2185              		.section	.text.hv_stringToHash,"ax",%progbits
 2186              		.align	1
 2187              		.p2align 2,,3
 2188              		.global	hv_stringToHash
 2189              		.syntax unified
 2190              		.thumb
 2191              		.thumb_func
 2193              	hv_stringToHash:
 2194              	.LVL160:
 2195              	.LFB1005:
 164:source/HvHeavy.cpp **** 
 165:source/HvHeavy.cpp **** HV_EXPORT hv_uint32_t hv_stringToHash(const char *s) {
 2196              		.loc 3 165 54 is_stmt 1 view -0
 2197              		.cfi_startproc
 2198              		@ args = 0, pretend = 0, frame = 0
 2199              		@ frame_needed = 0, uses_anonymous_args = 0
 2200              		@ link register save eliminated.
 166:source/HvHeavy.cpp ****   return hv_string_to_hash(s);
 2201              		.loc 3 166 3 view .LVU415
 2202              		.loc 3 166 27 is_stmt 0 view .LVU416
 2203 0000 FFF7FEBF 		b	hv_string_to_hash
 2204              	.LVL161:
 2205              		.loc 3 166 27 view .LVU417
 2206              		.cfi_endproc
 2207              	.LFE1005:
 2209              		.section	.rodata.hv_sendBangToReceiver.str1.4,"aMS",%progbits,1
 2210              		.align	2
 2211              	.LC22:
 2212 0000 626F6F6C 		.ascii	"bool hv_sendBangToReceiver(HeavyContextInterface*, "
 2212      2068765F 
 2212      73656E64 
 2212      42616E67 
ARM GAS  /var/folders/fb/yfxt3z4538j6z0vjt03w70vc0000gn/T//ccfQbMBb.s 			page 51


 2212      546F5265 
 2213 0033 75696E74 		.ascii	"uint32_t)\000"
 2213      33325F74 
 2213      2900
 2214              		.section	.text.hv_sendBangToReceiver,"ax",%progbits
 2215              		.align	1
 2216              		.p2align 2,,3
 2217              		.global	hv_sendBangToReceiver
 2218              		.syntax unified
 2219              		.thumb
 2220              		.thumb_func
 2222              	hv_sendBangToReceiver:
 2223              	.LVL162:
 2224              	.LFB1006:
 167:source/HvHeavy.cpp **** }
 168:source/HvHeavy.cpp **** 
 169:source/HvHeavy.cpp **** HV_EXPORT bool hv_sendBangToReceiver(HeavyContextInterface *c, hv_uint32_t receiverHash) {
 2225              		.loc 3 169 90 is_stmt 1 view -0
 2226              		.cfi_startproc
 2227              		@ args = 0, pretend = 0, frame = 0
 2228              		@ frame_needed = 0, uses_anonymous_args = 0
 170:source/HvHeavy.cpp ****   hv_assert(c != nullptr);
 2229              		.loc 3 170 3 view .LVU419
 2230 0000 10B1     		cbz	r0, .L190
 171:source/HvHeavy.cpp ****   return c->sendBangToReceiver(receiverHash);
 2231              		.loc 3 171 3 view .LVU420
 2232              		.loc 3 171 44 is_stmt 0 view .LVU421
 2233 0002 0368     		ldr	r3, [r0]
 2234              		.loc 3 171 31 view .LVU422
 2235 0004 9B6D     		ldr	r3, [r3, #88]
 2236 0006 1847     		bx	r3
 2237              	.LVL163:
 2238              	.L190:
 170:source/HvHeavy.cpp ****   hv_assert(c != nullptr);
 2239              		.loc 3 170 3 discriminator 1 view .LVU423
 2240 0008 034B     		ldr	r3, .L191
 2241 000a AA21     		movs	r1, #170
 2242              	.LVL164:
 170:source/HvHeavy.cpp ****   hv_assert(c != nullptr);
 2243              		.loc 3 170 3 discriminator 1 view .LVU424
 2244 000c 034A     		ldr	r2, .L191+4
 2245 000e 0448     		ldr	r0, .L191+8
 2246              	.LVL165:
 169:source/HvHeavy.cpp ****   hv_assert(c != nullptr);
 2247              		.loc 3 169 90 discriminator 1 view .LVU425
 2248 0010 10B5     		push	{r4, lr}
 2249              		.cfi_def_cfa_offset 8
 2250              		.cfi_offset 4, -8
 2251              		.cfi_offset 14, -4
 170:source/HvHeavy.cpp ****   hv_assert(c != nullptr);
 2252              		.loc 3 170 3 discriminator 1 view .LVU426
 2253 0012 FFF7FEFF 		bl	__assert_func
 2254              	.LVL166:
 2255              	.L192:
 2256 0016 00BF     		.align	2
 2257              	.L191:
 2258 0018 00000000 		.word	.LC8
ARM GAS  /var/folders/fb/yfxt3z4538j6z0vjt03w70vc0000gn/T//ccfQbMBb.s 			page 52


 2259 001c 00000000 		.word	.LC22
 2260 0020 54000000 		.word	.LC10
 2261              		.cfi_endproc
 2262              	.LFE1006:
 2264              		.section	.rodata.hv_sendFloatToReceiver.str1.4,"aMS",%progbits,1
 2265              		.align	2
 2266              	.LC23:
 2267 0000 626F6F6C 		.ascii	"bool hv_sendFloatToReceiver(HeavyContextInterface*,"
 2267      2068765F 
 2267      73656E64 
 2267      466C6F61 
 2267      74546F52 
 2268 0033 2075696E 		.ascii	" uint32_t, float)\000"
 2268      7433325F 
 2268      742C2066 
 2268      6C6F6174 
 2268      2900
 2269              		.section	.text.hv_sendFloatToReceiver,"ax",%progbits
 2270              		.align	1
 2271              		.p2align 2,,3
 2272              		.global	hv_sendFloatToReceiver
 2273              		.syntax unified
 2274              		.thumb
 2275              		.thumb_func
 2277              	hv_sendFloatToReceiver:
 2278              	.LVL167:
 2279              	.LFB1007:
 172:source/HvHeavy.cpp **** }
 173:source/HvHeavy.cpp **** 
 174:source/HvHeavy.cpp **** HV_EXPORT bool hv_sendFloatToReceiver(HeavyContextInterface *c, hv_uint32_t receiverHash, float x) 
 2280              		.loc 3 174 100 is_stmt 1 view -0
 2281              		.cfi_startproc
 2282              		@ args = 0, pretend = 0, frame = 0
 2283              		@ frame_needed = 0, uses_anonymous_args = 0
 175:source/HvHeavy.cpp ****   hv_assert(c != nullptr);
 2284              		.loc 3 175 3 view .LVU428
 2285 0000 10B1     		cbz	r0, .L198
 176:source/HvHeavy.cpp ****   return c->sendFloatToReceiver(receiverHash, x);
 2286              		.loc 3 176 3 view .LVU429
 2287              		.loc 3 176 48 is_stmt 0 view .LVU430
 2288 0002 0368     		ldr	r3, [r0]
 2289              		.loc 3 176 32 view .LVU431
 2290 0004 5B6D     		ldr	r3, [r3, #84]
 2291 0006 1847     		bx	r3
 2292              	.LVL168:
 2293              	.L198:
 175:source/HvHeavy.cpp ****   hv_assert(c != nullptr);
 2294              		.loc 3 175 3 discriminator 1 view .LVU432
 2295 0008 034B     		ldr	r3, .L199
 2296 000a AF21     		movs	r1, #175
 2297              	.LVL169:
 175:source/HvHeavy.cpp ****   hv_assert(c != nullptr);
 2298              		.loc 3 175 3 discriminator 1 view .LVU433
 2299 000c 034A     		ldr	r2, .L199+4
 2300 000e 0448     		ldr	r0, .L199+8
 2301              	.LVL170:
 174:source/HvHeavy.cpp ****   hv_assert(c != nullptr);
ARM GAS  /var/folders/fb/yfxt3z4538j6z0vjt03w70vc0000gn/T//ccfQbMBb.s 			page 53


 2302              		.loc 3 174 100 discriminator 1 view .LVU434
 2303 0010 10B5     		push	{r4, lr}
 2304              		.cfi_def_cfa_offset 8
 2305              		.cfi_offset 4, -8
 2306              		.cfi_offset 14, -4
 175:source/HvHeavy.cpp ****   hv_assert(c != nullptr);
 2307              		.loc 3 175 3 discriminator 1 view .LVU435
 2308 0012 FFF7FEFF 		bl	__assert_func
 2309              	.LVL171:
 2310              	.L200:
 175:source/HvHeavy.cpp ****   hv_assert(c != nullptr);
 2311              		.loc 3 175 3 discriminator 1 view .LVU436
 2312 0016 00BF     		.align	2
 2313              	.L199:
 2314 0018 00000000 		.word	.LC8
 2315 001c 00000000 		.word	.LC23
 2316 0020 54000000 		.word	.LC10
 2317              		.cfi_endproc
 2318              	.LFE1007:
 2320              		.section	.rodata.hv_sendSymbolToReceiver.str1.4,"aMS",%progbits,1
 2321              		.align	2
 2322              	.LC24:
 2323 0000 626F6F6C 		.ascii	"bool hv_sendSymbolToReceiver(HeavyContextInterface*"
 2323      2068765F 
 2323      73656E64 
 2323      53796D62 
 2323      6F6C546F 
 2324 0033 2C207569 		.ascii	", uint32_t, char*)\000"
 2324      6E743332 
 2324      5F742C20 
 2324      63686172 
 2324      2A2900
 2325              		.section	.text.hv_sendSymbolToReceiver,"ax",%progbits
 2326              		.align	1
 2327              		.p2align 2,,3
 2328              		.global	hv_sendSymbolToReceiver
 2329              		.syntax unified
 2330              		.thumb
 2331              		.thumb_func
 2333              	hv_sendSymbolToReceiver:
 2334              	.LVL172:
 2335              	.LFB1008:
 177:source/HvHeavy.cpp **** }
 178:source/HvHeavy.cpp **** 
 179:source/HvHeavy.cpp **** HV_EXPORT bool hv_sendSymbolToReceiver(HeavyContextInterface *c, hv_uint32_t receiverHash, char *s)
 2336              		.loc 3 179 101 is_stmt 1 view -0
 2337              		.cfi_startproc
 2338              		@ args = 0, pretend = 0, frame = 0
 2339              		@ frame_needed = 0, uses_anonymous_args = 0
 180:source/HvHeavy.cpp ****   hv_assert(c != nullptr);
 2340              		.loc 3 180 3 view .LVU438
 2341 0000 10B1     		cbz	r0, .L206
 181:source/HvHeavy.cpp ****   return c->sendSymbolToReceiver(receiverHash, s);
 2342              		.loc 3 181 3 view .LVU439
 2343              		.loc 3 181 49 is_stmt 0 view .LVU440
 2344 0002 0368     		ldr	r3, [r0]
 2345              		.loc 3 181 33 view .LVU441
ARM GAS  /var/folders/fb/yfxt3z4538j6z0vjt03w70vc0000gn/T//ccfQbMBb.s 			page 54


 2346 0004 DB6D     		ldr	r3, [r3, #92]
 2347 0006 1847     		bx	r3
 2348              	.LVL173:
 2349              	.L206:
 180:source/HvHeavy.cpp ****   hv_assert(c != nullptr);
 2350              		.loc 3 180 3 discriminator 1 view .LVU442
 2351 0008 034B     		ldr	r3, .L207
 2352 000a B421     		movs	r1, #180
 2353              	.LVL174:
 180:source/HvHeavy.cpp ****   hv_assert(c != nullptr);
 2354              		.loc 3 180 3 discriminator 1 view .LVU443
 2355 000c 034A     		ldr	r2, .L207+4
 2356              	.LVL175:
 180:source/HvHeavy.cpp ****   hv_assert(c != nullptr);
 2357              		.loc 3 180 3 discriminator 1 view .LVU444
 2358 000e 0448     		ldr	r0, .L207+8
 2359              	.LVL176:
 179:source/HvHeavy.cpp ****   hv_assert(c != nullptr);
 2360              		.loc 3 179 101 discriminator 1 view .LVU445
 2361 0010 10B5     		push	{r4, lr}
 2362              		.cfi_def_cfa_offset 8
 2363              		.cfi_offset 4, -8
 2364              		.cfi_offset 14, -4
 180:source/HvHeavy.cpp ****   hv_assert(c != nullptr);
 2365              		.loc 3 180 3 discriminator 1 view .LVU446
 2366 0012 FFF7FEFF 		bl	__assert_func
 2367              	.LVL177:
 2368              	.L208:
 2369 0016 00BF     		.align	2
 2370              	.L207:
 2371 0018 00000000 		.word	.LC8
 2372 001c 00000000 		.word	.LC24
 2373 0020 54000000 		.word	.LC10
 2374              		.cfi_endproc
 2375              	.LFE1008:
 2377              		.section	.rodata.hv_sendMessageToReceiverV.str1.4,"aMS",%progbits,1
 2378              		.align	2
 2379              	.LC25:
 2380 0000 626F6F6C 		.ascii	"bool hv_sendMessageToReceiverV(HeavyContextInterfac"
 2380      2068765F 
 2380      73656E64 
 2380      4D657373 
 2380      61676554 
 2381 0033 652A2C20 		.ascii	"e*, uint32_t, double, const char*, ...)\000"
 2381      75696E74 
 2381      33325F74 
 2381      2C20646F 
 2381      75626C65 
 2382 005b 00       		.align	2
 2383              	.LC26:
 2384 005c 64656C61 		.ascii	"delayMs >= 0.0\000"
 2384      794D7320 
 2384      3E3D2030 
 2384      2E3000
 2385 006b 00       		.align	2
 2386              	.LC27:
 2387 006c 666F726D 		.ascii	"format != nullptr\000"
ARM GAS  /var/folders/fb/yfxt3z4538j6z0vjt03w70vc0000gn/T//ccfQbMBb.s 			page 55


 2387      61742021 
 2387      3D206E75 
 2387      6C6C7074 
 2387      7200
 2388 007e 0000     		.align	2
 2389              	.LC28:
 2390 0080 766F6964 		.ascii	"void msg_setHash(HvMessage*, int, uint32_t)\000"
 2390      206D7367 
 2390      5F736574 
 2390      48617368 
 2390      2848764D 
 2391              		.section	.text.hv_sendMessageToReceiverV,"ax",%progbits
 2392              		.align	1
 2393              		.p2align 2,,3
 2394              		.global	hv_sendMessageToReceiverV
 2395              		.syntax unified
 2396              		.thumb
 2397              		.thumb_func
 2399              	hv_sendMessageToReceiverV:
 2400              	.LVL178:
 2401              	.LFB1009:
 182:source/HvHeavy.cpp **** }
 183:source/HvHeavy.cpp **** 
 184:source/HvHeavy.cpp **** HV_EXPORT bool hv_sendMessageToReceiverV(
 185:source/HvHeavy.cpp ****     HeavyContextInterface *c, hv_uint32_t receiverHash, double delayMs, const char *format, ...) {
 2402              		.loc 3 185 98 is_stmt 1 view -0
 2403              		.cfi_startproc
 2404              		@ args = 4, pretend = 0, frame = 16
 2405              		@ frame_needed = 1, uses_anonymous_args = 1
 186:source/HvHeavy.cpp ****   hv_assert(c != nullptr);
 2406              		.loc 3 186 3 view .LVU448
 185:source/HvHeavy.cpp ****   hv_assert(c != nullptr);
 2407              		.loc 3 185 98 is_stmt 0 view .LVU449
 2408 0000 2DE9F04F 		push	{r4, r5, r6, r7, r8, r9, r10, fp, lr}
 2409              		.cfi_def_cfa_offset 36
 2410              		.cfi_offset 4, -36
 2411              		.cfi_offset 5, -32
 2412              		.cfi_offset 6, -28
 2413              		.cfi_offset 7, -24
 2414              		.cfi_offset 8, -20
 2415              		.cfi_offset 9, -16
 2416              		.cfi_offset 10, -12
 2417              		.cfi_offset 11, -8
 2418              		.cfi_offset 14, -4
 2419 0004 2DED048B 		vpush.64	{d8, d9}
 2420              		.cfi_def_cfa_offset 52
 2421              		.cfi_offset 80, -52
 2422              		.cfi_offset 81, -48
 2423              		.cfi_offset 82, -44
 2424              		.cfi_offset 83, -40
 2425 0008 85B0     		sub	sp, sp, #20
 2426              		.cfi_def_cfa_offset 72
 2427 000a 00AF     		add	r7, sp, #0
 2428              		.cfi_def_cfa_register 7
 185:source/HvHeavy.cpp ****   hv_assert(c != nullptr);
 2429              		.loc 3 185 98 view .LVU450
 2430 000c BE6C     		ldr	r6, [r7, #72]
ARM GAS  /var/folders/fb/yfxt3z4538j6z0vjt03w70vc0000gn/T//ccfQbMBb.s 			page 56


 2431              		.loc 3 186 3 view .LVU451
 2432 000e 0028     		cmp	r0, #0
 2433 0010 00F0DB80 		beq	.L232
 2434 0014 43EC182B 		vmov	d8, r2, r3
 187:source/HvHeavy.cpp ****   hv_assert(delayMs >= 0.0);
 2435              		.loc 3 187 3 is_stmt 1 view .LVU452
 2436 0018 B5EEC08B 		vcmpe.f64	d8, #0
 2437 001c F1EE10FA 		vmrs	APSR_nzcv, FPSCR
 2438 0020 C0F2CD80 		blt	.L233
 188:source/HvHeavy.cpp ****   hv_assert(format != nullptr);
 2439              		.loc 3 188 3 view .LVU453
 2440 0024 002E     		cmp	r6, #0
 2441 0026 00F0C480 		beq	.L234
 189:source/HvHeavy.cpp **** 
 190:source/HvHeavy.cpp ****   va_list ap;
 2442              		.loc 3 190 3 view .LVU454
 191:source/HvHeavy.cpp ****   va_start(ap, format);
 2443              		.loc 3 191 3 view .LVU455
 2444 002a 07F14C03 		add	r3, r7, #76
 2445 002e 8246     		mov	r10, r0
 192:source/HvHeavy.cpp ****   const int numElem = (int) hv_strlen(format);
 2446              		.loc 3 192 29 is_stmt 0 view .LVU456
 2447 0030 3046     		mov	r0, r6
 2448              	.LVL179:
 2449              		.loc 3 192 29 view .LVU457
 2450 0032 8946     		mov	r9, r1
 191:source/HvHeavy.cpp ****   va_start(ap, format);
 2451              		.loc 3 191 3 view .LVU458
 2452 0034 FB60     		str	r3, [r7, #12]
 2453              		.loc 3 192 3 is_stmt 1 view .LVU459
 2454              		.loc 3 192 29 is_stmt 0 view .LVU460
 2455 0036 FFF7FEFF 		bl	strlen
 2456              	.LVL180:
 193:source/HvHeavy.cpp ****   HvMessage *m = HV_MESSAGE_ON_STACK(numElem);
 2457              		.loc 3 193 3 is_stmt 1 view .LVU461
 2458              	.LBB244:
 2459              	.LBI244:
  57:source/HvMessage.h ****   hv_assert(numElements > 0);
 2460              		.loc 2 57 25 view .LVU462
 2461              	.LBB245:
  58:source/HvMessage.h ****   return sizeof(HvMessage) + ((numElements-1) * sizeof(Element));
 2462              		.loc 2 58 3 view .LVU463
 2463 003a 8346     		mov	fp, r0
 2464 003c 0028     		cmp	r0, #0
 2465 003e 00F0B680 		beq	.L235
  59:source/HvMessage.h **** }
 2466              		.loc 2 59 3 view .LVU464
 2467              	.LVL181:
  59:source/HvMessage.h **** }
 2468              		.loc 2 59 64 is_stmt 0 view .LVU465
 2469 0042 C300     		lsls	r3, r0, #3
 2470              	.LBE245:
 2471              	.LBE244:
 194:source/HvHeavy.cpp ****   msg_init(m, numElem, c->getCurrentSample() + (hv_uint32_t) (hv_max_d(0.0, delayMs)*c->getSampleRa
 2472              		.loc 3 194 44 view .LVU466
 2473 0044 DAF80010 		ldr	r1, [r10]
 2474 0048 674A     		ldr	r2, .L242+16
ARM GAS  /var/folders/fb/yfxt3z4538j6z0vjt03w70vc0000gn/T//ccfQbMBb.s 			page 57


 193:source/HvHeavy.cpp ****   msg_init(m, numElem, c->getCurrentSample() + (hv_uint32_t) (hv_max_d(0.0, delayMs)*c->getSampleRa
 2475              		.loc 3 193 18 view .LVU467
 2476 004a 0833     		adds	r3, r3, #8
 2477 004c ADEB030D 		sub	sp, sp, r3
 2478              		.loc 3 194 44 view .LVU468
 2479 0050 CB69     		ldr	r3, [r1, #28]
 2480 0052 9342     		cmp	r3, r2
 193:source/HvHeavy.cpp ****   msg_init(m, numElem, c->getCurrentSample() + (hv_uint32_t) (hv_max_d(0.0, delayMs)*c->getSampleRa
 2481              		.loc 3 193 18 view .LVU469
 2482 0054 E846     		mov	r8, sp
 2483              	.LVL182:
 2484              		.loc 3 194 3 is_stmt 1 view .LVU470
 2485 0056 40F08D80 		bne	.L214
 2486              	.LVL183:
 2487              	.LBB247:
 2488              	.LBI247:
  37:source/HeavyContext.hpp ****   float samplesToMilliseconds(hv_uint32_t numSamples) override { return (float) (1000.0*numSamples/
 2489              		.loc 1 37 15 view .LVU471
 2490              	.LBB248:
  37:source/HeavyContext.hpp ****   float samplesToMilliseconds(hv_uint32_t numSamples) override { return (float) (1000.0*numSamples/
 2491              		.loc 1 37 45 view .LVU472
  37:source/HeavyContext.hpp ****   float samplesToMilliseconds(hv_uint32_t numSamples) override { return (float) (1000.0*numSamples/
 2492              		.loc 1 37 52 is_stmt 0 view .LVU473
 2493 005a DAF81020 		ldr	r2, [r10, #16]
 2494              	.LVL184:
 2495              	.L215:
  37:source/HeavyContext.hpp ****   float samplesToMilliseconds(hv_uint32_t numSamples) override { return (float) (1000.0*numSamples/
 2496              		.loc 1 37 52 view .LVU474
 2497              	.LBE248:
 2498              	.LBE247:
 2499              		.loc 3 194 103 view .LVU475
 2500 005e 8B69     		ldr	r3, [r1, #24]
 2501 0060 6249     		ldr	r1, .L242+20
 2502              		.loc 3 194 63 view .LVU476
 2503 0062 9FED5D9B 		vldr.64	d9, .L242
 2504 0066 8B42     		cmp	r3, r1
 2505 0068 89FE089B 		vmaxnm.f64	d9, d9, d8
 2506 006c 40F08880 		bne	.L216
 2507              	.LVL185:
 2508              	.LBB249:
 2509              	.LBI249:
  35:source/HeavyContext.hpp **** 
 2510              		.loc 1 35 10 is_stmt 1 view .LVU477
 2511              	.LBB250:
  35:source/HeavyContext.hpp **** 
 2512              		.loc 1 35 37 view .LVU478
  35:source/HeavyContext.hpp **** 
 2513              		.loc 1 35 44 is_stmt 0 view .LVU479
 2514 0070 9AED020B 		vldr.64	d0, [r10, #8]
 2515              	.LVL186:
 2516              	.L217:
  35:source/HeavyContext.hpp **** 
 2517              		.loc 1 35 44 view .LVU480
 2518              	.LBE250:
 2519              	.LBE249:
 2520              		.loc 3 194 85 view .LVU481
 2521 0074 29EE009B 		vmul.f64	d9, d9, d0
ARM GAS  /var/folders/fb/yfxt3z4538j6z0vjt03w70vc0000gn/T//ccfQbMBb.s 			page 58


 2522              		.loc 3 194 11 view .LVU482
 2523 0078 5946     		mov	r1, fp
 2524 007a 4046     		mov	r0, r8
 2525 007c 013E     		subs	r6, r6, #1
 2526 007e 4546     		mov	r5, r8
 2527              	.LBB251:
 195:source/HvHeavy.cpp ****   for (int i = 0; i < numElem; i++) {
 2528              		.loc 3 195 12 view .LVU483
 2529 0080 0024     		movs	r4, #0
 2530              	.LBE251:
 194:source/HvHeavy.cpp ****   for (int i = 0; i < numElem; i++) {
 2531              		.loc 3 194 104 view .LVU484
 2532 0082 9FED576B 		vldr.64	d6, .L242+8
 2533 0086 89EE067B 		vdiv.f64	d7, d9, d6
 194:source/HvHeavy.cpp ****   for (int i = 0; i < numElem; i++) {
 2534              		.loc 3 194 48 view .LVU485
 2535 008a BCEEC77B 		vcvt.u32.f64	s14, d7
 194:source/HvHeavy.cpp ****   for (int i = 0; i < numElem; i++) {
 2536              		.loc 3 194 11 view .LVU486
 2537 008e 17EE103A 		vmov	r3, s14	@ int
 2538 0092 1344     		add	r3, r3, r2
 2539 0094 1A46     		mov	r2, r3
 2540 0096 FFF7FEFF 		bl	msg_init
 2541              	.LVL187:
 2542              		.loc 3 195 3 is_stmt 1 view .LVU487
 2543              	.LBB310:
 2544              		.loc 3 195 21 view .LVU488
 2545              	.L229:
 196:source/HvHeavy.cpp ****     switch (format[i]) {
 2546              		.loc 3 196 5 view .LVU489
 2547 009a 16F8013F 		ldrb	r3, [r6, #1]!	@ zero_extendqisi2
 2548 009e 623B     		subs	r3, r3, #98
 2549 00a0 112B     		cmp	r3, #17
 2550 00a2 11D8     		bhi	.L218
 2551 00a4 DFE803F0 		tbb	[pc, r3]
 2552              	.L220:
 2553 00a8 09       		.byte	(.L223-.L220)/2
 2554 00a9 10       		.byte	(.L218-.L220)/2
 2555 00aa 10       		.byte	(.L218-.L220)/2
 2556 00ab 10       		.byte	(.L218-.L220)/2
 2557 00ac 4E       		.byte	(.L222-.L220)/2
 2558 00ad 10       		.byte	(.L218-.L220)/2
 2559 00ae 3E       		.byte	(.L221-.L220)/2
 2560 00af 10       		.byte	(.L218-.L220)/2
 2561 00b0 10       		.byte	(.L218-.L220)/2
 2562 00b1 10       		.byte	(.L218-.L220)/2
 2563 00b2 10       		.byte	(.L218-.L220)/2
 2564 00b3 10       		.byte	(.L218-.L220)/2
 2565 00b4 10       		.byte	(.L218-.L220)/2
 2566 00b5 10       		.byte	(.L218-.L220)/2
 2567 00b6 10       		.byte	(.L218-.L220)/2
 2568 00b7 10       		.byte	(.L218-.L220)/2
 2569 00b8 10       		.byte	(.L218-.L220)/2
 2570 00b9 23       		.byte	(.L219-.L220)/2
 2571              		.p2align 1
 2572              	.L223:
 197:source/HvHeavy.cpp ****       case 'b': msg_setBang(m, i); break;
ARM GAS  /var/folders/fb/yfxt3z4538j6z0vjt03w70vc0000gn/T//ccfQbMBb.s 			page 59


 2573              		.loc 3 197 7 view .LVU490
 2574              		.loc 3 197 17 view .LVU491
 2575              	.LVL188:
 2576              	.LBB252:
 2577              	.LBI252:
 104:source/HvMessage.h ****   hv_assert(index < msg_getNumElements(m)); // invalid index
 2578              		.loc 2 104 20 view .LVU492
 2579              	.LBB253:
 105:source/HvMessage.h ****   (&(m->elem)+index)->type = HV_MSG_BANG;
 2580              		.loc 2 105 3 view .LVU493
 2581              	.LBB254:
 2582              	.LBI254:
  90:source/HvMessage.h ****   return (int) m->numElements;
 2583              		.loc 2 90 19 view .LVU494
 2584              	.LBB255:
  91:source/HvMessage.h **** }
 2585              		.loc 2 91 3 view .LVU495
  91:source/HvMessage.h **** }
 2586              		.loc 2 91 19 is_stmt 0 view .LVU496
 2587 00ba B8F80430 		ldrh	r3, [r8, #4]
 2588              	.LBE255:
 2589              	.LBE254:
 105:source/HvMessage.h ****   (&(m->elem)+index)->type = HV_MSG_BANG;
 2590              		.loc 2 105 3 view .LVU497
 2591 00be A342     		cmp	r3, r4
 2592 00c0 69DD     		ble	.L236
 106:source/HvMessage.h ****   (&(m->elem)+index)->data.s = NULL;
 2593              		.loc 2 106 3 is_stmt 1 view .LVU498
 106:source/HvMessage.h ****   (&(m->elem)+index)->data.s = NULL;
 2594              		.loc 2 106 28 is_stmt 0 view .LVU499
 2595 00c2 0023     		movs	r3, #0
 2596 00c4 2B72     		strb	r3, [r5, #8]
 107:source/HvMessage.h **** }
 2597              		.loc 2 107 3 is_stmt 1 view .LVU500
 107:source/HvMessage.h **** }
 2598              		.loc 2 107 30 is_stmt 0 view .LVU501
 2599 00c6 EB60     		str	r3, [r5, #12]
 2600              	.L218:
 107:source/HvMessage.h **** }
 2601              		.loc 2 107 30 view .LVU502
 2602              	.LBE253:
 2603              	.LBE252:
 195:source/HvHeavy.cpp ****     switch (format[i]) {
 2604              		.loc 3 195 3 is_stmt 1 discriminator 2 view .LVU503
 2605              	.LVL189:
 195:source/HvHeavy.cpp ****     switch (format[i]) {
 2606              		.loc 3 195 3 is_stmt 0 discriminator 2 view .LVU504
 2607 00c8 0134     		adds	r4, r4, #1
 2608              	.LVL190:
 195:source/HvHeavy.cpp ****     switch (format[i]) {
 2609              		.loc 3 195 21 is_stmt 1 discriminator 2 view .LVU505
 2610 00ca 0835     		adds	r5, r5, #8
 2611 00cc A345     		cmp	fp, r4
 2612 00ce E4DC     		bgt	.L229
 2613              	.LVL191:
 2614              	.L239:
 195:source/HvHeavy.cpp ****     switch (format[i]) {
ARM GAS  /var/folders/fb/yfxt3z4538j6z0vjt03w70vc0000gn/T//ccfQbMBb.s 			page 60


 2615              		.loc 3 195 21 is_stmt 0 discriminator 2 view .LVU506
 2616              	.LBE310:
 198:source/HvHeavy.cpp ****       case 'f': msg_setFloat(m, i, (float) va_arg(ap, double)); break;
 199:source/HvHeavy.cpp ****       case 'h': msg_setHash(m, i, (int) va_arg(ap, int)); break;
 200:source/HvHeavy.cpp ****       case 's': msg_setSymbol(m, i, (char *) va_arg(ap, char *)); break;
 201:source/HvHeavy.cpp ****       default: break;
 202:source/HvHeavy.cpp ****     }
 203:source/HvHeavy.cpp ****   }
 204:source/HvHeavy.cpp ****   va_end(ap);
 2617              		.loc 3 204 3 is_stmt 1 view .LVU507
 205:source/HvHeavy.cpp **** 
 206:source/HvHeavy.cpp ****   return c->sendMessageToReceiver(receiverHash, delayMs, m);
 2618              		.loc 3 206 3 view .LVU508
 2619              		.loc 3 206 59 is_stmt 0 view .LVU509
 2620 00d0 DAF80030 		ldr	r3, [r10]
 2621              		.loc 3 206 34 view .LVU510
 2622 00d4 B0EE480B 		vmov.f64	d0, d8
 2623 00d8 4246     		mov	r2, r8
 2624 00da 4946     		mov	r1, r9
 2625 00dc 5046     		mov	r0, r10
 2626 00de DB6C     		ldr	r3, [r3, #76]
 2627 00e0 9847     		blx	r3
 2628              	.LVL192:
 207:source/HvHeavy.cpp **** }
 2629              		.loc 3 207 1 view .LVU511
 2630 00e2 1437     		adds	r7, r7, #20
 2631              		.cfi_remember_state
 2632              		.cfi_def_cfa_offset 52
 2633 00e4 BD46     		mov	sp, r7
 2634              		.cfi_def_cfa_register 13
 2635              		@ sp needed
 2636 00e6 BDEC048B 		vldm	sp!, {d8-d9}
 2637              		.cfi_restore 82
 2638              		.cfi_restore 83
 2639              		.cfi_restore 80
 2640              		.cfi_restore 81
 2641              		.cfi_def_cfa_offset 36
 2642              	.LVL193:
 2643              		.loc 3 207 1 view .LVU512
 2644 00ea BDE8F08F 		pop	{r4, r5, r6, r7, r8, r9, r10, fp, pc}
 2645              	.LVL194:
 2646              	.L219:
 2647              		.cfi_restore_state
 2648              	.LBB311:
 200:source/HvHeavy.cpp ****       default: break;
 2649              		.loc 3 200 7 is_stmt 1 view .LVU513
 200:source/HvHeavy.cpp ****       default: break;
 2650              		.loc 3 200 17 view .LVU514
 200:source/HvHeavy.cpp ****       default: break;
 2651              		.loc 3 200 46 is_stmt 0 view .LVU515
 2652 00ee FB68     		ldr	r3, [r7, #12]
 2653              	.LBB257:
 2654              	.LBB258:
 2655              	.LBB259:
 2656              	.LBB260:
  91:source/HvMessage.h **** }
 2657              		.loc 2 91 19 view .LVU516
ARM GAS  /var/folders/fb/yfxt3z4538j6z0vjt03w70vc0000gn/T//ccfQbMBb.s 			page 61


 2658 00f0 B8F80420 		ldrh	r2, [r8, #4]
 2659              	.LBE260:
 2660              	.LBE259:
 2661              	.LBE258:
 2662              	.LBE257:
 200:source/HvHeavy.cpp ****       default: break;
 2663              		.loc 3 200 46 view .LVU517
 2664 00f4 191D     		adds	r1, r3, #4
 2665 00f6 1868     		ldr	r0, [r3]
 2666              	.LVL195:
 2667              	.LBB269:
 2668              	.LBI257:
 147:source/HvMessage.h ****   hv_assert(index < msg_getNumElements(m)); // invalid index
 2669              		.loc 2 147 20 is_stmt 1 view .LVU518
 2670              	.LBB263:
 148:source/HvMessage.h ****   hv_assert(s != NULL);
 2671              		.loc 2 148 3 view .LVU519
 2672              	.LBB262:
 2673              	.LBI259:
  90:source/HvMessage.h ****   return (int) m->numElements;
 2674              		.loc 2 90 19 view .LVU520
 2675              	.LBB261:
  91:source/HvMessage.h **** }
 2676              		.loc 2 91 3 view .LVU521
  91:source/HvMessage.h **** }
 2677              		.loc 2 91 3 is_stmt 0 view .LVU522
 2678              	.LBE261:
 2679              	.LBE262:
 148:source/HvMessage.h ****   hv_assert(s != NULL);
 2680              		.loc 2 148 3 view .LVU523
 2681 00f8 A242     		cmp	r2, r4
 2682              	.LBE263:
 2683              	.LBE269:
 200:source/HvHeavy.cpp ****       default: break;
 2684              		.loc 3 200 46 view .LVU524
 2685 00fa F960     		str	r1, [r7, #12]
 2686              	.LBB270:
 2687              	.LBB264:
 148:source/HvMessage.h ****   hv_assert(s != NULL);
 2688              		.loc 2 148 3 view .LVU525
 2689 00fc 45DD     		ble	.L237
 149:source/HvMessage.h ****   (&(m->elem)+index)->type = HV_MSG_SYMBOL;
 2690              		.loc 2 149 3 is_stmt 1 view .LVU526
 2691 00fe 0028     		cmp	r0, #0
 2692 0100 53D0     		beq	.L238
 150:source/HvMessage.h ****   (&(m->elem)+index)->data.s = s;
 2693              		.loc 2 150 3 view .LVU527
 150:source/HvMessage.h ****   (&(m->elem)+index)->data.s = s;
 2694              		.loc 2 150 28 is_stmt 0 view .LVU528
 2695 0102 0223     		movs	r3, #2
 151:source/HvMessage.h ****   // NOTE(mhroth): if the same message container is reused and string reset,
 2696              		.loc 2 151 30 view .LVU529
 2697 0104 E860     		str	r0, [r5, #12]
 2698              	.LBE264:
 2699              	.LBE270:
 195:source/HvHeavy.cpp ****     switch (format[i]) {
 2700              		.loc 3 195 3 view .LVU530
ARM GAS  /var/folders/fb/yfxt3z4538j6z0vjt03w70vc0000gn/T//ccfQbMBb.s 			page 62


 2701 0106 0134     		adds	r4, r4, #1
 195:source/HvHeavy.cpp ****     switch (format[i]) {
 2702              		.loc 3 195 21 view .LVU531
 2703 0108 0835     		adds	r5, r5, #8
 2704              	.LBB271:
 2705              	.LBB265:
 150:source/HvMessage.h ****   (&(m->elem)+index)->data.s = s;
 2706              		.loc 2 150 28 view .LVU532
 2707 010a 2B70     		strb	r3, [r5]
 151:source/HvMessage.h ****   // NOTE(mhroth): if the same message container is reused and string reset,
 2708              		.loc 2 151 3 is_stmt 1 view .LVU533
 154:source/HvMessage.h **** }
 2709              		.loc 2 154 3 view .LVU534
 154:source/HvMessage.h **** }
 2710              		.loc 2 154 33 is_stmt 0 view .LVU535
 2711 010c FFF7FEFF 		bl	strlen
 2712              	.LVL196:
 154:source/HvMessage.h **** }
 2713              		.loc 2 154 15 view .LVU536
 2714 0110 B8F80630 		ldrh	r3, [r8, #6]
 2715              	.LBE265:
 2716              	.LBE271:
 195:source/HvHeavy.cpp ****     switch (format[i]) {
 2717              		.loc 3 195 21 view .LVU537
 2718 0114 A345     		cmp	fp, r4
 2719              	.LBB272:
 2720              	.LBB266:
 154:source/HvMessage.h **** }
 2721              		.loc 2 154 15 view .LVU538
 2722 0116 03F10103 		add	r3, r3, #1
 2723 011a 1844     		add	r0, r0, r3
 2724 011c A8F80600 		strh	r0, [r8, #6]	@ movhi
 154:source/HvMessage.h **** }
 2725              		.loc 2 154 15 view .LVU539
 2726              	.LBE266:
 2727              	.LBE272:
 195:source/HvHeavy.cpp ****     switch (format[i]) {
 2728              		.loc 3 195 3 is_stmt 1 view .LVU540
 195:source/HvHeavy.cpp ****     switch (format[i]) {
 2729              		.loc 3 195 21 view .LVU541
 2730 0120 BBDC     		bgt	.L229
 2731 0122 D5E7     		b	.L239
 2732              	.L221:
 199:source/HvHeavy.cpp ****       case 's': msg_setSymbol(m, i, (char *) va_arg(ap, char *)); break;
 2733              		.loc 3 199 7 view .LVU542
 199:source/HvHeavy.cpp ****       case 's': msg_setSymbol(m, i, (char *) va_arg(ap, char *)); break;
 2734              		.loc 3 199 17 view .LVU543
 199:source/HvHeavy.cpp ****       case 's': msg_setSymbol(m, i, (char *) va_arg(ap, char *)); break;
 2735              		.loc 3 199 41 is_stmt 0 view .LVU544
 2736 0124 FB68     		ldr	r3, [r7, #12]
 2737              	.LBB273:
 2738              	.LBB274:
 2739              	.LBB275:
 2740              	.LBB276:
  91:source/HvMessage.h **** }
 2741              		.loc 2 91 19 view .LVU545
 2742 0126 B8F80420 		ldrh	r2, [r8, #4]
ARM GAS  /var/folders/fb/yfxt3z4538j6z0vjt03w70vc0000gn/T//ccfQbMBb.s 			page 63


 2743              	.LBE276:
 2744              	.LBE275:
 2745              	.LBE274:
 2746              	.LBE273:
 199:source/HvHeavy.cpp ****       case 's': msg_setSymbol(m, i, (char *) va_arg(ap, char *)); break;
 2747              		.loc 3 199 41 view .LVU546
 2748 012a 191D     		adds	r1, r3, #4
 199:source/HvHeavy.cpp ****       case 's': msg_setSymbol(m, i, (char *) va_arg(ap, char *)); break;
 2749              		.loc 3 199 28 view .LVU547
 2750 012c 1B68     		ldr	r3, [r3]
 2751              	.LVL197:
 2752              	.LBB284:
 2753              	.LBI273:
 129:source/HvMessage.h ****   hv_assert(index < msg_getNumElements(m)); // invalid index
 2754              		.loc 2 129 20 is_stmt 1 view .LVU548
 2755              	.LBB279:
 130:source/HvMessage.h ****   (&(m->elem)+index)->type = HV_MSG_HASH;
 2756              		.loc 2 130 3 view .LVU549
 2757              	.LBB278:
 2758              	.LBI275:
  90:source/HvMessage.h ****   return (int) m->numElements;
 2759              		.loc 2 90 19 view .LVU550
 2760              	.LBB277:
  91:source/HvMessage.h **** }
 2761              		.loc 2 91 3 view .LVU551
  91:source/HvMessage.h **** }
 2762              		.loc 2 91 3 is_stmt 0 view .LVU552
 2763              	.LBE277:
 2764              	.LBE278:
 130:source/HvMessage.h ****   (&(m->elem)+index)->type = HV_MSG_HASH;
 2765              		.loc 2 130 3 view .LVU553
 2766 012e A242     		cmp	r2, r4
 2767              	.LBE279:
 2768              	.LBE284:
 199:source/HvHeavy.cpp ****       case 's': msg_setSymbol(m, i, (char *) va_arg(ap, char *)); break;
 2769              		.loc 3 199 41 view .LVU554
 2770 0130 F960     		str	r1, [r7, #12]
 2771              	.LBB285:
 2772              	.LBB280:
 130:source/HvMessage.h ****   (&(m->elem)+index)->type = HV_MSG_HASH;
 2773              		.loc 2 130 3 view .LVU555
 2774 0132 34DD     		ble	.L240
 131:source/HvMessage.h ****   (&(m->elem)+index)->data.h = h;
 2775              		.loc 2 131 3 is_stmt 1 view .LVU556
 2776              	.LBE280:
 2777              	.LBE285:
 195:source/HvHeavy.cpp ****     switch (format[i]) {
 2778              		.loc 3 195 3 is_stmt 0 view .LVU557
 2779 0134 0134     		adds	r4, r4, #1
 2780              	.LBB286:
 2781              	.LBB281:
 131:source/HvMessage.h ****   (&(m->elem)+index)->data.h = h;
 2782              		.loc 2 131 28 view .LVU558
 2783 0136 0322     		movs	r2, #3
 132:source/HvMessage.h **** }
 2784              		.loc 2 132 30 view .LVU559
 2785 0138 EB60     		str	r3, [r5, #12]
ARM GAS  /var/folders/fb/yfxt3z4538j6z0vjt03w70vc0000gn/T//ccfQbMBb.s 			page 64


 2786              	.LBE281:
 2787              	.LBE286:
 195:source/HvHeavy.cpp ****     switch (format[i]) {
 2788              		.loc 3 195 21 view .LVU560
 2789 013a 0835     		adds	r5, r5, #8
 2790 013c A345     		cmp	fp, r4
 2791              	.LBB287:
 2792              	.LBB282:
 131:source/HvMessage.h ****   (&(m->elem)+index)->data.h = h;
 2793              		.loc 2 131 28 view .LVU561
 2794 013e 2A70     		strb	r2, [r5]
 132:source/HvMessage.h **** }
 2795              		.loc 2 132 3 is_stmt 1 view .LVU562
 2796              	.LVL198:
 132:source/HvMessage.h **** }
 2797              		.loc 2 132 3 is_stmt 0 view .LVU563
 2798              	.LBE282:
 2799              	.LBE287:
 195:source/HvHeavy.cpp ****     switch (format[i]) {
 2800              		.loc 3 195 3 is_stmt 1 view .LVU564
 195:source/HvHeavy.cpp ****     switch (format[i]) {
 2801              		.loc 3 195 21 view .LVU565
 2802 0140 ABDC     		bgt	.L229
 2803 0142 C5E7     		b	.L239
 2804              	.L222:
 198:source/HvHeavy.cpp ****       case 'h': msg_setHash(m, i, (int) va_arg(ap, int)); break;
 2805              		.loc 3 198 7 view .LVU566
 198:source/HvHeavy.cpp ****       case 'h': msg_setHash(m, i, (int) va_arg(ap, int)); break;
 2806              		.loc 3 198 17 view .LVU567
 198:source/HvHeavy.cpp ****       case 'h': msg_setHash(m, i, (int) va_arg(ap, int)); break;
 2807              		.loc 3 198 44 is_stmt 0 view .LVU568
 2808 0144 FB68     		ldr	r3, [r7, #12]
 2809              	.LBB288:
 2810              	.LBB289:
 2811              	.LBB290:
 2812              	.LBB291:
  91:source/HvMessage.h **** }
 2813              		.loc 2 91 19 view .LVU569
 2814 0146 B8F80420 		ldrh	r2, [r8, #4]
 2815              	.LBE291:
 2816              	.LBE290:
 2817              	.LBE289:
 2818              	.LBE288:
 198:source/HvHeavy.cpp ****       case 'h': msg_setHash(m, i, (int) va_arg(ap, int)); break;
 2819              		.loc 3 198 44 view .LVU570
 2820 014a 0733     		adds	r3, r3, #7
 2821              	.LBB300:
 2822              	.LBB294:
 115:source/HvMessage.h ****   (&(m->elem)+index)->type = HV_MSG_FLOAT;
 2823              		.loc 2 115 3 view .LVU571
 2824 014c A242     		cmp	r2, r4
 2825              	.LBE294:
 2826              	.LBE300:
 198:source/HvHeavy.cpp ****       case 'h': msg_setHash(m, i, (int) va_arg(ap, int)); break;
 2827              		.loc 3 198 44 view .LVU572
 2828 014e 23F00703 		bic	r3, r3, #7
 198:source/HvHeavy.cpp ****       case 'h': msg_setHash(m, i, (int) va_arg(ap, int)); break;
ARM GAS  /var/folders/fb/yfxt3z4538j6z0vjt03w70vc0000gn/T//ccfQbMBb.s 			page 65


 2829              		.loc 3 198 29 view .LVU573
 2830 0152 93ED007B 		vldr.64	d7, [r3]
 198:source/HvHeavy.cpp ****       case 'h': msg_setHash(m, i, (int) va_arg(ap, int)); break;
 2831              		.loc 3 198 44 view .LVU574
 2832 0156 03F10803 		add	r3, r3, #8
 198:source/HvHeavy.cpp ****       case 'h': msg_setHash(m, i, (int) va_arg(ap, int)); break;
 2833              		.loc 3 198 29 view .LVU575
 2834 015a B7EEC77B 		vcvt.f32.f64	s14, d7
 2835              	.LVL199:
 2836              	.LBB301:
 2837              	.LBI288:
 114:source/HvMessage.h ****   hv_assert(index < msg_getNumElements(m)); // invalid index
 2838              		.loc 2 114 20 is_stmt 1 view .LVU576
 2839              	.LBB295:
 115:source/HvMessage.h ****   (&(m->elem)+index)->type = HV_MSG_FLOAT;
 2840              		.loc 2 115 3 view .LVU577
 2841              	.LBB293:
 2842              	.LBI290:
  90:source/HvMessage.h ****   return (int) m->numElements;
 2843              		.loc 2 90 19 view .LVU578
 2844              	.LBB292:
  91:source/HvMessage.h **** }
 2845              		.loc 2 91 3 view .LVU579
  91:source/HvMessage.h **** }
 2846              		.loc 2 91 3 is_stmt 0 view .LVU580
 2847              	.LBE292:
 2848              	.LBE293:
 2849              	.LBE295:
 2850              	.LBE301:
 198:source/HvHeavy.cpp ****       case 'h': msg_setHash(m, i, (int) va_arg(ap, int)); break;
 2851              		.loc 3 198 44 view .LVU581
 2852 015e FB60     		str	r3, [r7, #12]
 2853              	.LBB302:
 2854              	.LBB296:
 115:source/HvMessage.h ****   (&(m->elem)+index)->type = HV_MSG_FLOAT;
 2855              		.loc 2 115 3 view .LVU582
 2856 0160 1BDD     		ble	.L241
 116:source/HvMessage.h ****   (&(m->elem)+index)->data.f = f;
 2857              		.loc 2 116 3 is_stmt 1 view .LVU583
 2858              	.LBE296:
 2859              	.LBE302:
 195:source/HvHeavy.cpp ****     switch (format[i]) {
 2860              		.loc 3 195 3 is_stmt 0 view .LVU584
 2861 0162 0134     		adds	r4, r4, #1
 2862              	.LBB303:
 2863              	.LBB297:
 116:source/HvMessage.h ****   (&(m->elem)+index)->data.f = f;
 2864              		.loc 2 116 28 view .LVU585
 2865 0164 0123     		movs	r3, #1
 117:source/HvMessage.h **** }
 2866              		.loc 2 117 30 view .LVU586
 2867 0166 85ED037A 		vstr.32	s14, [r5, #12]
 2868              	.LBE297:
 2869              	.LBE303:
 195:source/HvHeavy.cpp ****     switch (format[i]) {
 2870              		.loc 3 195 21 view .LVU587
 2871 016a 0835     		adds	r5, r5, #8
ARM GAS  /var/folders/fb/yfxt3z4538j6z0vjt03w70vc0000gn/T//ccfQbMBb.s 			page 66


 2872 016c A345     		cmp	fp, r4
 2873              	.LBB304:
 2874              	.LBB298:
 116:source/HvMessage.h ****   (&(m->elem)+index)->data.f = f;
 2875              		.loc 2 116 28 view .LVU588
 2876 016e 2B70     		strb	r3, [r5]
 117:source/HvMessage.h **** }
 2877              		.loc 2 117 3 is_stmt 1 view .LVU589
 2878              	.LVL200:
 117:source/HvMessage.h **** }
 2879              		.loc 2 117 3 is_stmt 0 view .LVU590
 2880              	.LBE298:
 2881              	.LBE304:
 195:source/HvHeavy.cpp ****     switch (format[i]) {
 2882              		.loc 3 195 3 is_stmt 1 view .LVU591
 195:source/HvHeavy.cpp ****     switch (format[i]) {
 2883              		.loc 3 195 21 view .LVU592
 2884 0170 93DC     		bgt	.L229
 2885 0172 ADE7     		b	.L239
 2886              	.LVL201:
 2887              	.L214:
 195:source/HvHeavy.cpp ****     switch (format[i]) {
 2888              		.loc 3 195 21 is_stmt 0 view .LVU593
 2889              	.LBE311:
 194:source/HvHeavy.cpp ****   for (int i = 0; i < numElem; i++) {
 2890              		.loc 3 194 43 view .LVU594
 2891 0174 5046     		mov	r0, r10
 2892              	.LVL202:
 194:source/HvHeavy.cpp ****   for (int i = 0; i < numElem; i++) {
 2893              		.loc 3 194 43 view .LVU595
 2894 0176 9847     		blx	r3
 2895              	.LVL203:
 194:source/HvHeavy.cpp ****   for (int i = 0; i < numElem; i++) {
 2896              		.loc 3 194 103 view .LVU596
 2897 0178 DAF80010 		ldr	r1, [r10]
 194:source/HvHeavy.cpp ****   for (int i = 0; i < numElem; i++) {
 2898              		.loc 3 194 43 view .LVU597
 2899 017c 0246     		mov	r2, r0
 2900 017e 6EE7     		b	.L215
 2901              	.L216:
 194:source/HvHeavy.cpp ****   for (int i = 0; i < numElem; i++) {
 2902              		.loc 3 194 43 view .LVU598
 2903 0180 7A60     		str	r2, [r7, #4]
 194:source/HvHeavy.cpp ****   for (int i = 0; i < numElem; i++) {
 2904              		.loc 3 194 102 view .LVU599
 2905 0182 5046     		mov	r0, r10
 2906 0184 9847     		blx	r3
 2907              	.LVL204:
 2908 0186 7A68     		ldr	r2, [r7, #4]
 2909 0188 74E7     		b	.L217
 2910              	.L237:
 2911              	.LBB312:
 2912              	.LBB305:
 2913              	.LBB267:
 148:source/HvMessage.h ****   hv_assert(s != NULL);
 2914              		.loc 2 148 3 view .LVU600
 2915 018a 194B     		ldr	r3, .L242+24
ARM GAS  /var/folders/fb/yfxt3z4538j6z0vjt03w70vc0000gn/T//ccfQbMBb.s 			page 67


 2916 018c 9421     		movs	r1, #148
 2917 018e 194A     		ldr	r2, .L242+28
 2918 0190 1948     		ldr	r0, .L242+32
 2919 0192 FFF7FEFF 		bl	__assert_func
 2920              	.LVL205:
 2921              	.L236:
 148:source/HvMessage.h ****   hv_assert(s != NULL);
 2922              		.loc 2 148 3 view .LVU601
 2923              	.LBE267:
 2924              	.LBE305:
 2925              	.LBB306:
 2926              	.LBB256:
 2927 0196 FFF7FEFF 		bl	msg_setBang.part.0
 2928              	.LVL206:
 2929              	.L241:
 148:source/HvMessage.h ****   hv_assert(s != NULL);
 2930              		.loc 2 148 3 view .LVU602
 2931              	.LBE256:
 2932              	.LBE306:
 2933              	.LBB307:
 2934              	.LBB299:
 2935 019a FFF7FEFF 		bl	msg_setFloat.part.0
 2936              	.LVL207:
 2937              	.L240:
 148:source/HvMessage.h ****   hv_assert(s != NULL);
 2938              		.loc 2 148 3 view .LVU603
 2939              	.LBE299:
 2940              	.LBE307:
 2941              	.LBB308:
 2942              	.LBB283:
 130:source/HvMessage.h ****   (&(m->elem)+index)->type = HV_MSG_HASH;
 2943              		.loc 2 130 3 view .LVU604
 2944 019e 144B     		ldr	r3, .L242+24
 2945              	.LVL208:
 130:source/HvMessage.h ****   (&(m->elem)+index)->type = HV_MSG_HASH;
 2946              		.loc 2 130 3 view .LVU605
 2947 01a0 8221     		movs	r1, #130
 2948              	.LVL209:
 130:source/HvMessage.h ****   (&(m->elem)+index)->type = HV_MSG_HASH;
 2949              		.loc 2 130 3 view .LVU606
 2950 01a2 164A     		ldr	r2, .L242+36
 2951 01a4 1448     		ldr	r0, .L242+32
 2952 01a6 FFF7FEFF 		bl	__assert_func
 2953              	.LVL210:
 2954              	.L238:
 130:source/HvMessage.h ****   (&(m->elem)+index)->type = HV_MSG_HASH;
 2955              		.loc 2 130 3 view .LVU607
 2956              	.LBE283:
 2957              	.LBE308:
 2958              	.LBB309:
 2959              	.LBB268:
 2960 01aa FFF7FEFF 		bl	msg_setSymbol.part.0
 2961              	.LVL211:
 2962              	.L235:
 130:source/HvMessage.h ****   (&(m->elem)+index)->type = HV_MSG_HASH;
 2963              		.loc 2 130 3 view .LVU608
 2964              	.LBE268:
ARM GAS  /var/folders/fb/yfxt3z4538j6z0vjt03w70vc0000gn/T//ccfQbMBb.s 			page 68


 2965              	.LBE309:
 2966              	.LBE312:
 2967              	.LBB313:
 2968              	.LBB246:
 2969 01ae FFF7FEFF 		bl	msg_getCoreSize.part.0
 2970              	.LVL212:
 2971              	.L234:
 130:source/HvMessage.h ****   (&(m->elem)+index)->type = HV_MSG_HASH;
 2972              		.loc 2 130 3 view .LVU609
 2973              	.LBE246:
 2974              	.LBE313:
 188:source/HvHeavy.cpp **** 
 2975              		.loc 3 188 3 discriminator 1 view .LVU610
 2976 01b2 134B     		ldr	r3, .L242+40
 2977 01b4 BC21     		movs	r1, #188
 2978              	.LVL213:
 188:source/HvHeavy.cpp **** 
 2979              		.loc 3 188 3 discriminator 1 view .LVU611
 2980 01b6 134A     		ldr	r2, .L242+44
 2981              	.LVL214:
 188:source/HvHeavy.cpp **** 
 2982              		.loc 3 188 3 discriminator 1 view .LVU612
 2983 01b8 1348     		ldr	r0, .L242+48
 2984              	.LVL215:
 188:source/HvHeavy.cpp **** 
 2985              		.loc 3 188 3 discriminator 1 view .LVU613
 2986 01ba FFF7FEFF 		bl	__assert_func
 2987              	.LVL216:
 2988              	.L233:
 187:source/HvHeavy.cpp ****   hv_assert(format != nullptr);
 2989              		.loc 3 187 3 discriminator 1 view .LVU614
 2990 01be 134B     		ldr	r3, .L242+52
 2991 01c0 BB21     		movs	r1, #187
 2992              	.LVL217:
 187:source/HvHeavy.cpp ****   hv_assert(format != nullptr);
 2993              		.loc 3 187 3 discriminator 1 view .LVU615
 2994 01c2 104A     		ldr	r2, .L242+44
 2995              	.LVL218:
 187:source/HvHeavy.cpp ****   hv_assert(format != nullptr);
 2996              		.loc 3 187 3 discriminator 1 view .LVU616
 2997 01c4 1048     		ldr	r0, .L242+48
 2998              	.LVL219:
 187:source/HvHeavy.cpp ****   hv_assert(format != nullptr);
 2999              		.loc 3 187 3 discriminator 1 view .LVU617
 3000 01c6 FFF7FEFF 		bl	__assert_func
 3001              	.LVL220:
 3002              	.L232:
 186:source/HvHeavy.cpp ****   hv_assert(delayMs >= 0.0);
 3003              		.loc 3 186 3 discriminator 1 view .LVU618
 3004 01ca 114B     		ldr	r3, .L242+56
 3005 01cc BA21     		movs	r1, #186
 3006              	.LVL221:
 186:source/HvHeavy.cpp ****   hv_assert(delayMs >= 0.0);
 3007              		.loc 3 186 3 discriminator 1 view .LVU619
 3008 01ce 0D4A     		ldr	r2, .L242+44
 3009              	.LVL222:
 186:source/HvHeavy.cpp ****   hv_assert(delayMs >= 0.0);
ARM GAS  /var/folders/fb/yfxt3z4538j6z0vjt03w70vc0000gn/T//ccfQbMBb.s 			page 69


 3010              		.loc 3 186 3 discriminator 1 view .LVU620
 3011 01d0 0D48     		ldr	r0, .L242+48
 3012              	.LVL223:
 186:source/HvHeavy.cpp ****   hv_assert(delayMs >= 0.0);
 3013              		.loc 3 186 3 discriminator 1 view .LVU621
 3014 01d2 FFF7FEFF 		bl	__assert_func
 3015              	.LVL224:
 3016              	.L243:
 3017 01d6 00BF     		.align	3
 3018              	.L242:
 3019 01d8 00000000 		.word	0
 3020 01dc 00000000 		.word	0
 3021 01e0 00000000 		.word	0
 3022 01e4 00408F40 		.word	1083129856
 3023 01e8 00000000 		.word	_ZN12HeavyContext16getCurrentSampleEv
 3024 01ec 00000000 		.word	_ZN12HeavyContext13getSampleRateEv
 3025 01f0 00000000 		.word	.LC3
 3026 01f4 0C000000 		.word	.LC7
 3027 01f8 30000000 		.word	.LC2
 3028 01fc 80000000 		.word	.LC28
 3029 0200 6C000000 		.word	.LC27
 3030 0204 00000000 		.word	.LC25
 3031 0208 54000000 		.word	.LC10
 3032 020c 5C000000 		.word	.LC26
 3033 0210 00000000 		.word	.LC8
 3034              		.cfi_endproc
 3035              	.LFE1009:
 3037              		.section	.rodata.hv_sendMessageToReceiver.str1.4,"aMS",%progbits,1
 3038              		.align	2
 3039              	.LC29:
 3040 0000 626F6F6C 		.ascii	"bool hv_sendMessageToReceiver(HeavyContextInterface"
 3040      2068765F 
 3040      73656E64 
 3040      4D657373 
 3040      61676554 
 3041 0033 2A2C2075 		.ascii	"*, uint32_t, double, HvMessage*)\000"
 3041      696E7433 
 3041      325F742C 
 3041      20646F75 
 3041      626C652C 
 3042              		.section	.text.hv_sendMessageToReceiver,"ax",%progbits
 3043              		.align	1
 3044              		.p2align 2,,3
 3045              		.global	hv_sendMessageToReceiver
 3046              		.syntax unified
 3047              		.thumb
 3048              		.thumb_func
 3050              	hv_sendMessageToReceiver:
 3051              	.LVL225:
 3052              	.LFB1010:
 208:source/HvHeavy.cpp **** 
 209:source/HvHeavy.cpp **** HV_EXPORT bool hv_sendMessageToReceiver(
 210:source/HvHeavy.cpp ****     HeavyContextInterface *c, hv_uint32_t receiverHash, double delayMs, HvMessage *m) {
 3053              		.loc 3 210 87 is_stmt 1 view -0
 3054              		.cfi_startproc
 3055              		@ args = 0, pretend = 0, frame = 0
 3056              		@ frame_needed = 0, uses_anonymous_args = 0
ARM GAS  /var/folders/fb/yfxt3z4538j6z0vjt03w70vc0000gn/T//ccfQbMBb.s 			page 70


 211:source/HvHeavy.cpp ****   hv_assert(c != nullptr);
 3057              		.loc 3 211 3 view .LVU623
 3058 0000 10B1     		cbz	r0, .L249
 212:source/HvHeavy.cpp ****   return c->sendMessageToReceiver(receiverHash, delayMs, m);
 3059              		.loc 3 212 3 view .LVU624
 3060              		.loc 3 212 59 is_stmt 0 view .LVU625
 3061 0002 0368     		ldr	r3, [r0]
 3062              		.loc 3 212 34 view .LVU626
 3063 0004 DB6C     		ldr	r3, [r3, #76]
 3064 0006 1847     		bx	r3
 3065              	.LVL226:
 3066              	.L249:
 211:source/HvHeavy.cpp ****   hv_assert(c != nullptr);
 3067              		.loc 3 211 3 discriminator 1 view .LVU627
 3068 0008 034B     		ldr	r3, .L250
 3069 000a D321     		movs	r1, #211
 3070              	.LVL227:
 211:source/HvHeavy.cpp ****   hv_assert(c != nullptr);
 3071              		.loc 3 211 3 discriminator 1 view .LVU628
 3072 000c 034A     		ldr	r2, .L250+4
 3073              	.LVL228:
 211:source/HvHeavy.cpp ****   hv_assert(c != nullptr);
 3074              		.loc 3 211 3 discriminator 1 view .LVU629
 3075 000e 0448     		ldr	r0, .L250+8
 3076              	.LVL229:
 210:source/HvHeavy.cpp ****   hv_assert(c != nullptr);
 3077              		.loc 3 210 87 discriminator 1 view .LVU630
 3078 0010 10B5     		push	{r4, lr}
 3079              		.cfi_def_cfa_offset 8
 3080              		.cfi_offset 4, -8
 3081              		.cfi_offset 14, -4
 211:source/HvHeavy.cpp ****   hv_assert(c != nullptr);
 3082              		.loc 3 211 3 discriminator 1 view .LVU631
 3083 0012 FFF7FEFF 		bl	__assert_func
 3084              	.LVL230:
 3085              	.L251:
 211:source/HvHeavy.cpp ****   hv_assert(c != nullptr);
 3086              		.loc 3 211 3 discriminator 1 view .LVU632
 3087 0016 00BF     		.align	2
 3088              	.L250:
 3089 0018 00000000 		.word	.LC8
 3090 001c 00000000 		.word	.LC29
 3091 0020 54000000 		.word	.LC10
 3092              		.cfi_endproc
 3093              	.LFE1010:
 3095              		.section	.rodata.hv_cancelMessage.str1.4,"aMS",%progbits,1
 3096              		.align	2
 3097              	.LC30:
 3098 0000 766F6964 		.ascii	"void hv_cancelMessage(HeavyContextInterface*, HvMes"
 3098      2068765F 
 3098      63616E63 
 3098      656C4D65 
 3098      73736167 
 3099 0033 73616765 		.ascii	"sage*, void (*)(HeavyContextInterface*, int, const "
 3099      2A2C2076 
 3099      6F696420 
 3099      282A2928 
ARM GAS  /var/folders/fb/yfxt3z4538j6z0vjt03w70vc0000gn/T//ccfQbMBb.s 			page 71


 3099      48656176 
 3100 0066 48764D65 		.ascii	"HvMessage*))\000"
 3100      73736167 
 3100      652A2929 
 3100      00
 3101              		.section	.text.hv_cancelMessage,"ax",%progbits
 3102              		.align	1
 3103              		.p2align 2,,3
 3104              		.global	hv_cancelMessage
 3105              		.syntax unified
 3106              		.thumb
 3107              		.thumb_func
 3109              	hv_cancelMessage:
 3110              	.LVL231:
 3111              	.LFB1011:
 213:source/HvHeavy.cpp **** }
 214:source/HvHeavy.cpp **** 
 215:source/HvHeavy.cpp **** HV_EXPORT void hv_cancelMessage(HeavyContextInterface *c, HvMessage *m, void (*sendMessage)(HeavyCo
 3112              		.loc 3 215 143 is_stmt 1 view -0
 3113              		.cfi_startproc
 3114              		@ args = 0, pretend = 0, frame = 0
 3115              		@ frame_needed = 0, uses_anonymous_args = 0
 216:source/HvHeavy.cpp ****   hv_assert(c != nullptr);
 3116              		.loc 3 216 3 view .LVU634
 3117 0000 10B1     		cbz	r0, .L257
 217:source/HvHeavy.cpp ****   c->cancelMessage(m, sendMessage);
 3118              		.loc 3 217 3 view .LVU635
 3119              		.loc 3 217 34 is_stmt 0 view .LVU636
 3120 0002 0368     		ldr	r3, [r0]
 3121              		.loc 3 217 19 view .LVU637
 3122 0004 1B6E     		ldr	r3, [r3, #96]
 3123 0006 1847     		bx	r3
 3124              	.LVL232:
 3125              	.L257:
 216:source/HvHeavy.cpp ****   hv_assert(c != nullptr);
 3126              		.loc 3 216 3 discriminator 1 view .LVU638
 3127 0008 034B     		ldr	r3, .L258
 3128 000a D821     		movs	r1, #216
 3129              	.LVL233:
 216:source/HvHeavy.cpp ****   hv_assert(c != nullptr);
 3130              		.loc 3 216 3 discriminator 1 view .LVU639
 3131 000c 034A     		ldr	r2, .L258+4
 3132              	.LVL234:
 216:source/HvHeavy.cpp ****   hv_assert(c != nullptr);
 3133              		.loc 3 216 3 discriminator 1 view .LVU640
 3134 000e 0448     		ldr	r0, .L258+8
 3135              	.LVL235:
 215:source/HvHeavy.cpp ****   hv_assert(c != nullptr);
 3136              		.loc 3 215 143 discriminator 1 view .LVU641
 3137 0010 10B5     		push	{r4, lr}
 3138              		.cfi_def_cfa_offset 8
 3139              		.cfi_offset 4, -8
 3140              		.cfi_offset 14, -4
 216:source/HvHeavy.cpp ****   hv_assert(c != nullptr);
 3141              		.loc 3 216 3 discriminator 1 view .LVU642
 3142 0012 FFF7FEFF 		bl	__assert_func
 3143              	.LVL236:
ARM GAS  /var/folders/fb/yfxt3z4538j6z0vjt03w70vc0000gn/T//ccfQbMBb.s 			page 72


 3144              	.L259:
 3145 0016 00BF     		.align	2
 3146              	.L258:
 3147 0018 00000000 		.word	.LC8
 3148 001c 00000000 		.word	.LC30
 3149 0020 54000000 		.word	.LC10
 3150              		.cfi_endproc
 3151              	.LFE1011:
 3153              		.section	.rodata.hv_getName.str1.4,"aMS",%progbits,1
 3154              		.align	2
 3155              	.LC31:
 3156 0000 636F6E73 		.ascii	"const char* hv_getName(HeavyContextInterface*)\000"
 3156      74206368 
 3156      61722A20 
 3156      68765F67 
 3156      65744E61 
 3157              		.section	.text.hv_getName,"ax",%progbits
 3158              		.align	1
 3159              		.p2align 2,,3
 3160              		.global	hv_getName
 3161              		.syntax unified
 3162              		.thumb
 3163              		.thumb_func
 3165              	hv_getName:
 3166              	.LVL237:
 3167              	.LFB1012:
 218:source/HvHeavy.cpp **** }
 219:source/HvHeavy.cpp **** 
 220:source/HvHeavy.cpp **** HV_EXPORT const char *hv_getName(HeavyContextInterface *c) {
 3168              		.loc 3 220 60 is_stmt 1 view -0
 3169              		.cfi_startproc
 3170              		@ args = 0, pretend = 0, frame = 0
 3171              		@ frame_needed = 0, uses_anonymous_args = 0
 221:source/HvHeavy.cpp ****   hv_assert(c != nullptr);
 3172              		.loc 3 221 3 view .LVU644
 3173 0000 10B1     		cbz	r0, .L265
 222:source/HvHeavy.cpp ****   return c->getName();
 3174              		.loc 3 222 3 view .LVU645
 3175              		.loc 3 222 21 is_stmt 0 view .LVU646
 3176 0002 0368     		ldr	r3, [r0]
 3177              		.loc 3 222 20 view .LVU647
 3178 0004 9B68     		ldr	r3, [r3, #8]
 3179 0006 1847     		bx	r3
 3180              	.LVL238:
 3181              	.L265:
 221:source/HvHeavy.cpp ****   hv_assert(c != nullptr);
 3182              		.loc 3 221 3 discriminator 1 view .LVU648
 3183 0008 034B     		ldr	r3, .L266
 3184 000a DD21     		movs	r1, #221
 3185 000c 034A     		ldr	r2, .L266+4
 3186 000e 0448     		ldr	r0, .L266+8
 3187              	.LVL239:
 220:source/HvHeavy.cpp ****   hv_assert(c != nullptr);
 3188              		.loc 3 220 60 discriminator 1 view .LVU649
 3189 0010 10B5     		push	{r4, lr}
 3190              		.cfi_def_cfa_offset 8
 3191              		.cfi_offset 4, -8
ARM GAS  /var/folders/fb/yfxt3z4538j6z0vjt03w70vc0000gn/T//ccfQbMBb.s 			page 73


 3192              		.cfi_offset 14, -4
 221:source/HvHeavy.cpp ****   hv_assert(c != nullptr);
 3193              		.loc 3 221 3 discriminator 1 view .LVU650
 3194 0012 FFF7FEFF 		bl	__assert_func
 3195              	.LVL240:
 3196              	.L267:
 3197 0016 00BF     		.align	2
 3198              	.L266:
 3199 0018 00000000 		.word	.LC8
 3200 001c 00000000 		.word	.LC31
 3201 0020 54000000 		.word	.LC10
 3202              		.cfi_endproc
 3203              	.LFE1012:
 3205              		.section	.rodata.hv_setUserData.str1.4,"aMS",%progbits,1
 3206              		.align	2
 3207              	.LC32:
 3208 0000 766F6964 		.ascii	"void hv_setUserData(HeavyContextInterface*, void*)\000"
 3208      2068765F 
 3208      73657455 
 3208      73657244 
 3208      61746128 
 3209              		.section	.text.hv_setUserData,"ax",%progbits
 3210              		.align	1
 3211              		.p2align 2,,3
 3212              		.global	hv_setUserData
 3213              		.syntax unified
 3214              		.thumb
 3215              		.thumb_func
 3217              	hv_setUserData:
 3218              	.LVL241:
 3219              	.LFB1013:
 223:source/HvHeavy.cpp **** }
 224:source/HvHeavy.cpp **** 
 225:source/HvHeavy.cpp **** HV_EXPORT void hv_setUserData(HeavyContextInterface *c, void *userData) {
 3220              		.loc 3 225 73 is_stmt 1 view -0
 3221              		.cfi_startproc
 3222              		@ args = 0, pretend = 0, frame = 0
 3223              		@ frame_needed = 0, uses_anonymous_args = 0
 226:source/HvHeavy.cpp ****   hv_assert(c != nullptr);
 3224              		.loc 3 226 3 view .LVU652
 225:source/HvHeavy.cpp ****   hv_assert(c != nullptr);
 3225              		.loc 3 225 73 is_stmt 0 view .LVU653
 3226 0000 70B5     		push	{r4, r5, r6, lr}
 3227              		.cfi_def_cfa_offset 16
 3228              		.cfi_offset 4, -16
 3229              		.cfi_offset 5, -12
 3230              		.cfi_offset 6, -8
 3231              		.cfi_offset 14, -4
 3232              		.loc 3 226 3 view .LVU654
 3233 0002 50B1     		cbz	r0, .L274
 227:source/HvHeavy.cpp ****   c->setUserData(userData);
 3234              		.loc 3 227 3 is_stmt 1 view .LVU655
 3235              		.loc 3 227 26 is_stmt 0 view .LVU656
 3236 0004 0468     		ldr	r4, [r0]
 3237 0006 084D     		ldr	r5, .L275
 3238 0008 A46A     		ldr	r4, [r4, #40]
 3239 000a AC42     		cmp	r4, r5
ARM GAS  /var/folders/fb/yfxt3z4538j6z0vjt03w70vc0000gn/T//ccfQbMBb.s 			page 74


 3240 000c 01D1     		bne	.L270
 3241              	.LVL242:
 3242              	.LBB316:
 3243              	.LBI316:
  41:source/HeavyContext.hpp ****   void *getUserData() override { return userData; }
 3244              		.loc 1 41 8 is_stmt 1 view .LVU657
 3245              	.LBB317:
  41:source/HeavyContext.hpp ****   void *getUserData() override { return userData; }
 3246              		.loc 1 41 40 view .LVU658
  41:source/HeavyContext.hpp ****   void *getUserData() override { return userData; }
 3247              		.loc 1 41 49 is_stmt 0 view .LVU659
 3248 000e 8165     		str	r1, [r0, #88]
 3249              	.LBE317:
 3250              	.LBE316:
 228:source/HvHeavy.cpp **** }
 3251              		.loc 3 228 1 view .LVU660
 3252 0010 70BD     		pop	{r4, r5, r6, pc}
 3253              	.LVL243:
 3254              	.L270:
 227:source/HvHeavy.cpp ****   c->setUserData(userData);
 3255              		.loc 3 227 17 view .LVU661
 3256 0012 2346     		mov	r3, r4
 3257              		.loc 3 228 1 view .LVU662
 3258 0014 BDE87040 		pop	{r4, r5, r6, lr}
 3259              		.cfi_remember_state
 3260              		.cfi_restore 14
 3261              		.cfi_restore 6
 3262              		.cfi_restore 5
 3263              		.cfi_restore 4
 3264              		.cfi_def_cfa_offset 0
 227:source/HvHeavy.cpp ****   c->setUserData(userData);
 3265              		.loc 3 227 17 view .LVU663
 3266 0018 1847     		bx	r3	@ indirect register sibling call
 3267              	.LVL244:
 3268              	.L274:
 3269              		.cfi_restore_state
 226:source/HvHeavy.cpp ****   c->setUserData(userData);
 3270              		.loc 3 226 3 discriminator 1 view .LVU664
 3271 001a 044B     		ldr	r3, .L275+4
 3272 001c E221     		movs	r1, #226
 3273              	.LVL245:
 226:source/HvHeavy.cpp ****   c->setUserData(userData);
 3274              		.loc 3 226 3 discriminator 1 view .LVU665
 3275 001e 044A     		ldr	r2, .L275+8
 3276 0020 0448     		ldr	r0, .L275+12
 3277              	.LVL246:
 226:source/HvHeavy.cpp ****   c->setUserData(userData);
 3278              		.loc 3 226 3 discriminator 1 view .LVU666
 3279 0022 FFF7FEFF 		bl	__assert_func
 3280              	.LVL247:
 3281              	.L276:
 3282 0026 00BF     		.align	2
 3283              	.L275:
 3284 0028 00000000 		.word	_ZN12HeavyContext11setUserDataEPv
 3285 002c 00000000 		.word	.LC8
 3286 0030 00000000 		.word	.LC32
 3287 0034 54000000 		.word	.LC10
ARM GAS  /var/folders/fb/yfxt3z4538j6z0vjt03w70vc0000gn/T//ccfQbMBb.s 			page 75


 3288              		.cfi_endproc
 3289              	.LFE1013:
 3291              		.section	.rodata.hv_getUserData.str1.4,"aMS",%progbits,1
 3292              		.align	2
 3293              	.LC33:
 3294 0000 766F6964 		.ascii	"void* hv_getUserData(HeavyContextInterface*)\000"
 3294      2A206876 
 3294      5F676574 
 3294      55736572 
 3294      44617461 
 3295              		.section	.text.hv_getUserData,"ax",%progbits
 3296              		.align	1
 3297              		.p2align 2,,3
 3298              		.global	hv_getUserData
 3299              		.syntax unified
 3300              		.thumb
 3301              		.thumb_func
 3303              	hv_getUserData:
 3304              	.LVL248:
 3305              	.LFB1014:
 229:source/HvHeavy.cpp **** 
 230:source/HvHeavy.cpp **** HV_EXPORT void *hv_getUserData(HeavyContextInterface *c) {
 3306              		.loc 3 230 58 is_stmt 1 view -0
 3307              		.cfi_startproc
 3308              		@ args = 0, pretend = 0, frame = 0
 3309              		@ frame_needed = 0, uses_anonymous_args = 0
 231:source/HvHeavy.cpp ****   hv_assert(c != nullptr);
 3310              		.loc 3 231 3 view .LVU668
 3311 0000 38B1     		cbz	r0, .L286
 232:source/HvHeavy.cpp ****   return c->getUserData();
 3312              		.loc 3 232 3 view .LVU669
 3313              		.loc 3 232 25 is_stmt 0 view .LVU670
 3314 0002 0268     		ldr	r2, [r0]
 3315 0004 0649     		ldr	r1, .L288
 3316 0006 D26A     		ldr	r2, [r2, #44]
 3317 0008 8A42     		cmp	r2, r1
 3318 000a 01D1     		bne	.L287
 3319              	.LVL249:
 3320              	.LBB320:
 3321              	.LBI320:
  42:source/HeavyContext.hpp **** 
 3322              		.loc 1 42 9 is_stmt 1 view .LVU671
 3323              	.LBB321:
  42:source/HeavyContext.hpp **** 
 3324              		.loc 1 42 34 view .LVU672
  42:source/HeavyContext.hpp **** 
 3325              		.loc 1 42 41 is_stmt 0 view .LVU673
 3326 000c 806D     		ldr	r0, [r0, #88]
 3327              	.LVL250:
  42:source/HeavyContext.hpp **** 
 3328              		.loc 1 42 41 view .LVU674
 3329              	.LBE321:
 3330              	.LBE320:
 233:source/HvHeavy.cpp **** }
 3331              		.loc 3 233 1 view .LVU675
 3332 000e 7047     		bx	lr
 3333              	.LVL251:
ARM GAS  /var/folders/fb/yfxt3z4538j6z0vjt03w70vc0000gn/T//ccfQbMBb.s 			page 76


 3334              	.L287:
 232:source/HvHeavy.cpp ****   return c->getUserData();
 3335              		.loc 3 232 24 view .LVU676
 3336 0010 1047     		bx	r2
 3337              	.LVL252:
 3338              	.L286:
 231:source/HvHeavy.cpp ****   return c->getUserData();
 3339              		.loc 3 231 3 discriminator 1 view .LVU677
 3340 0012 044B     		ldr	r3, .L288+4
 3341 0014 E721     		movs	r1, #231
 3342 0016 044A     		ldr	r2, .L288+8
 3343 0018 0448     		ldr	r0, .L288+12
 3344              	.LVL253:
 230:source/HvHeavy.cpp ****   hv_assert(c != nullptr);
 3345              		.loc 3 230 58 discriminator 1 view .LVU678
 3346 001a 10B5     		push	{r4, lr}
 3347              		.cfi_def_cfa_offset 8
 3348              		.cfi_offset 4, -8
 3349              		.cfi_offset 14, -4
 231:source/HvHeavy.cpp ****   return c->getUserData();
 3350              		.loc 3 231 3 discriminator 1 view .LVU679
 3351 001c FFF7FEFF 		bl	__assert_func
 3352              	.LVL254:
 3353              	.L289:
 3354              		.align	2
 3355              	.L288:
 3356 0020 00000000 		.word	_ZN12HeavyContext11getUserDataEv
 3357 0024 00000000 		.word	.LC8
 3358 0028 00000000 		.word	.LC33
 3359 002c 54000000 		.word	.LC10
 3360              		.cfi_endproc
 3361              	.LFE1014:
 3363              		.section	.rodata.hv_getCurrentTime.str1.4,"aMS",%progbits,1
 3364              		.align	2
 3365              	.LC34:
 3366 0000 646F7562 		.ascii	"double hv_getCurrentTime(HeavyContextInterface*)\000"
 3366      6C652068 
 3366      765F6765 
 3366      74437572 
 3366      72656E74 
 3367              		.section	.text.hv_getCurrentTime,"ax",%progbits
 3368              		.align	1
 3369              		.p2align 2,,3
 3370              		.global	hv_getCurrentTime
 3371              		.syntax unified
 3372              		.thumb
 3373              		.thumb_func
 3375              	hv_getCurrentTime:
 3376              	.LVL255:
 3377              	.LFB1015:
 234:source/HvHeavy.cpp **** 
 235:source/HvHeavy.cpp **** HV_EXPORT double hv_getCurrentTime(HeavyContextInterface *c) {
 3378              		.loc 3 235 62 is_stmt 1 view -0
 3379              		.cfi_startproc
 3380              		@ args = 0, pretend = 0, frame = 0
 3381              		@ frame_needed = 0, uses_anonymous_args = 0
 236:source/HvHeavy.cpp ****   hv_assert(c != nullptr);
ARM GAS  /var/folders/fb/yfxt3z4538j6z0vjt03w70vc0000gn/T//ccfQbMBb.s 			page 77


 3382              		.loc 3 236 3 view .LVU681
 235:source/HvHeavy.cpp ****   hv_assert(c != nullptr);
 3383              		.loc 3 235 62 is_stmt 0 view .LVU682
 3384 0000 38B5     		push	{r3, r4, r5, lr}
 3385              		.cfi_def_cfa_offset 16
 3386              		.cfi_offset 3, -16
 3387              		.cfi_offset 4, -12
 3388              		.cfi_offset 5, -8
 3389              		.cfi_offset 14, -4
 3390              		.loc 3 236 3 view .LVU683
 3391 0002 28B3     		cbz	r0, .L297
 237:source/HvHeavy.cpp ****   return (double) c->samplesToMilliseconds(c->getCurrentSample());
 3392              		.loc 3 237 65 view .LVU684
 3393 0004 0368     		ldr	r3, [r0]
 3394 0006 0446     		mov	r4, r0
 3395              		.loc 3 237 3 is_stmt 1 view .LVU685
 3396 0008 1749     		ldr	r1, .L299+8
 3397              		.loc 3 237 64 is_stmt 0 view .LVU686
 3398 000a DA69     		ldr	r2, [r3, #28]
 3399              		.loc 3 237 65 view .LVU687
 3400 000c 1D6A     		ldr	r5, [r3, #32]
 3401 000e 8A42     		cmp	r2, r1
 3402 0010 14D1     		bne	.L292
 3403              	.LVL256:
 3404              	.LBB326:
 3405              	.LBI326:
  37:source/HeavyContext.hpp ****   float samplesToMilliseconds(hv_uint32_t numSamples) override { return (float) (1000.0*numSamples/
 3406              		.loc 1 37 15 is_stmt 1 view .LVU688
 3407              	.LBB327:
  37:source/HeavyContext.hpp ****   float samplesToMilliseconds(hv_uint32_t numSamples) override { return (float) (1000.0*numSamples/
 3408              		.loc 1 37 45 view .LVU689
 3409 0012 164B     		ldr	r3, .L299+12
  37:source/HeavyContext.hpp ****   float samplesToMilliseconds(hv_uint32_t numSamples) override { return (float) (1000.0*numSamples/
 3410              		.loc 1 37 52 is_stmt 0 view .LVU690
 3411 0014 0169     		ldr	r1, [r0, #16]
 3412              	.LVL257:
  37:source/HeavyContext.hpp ****   float samplesToMilliseconds(hv_uint32_t numSamples) override { return (float) (1000.0*numSamples/
 3413              		.loc 1 37 52 view .LVU691
 3414 0016 9D42     		cmp	r5, r3
 3415 0018 15D1     		bne	.L294
 3416              	.LVL258:
 3417              	.L298:
  37:source/HeavyContext.hpp ****   float samplesToMilliseconds(hv_uint32_t numSamples) override { return (float) (1000.0*numSamples/
 3418              		.loc 1 37 52 view .LVU692
 3419              	.LBE327:
 3420              	.LBE326:
 3421              	.LBB328:
 3422              	.LBI328:
  38:source/HeavyContext.hpp ****   hv_uint32_t millisecondsToSamples(float ms) override { return (hv_uint32_t) (hv_max_f(0.0f,ms)*sa
 3423              		.loc 1 38 9 is_stmt 1 view .LVU693
 3424              	.LBB329:
  38:source/HeavyContext.hpp ****   hv_uint32_t millisecondsToSamples(float ms) override { return (hv_uint32_t) (hv_max_f(0.0f,ms)*sa
 3425              		.loc 1 38 66 view .LVU694
  38:source/HeavyContext.hpp ****   hv_uint32_t millisecondsToSamples(float ms) override { return (hv_uint32_t) (hv_max_f(0.0f,ms)*sa
 3426              		.loc 1 38 88 is_stmt 0 view .LVU695
 3427 001a 07EE901A 		vmov	s15, r1	@ int
 3428 001e 9FED105B 		vldr.64	d5, .L299
ARM GAS  /var/folders/fb/yfxt3z4538j6z0vjt03w70vc0000gn/T//ccfQbMBb.s 			page 78


 3429 0022 B8EE677B 		vcvt.f64.u32	d7, s15
  38:source/HeavyContext.hpp ****   hv_uint32_t millisecondsToSamples(float ms) override { return (hv_uint32_t) (hv_max_f(0.0f,ms)*sa
 3430              		.loc 1 38 99 view .LVU696
 3431 0026 94ED026B 		vldr.64	d6, [r4, #8]
  38:source/HeavyContext.hpp ****   hv_uint32_t millisecondsToSamples(float ms) override { return (hv_uint32_t) (hv_max_f(0.0f,ms)*sa
 3432              		.loc 1 38 88 view .LVU697
 3433 002a 27EE057B 		vmul.f64	d7, d7, d5
  38:source/HeavyContext.hpp ****   hv_uint32_t millisecondsToSamples(float ms) override { return (hv_uint32_t) (hv_max_f(0.0f,ms)*sa
 3434              		.loc 1 38 99 view .LVU698
 3435 002e 87EE060B 		vdiv.f64	d0, d7, d6
  38:source/HeavyContext.hpp ****   hv_uint32_t millisecondsToSamples(float ms) override { return (hv_uint32_t) (hv_max_f(0.0f,ms)*sa
 3436              		.loc 1 38 110 view .LVU699
 3437 0032 B7EEC00B 		vcvt.f32.f64	s0, d0
 3438              	.LVL259:
  38:source/HeavyContext.hpp ****   hv_uint32_t millisecondsToSamples(float ms) override { return (hv_uint32_t) (hv_max_f(0.0f,ms)*sa
 3439              		.loc 1 38 110 view .LVU700
 3440              	.LBE329:
 3441              	.LBE328:
 238:source/HvHeavy.cpp **** }
 3442              		.loc 3 238 1 view .LVU701
 3443 0036 B7EEC00A 		vcvt.f64.f32	d0, s0
 3444 003a 38BD     		pop	{r3, r4, r5, pc}
 3445              	.LVL260:
 3446              	.L292:
 237:source/HvHeavy.cpp **** }
 3447              		.loc 3 237 43 view .LVU702
 3448 003c 9047     		blx	r2
 3449              	.LVL261:
 237:source/HvHeavy.cpp **** }
 3450              		.loc 3 237 43 view .LVU703
 3451 003e 0B4B     		ldr	r3, .L299+12
 3452 0040 0146     		mov	r1, r0
 3453 0042 9D42     		cmp	r5, r3
 3454 0044 E9D0     		beq	.L298
 3455              	.L294:
 3456 0046 2046     		mov	r0, r4
 3457 0048 A847     		blx	r5
 3458              	.LVL262:
 3459              		.loc 3 238 1 view .LVU704
 3460 004a B7EEC00A 		vcvt.f64.f32	d0, s0
 3461 004e 38BD     		pop	{r3, r4, r5, pc}
 3462              	.LVL263:
 3463              	.L297:
 236:source/HvHeavy.cpp ****   return (double) c->samplesToMilliseconds(c->getCurrentSample());
 3464              		.loc 3 236 3 discriminator 1 view .LVU705
 3465 0050 074B     		ldr	r3, .L299+16
 3466 0052 EC21     		movs	r1, #236
 3467 0054 074A     		ldr	r2, .L299+20
 3468 0056 0848     		ldr	r0, .L299+24
 3469              	.LVL264:
 236:source/HvHeavy.cpp ****   return (double) c->samplesToMilliseconds(c->getCurrentSample());
 3470              		.loc 3 236 3 discriminator 1 view .LVU706
 3471 0058 FFF7FEFF 		bl	__assert_func
 3472              	.LVL265:
 3473              	.L300:
 3474 005c AFF30080 		.align	3
 3475              	.L299:
ARM GAS  /var/folders/fb/yfxt3z4538j6z0vjt03w70vc0000gn/T//ccfQbMBb.s 			page 79


 3476 0060 00000000 		.word	0
 3477 0064 00408F40 		.word	1083129856
 3478 0068 00000000 		.word	_ZN12HeavyContext16getCurrentSampleEv
 3479 006c 00000000 		.word	_ZN12HeavyContext21samplesToMillisecondsEm
 3480 0070 00000000 		.word	.LC8
 3481 0074 00000000 		.word	.LC34
 3482 0078 54000000 		.word	.LC10
 3483              		.cfi_endproc
 3484              	.LFE1015:
 3486              		.section	.rodata.hv_getCurrentSample.str1.4,"aMS",%progbits,1
 3487              		.align	2
 3488              	.LC35:
 3489 0000 75696E74 		.ascii	"uint32_t hv_getCurrentSample(HeavyContextInterface*"
 3489      33325F74 
 3489      2068765F 
 3489      67657443 
 3489      75727265 
 3490 0033 2900     		.ascii	")\000"
 3491              		.section	.text.hv_getCurrentSample,"ax",%progbits
 3492              		.align	1
 3493              		.p2align 2,,3
 3494              		.global	hv_getCurrentSample
 3495              		.syntax unified
 3496              		.thumb
 3497              		.thumb_func
 3499              	hv_getCurrentSample:
 3500              	.LVL266:
 3501              	.LFB1016:
 239:source/HvHeavy.cpp **** 
 240:source/HvHeavy.cpp **** HV_EXPORT hv_uint32_t hv_getCurrentSample(HeavyContextInterface *c) {
 3502              		.loc 3 240 69 is_stmt 1 view -0
 3503              		.cfi_startproc
 3504              		@ args = 0, pretend = 0, frame = 0
 3505              		@ frame_needed = 0, uses_anonymous_args = 0
 241:source/HvHeavy.cpp ****   hv_assert(c != nullptr);
 3506              		.loc 3 241 3 view .LVU708
 3507 0000 38B1     		cbz	r0, .L310
 242:source/HvHeavy.cpp ****   return c->getCurrentSample();
 3508              		.loc 3 242 3 view .LVU709
 3509              		.loc 3 242 30 is_stmt 0 view .LVU710
 3510 0002 0268     		ldr	r2, [r0]
 3511 0004 0649     		ldr	r1, .L312
 3512 0006 D269     		ldr	r2, [r2, #28]
 3513 0008 8A42     		cmp	r2, r1
 3514 000a 01D1     		bne	.L311
 3515              	.LVL267:
 3516              	.LBB332:
 3517              	.LBI332:
  37:source/HeavyContext.hpp ****   float samplesToMilliseconds(hv_uint32_t numSamples) override { return (float) (1000.0*numSamples/
 3518              		.loc 1 37 15 is_stmt 1 view .LVU711
 3519              	.LBB333:
  37:source/HeavyContext.hpp ****   float samplesToMilliseconds(hv_uint32_t numSamples) override { return (float) (1000.0*numSamples/
 3520              		.loc 1 37 45 view .LVU712
  37:source/HeavyContext.hpp ****   float samplesToMilliseconds(hv_uint32_t numSamples) override { return (float) (1000.0*numSamples/
 3521              		.loc 1 37 52 is_stmt 0 view .LVU713
 3522 000c 0069     		ldr	r0, [r0, #16]
 3523              	.LVL268:
ARM GAS  /var/folders/fb/yfxt3z4538j6z0vjt03w70vc0000gn/T//ccfQbMBb.s 			page 80


  37:source/HeavyContext.hpp ****   float samplesToMilliseconds(hv_uint32_t numSamples) override { return (float) (1000.0*numSamples/
 3524              		.loc 1 37 52 view .LVU714
 3525              	.LBE333:
 3526              	.LBE332:
 243:source/HvHeavy.cpp **** }
 3527              		.loc 3 243 1 view .LVU715
 3528 000e 7047     		bx	lr
 3529              	.LVL269:
 3530              	.L311:
 242:source/HvHeavy.cpp ****   return c->getCurrentSample();
 3531              		.loc 3 242 29 view .LVU716
 3532 0010 1047     		bx	r2
 3533              	.LVL270:
 3534              	.L310:
 241:source/HvHeavy.cpp ****   return c->getCurrentSample();
 3535              		.loc 3 241 3 discriminator 1 view .LVU717
 3536 0012 044B     		ldr	r3, .L312+4
 3537 0014 F121     		movs	r1, #241
 3538 0016 044A     		ldr	r2, .L312+8
 3539 0018 0448     		ldr	r0, .L312+12
 3540              	.LVL271:
 240:source/HvHeavy.cpp ****   hv_assert(c != nullptr);
 3541              		.loc 3 240 69 discriminator 1 view .LVU718
 3542 001a 10B5     		push	{r4, lr}
 3543              		.cfi_def_cfa_offset 8
 3544              		.cfi_offset 4, -8
 3545              		.cfi_offset 14, -4
 241:source/HvHeavy.cpp ****   return c->getCurrentSample();
 3546              		.loc 3 241 3 discriminator 1 view .LVU719
 3547 001c FFF7FEFF 		bl	__assert_func
 3548              	.LVL272:
 3549              	.L313:
 3550              		.align	2
 3551              	.L312:
 3552 0020 00000000 		.word	_ZN12HeavyContext16getCurrentSampleEv
 3553 0024 00000000 		.word	.LC8
 3554 0028 00000000 		.word	.LC35
 3555 002c 54000000 		.word	.LC10
 3556              		.cfi_endproc
 3557              	.LFE1016:
 3559              		.section	.rodata.hv_samplesToMilliseconds.str1.4,"aMS",%progbits,1
 3560              		.align	2
 3561              	.LC36:
 3562 0000 666C6F61 		.ascii	"float hv_samplesToMilliseconds(HeavyContextInterfac"
 3562      74206876 
 3562      5F73616D 
 3562      706C6573 
 3562      546F4D69 
 3563 0033 652A2C20 		.ascii	"e*, uint32_t)\000"
 3563      75696E74 
 3563      33325F74 
 3563      2900
 3564              		.section	.text.hv_samplesToMilliseconds,"ax",%progbits
 3565              		.align	1
 3566              		.p2align 2,,3
 3567              		.global	hv_samplesToMilliseconds
 3568              		.syntax unified
ARM GAS  /var/folders/fb/yfxt3z4538j6z0vjt03w70vc0000gn/T//ccfQbMBb.s 			page 81


 3569              		.thumb
 3570              		.thumb_func
 3572              	hv_samplesToMilliseconds:
 3573              	.LVL273:
 3574              	.LFB1017:
 244:source/HvHeavy.cpp **** 
 245:source/HvHeavy.cpp **** HV_EXPORT float hv_samplesToMilliseconds(HeavyContextInterface *c, hv_uint32_t numSamples) {
 3575              		.loc 3 245 92 is_stmt 1 view -0
 3576              		.cfi_startproc
 3577              		@ args = 0, pretend = 0, frame = 8
 3578              		@ frame_needed = 0, uses_anonymous_args = 0
 246:source/HvHeavy.cpp ****   hv_assert(c != nullptr);
 3579              		.loc 3 246 3 view .LVU721
 245:source/HvHeavy.cpp ****   hv_assert(c != nullptr);
 3580              		.loc 3 245 92 is_stmt 0 view .LVU722
 3581 0000 10B5     		push	{r4, lr}
 3582              		.cfi_def_cfa_offset 8
 3583              		.cfi_offset 4, -8
 3584              		.cfi_offset 14, -4
 3585 0002 82B0     		sub	sp, sp, #8
 3586              		.cfi_def_cfa_offset 16
 245:source/HvHeavy.cpp ****   hv_assert(c != nullptr);
 3587              		.loc 3 245 92 view .LVU723
 3588 0004 0191     		str	r1, [sp, #4]
 3589              		.loc 3 246 3 view .LVU724
 3590 0006 C0B1     		cbz	r0, .L321
 247:source/HvHeavy.cpp ****   return c->samplesToMilliseconds(numSamples);
 3591              		.loc 3 247 3 is_stmt 1 view .LVU725
 3592              		.loc 3 247 45 is_stmt 0 view .LVU726
 3593 0008 0268     		ldr	r2, [r0]
 3594 000a 114C     		ldr	r4, .L323+8
 3595 000c 126A     		ldr	r2, [r2, #32]
 3596 000e A242     		cmp	r2, r4
 3597 0010 0FD1     		bne	.L322
 3598              	.LVL274:
 3599              	.LBB336:
 3600              	.LBI336:
  38:source/HeavyContext.hpp ****   hv_uint32_t millisecondsToSamples(float ms) override { return (hv_uint32_t) (hv_max_f(0.0f,ms)*sa
 3601              		.loc 1 38 9 is_stmt 1 view .LVU727
 3602              	.LBB337:
  38:source/HeavyContext.hpp ****   hv_uint32_t millisecondsToSamples(float ms) override { return (hv_uint32_t) (hv_max_f(0.0f,ms)*sa
 3603              		.loc 1 38 66 view .LVU728
  38:source/HeavyContext.hpp ****   hv_uint32_t millisecondsToSamples(float ms) override { return (hv_uint32_t) (hv_max_f(0.0f,ms)*sa
 3604              		.loc 1 38 88 is_stmt 0 view .LVU729
 3605 0012 DDED017A 		vldr.32	s15, [sp, #4]	@ int
 3606 0016 9FED0C5B 		vldr.64	d5, .L323
 3607 001a B8EE677B 		vcvt.f64.u32	d7, s15
  38:source/HeavyContext.hpp ****   hv_uint32_t millisecondsToSamples(float ms) override { return (hv_uint32_t) (hv_max_f(0.0f,ms)*sa
 3608              		.loc 1 38 99 view .LVU730
 3609 001e 90ED026B 		vldr.64	d6, [r0, #8]
  38:source/HeavyContext.hpp ****   hv_uint32_t millisecondsToSamples(float ms) override { return (hv_uint32_t) (hv_max_f(0.0f,ms)*sa
 3610              		.loc 1 38 88 view .LVU731
 3611 0022 27EE057B 		vmul.f64	d7, d7, d5
  38:source/HeavyContext.hpp ****   hv_uint32_t millisecondsToSamples(float ms) override { return (hv_uint32_t) (hv_max_f(0.0f,ms)*sa
 3612              		.loc 1 38 99 view .LVU732
 3613 0026 87EE060B 		vdiv.f64	d0, d7, d6
  38:source/HeavyContext.hpp ****   hv_uint32_t millisecondsToSamples(float ms) override { return (hv_uint32_t) (hv_max_f(0.0f,ms)*sa
ARM GAS  /var/folders/fb/yfxt3z4538j6z0vjt03w70vc0000gn/T//ccfQbMBb.s 			page 82


 3614              		.loc 1 38 110 view .LVU733
 3615 002a B7EEC00B 		vcvt.f32.f64	s0, d0
 3616              	.LVL275:
  38:source/HeavyContext.hpp ****   hv_uint32_t millisecondsToSamples(float ms) override { return (hv_uint32_t) (hv_max_f(0.0f,ms)*sa
 3617              		.loc 1 38 110 view .LVU734
 3618              	.LBE337:
 3619              	.LBE336:
 248:source/HvHeavy.cpp **** }
 3620              		.loc 3 248 1 view .LVU735
 3621 002e 02B0     		add	sp, sp, #8
 3622              		.cfi_remember_state
 3623              		.cfi_def_cfa_offset 8
 3624              		@ sp needed
 3625 0030 10BD     		pop	{r4, pc}
 3626              	.L322:
 3627              		.cfi_restore_state
 3628              		.loc 3 248 1 view .LVU736
 3629 0032 02B0     		add	sp, sp, #8
 3630              		.cfi_remember_state
 3631              		.cfi_def_cfa_offset 8
 3632              		@ sp needed
 3633 0034 BDE81040 		pop	{r4, lr}
 3634              		.cfi_restore 14
 3635              		.cfi_restore 4
 3636              		.cfi_def_cfa_offset 0
 247:source/HvHeavy.cpp ****   return c->samplesToMilliseconds(numSamples);
 3637              		.loc 3 247 34 view .LVU737
 3638 0038 1047     		bx	r2
 3639              	.LVL276:
 3640              	.L321:
 3641              		.cfi_restore_state
 246:source/HvHeavy.cpp ****   return c->samplesToMilliseconds(numSamples);
 3642              		.loc 3 246 3 discriminator 1 view .LVU738
 3643 003a 064B     		ldr	r3, .L323+12
 3644 003c F621     		movs	r1, #246
 3645              	.LVL277:
 246:source/HvHeavy.cpp ****   return c->samplesToMilliseconds(numSamples);
 3646              		.loc 3 246 3 discriminator 1 view .LVU739
 3647 003e 064A     		ldr	r2, .L323+16
 3648 0040 0648     		ldr	r0, .L323+20
 3649              	.LVL278:
 246:source/HvHeavy.cpp ****   return c->samplesToMilliseconds(numSamples);
 3650              		.loc 3 246 3 discriminator 1 view .LVU740
 3651 0042 FFF7FEFF 		bl	__assert_func
 3652              	.LVL279:
 3653              	.L324:
 3654 0046 00BF     		.align	3
 3655              	.L323:
 3656 0048 00000000 		.word	0
 3657 004c 00408F40 		.word	1083129856
 3658 0050 00000000 		.word	_ZN12HeavyContext21samplesToMillisecondsEm
 3659 0054 00000000 		.word	.LC8
 3660 0058 00000000 		.word	.LC36
 3661 005c 54000000 		.word	.LC10
 3662              		.cfi_endproc
 3663              	.LFE1017:
 3665              		.section	.rodata.hv_millisecondsToSamples.str1.4,"aMS",%progbits,1
ARM GAS  /var/folders/fb/yfxt3z4538j6z0vjt03w70vc0000gn/T//ccfQbMBb.s 			page 83


 3666              		.align	2
 3667              	.LC37:
 3668 0000 75696E74 		.ascii	"uint32_t hv_millisecondsToSamples(HeavyContextInter"
 3668      33325F74 
 3668      2068765F 
 3668      6D696C6C 
 3668      69736563 
 3669 0033 66616365 		.ascii	"face*, float)\000"
 3669      2A2C2066 
 3669      6C6F6174 
 3669      2900
 3670              		.section	.text.hv_millisecondsToSamples,"ax",%progbits
 3671              		.align	1
 3672              		.p2align 2,,3
 3673              		.global	hv_millisecondsToSamples
 3674              		.syntax unified
 3675              		.thumb
 3676              		.thumb_func
 3678              	hv_millisecondsToSamples:
 3679              	.LVL280:
 3680              	.LFB1018:
 249:source/HvHeavy.cpp **** 
 250:source/HvHeavy.cpp **** HV_EXPORT hv_uint32_t hv_millisecondsToSamples(HeavyContextInterface *c, float ms) {
 3681              		.loc 3 250 84 is_stmt 1 view -0
 3682              		.cfi_startproc
 3683              		@ args = 0, pretend = 0, frame = 0
 3684              		@ frame_needed = 0, uses_anonymous_args = 0
 251:source/HvHeavy.cpp ****   hv_assert(c != nullptr);
 3685              		.loc 3 251 3 view .LVU742
 3686 0000 C0B1     		cbz	r0, .L334
 252:source/HvHeavy.cpp ****   return c->millisecondsToSamples(ms);
 3687              		.loc 3 252 3 view .LVU743
 3688              		.loc 3 252 37 is_stmt 0 view .LVU744
 3689 0002 0268     		ldr	r2, [r0]
 3690 0004 1249     		ldr	r1, .L336+8
 3691 0006 526A     		ldr	r2, [r2, #36]
 3692 0008 8A42     		cmp	r2, r1
 3693 000a 12D1     		bne	.L335
 3694              	.LVL281:
 3695              	.LBB340:
 3696              	.LBI340:
  39:source/HeavyContext.hpp **** 
 3697              		.loc 1 39 15 is_stmt 1 view .LVU745
 3698              	.LBB341:
  39:source/HeavyContext.hpp **** 
 3699              		.loc 1 39 58 view .LVU746
  39:source/HeavyContext.hpp **** 
 3700              		.loc 1 39 80 is_stmt 0 view .LVU747
 3701 000c DFED117A 		vldr.32	s15, .L336+12
  39:source/HeavyContext.hpp **** 
 3702              		.loc 1 39 97 view .LVU748
 3703 0010 90ED026B 		vldr.64	d6, [r0, #8]
  39:source/HeavyContext.hpp **** 
 3704              		.loc 1 39 80 view .LVU749
 3705 0014 87FE807A 		vmaxnm.f32	s14, s15, s0
 3706 0018 B7EEC77A 		vcvt.f64.f32	d7, s14
  39:source/HeavyContext.hpp **** 
ARM GAS  /var/folders/fb/yfxt3z4538j6z0vjt03w70vc0000gn/T//ccfQbMBb.s 			page 84


 3707              		.loc 1 39 108 view .LVU750
 3708 001c 9FED0A5B 		vldr.64	d5, .L336
  39:source/HeavyContext.hpp **** 
 3709              		.loc 1 39 97 view .LVU751
 3710 0020 27EE067B 		vmul.f64	d7, d7, d6
  39:source/HeavyContext.hpp **** 
 3711              		.loc 1 39 108 view .LVU752
 3712 0024 87EE056B 		vdiv.f64	d6, d7, d5
  39:source/HeavyContext.hpp **** 
 3713              		.loc 1 39 115 view .LVU753
 3714 0028 FCEEC67B 		vcvt.u32.f64	s15, d6
 3715 002c 17EE900A 		vmov	r0, s15	@ int
 3716              	.LVL282:
  39:source/HeavyContext.hpp **** 
 3717              		.loc 1 39 115 view .LVU754
 3718              	.LBE341:
 3719              	.LBE340:
 253:source/HvHeavy.cpp **** }
 3720              		.loc 3 253 1 view .LVU755
 3721 0030 7047     		bx	lr
 3722              	.LVL283:
 3723              	.L335:
 252:source/HvHeavy.cpp ****   return c->millisecondsToSamples(ms);
 3724              		.loc 3 252 34 view .LVU756
 3725 0032 1047     		bx	r2
 3726              	.LVL284:
 3727              	.L334:
 251:source/HvHeavy.cpp ****   return c->millisecondsToSamples(ms);
 3728              		.loc 3 251 3 discriminator 1 view .LVU757
 3729 0034 084B     		ldr	r3, .L336+16
 3730 0036 FB21     		movs	r1, #251
 3731 0038 084A     		ldr	r2, .L336+20
 3732 003a 0948     		ldr	r0, .L336+24
 3733              	.LVL285:
 250:source/HvHeavy.cpp ****   hv_assert(c != nullptr);
 3734              		.loc 3 250 84 discriminator 1 view .LVU758
 3735 003c 10B5     		push	{r4, lr}
 3736              		.cfi_def_cfa_offset 8
 3737              		.cfi_offset 4, -8
 3738              		.cfi_offset 14, -4
 251:source/HvHeavy.cpp ****   return c->millisecondsToSamples(ms);
 3739              		.loc 3 251 3 discriminator 1 view .LVU759
 3740 003e FFF7FEFF 		bl	__assert_func
 3741              	.LVL286:
 3742              	.L337:
 251:source/HvHeavy.cpp ****   return c->millisecondsToSamples(ms);
 3743              		.loc 3 251 3 discriminator 1 view .LVU760
 3744 0042 00BFAFF3 		.align	3
 3744      0080
 3745              	.L336:
 3746 0048 00000000 		.word	0
 3747 004c 00408F40 		.word	1083129856
 3748 0050 00000000 		.word	_ZN12HeavyContext21millisecondsToSamplesEf
 3749 0054 00000000 		.word	0
 3750 0058 00000000 		.word	.LC8
 3751 005c 00000000 		.word	.LC37
 3752 0060 54000000 		.word	.LC10
ARM GAS  /var/folders/fb/yfxt3z4538j6z0vjt03w70vc0000gn/T//ccfQbMBb.s 			page 85


 3753              		.cfi_endproc
 3754              	.LFE1018:
 3756              		.section	.rodata.hv_getParameterInfo.str1.4,"aMS",%progbits,1
 3757              		.align	2
 3758              	.LC38:
 3759 0000 696E7420 		.ascii	"int hv_getParameterInfo(HeavyContextInterface*, int"
 3759      68765F67 
 3759      65745061 
 3759      72616D65 
 3759      74657249 
 3760 0033 2C204876 		.ascii	", HvParameterInfo*)\000"
 3760      50617261 
 3760      6D657465 
 3760      72496E66 
 3760      6F2A2900 
 3761              		.section	.text.hv_getParameterInfo,"ax",%progbits
 3762              		.align	1
 3763              		.p2align 2,,3
 3764              		.global	hv_getParameterInfo
 3765              		.syntax unified
 3766              		.thumb
 3767              		.thumb_func
 3769              	hv_getParameterInfo:
 3770              	.LVL287:
 3771              	.LFB1019:
 254:source/HvHeavy.cpp **** 
 255:source/HvHeavy.cpp **** HV_EXPORT int hv_getParameterInfo(HeavyContextInterface *c, int index, HvParameterInfo *info) {
 3772              		.loc 3 255 95 is_stmt 1 view -0
 3773              		.cfi_startproc
 3774              		@ args = 0, pretend = 0, frame = 0
 3775              		@ frame_needed = 0, uses_anonymous_args = 0
 256:source/HvHeavy.cpp ****   hv_assert(c != nullptr);
 3776              		.loc 3 256 3 view .LVU762
 3777 0000 10B1     		cbz	r0, .L343
 257:source/HvHeavy.cpp ****   return c->getParameterInfo(index, info);
 3778              		.loc 3 257 3 view .LVU763
 3779              		.loc 3 257 41 is_stmt 0 view .LVU764
 3780 0002 0368     		ldr	r3, [r0]
 3781              		.loc 3 257 29 view .LVU765
 3782 0004 5B6E     		ldr	r3, [r3, #100]
 3783 0006 1847     		bx	r3
 3784              	.LVL288:
 3785              	.L343:
 256:source/HvHeavy.cpp ****   hv_assert(c != nullptr);
 3786              		.loc 3 256 3 discriminator 1 view .LVU766
 3787 0008 034B     		ldr	r3, .L344
 3788 000a 4FF48071 		mov	r1, #256
 3789              	.LVL289:
 256:source/HvHeavy.cpp ****   hv_assert(c != nullptr);
 3790              		.loc 3 256 3 discriminator 1 view .LVU767
 3791 000e 034A     		ldr	r2, .L344+4
 3792              	.LVL290:
 256:source/HvHeavy.cpp ****   hv_assert(c != nullptr);
 3793              		.loc 3 256 3 discriminator 1 view .LVU768
 3794 0010 0348     		ldr	r0, .L344+8
 3795              	.LVL291:
 255:source/HvHeavy.cpp ****   hv_assert(c != nullptr);
ARM GAS  /var/folders/fb/yfxt3z4538j6z0vjt03w70vc0000gn/T//ccfQbMBb.s 			page 86


 3796              		.loc 3 255 95 discriminator 1 view .LVU769
 3797 0012 10B5     		push	{r4, lr}
 3798              		.cfi_def_cfa_offset 8
 3799              		.cfi_offset 4, -8
 3800              		.cfi_offset 14, -4
 256:source/HvHeavy.cpp ****   hv_assert(c != nullptr);
 3801              		.loc 3 256 3 discriminator 1 view .LVU770
 3802 0014 FFF7FEFF 		bl	__assert_func
 3803              	.LVL292:
 3804              	.L345:
 3805              		.align	2
 3806              	.L344:
 3807 0018 00000000 		.word	.LC8
 3808 001c 00000000 		.word	.LC38
 3809 0020 54000000 		.word	.LC10
 3810              		.cfi_endproc
 3811              	.LFE1019:
 3813              		.section	.rodata.hv_lock_acquire.str1.4,"aMS",%progbits,1
 3814              		.align	2
 3815              	.LC39:
 3816 0000 766F6964 		.ascii	"void hv_lock_acquire(HeavyContextInterface*)\000"
 3816      2068765F 
 3816      6C6F636B 
 3816      5F616371 
 3816      75697265 
 3817              		.section	.text.hv_lock_acquire,"ax",%progbits
 3818              		.align	1
 3819              		.p2align 2,,3
 3820              		.global	hv_lock_acquire
 3821              		.syntax unified
 3822              		.thumb
 3823              		.thumb_func
 3825              	hv_lock_acquire:
 3826              	.LVL293:
 3827              	.LFB1020:
 258:source/HvHeavy.cpp **** }
 259:source/HvHeavy.cpp **** 
 260:source/HvHeavy.cpp **** HV_EXPORT void hv_lock_acquire(HeavyContextInterface *c) {
 3828              		.loc 3 260 58 is_stmt 1 view -0
 3829              		.cfi_startproc
 3830              		@ args = 0, pretend = 0, frame = 0
 3831              		@ frame_needed = 0, uses_anonymous_args = 0
 261:source/HvHeavy.cpp ****   hv_assert(c != nullptr);
 3832              		.loc 3 261 3 view .LVU772
 3833 0000 10B1     		cbz	r0, .L351
 262:source/HvHeavy.cpp ****   c->lockAcquire();
 3834              		.loc 3 262 3 view .LVU773
 3835              		.loc 3 262 18 is_stmt 0 view .LVU774
 3836 0002 0368     		ldr	r3, [r0]
 3837              		.loc 3 262 17 view .LVU775
 3838 0004 5B6F     		ldr	r3, [r3, #116]
 3839 0006 1847     		bx	r3	@ indirect register sibling call
 3840              	.LVL294:
 3841              	.L351:
 261:source/HvHeavy.cpp ****   hv_assert(c != nullptr);
 3842              		.loc 3 261 3 discriminator 1 view .LVU776
 3843 0008 034B     		ldr	r3, .L352
ARM GAS  /var/folders/fb/yfxt3z4538j6z0vjt03w70vc0000gn/T//ccfQbMBb.s 			page 87


 3844 000a 40F20511 		movw	r1, #261
 3845 000e 034A     		ldr	r2, .L352+4
 3846 0010 0348     		ldr	r0, .L352+8
 3847              	.LVL295:
 260:source/HvHeavy.cpp ****   hv_assert(c != nullptr);
 3848              		.loc 3 260 58 discriminator 1 view .LVU777
 3849 0012 10B5     		push	{r4, lr}
 3850              		.cfi_def_cfa_offset 8
 3851              		.cfi_offset 4, -8
 3852              		.cfi_offset 14, -4
 261:source/HvHeavy.cpp ****   hv_assert(c != nullptr);
 3853              		.loc 3 261 3 discriminator 1 view .LVU778
 3854 0014 FFF7FEFF 		bl	__assert_func
 3855              	.LVL296:
 3856              	.L353:
 3857              		.align	2
 3858              	.L352:
 3859 0018 00000000 		.word	.LC8
 3860 001c 00000000 		.word	.LC39
 3861 0020 54000000 		.word	.LC10
 3862              		.cfi_endproc
 3863              	.LFE1020:
 3865              		.section	.rodata.hv_lock_try.str1.4,"aMS",%progbits,1
 3866              		.align	2
 3867              	.LC40:
 3868 0000 626F6F6C 		.ascii	"bool hv_lock_try(HeavyContextInterface*)\000"
 3868      2068765F 
 3868      6C6F636B 
 3868      5F747279 
 3868      28486561 
 3869              		.section	.text.hv_lock_try,"ax",%progbits
 3870              		.align	1
 3871              		.p2align 2,,3
 3872              		.global	hv_lock_try
 3873              		.syntax unified
 3874              		.thumb
 3875              		.thumb_func
 3877              	hv_lock_try:
 3878              	.LVL297:
 3879              	.LFB1021:
 263:source/HvHeavy.cpp **** }
 264:source/HvHeavy.cpp **** 
 265:source/HvHeavy.cpp **** HV_EXPORT bool hv_lock_try(HeavyContextInterface *c) {
 3880              		.loc 3 265 54 is_stmt 1 view -0
 3881              		.cfi_startproc
 3882              		@ args = 0, pretend = 0, frame = 0
 3883              		@ frame_needed = 0, uses_anonymous_args = 0
 266:source/HvHeavy.cpp ****   hv_assert(c != nullptr);
 3884              		.loc 3 266 3 view .LVU780
 3885 0000 10B1     		cbz	r0, .L359
 267:source/HvHeavy.cpp ****   return c->lockTry();
 3886              		.loc 3 267 3 view .LVU781
 3887              		.loc 3 267 21 is_stmt 0 view .LVU782
 3888 0002 0368     		ldr	r3, [r0]
 3889              		.loc 3 267 20 view .LVU783
 3890 0004 9B6F     		ldr	r3, [r3, #120]
 3891 0006 1847     		bx	r3
ARM GAS  /var/folders/fb/yfxt3z4538j6z0vjt03w70vc0000gn/T//ccfQbMBb.s 			page 88


 3892              	.LVL298:
 3893              	.L359:
 266:source/HvHeavy.cpp ****   hv_assert(c != nullptr);
 3894              		.loc 3 266 3 discriminator 1 view .LVU784
 3895 0008 034B     		ldr	r3, .L360
 3896 000a 4FF48571 		mov	r1, #266
 3897 000e 034A     		ldr	r2, .L360+4
 3898 0010 0348     		ldr	r0, .L360+8
 3899              	.LVL299:
 265:source/HvHeavy.cpp ****   hv_assert(c != nullptr);
 3900              		.loc 3 265 54 discriminator 1 view .LVU785
 3901 0012 10B5     		push	{r4, lr}
 3902              		.cfi_def_cfa_offset 8
 3903              		.cfi_offset 4, -8
 3904              		.cfi_offset 14, -4
 266:source/HvHeavy.cpp ****   hv_assert(c != nullptr);
 3905              		.loc 3 266 3 discriminator 1 view .LVU786
 3906 0014 FFF7FEFF 		bl	__assert_func
 3907              	.LVL300:
 3908              	.L361:
 3909              		.align	2
 3910              	.L360:
 3911 0018 00000000 		.word	.LC8
 3912 001c 00000000 		.word	.LC40
 3913 0020 54000000 		.word	.LC10
 3914              		.cfi_endproc
 3915              	.LFE1021:
 3917              		.section	.rodata.hv_lock_release.str1.4,"aMS",%progbits,1
 3918              		.align	2
 3919              	.LC41:
 3920 0000 766F6964 		.ascii	"void hv_lock_release(HeavyContextInterface*)\000"
 3920      2068765F 
 3920      6C6F636B 
 3920      5F72656C 
 3920      65617365 
 3921              		.section	.text.hv_lock_release,"ax",%progbits
 3922              		.align	1
 3923              		.p2align 2,,3
 3924              		.global	hv_lock_release
 3925              		.syntax unified
 3926              		.thumb
 3927              		.thumb_func
 3929              	hv_lock_release:
 3930              	.LVL301:
 3931              	.LFB1022:
 268:source/HvHeavy.cpp **** }
 269:source/HvHeavy.cpp **** 
 270:source/HvHeavy.cpp **** HV_EXPORT void hv_lock_release(HeavyContextInterface *c) {
 3932              		.loc 3 270 58 is_stmt 1 view -0
 3933              		.cfi_startproc
 3934              		@ args = 0, pretend = 0, frame = 0
 3935              		@ frame_needed = 0, uses_anonymous_args = 0
 271:source/HvHeavy.cpp ****   hv_assert(c != nullptr);
 3936              		.loc 3 271 3 view .LVU788
 3937 0000 10B1     		cbz	r0, .L367
 272:source/HvHeavy.cpp ****   c->lockRelease();
 3938              		.loc 3 272 3 view .LVU789
ARM GAS  /var/folders/fb/yfxt3z4538j6z0vjt03w70vc0000gn/T//ccfQbMBb.s 			page 89


 3939              		.loc 3 272 18 is_stmt 0 view .LVU790
 3940 0002 0368     		ldr	r3, [r0]
 3941              		.loc 3 272 17 view .LVU791
 3942 0004 DB6F     		ldr	r3, [r3, #124]
 3943 0006 1847     		bx	r3	@ indirect register sibling call
 3944              	.LVL302:
 3945              	.L367:
 271:source/HvHeavy.cpp ****   hv_assert(c != nullptr);
 3946              		.loc 3 271 3 discriminator 1 view .LVU792
 3947 0008 034B     		ldr	r3, .L368
 3948 000a 40F20F11 		movw	r1, #271
 3949 000e 034A     		ldr	r2, .L368+4
 3950 0010 0348     		ldr	r0, .L368+8
 3951              	.LVL303:
 270:source/HvHeavy.cpp ****   hv_assert(c != nullptr);
 3952              		.loc 3 270 58 discriminator 1 view .LVU793
 3953 0012 10B5     		push	{r4, lr}
 3954              		.cfi_def_cfa_offset 8
 3955              		.cfi_offset 4, -8
 3956              		.cfi_offset 14, -4
 271:source/HvHeavy.cpp ****   hv_assert(c != nullptr);
 3957              		.loc 3 271 3 discriminator 1 view .LVU794
 3958 0014 FFF7FEFF 		bl	__assert_func
 3959              	.LVL304:
 3960              	.L369:
 3961              		.align	2
 3962              	.L368:
 3963 0018 00000000 		.word	.LC8
 3964 001c 00000000 		.word	.LC41
 3965 0020 54000000 		.word	.LC10
 3966              		.cfi_endproc
 3967              	.LFE1022:
 3969              		.section	.rodata.hv_setInputMessageQueueSize.str1.4,"aMS",%progbits,1
 3970              		.align	2
 3971              	.LC42:
 3972 0000 766F6964 		.ascii	"void hv_setInputMessageQueueSize(HeavyContextInterf"
 3972      2068765F 
 3972      73657449 
 3972      6E707574 
 3972      4D657373 
 3973 0033 6163652A 		.ascii	"ace*, uint32_t)\000"
 3973      2C207569 
 3973      6E743332 
 3973      5F742900 
 3974              		.section	.text.hv_setInputMessageQueueSize,"ax",%progbits
 3975              		.align	1
 3976              		.p2align 2,,3
 3977              		.global	hv_setInputMessageQueueSize
 3978              		.syntax unified
 3979              		.thumb
 3980              		.thumb_func
 3982              	hv_setInputMessageQueueSize:
 3983              	.LVL305:
 3984              	.LFB1023:
 273:source/HvHeavy.cpp **** }
 274:source/HvHeavy.cpp **** 
 275:source/HvHeavy.cpp **** HV_EXPORT void hv_setInputMessageQueueSize(HeavyContextInterface *c, hv_uint32_t inQueueKb) {
ARM GAS  /var/folders/fb/yfxt3z4538j6z0vjt03w70vc0000gn/T//ccfQbMBb.s 			page 90


 3985              		.loc 3 275 93 is_stmt 1 view -0
 3986              		.cfi_startproc
 3987              		@ args = 0, pretend = 0, frame = 0
 3988              		@ frame_needed = 0, uses_anonymous_args = 0
 276:source/HvHeavy.cpp ****   hv_assert(c != nullptr);
 3989              		.loc 3 276 3 view .LVU796
 3990 0000 18B1     		cbz	r0, .L375
 277:source/HvHeavy.cpp ****   c->setInputMessageQueueSize(inQueueKb);
 3991              		.loc 3 277 3 view .LVU797
 3992              		.loc 3 277 40 is_stmt 0 view .LVU798
 3993 0002 0368     		ldr	r3, [r0]
 3994              		.loc 3 277 30 view .LVU799
 3995 0004 D3F88030 		ldr	r3, [r3, #128]
 3996 0008 1847     		bx	r3	@ indirect register sibling call
 3997              	.LVL306:
 3998              	.L375:
 276:source/HvHeavy.cpp ****   hv_assert(c != nullptr);
 3999              		.loc 3 276 3 discriminator 1 view .LVU800
 4000 000a 044B     		ldr	r3, .L376
 4001 000c 4FF48A71 		mov	r1, #276
 4002              	.LVL307:
 276:source/HvHeavy.cpp ****   hv_assert(c != nullptr);
 4003              		.loc 3 276 3 discriminator 1 view .LVU801
 4004 0010 034A     		ldr	r2, .L376+4
 4005 0012 0448     		ldr	r0, .L376+8
 4006              	.LVL308:
 275:source/HvHeavy.cpp ****   hv_assert(c != nullptr);
 4007              		.loc 3 275 93 discriminator 1 view .LVU802
 4008 0014 10B5     		push	{r4, lr}
 4009              		.cfi_def_cfa_offset 8
 4010              		.cfi_offset 4, -8
 4011              		.cfi_offset 14, -4
 276:source/HvHeavy.cpp ****   hv_assert(c != nullptr);
 4012              		.loc 3 276 3 discriminator 1 view .LVU803
 4013 0016 FFF7FEFF 		bl	__assert_func
 4014              	.LVL309:
 4015              	.L377:
 4016 001a 00BF     		.align	2
 4017              	.L376:
 4018 001c 00000000 		.word	.LC8
 4019 0020 00000000 		.word	.LC42
 4020 0024 54000000 		.word	.LC10
 4021              		.cfi_endproc
 4022              	.LFE1023:
 4024              		.section	.rodata.hv_setOutputMessageQueueSize.str1.4,"aMS",%progbits,1
 4025              		.align	2
 4026              	.LC43:
 4027 0000 766F6964 		.ascii	"void hv_setOutputMessageQueueSize(HeavyContextInter"
 4027      2068765F 
 4027      7365744F 
 4027      75747075 
 4027      744D6573 
 4028 0033 66616365 		.ascii	"face*, uint32_t)\000"
 4028      2A2C2075 
 4028      696E7433 
 4028      325F7429 
 4028      00
ARM GAS  /var/folders/fb/yfxt3z4538j6z0vjt03w70vc0000gn/T//ccfQbMBb.s 			page 91


 4029              		.section	.text.hv_setOutputMessageQueueSize,"ax",%progbits
 4030              		.align	1
 4031              		.p2align 2,,3
 4032              		.global	hv_setOutputMessageQueueSize
 4033              		.syntax unified
 4034              		.thumb
 4035              		.thumb_func
 4037              	hv_setOutputMessageQueueSize:
 4038              	.LVL310:
 4039              	.LFB1024:
 278:source/HvHeavy.cpp **** }
 279:source/HvHeavy.cpp **** 
 280:source/HvHeavy.cpp **** HV_EXPORT void hv_setOutputMessageQueueSize(HeavyContextInterface *c, hv_uint32_t outQueueKb) {
 4040              		.loc 3 280 95 is_stmt 1 view -0
 4041              		.cfi_startproc
 4042              		@ args = 0, pretend = 0, frame = 0
 4043              		@ frame_needed = 0, uses_anonymous_args = 0
 281:source/HvHeavy.cpp ****   hv_assert(c != nullptr);
 4044              		.loc 3 281 3 view .LVU805
 4045 0000 18B1     		cbz	r0, .L383
 282:source/HvHeavy.cpp ****   c->setOutputMessageQueueSize(outQueueKb);
 4046              		.loc 3 282 3 view .LVU806
 4047              		.loc 3 282 42 is_stmt 0 view .LVU807
 4048 0002 0368     		ldr	r3, [r0]
 4049              		.loc 3 282 31 view .LVU808
 4050 0004 D3F88430 		ldr	r3, [r3, #132]
 4051 0008 1847     		bx	r3	@ indirect register sibling call
 4052              	.LVL311:
 4053              	.L383:
 281:source/HvHeavy.cpp ****   hv_assert(c != nullptr);
 4054              		.loc 3 281 3 discriminator 1 view .LVU809
 4055 000a 044B     		ldr	r3, .L384
 4056 000c 40F21911 		movw	r1, #281
 4057              	.LVL312:
 281:source/HvHeavy.cpp ****   hv_assert(c != nullptr);
 4058              		.loc 3 281 3 discriminator 1 view .LVU810
 4059 0010 034A     		ldr	r2, .L384+4
 4060 0012 0448     		ldr	r0, .L384+8
 4061              	.LVL313:
 280:source/HvHeavy.cpp ****   hv_assert(c != nullptr);
 4062              		.loc 3 280 95 discriminator 1 view .LVU811
 4063 0014 10B5     		push	{r4, lr}
 4064              		.cfi_def_cfa_offset 8
 4065              		.cfi_offset 4, -8
 4066              		.cfi_offset 14, -4
 281:source/HvHeavy.cpp ****   hv_assert(c != nullptr);
 4067              		.loc 3 281 3 discriminator 1 view .LVU812
 4068 0016 FFF7FEFF 		bl	__assert_func
 4069              	.LVL314:
 4070              	.L385:
 4071 001a 00BF     		.align	2
 4072              	.L384:
 4073 001c 00000000 		.word	.LC8
 4074 0020 00000000 		.word	.LC43
 4075 0024 54000000 		.word	.LC10
 4076              		.cfi_endproc
 4077              	.LFE1024:
ARM GAS  /var/folders/fb/yfxt3z4538j6z0vjt03w70vc0000gn/T//ccfQbMBb.s 			page 92


 4079              		.section	.rodata.hv_getNextSentMessage.str1.4,"aMS",%progbits,1
 4080              		.align	2
 4081              	.LC44:
 4082 0000 626F6F6C 		.ascii	"bool hv_getNextSentMessage(HeavyContextInterface*, "
 4082      2068765F 
 4082      6765744E 
 4082      65787453 
 4082      656E744D 
 4083 0033 75696E74 		.ascii	"uint32_t*, HvMessage*, uint32_t)\000"
 4083      33325F74 
 4083      2A2C2048 
 4083      764D6573 
 4083      73616765 
 4084              		.align	2
 4085              	.LC45:
 4086 0054 64657374 		.ascii	"destinationHash != nullptr\000"
 4086      696E6174 
 4086      696F6E48 
 4086      61736820 
 4086      213D206E 
 4087 006f 00       		.align	2
 4088              	.LC46:
 4089 0070 6F75744D 		.ascii	"outMsg != nullptr\000"
 4089      73672021 
 4089      3D206E75 
 4089      6C6C7074 
 4089      7200
 4090              		.section	.text.hv_getNextSentMessage,"ax",%progbits
 4091              		.align	1
 4092              		.p2align 2,,3
 4093              		.global	hv_getNextSentMessage
 4094              		.syntax unified
 4095              		.thumb
 4096              		.thumb_func
 4098              	hv_getNextSentMessage:
 4099              	.LVL315:
 4100              	.LFB1025:
 283:source/HvHeavy.cpp **** }
 284:source/HvHeavy.cpp **** 
 285:source/HvHeavy.cpp **** HV_EXPORT bool hv_getNextSentMessage(HeavyContextInterface *c, hv_uint32_t *destinationHash, HvMess
 4101              		.loc 3 285 136 is_stmt 1 view -0
 4102              		.cfi_startproc
 4103              		@ args = 0, pretend = 0, frame = 0
 4104              		@ frame_needed = 0, uses_anonymous_args = 0
 286:source/HvHeavy.cpp ****   hv_assert(c != nullptr);
 4105              		.loc 3 286 3 view .LVU814
 285:source/HvHeavy.cpp ****   hv_assert(c != nullptr);
 4106              		.loc 3 285 136 is_stmt 0 view .LVU815
 4107 0000 70B5     		push	{r4, r5, r6, lr}
 4108              		.cfi_def_cfa_offset 16
 4109              		.cfi_offset 4, -16
 4110              		.cfi_offset 5, -12
 4111              		.cfi_offset 6, -8
 4112              		.cfi_offset 14, -4
 4113              		.loc 3 286 3 view .LVU816
 4114 0002 40B1     		cbz	r0, .L391
 287:source/HvHeavy.cpp ****   hv_assert(destinationHash != nullptr);
ARM GAS  /var/folders/fb/yfxt3z4538j6z0vjt03w70vc0000gn/T//ccfQbMBb.s 			page 93


 4115              		.loc 3 287 3 is_stmt 1 view .LVU817
 4116 0004 A9B1     		cbz	r1, .L392
 288:source/HvHeavy.cpp ****   hv_assert(outMsg != nullptr);
 4117              		.loc 3 288 3 view .LVU818
 4118 0006 6AB1     		cbz	r2, .L393
 289:source/HvHeavy.cpp ****   return c->getNextSentMessage(destinationHash, outMsg, msgLength);
 4119              		.loc 3 289 3 view .LVU819
 4120              		.loc 3 289 66 is_stmt 0 view .LVU820
 4121 0008 0468     		ldr	r4, [r0]
 4122              		.loc 3 289 31 view .LVU821
 4123 000a D4F88840 		ldr	r4, [r4, #136]
 4124 000e A446     		mov	ip, r4
 290:source/HvHeavy.cpp **** }
 4125              		.loc 3 290 1 view .LVU822
 4126 0010 BDE87040 		pop	{r4, r5, r6, lr}
 4127              		.cfi_remember_state
 4128              		.cfi_restore 14
 4129              		.cfi_restore 6
 4130              		.cfi_restore 5
 4131              		.cfi_restore 4
 4132              		.cfi_def_cfa_offset 0
 289:source/HvHeavy.cpp ****   return c->getNextSentMessage(destinationHash, outMsg, msgLength);
 4133              		.loc 3 289 31 view .LVU823
 4134 0014 6047     		bx	ip
 4135              	.LVL316:
 4136              	.L391:
 4137              		.cfi_restore_state
 286:source/HvHeavy.cpp ****   hv_assert(destinationHash != nullptr);
 4138              		.loc 3 286 3 discriminator 1 view .LVU824
 4139 0016 0A4B     		ldr	r3, .L394
 4140              	.LVL317:
 286:source/HvHeavy.cpp ****   hv_assert(destinationHash != nullptr);
 4141              		.loc 3 286 3 discriminator 1 view .LVU825
 4142 0018 4FF48F71 		mov	r1, #286
 4143              	.LVL318:
 286:source/HvHeavy.cpp ****   hv_assert(destinationHash != nullptr);
 4144              		.loc 3 286 3 discriminator 1 view .LVU826
 4145 001c 094A     		ldr	r2, .L394+4
 4146              	.LVL319:
 286:source/HvHeavy.cpp ****   hv_assert(destinationHash != nullptr);
 4147              		.loc 3 286 3 discriminator 1 view .LVU827
 4148 001e 0A48     		ldr	r0, .L394+8
 4149              	.LVL320:
 286:source/HvHeavy.cpp ****   hv_assert(destinationHash != nullptr);
 4150              		.loc 3 286 3 discriminator 1 view .LVU828
 4151 0020 FFF7FEFF 		bl	__assert_func
 4152              	.LVL321:
 4153              	.L393:
 288:source/HvHeavy.cpp ****   return c->getNextSentMessage(destinationHash, outMsg, msgLength);
 4154              		.loc 3 288 3 discriminator 1 view .LVU829
 4155 0024 094B     		ldr	r3, .L394+12
 4156              	.LVL322:
 288:source/HvHeavy.cpp ****   return c->getNextSentMessage(destinationHash, outMsg, msgLength);
 4157              		.loc 3 288 3 discriminator 1 view .LVU830
 4158 0026 4FF49071 		mov	r1, #288
 4159              	.LVL323:
 288:source/HvHeavy.cpp ****   return c->getNextSentMessage(destinationHash, outMsg, msgLength);
ARM GAS  /var/folders/fb/yfxt3z4538j6z0vjt03w70vc0000gn/T//ccfQbMBb.s 			page 94


 4160              		.loc 3 288 3 discriminator 1 view .LVU831
 4161 002a 064A     		ldr	r2, .L394+4
 4162              	.LVL324:
 288:source/HvHeavy.cpp ****   return c->getNextSentMessage(destinationHash, outMsg, msgLength);
 4163              		.loc 3 288 3 discriminator 1 view .LVU832
 4164 002c 0648     		ldr	r0, .L394+8
 4165              	.LVL325:
 288:source/HvHeavy.cpp ****   return c->getNextSentMessage(destinationHash, outMsg, msgLength);
 4166              		.loc 3 288 3 discriminator 1 view .LVU833
 4167 002e FFF7FEFF 		bl	__assert_func
 4168              	.LVL326:
 4169              	.L392:
 287:source/HvHeavy.cpp ****   hv_assert(outMsg != nullptr);
 4170              		.loc 3 287 3 discriminator 1 view .LVU834
 4171 0032 074B     		ldr	r3, .L394+16
 4172              	.LVL327:
 287:source/HvHeavy.cpp ****   hv_assert(outMsg != nullptr);
 4173              		.loc 3 287 3 discriminator 1 view .LVU835
 4174 0034 40F21F11 		movw	r1, #287
 4175              	.LVL328:
 287:source/HvHeavy.cpp ****   hv_assert(outMsg != nullptr);
 4176              		.loc 3 287 3 discriminator 1 view .LVU836
 4177 0038 024A     		ldr	r2, .L394+4
 4178              	.LVL329:
 287:source/HvHeavy.cpp ****   hv_assert(outMsg != nullptr);
 4179              		.loc 3 287 3 discriminator 1 view .LVU837
 4180 003a 0348     		ldr	r0, .L394+8
 4181              	.LVL330:
 287:source/HvHeavy.cpp ****   hv_assert(outMsg != nullptr);
 4182              		.loc 3 287 3 discriminator 1 view .LVU838
 4183 003c FFF7FEFF 		bl	__assert_func
 4184              	.LVL331:
 4185              	.L395:
 4186              		.align	2
 4187              	.L394:
 4188 0040 00000000 		.word	.LC8
 4189 0044 00000000 		.word	.LC44
 4190 0048 54000000 		.word	.LC10
 4191 004c 70000000 		.word	.LC46
 4192 0050 54000000 		.word	.LC45
 4193              		.cfi_endproc
 4194              	.LFE1025:
 4196              		.section	.rodata.hv_process.str1.4,"aMS",%progbits,1
 4197              		.align	2
 4198              	.LC47:
 4199 0000 696E7420 		.ascii	"int hv_process(HeavyContextInterface*, float**, flo"
 4199      68765F70 
 4199      726F6365 
 4199      73732848 
 4199      65617679 
 4200 0033 61742A2A 		.ascii	"at**, int)\000"
 4200      2C20696E 
 4200      742900
 4201              		.section	.text.hv_process,"ax",%progbits
 4202              		.align	1
 4203              		.p2align 2,,3
 4204              		.global	hv_process
ARM GAS  /var/folders/fb/yfxt3z4538j6z0vjt03w70vc0000gn/T//ccfQbMBb.s 			page 95


 4205              		.syntax unified
 4206              		.thumb
 4207              		.thumb_func
 4209              	hv_process:
 4210              	.LVL332:
 4211              	.LFB1026:
 291:source/HvHeavy.cpp **** 
 292:source/HvHeavy.cpp **** 
 293:source/HvHeavy.cpp **** #if !HV_WIN
 294:source/HvHeavy.cpp **** #pragma mark - Heavy Common
 295:source/HvHeavy.cpp **** #endif
 296:source/HvHeavy.cpp **** 
 297:source/HvHeavy.cpp **** HV_EXPORT int hv_process(HeavyContextInterface *c, float **inputBuffers, float **outputBuffers, int
 4212              		.loc 3 297 104 is_stmt 1 view -0
 4213              		.cfi_startproc
 4214              		@ args = 0, pretend = 0, frame = 0
 4215              		@ frame_needed = 0, uses_anonymous_args = 0
 298:source/HvHeavy.cpp ****   hv_assert(c != nullptr);
 4216              		.loc 3 298 3 view .LVU840
 297:source/HvHeavy.cpp ****   hv_assert(c != nullptr);
 4217              		.loc 3 297 104 is_stmt 0 view .LVU841
 4218 0000 10B5     		push	{r4, lr}
 4219              		.cfi_def_cfa_offset 8
 4220              		.cfi_offset 4, -8
 4221              		.cfi_offset 14, -4
 4222              		.loc 3 298 3 view .LVU842
 4223 0002 28B1     		cbz	r0, .L399
 299:source/HvHeavy.cpp ****   return c->process(inputBuffers, outputBuffers, n);
 4224              		.loc 3 299 3 is_stmt 1 view .LVU843
 4225              		.loc 3 299 51 is_stmt 0 view .LVU844
 4226 0004 0468     		ldr	r4, [r0]
 4227              		.loc 3 299 20 view .LVU845
 4228 0006 246C     		ldr	r4, [r4, #64]
 4229 0008 A446     		mov	ip, r4
 300:source/HvHeavy.cpp **** }
 4230              		.loc 3 300 1 view .LVU846
 4231 000a BDE81040 		pop	{r4, lr}
 4232              		.cfi_remember_state
 4233              		.cfi_restore 14
 4234              		.cfi_restore 4
 4235              		.cfi_def_cfa_offset 0
 299:source/HvHeavy.cpp ****   return c->process(inputBuffers, outputBuffers, n);
 4236              		.loc 3 299 20 view .LVU847
 4237 000e 6047     		bx	ip
 4238              	.LVL333:
 4239              	.L399:
 4240              		.cfi_restore_state
 298:source/HvHeavy.cpp ****   return c->process(inputBuffers, outputBuffers, n);
 4241              		.loc 3 298 3 discriminator 1 view .LVU848
 4242 0010 034B     		ldr	r3, .L400
 4243              	.LVL334:
 298:source/HvHeavy.cpp ****   return c->process(inputBuffers, outputBuffers, n);
 4244              		.loc 3 298 3 discriminator 1 view .LVU849
 4245 0012 4FF49571 		mov	r1, #298
 4246              	.LVL335:
 298:source/HvHeavy.cpp ****   return c->process(inputBuffers, outputBuffers, n);
 4247              		.loc 3 298 3 discriminator 1 view .LVU850
ARM GAS  /var/folders/fb/yfxt3z4538j6z0vjt03w70vc0000gn/T//ccfQbMBb.s 			page 96


 4248 0016 034A     		ldr	r2, .L400+4
 4249              	.LVL336:
 298:source/HvHeavy.cpp ****   return c->process(inputBuffers, outputBuffers, n);
 4250              		.loc 3 298 3 discriminator 1 view .LVU851
 4251 0018 0348     		ldr	r0, .L400+8
 4252              	.LVL337:
 298:source/HvHeavy.cpp ****   return c->process(inputBuffers, outputBuffers, n);
 4253              		.loc 3 298 3 discriminator 1 view .LVU852
 4254 001a FFF7FEFF 		bl	__assert_func
 4255              	.LVL338:
 4256              	.L401:
 4257 001e 00BF     		.align	2
 4258              	.L400:
 4259 0020 00000000 		.word	.LC8
 4260 0024 00000000 		.word	.LC47
 4261 0028 54000000 		.word	.LC10
 4262              		.cfi_endproc
 4263              	.LFE1026:
 4265              		.section	.rodata.hv_processInline.str1.4,"aMS",%progbits,1
 4266              		.align	2
 4267              	.LC48:
 4268 0000 696E7420 		.ascii	"int hv_processInline(HeavyContextInterface*, float*"
 4268      68765F70 
 4268      726F6365 
 4268      7373496E 
 4268      6C696E65 
 4269 0033 2C20666C 		.ascii	", float*, int)\000"
 4269      6F61742A 
 4269      2C20696E 
 4269      742900
 4270              		.section	.text.hv_processInline,"ax",%progbits
 4271              		.align	1
 4272              		.p2align 2,,3
 4273              		.global	hv_processInline
 4274              		.syntax unified
 4275              		.thumb
 4276              		.thumb_func
 4278              	hv_processInline:
 4279              	.LVL339:
 4280              	.LFB1027:
 301:source/HvHeavy.cpp **** 
 302:source/HvHeavy.cpp **** HV_EXPORT int hv_processInline(HeavyContextInterface *c, float *inputBuffers, float *outputBuffers,
 4281              		.loc 3 302 108 is_stmt 1 view -0
 4282              		.cfi_startproc
 4283              		@ args = 0, pretend = 0, frame = 0
 4284              		@ frame_needed = 0, uses_anonymous_args = 0
 303:source/HvHeavy.cpp ****   hv_assert(c != nullptr);
 4285              		.loc 3 303 3 view .LVU854
 302:source/HvHeavy.cpp ****   hv_assert(c != nullptr);
 4286              		.loc 3 302 108 is_stmt 0 view .LVU855
 4287 0000 10B5     		push	{r4, lr}
 4288              		.cfi_def_cfa_offset 8
 4289              		.cfi_offset 4, -8
 4290              		.cfi_offset 14, -4
 4291              		.loc 3 303 3 view .LVU856
 4292 0002 28B1     		cbz	r0, .L405
 304:source/HvHeavy.cpp ****   return c->processInline(inputBuffers, outputBuffers, n);
ARM GAS  /var/folders/fb/yfxt3z4538j6z0vjt03w70vc0000gn/T//ccfQbMBb.s 			page 97


 4293              		.loc 3 304 3 is_stmt 1 view .LVU857
 4294              		.loc 3 304 57 is_stmt 0 view .LVU858
 4295 0004 0468     		ldr	r4, [r0]
 4296              		.loc 3 304 26 view .LVU859
 4297 0006 646C     		ldr	r4, [r4, #68]
 4298 0008 A446     		mov	ip, r4
 305:source/HvHeavy.cpp **** }
 4299              		.loc 3 305 1 view .LVU860
 4300 000a BDE81040 		pop	{r4, lr}
 4301              		.cfi_remember_state
 4302              		.cfi_restore 14
 4303              		.cfi_restore 4
 4304              		.cfi_def_cfa_offset 0
 304:source/HvHeavy.cpp ****   return c->processInline(inputBuffers, outputBuffers, n);
 4305              		.loc 3 304 26 view .LVU861
 4306 000e 6047     		bx	ip
 4307              	.LVL340:
 4308              	.L405:
 4309              		.cfi_restore_state
 303:source/HvHeavy.cpp ****   return c->processInline(inputBuffers, outputBuffers, n);
 4310              		.loc 3 303 3 discriminator 1 view .LVU862
 4311 0010 034B     		ldr	r3, .L406
 4312              	.LVL341:
 303:source/HvHeavy.cpp ****   return c->processInline(inputBuffers, outputBuffers, n);
 4313              		.loc 3 303 3 discriminator 1 view .LVU863
 4314 0012 40F22F11 		movw	r1, #303
 4315              	.LVL342:
 303:source/HvHeavy.cpp ****   return c->processInline(inputBuffers, outputBuffers, n);
 4316              		.loc 3 303 3 discriminator 1 view .LVU864
 4317 0016 034A     		ldr	r2, .L406+4
 4318              	.LVL343:
 303:source/HvHeavy.cpp ****   return c->processInline(inputBuffers, outputBuffers, n);
 4319              		.loc 3 303 3 discriminator 1 view .LVU865
 4320 0018 0348     		ldr	r0, .L406+8
 4321              	.LVL344:
 303:source/HvHeavy.cpp ****   return c->processInline(inputBuffers, outputBuffers, n);
 4322              		.loc 3 303 3 discriminator 1 view .LVU866
 4323 001a FFF7FEFF 		bl	__assert_func
 4324              	.LVL345:
 4325              	.L407:
 4326 001e 00BF     		.align	2
 4327              	.L406:
 4328 0020 00000000 		.word	.LC8
 4329 0024 00000000 		.word	.LC48
 4330 0028 54000000 		.word	.LC10
 4331              		.cfi_endproc
 4332              	.LFE1027:
 4334              		.section	.rodata.hv_processInlineInterleaved.str1.4,"aMS",%progbits,1
 4335              		.align	2
 4336              	.LC49:
 4337 0000 696E7420 		.ascii	"int hv_processInlineInterleaved(HeavyContextInterfa"
 4337      68765F70 
 4337      726F6365 
 4337      7373496E 
 4337      6C696E65 
 4338 0033 63652A2C 		.ascii	"ce*, float*, float*, int)\000"
 4338      20666C6F 
ARM GAS  /var/folders/fb/yfxt3z4538j6z0vjt03w70vc0000gn/T//ccfQbMBb.s 			page 98


 4338      61742A2C 
 4338      20666C6F 
 4338      61742A2C 
 4339              		.section	.text.hv_processInlineInterleaved,"ax",%progbits
 4340              		.align	1
 4341              		.p2align 2,,3
 4342              		.global	hv_processInlineInterleaved
 4343              		.syntax unified
 4344              		.thumb
 4345              		.thumb_func
 4347              	hv_processInlineInterleaved:
 4348              	.LVL346:
 4349              	.LFB1028:
 306:source/HvHeavy.cpp **** 
 307:source/HvHeavy.cpp **** HV_EXPORT int hv_processInlineInterleaved(HeavyContextInterface *c, float *inputBuffers, float *out
 4350              		.loc 3 307 119 is_stmt 1 view -0
 4351              		.cfi_startproc
 4352              		@ args = 0, pretend = 0, frame = 0
 4353              		@ frame_needed = 0, uses_anonymous_args = 0
 308:source/HvHeavy.cpp ****   hv_assert(c != nullptr);
 4354              		.loc 3 308 3 view .LVU868
 307:source/HvHeavy.cpp ****   hv_assert(c != nullptr);
 4355              		.loc 3 307 119 is_stmt 0 view .LVU869
 4356 0000 10B5     		push	{r4, lr}
 4357              		.cfi_def_cfa_offset 8
 4358              		.cfi_offset 4, -8
 4359              		.cfi_offset 14, -4
 4360              		.loc 3 308 3 view .LVU870
 4361 0002 28B1     		cbz	r0, .L411
 309:source/HvHeavy.cpp ****   return c->processInlineInterleaved(inputBuffers, outputBuffers, n);
 4362              		.loc 3 309 3 is_stmt 1 view .LVU871
 4363              		.loc 3 309 68 is_stmt 0 view .LVU872
 4364 0004 0468     		ldr	r4, [r0]
 4365              		.loc 3 309 37 view .LVU873
 4366 0006 A46C     		ldr	r4, [r4, #72]
 4367 0008 A446     		mov	ip, r4
 310:source/HvHeavy.cpp **** }
 4368              		.loc 3 310 1 view .LVU874
 4369 000a BDE81040 		pop	{r4, lr}
 4370              		.cfi_remember_state
 4371              		.cfi_restore 14
 4372              		.cfi_restore 4
 4373              		.cfi_def_cfa_offset 0
 309:source/HvHeavy.cpp ****   return c->processInlineInterleaved(inputBuffers, outputBuffers, n);
 4374              		.loc 3 309 37 view .LVU875
 4375 000e 6047     		bx	ip
 4376              	.LVL347:
 4377              	.L411:
 4378              		.cfi_restore_state
 308:source/HvHeavy.cpp ****   return c->processInlineInterleaved(inputBuffers, outputBuffers, n);
 4379              		.loc 3 308 3 discriminator 1 view .LVU876
 4380 0010 034B     		ldr	r3, .L412
 4381              	.LVL348:
 308:source/HvHeavy.cpp ****   return c->processInlineInterleaved(inputBuffers, outputBuffers, n);
 4382              		.loc 3 308 3 discriminator 1 view .LVU877
 4383 0012 4FF49A71 		mov	r1, #308
 4384              	.LVL349:
ARM GAS  /var/folders/fb/yfxt3z4538j6z0vjt03w70vc0000gn/T//ccfQbMBb.s 			page 99


 308:source/HvHeavy.cpp ****   return c->processInlineInterleaved(inputBuffers, outputBuffers, n);
 4385              		.loc 3 308 3 discriminator 1 view .LVU878
 4386 0016 034A     		ldr	r2, .L412+4
 4387              	.LVL350:
 308:source/HvHeavy.cpp ****   return c->processInlineInterleaved(inputBuffers, outputBuffers, n);
 4388              		.loc 3 308 3 discriminator 1 view .LVU879
 4389 0018 0348     		ldr	r0, .L412+8
 4390              	.LVL351:
 308:source/HvHeavy.cpp ****   return c->processInlineInterleaved(inputBuffers, outputBuffers, n);
 4391              		.loc 3 308 3 discriminator 1 view .LVU880
 4392 001a FFF7FEFF 		bl	__assert_func
 4393              	.LVL352:
 4394              	.L413:
 4395 001e 00BF     		.align	2
 4396              	.L412:
 4397 0020 00000000 		.word	.LC8
 4398 0024 00000000 		.word	.LC49
 4399 0028 54000000 		.word	.LC10
 4400              		.cfi_endproc
 4401              	.LFE1028:
 4403              		.section	.text.hv_delete,"ax",%progbits
 4404              		.align	1
 4405              		.p2align 2,,3
 4406              		.global	hv_delete
 4407              		.syntax unified
 4408              		.thumb
 4409              		.thumb_func
