ARM GAS  /var/folders/fb/yfxt3z4538j6z0vjt03w70vc0000gn/T//ccEfYTmh.s 			page 1


   1              		.cpu cortex-m7
   2              		.arch armv7e-m
   3              		.fpu fpv5-d16
   4              		.eabi_attribute 28, 1
   5              		.eabi_attribute 20, 1
   6              		.eabi_attribute 21, 1
   7              		.eabi_attribute 23, 3
   8              		.eabi_attribute 24, 1
   9              		.eabi_attribute 25, 1
  10              		.eabi_attribute 26, 1
  11              		.eabi_attribute 30, 2
  12              		.eabi_attribute 34, 1
  13              		.eabi_attribute 18, 4
  14              		.file	"HvMessage.c"
  15              		.text
  16              	.Ltext0:
  17              		.cfi_sections	.debug_frame
  18              		.section	.rodata.msg_getCoreSize.part.0.str1.4,"aMS",%progbits,1
  19              		.align	2
  20              	.LC0:
  21 0000 6E756D45 		.ascii	"numElements > 0\000"
  21      6C656D65 
  21      6E747320 
  21      3E203000 
  22              		.align	2
  23              	.LC1:
  24 0010 736F7572 		.ascii	"source/HvMessage.h\000"
  24      63652F48 
  24      764D6573 
  24      73616765 
  24      2E6800
  25              		.section	.text.msg_getCoreSize.part.0,"ax",%progbits
  26              		.align	1
  27              		.p2align 2,,3
  28              		.syntax unified
  29              		.thumb
  30              		.thumb_func
  32              	msg_getCoreSize.part.0:
  33              	.LFB359:
  34              		.file 1 "source/HvMessage.h"
   1:source/HvMessage.h **** /**
   2:source/HvMessage.h ****  * Copyright (c) 2014-2018 Enzien Audio Ltd.
   3:source/HvMessage.h ****  *
   4:source/HvMessage.h ****  * Permission to use, copy, modify, and/or distribute this software for any
   5:source/HvMessage.h ****  * purpose with or without fee is hereby granted, provided that the above
   6:source/HvMessage.h ****  * copyright notice and this permission notice appear in all copies.
   7:source/HvMessage.h ****  *
   8:source/HvMessage.h ****  * THE SOFTWARE IS PROVIDED "AS IS" AND THE AUTHOR DISCLAIMS ALL WARRANTIES WITH
   9:source/HvMessage.h ****  * REGARD TO THIS SOFTWARE INCLUDING ALL IMPLIED WARRANTIES OF MERCHANTABILITY
  10:source/HvMessage.h ****  * AND FITNESS. IN NO EVENT SHALL THE AUTHOR BE LIABLE FOR ANY SPECIAL, DIRECT,
  11:source/HvMessage.h ****  * INDIRECT, OR CONSEQUENTIAL DAMAGES OR ANY DAMAGES WHATSOEVER RESULTING FROM
  12:source/HvMessage.h ****  * LOSS OF USE, DATA OR PROFITS, WHETHER IN AN ACTION OF CONTRACT, NEGLIGENCE OR
  13:source/HvMessage.h ****  * OTHER TORTIOUS ACTION, ARISING OUT OF OR IN CONNECTION WITH THE USE OR
  14:source/HvMessage.h ****  * PERFORMANCE OF THIS SOFTWARE.
  15:source/HvMessage.h ****  */
  16:source/HvMessage.h **** 
  17:source/HvMessage.h **** #ifndef _HEAVY_MESSAGE_H_
ARM GAS  /var/folders/fb/yfxt3z4538j6z0vjt03w70vc0000gn/T//ccEfYTmh.s 			page 2


  18:source/HvMessage.h **** #define _HEAVY_MESSAGE_H_
  19:source/HvMessage.h **** 
  20:source/HvMessage.h **** #include "HvUtils.h"
  21:source/HvMessage.h **** 
  22:source/HvMessage.h **** #ifdef __cplusplus
  23:source/HvMessage.h **** extern "C" {
  24:source/HvMessage.h **** #endif
  25:source/HvMessage.h **** 
  26:source/HvMessage.h **** typedef enum ElementType {
  27:source/HvMessage.h ****   HV_MSG_BANG = 0,
  28:source/HvMessage.h ****   HV_MSG_FLOAT = 1,
  29:source/HvMessage.h ****   HV_MSG_SYMBOL = 2,
  30:source/HvMessage.h ****   HV_MSG_HASH = 3
  31:source/HvMessage.h **** } ElementType;
  32:source/HvMessage.h **** 
  33:source/HvMessage.h **** typedef struct Element {
  34:source/HvMessage.h ****   ElementType type;
  35:source/HvMessage.h ****   union {
  36:source/HvMessage.h ****     float f; // float
  37:source/HvMessage.h ****     const char *s; // symbol
  38:source/HvMessage.h ****     hv_uint32_t h; // hash
  39:source/HvMessage.h ****   } data;
  40:source/HvMessage.h **** } Element;
  41:source/HvMessage.h **** 
  42:source/HvMessage.h **** typedef struct HvMessage {
  43:source/HvMessage.h ****   hv_uint32_t timestamp; // the sample at which this message should be processed
  44:source/HvMessage.h ****   hv_uint16_t numElements;
  45:source/HvMessage.h ****   hv_uint16_t numBytes; // the total number of bytes that this message occupies in memory, includin
  46:source/HvMessage.h ****   Element elem;
  47:source/HvMessage.h **** } HvMessage;
  48:source/HvMessage.h **** 
  49:source/HvMessage.h **** typedef struct ReceiverMessagePair {
  50:source/HvMessage.h ****   hv_uint32_t receiverHash;
  51:source/HvMessage.h ****   HvMessage msg;
  52:source/HvMessage.h **** } ReceiverMessagePair;
  53:source/HvMessage.h **** 
  54:source/HvMessage.h **** #define HV_MESSAGE_ON_STACK(_x) (HvMessage *) hv_alloca(msg_getCoreSize(_x))
  55:source/HvMessage.h **** 
  56:source/HvMessage.h **** /** Returns the number of bytes that this message consumes in memory, not including strings. */
  57:source/HvMessage.h **** static inline hv_size_t msg_getCoreSize(hv_size_t numElements) {
  35              		.loc 1 57 25 view -0
  36              		.cfi_startproc
  37              		@ Volatile: function does not return.
  38              		@ args = 0, pretend = 0, frame = 0
  39              		@ frame_needed = 0, uses_anonymous_args = 0
  40              	.LVL0:
  41              		.loc 1 57 25 is_stmt 0 view .LVU1
  42 0000 08B5     		push	{r3, lr}
  43              		.cfi_def_cfa_offset 8
  44              		.cfi_offset 3, -8
  45              		.cfi_offset 14, -4
  58:source/HvMessage.h ****   hv_assert(numElements > 0);
  46              		.loc 1 58 3 view .LVU2
  47 0002 034A     		ldr	r2, .L4
  48 0004 3A21     		movs	r1, #58
  49 0006 034B     		ldr	r3, .L4+4
  50 0008 0348     		ldr	r0, .L4+8
ARM GAS  /var/folders/fb/yfxt3z4538j6z0vjt03w70vc0000gn/T//ccEfYTmh.s 			page 3


  51 000a FFF7FEFF 		bl	__assert_func
  52              	.LVL1:
  53              	.L5:
  54 000e 00BF     		.align	2
  55              	.L4:
  56 0010 00000000 		.word	.LANCHOR0
  57 0014 00000000 		.word	.LC0
  58 0018 10000000 		.word	.LC1
  59              		.cfi_endproc
  60              	.LFE359:
  62              		.section	.rodata.msg_setBang.part.0.str1.4,"aMS",%progbits,1
  63              		.align	2
  64              	.LC2:
  65 0000 696E6465 		.ascii	"index < msg_getNumElements(m)\000"
  65      78203C20 
  65      6D73675F 
  65      6765744E 
  65      756D456C 
  66              		.section	.text.msg_setBang.part.0,"ax",%progbits
  67              		.align	1
  68              		.p2align 2,,3
  69              		.syntax unified
  70              		.thumb
  71              		.thumb_func
  73              	msg_setBang.part.0:
  74              	.LFB361:
  59:source/HvMessage.h ****   return sizeof(HvMessage) + ((numElements-1) * sizeof(Element));
  60:source/HvMessage.h **** }
  61:source/HvMessage.h **** 
  62:source/HvMessage.h **** HvMessage *msg_copy(const HvMessage *m);
  63:source/HvMessage.h **** 
  64:source/HvMessage.h **** /** Copies the message into the given buffer. The buffer must be at least as large as msg_getNumHea
  65:source/HvMessage.h **** void msg_copyToBuffer(const HvMessage *m, char *buffer, hv_size_t len);
  66:source/HvMessage.h **** 
  67:source/HvMessage.h **** void msg_setElementToFrom(HvMessage *n, int indexN, const HvMessage *const m, int indexM);
  68:source/HvMessage.h **** 
  69:source/HvMessage.h **** /** Frees a message on the heap. Does nothing if argument is NULL. */
  70:source/HvMessage.h **** void msg_free(HvMessage *m);
  71:source/HvMessage.h **** 
  72:source/HvMessage.h **** HvMessage *msg_init(HvMessage *m, hv_size_t numElements, hv_uint32_t timestamp);
  73:source/HvMessage.h **** 
  74:source/HvMessage.h **** HvMessage *msg_initWithFloat(HvMessage *m, hv_uint32_t timestamp, float f);
  75:source/HvMessage.h **** 
  76:source/HvMessage.h **** HvMessage *msg_initWithBang(HvMessage *m, hv_uint32_t timestamp);
  77:source/HvMessage.h **** 
  78:source/HvMessage.h **** HvMessage *msg_initWithSymbol(HvMessage *m, hv_uint32_t timestamp, const char *s);
  79:source/HvMessage.h **** 
  80:source/HvMessage.h **** HvMessage *msg_initWithHash(HvMessage *m, hv_uint32_t timestamp, hv_uint32_t h);
  81:source/HvMessage.h **** 
  82:source/HvMessage.h **** static inline hv_uint32_t msg_getTimestamp(const HvMessage *m) {
  83:source/HvMessage.h ****   return m->timestamp;
  84:source/HvMessage.h **** }
  85:source/HvMessage.h **** 
  86:source/HvMessage.h **** static inline void msg_setTimestamp(HvMessage *m, hv_uint32_t timestamp) {
  87:source/HvMessage.h ****   m->timestamp = timestamp;
  88:source/HvMessage.h **** }
  89:source/HvMessage.h **** 
ARM GAS  /var/folders/fb/yfxt3z4538j6z0vjt03w70vc0000gn/T//ccEfYTmh.s 			page 4


  90:source/HvMessage.h **** static inline int msg_getNumElements(const HvMessage *m) {
  91:source/HvMessage.h ****   return (int) m->numElements;
  92:source/HvMessage.h **** }
  93:source/HvMessage.h **** 
  94:source/HvMessage.h **** /** Returns the total number of bytes this message consumes in memory. */
  95:source/HvMessage.h **** static inline hv_uint32_t msg_getSize(const HvMessage *m) {
  96:source/HvMessage.h ****   return m->numBytes;
  97:source/HvMessage.h **** }
  98:source/HvMessage.h **** 
  99:source/HvMessage.h **** static inline ElementType msg_getType(const HvMessage *m, int index) {
 100:source/HvMessage.h ****   hv_assert(index < msg_getNumElements(m)); // invalid index
 101:source/HvMessage.h ****   return (&(m->elem)+index)->type;
 102:source/HvMessage.h **** }
 103:source/HvMessage.h **** 
 104:source/HvMessage.h **** static inline void msg_setBang(HvMessage *m, int index) {
  75              		.loc 1 104 20 is_stmt 1 view -0
  76              		.cfi_startproc
  77              		@ Volatile: function does not return.
  78              		@ args = 0, pretend = 0, frame = 0
  79              		@ frame_needed = 0, uses_anonymous_args = 0
  80              	.LVL2:
  81              		.loc 1 104 20 is_stmt 0 view .LVU4
  82 0000 08B5     		push	{r3, lr}
  83              		.cfi_def_cfa_offset 8
  84              		.cfi_offset 3, -8
  85              		.cfi_offset 14, -4
 105:source/HvMessage.h ****   hv_assert(index < msg_getNumElements(m)); // invalid index
  86              		.loc 1 105 3 view .LVU5
  87 0002 034A     		ldr	r2, .L8
  88 0004 6921     		movs	r1, #105
  89 0006 034B     		ldr	r3, .L8+4
  90 0008 0348     		ldr	r0, .L8+8
  91 000a FFF7FEFF 		bl	__assert_func
  92              	.LVL3:
  93              	.L9:
  94 000e 00BF     		.align	2
  95              	.L8:
  96 0010 00000000 		.word	.LANCHOR1
  97 0014 00000000 		.word	.LC2
  98 0018 10000000 		.word	.LC1
  99              		.cfi_endproc
 100              	.LFE361:
 102              		.section	.text.msg_getType.part.0,"ax",%progbits
 103              		.align	1
 104              		.p2align 2,,3
 105              		.syntax unified
 106              		.thumb
 107              		.thumb_func
 109              	msg_getType.part.0:
 110              	.LFB363:
  99:source/HvMessage.h ****   hv_assert(index < msg_getNumElements(m)); // invalid index
 111              		.loc 1 99 27 is_stmt 1 view -0
 112              		.cfi_startproc
 113              		@ Volatile: function does not return.
 114              		@ args = 0, pretend = 0, frame = 0
 115              		@ frame_needed = 0, uses_anonymous_args = 0
 116              	.LVL4:
ARM GAS  /var/folders/fb/yfxt3z4538j6z0vjt03w70vc0000gn/T//ccEfYTmh.s 			page 5


  99:source/HvMessage.h ****   hv_assert(index < msg_getNumElements(m)); // invalid index
 117              		.loc 1 99 27 is_stmt 0 view .LVU7
 118 0000 08B5     		push	{r3, lr}
 119              		.cfi_def_cfa_offset 8
 120              		.cfi_offset 3, -8
 121              		.cfi_offset 14, -4
 100:source/HvMessage.h ****   return (&(m->elem)+index)->type;
 122              		.loc 1 100 3 view .LVU8
 123 0002 034A     		ldr	r2, .L12
 124 0004 6421     		movs	r1, #100
 125 0006 034B     		ldr	r3, .L12+4
 126 0008 0348     		ldr	r0, .L12+8
 127 000a FFF7FEFF 		bl	__assert_func
 128              	.LVL5:
 129              	.L13:
 130 000e 00BF     		.align	2
 131              	.L12:
 132 0010 00000000 		.word	.LANCHOR2
 133 0014 00000000 		.word	.LC2
 134 0018 10000000 		.word	.LC1
 135              		.cfi_endproc
 136              	.LFE363:
 138              		.section	.rodata.msg_setSymbol.part.0.str1.4,"aMS",%progbits,1
 139              		.align	2
 140              	.LC3:
 141 0000 7320213D 		.ascii	"s != ((void *)0)\000"
 141      20282876 
 141      6F696420 
 141      2A293029 
 141      00
 142              		.section	.text.msg_setSymbol.part.0,"ax",%progbits
 143              		.align	1
 144              		.p2align 2,,3
 145              		.syntax unified
 146              		.thumb
 147              		.thumb_func
 149              	msg_setSymbol.part.0:
 150              	.LFB366:
 106:source/HvMessage.h ****   (&(m->elem)+index)->type = HV_MSG_BANG;
 107:source/HvMessage.h ****   (&(m->elem)+index)->data.s = NULL;
 108:source/HvMessage.h **** }
 109:source/HvMessage.h **** 
 110:source/HvMessage.h **** static inline bool msg_isBang(const HvMessage *m, int index) {
 111:source/HvMessage.h ****   return (index < msg_getNumElements(m)) ? (msg_getType(m,index) == HV_MSG_BANG) : false;
 112:source/HvMessage.h **** }
 113:source/HvMessage.h **** 
 114:source/HvMessage.h **** static inline void msg_setFloat(HvMessage *m, int index, float f) {
 115:source/HvMessage.h ****   hv_assert(index < msg_getNumElements(m)); // invalid index
 116:source/HvMessage.h ****   (&(m->elem)+index)->type = HV_MSG_FLOAT;
 117:source/HvMessage.h ****   (&(m->elem)+index)->data.f = f;
 118:source/HvMessage.h **** }
 119:source/HvMessage.h **** 
 120:source/HvMessage.h **** static inline float msg_getFloat(const HvMessage *const m, int index) {
 121:source/HvMessage.h ****   hv_assert(index < msg_getNumElements(m)); // invalid index
 122:source/HvMessage.h ****   return (&(m->elem)+index)->data.f;
 123:source/HvMessage.h **** }
 124:source/HvMessage.h **** 
ARM GAS  /var/folders/fb/yfxt3z4538j6z0vjt03w70vc0000gn/T//ccEfYTmh.s 			page 6


 125:source/HvMessage.h **** static inline bool msg_isFloat(const HvMessage *const m, int index) {
 126:source/HvMessage.h ****   return (index < msg_getNumElements(m)) ? (msg_getType(m,index) == HV_MSG_FLOAT) : false;
 127:source/HvMessage.h **** }
 128:source/HvMessage.h **** 
 129:source/HvMessage.h **** static inline void msg_setHash(HvMessage *m, int index, hv_uint32_t h) {
 130:source/HvMessage.h ****   hv_assert(index < msg_getNumElements(m)); // invalid index
 131:source/HvMessage.h ****   (&(m->elem)+index)->type = HV_MSG_HASH;
 132:source/HvMessage.h ****   (&(m->elem)+index)->data.h = h;
 133:source/HvMessage.h **** }
 134:source/HvMessage.h **** 
 135:source/HvMessage.h **** static inline bool msg_isHash(const HvMessage *m, int index) {
 136:source/HvMessage.h ****   return (index < msg_getNumElements(m)) ? (msg_getType(m, index) == HV_MSG_HASH) : false;
 137:source/HvMessage.h **** }
 138:source/HvMessage.h **** 
 139:source/HvMessage.h **** /** Returns true if the element is a hash or symbol. False otherwise. */
 140:source/HvMessage.h **** static inline bool msg_isHashLike(const HvMessage *m, int index) {
 141:source/HvMessage.h ****   return (index < msg_getNumElements(m)) ? ((msg_getType(m, index) == HV_MSG_HASH) || (msg_getType(
 142:source/HvMessage.h **** }
 143:source/HvMessage.h **** 
 144:source/HvMessage.h **** /** Returns a 32-bit hash of the given element. */
 145:source/HvMessage.h **** hv_uint32_t msg_getHash(const HvMessage *const m, int i);
 146:source/HvMessage.h **** 
 147:source/HvMessage.h **** static inline void msg_setSymbol(HvMessage *m, int index, const char *s) {
 151              		.loc 1 147 20 is_stmt 1 view -0
 152              		.cfi_startproc
 153              		@ Volatile: function does not return.
 154              		@ args = 0, pretend = 0, frame = 0
 155              		@ frame_needed = 0, uses_anonymous_args = 0
 156              	.LVL6:
 157              		.loc 1 147 20 is_stmt 0 view .LVU10
 158 0000 08B5     		push	{r3, lr}
 159              		.cfi_def_cfa_offset 8
 160              		.cfi_offset 3, -8
 161              		.cfi_offset 14, -4
 148:source/HvMessage.h ****   hv_assert(index < msg_getNumElements(m)); // invalid index
 149:source/HvMessage.h ****   hv_assert(s != NULL);
 162              		.loc 1 149 3 view .LVU11
 163 0002 034A     		ldr	r2, .L16
 164 0004 9521     		movs	r1, #149
 165 0006 034B     		ldr	r3, .L16+4
 166 0008 0348     		ldr	r0, .L16+8
 167 000a FFF7FEFF 		bl	__assert_func
 168              	.LVL7:
 169              	.L17:
 170 000e 00BF     		.align	2
 171              	.L16:
 172 0010 00000000 		.word	.LANCHOR3
 173 0014 00000000 		.word	.LC3
 174 0018 10000000 		.word	.LC1
 175              		.cfi_endproc
 176              	.LFE366:
 178              		.section	.text.msg_init,"ax",%progbits
 179              		.align	1
 180              		.p2align 2,,3
 181              		.global	msg_init
 182              		.syntax unified
 183              		.thumb
ARM GAS  /var/folders/fb/yfxt3z4538j6z0vjt03w70vc0000gn/T//ccEfYTmh.s 			page 7


 184              		.thumb_func
 186              	msg_init:
 187              	.LVL8:
 188              	.LFB345:
 189              		.file 2 "source/HvMessage.c"
   1:source/HvMessage.c **** /**
   2:source/HvMessage.c ****  * Copyright (c) 2014-2018 Enzien Audio Ltd.
   3:source/HvMessage.c ****  *
   4:source/HvMessage.c ****  * Permission to use, copy, modify, and/or distribute this software for any
   5:source/HvMessage.c ****  * purpose with or without fee is hereby granted, provided that the above
   6:source/HvMessage.c ****  * copyright notice and this permission notice appear in all copies.
   7:source/HvMessage.c ****  *
   8:source/HvMessage.c ****  * THE SOFTWARE IS PROVIDED "AS IS" AND THE AUTHOR DISCLAIMS ALL WARRANTIES WITH
   9:source/HvMessage.c ****  * REGARD TO THIS SOFTWARE INCLUDING ALL IMPLIED WARRANTIES OF MERCHANTABILITY
  10:source/HvMessage.c ****  * AND FITNESS. IN NO EVENT SHALL THE AUTHOR BE LIABLE FOR ANY SPECIAL, DIRECT,
  11:source/HvMessage.c ****  * INDIRECT, OR CONSEQUENTIAL DAMAGES OR ANY DAMAGES WHATSOEVER RESULTING FROM
  12:source/HvMessage.c ****  * LOSS OF USE, DATA OR PROFITS, WHETHER IN AN ACTION OF CONTRACT, NEGLIGENCE OR
  13:source/HvMessage.c ****  * OTHER TORTIOUS ACTION, ARISING OUT OF OR IN CONNECTION WITH THE USE OR
  14:source/HvMessage.c ****  * PERFORMANCE OF THIS SOFTWARE.
  15:source/HvMessage.c ****  */
  16:source/HvMessage.c **** 
  17:source/HvMessage.c **** #include "HvMessage.h"
  18:source/HvMessage.c **** 
  19:source/HvMessage.c **** HvMessage *msg_init(HvMessage *m, hv_size_t numElements, hv_uint32_t timestamp) {
 190              		.loc 2 19 81 is_stmt 1 view -0
 191              		.cfi_startproc
 192              		@ args = 0, pretend = 0, frame = 0
 193              		@ frame_needed = 0, uses_anonymous_args = 0
  20:source/HvMessage.c ****   m->timestamp = timestamp;
 194              		.loc 2 20 3 view .LVU13
  19:source/HvMessage.c ****   m->timestamp = timestamp;
 195              		.loc 2 19 81 is_stmt 0 view .LVU14
 196 0000 08B5     		push	{r3, lr}
 197              		.cfi_def_cfa_offset 8
 198              		.cfi_offset 3, -8
 199              		.cfi_offset 14, -4
 200              		.loc 2 20 16 view .LVU15
 201 0002 0260     		str	r2, [r0]
  21:source/HvMessage.c ****   m->numElements = (hv_uint16_t) numElements;
 202              		.loc 2 21 3 is_stmt 1 view .LVU16
 203              		.loc 2 21 20 is_stmt 0 view .LVU17
 204 0004 8180     		strh	r1, [r0, #4]	@ movhi
  22:source/HvMessage.c ****   m->numBytes = (hv_uint16_t) msg_getCoreSize(numElements);
 205              		.loc 2 22 3 is_stmt 1 view .LVU18
 206              	.LVL9:
 207              	.LBB214:
 208              	.LBI214:
  57:source/HvMessage.h ****   hv_assert(numElements > 0);
 209              		.loc 1 57 25 view .LVU19
 210              	.LBB215:
  58:source/HvMessage.h ****   return sizeof(HvMessage) + ((numElements-1) * sizeof(Element));
 211              		.loc 1 58 3 view .LVU20
 212 0006 19B1     		cbz	r1, .L21
  59:source/HvMessage.h **** }
 213              		.loc 1 59 3 view .LVU21
 214              	.LVL10:
  59:source/HvMessage.h **** }
ARM GAS  /var/folders/fb/yfxt3z4538j6z0vjt03w70vc0000gn/T//ccEfYTmh.s 			page 8


 215              		.loc 1 59 28 is_stmt 0 view .LVU22
 216 0008 0131     		adds	r1, r1, #1
 217              	.LVL11:
  59:source/HvMessage.h **** }
 218              		.loc 1 59 28 view .LVU23
 219 000a C900     		lsls	r1, r1, #3
 220              	.LVL12:
  59:source/HvMessage.h **** }
 221              		.loc 1 59 28 view .LVU24
 222              	.LBE215:
 223              	.LBE214:
 224              		.loc 2 22 17 view .LVU25
 225 000c C180     		strh	r1, [r0, #6]	@ movhi
  23:source/HvMessage.c ****   return m;
 226              		.loc 2 23 3 is_stmt 1 view .LVU26
  24:source/HvMessage.c **** }
 227              		.loc 2 24 1 is_stmt 0 view .LVU27
 228 000e 08BD     		pop	{r3, pc}
 229              	.LVL13:
 230              	.L21:
 231              	.LBB217:
 232              	.LBB216:
 233              		.loc 2 24 1 view .LVU28
 234 0010 FFF7FEFF 		bl	msg_getCoreSize.part.0
 235              	.LVL14:
 236              		.loc 2 24 1 view .LVU29
 237              	.LBE216:
 238              	.LBE217:
 239              		.cfi_endproc
 240              	.LFE345:
 242              		.section	.text.msg_initWithFloat,"ax",%progbits
 243              		.align	1
 244              		.p2align 2,,3
 245              		.global	msg_initWithFloat
 246              		.syntax unified
 247              		.thumb
 248              		.thumb_func
 250              	msg_initWithFloat:
 251              	.LVL15:
 252              	.LFB346:
  25:source/HvMessage.c **** 
  26:source/HvMessage.c **** HvMessage *msg_initWithFloat(HvMessage *m, hv_uint32_t timestamp, float f) {
 253              		.loc 2 26 76 is_stmt 1 view -0
 254              		.cfi_startproc
 255              		@ args = 0, pretend = 0, frame = 0
 256              		@ frame_needed = 0, uses_anonymous_args = 0
 257              		@ link register save eliminated.
  27:source/HvMessage.c ****   m->timestamp = timestamp;
 258              		.loc 2 27 3 view .LVU31
  28:source/HvMessage.c ****   m->numElements = 1;
 259              		.loc 2 28 18 is_stmt 0 view .LVU32
 260 0000 034A     		ldr	r2, .L23
 261              	.LBB218:
 262              	.LBB219:
 117:source/HvMessage.h **** }
 263              		.loc 1 117 30 view .LVU33
 264 0002 80ED030A 		vstr.32	s0, [r0, #12]
ARM GAS  /var/folders/fb/yfxt3z4538j6z0vjt03w70vc0000gn/T//ccEfYTmh.s 			page 9


 265              	.LBE219:
 266              	.LBE218:
 267              		.loc 2 28 18 view .LVU34
 268 0006 C0E90012 		strd	r1, r2, [r0]
 269              	.LBB221:
 270              	.LBB220:
 116:source/HvMessage.h ****   (&(m->elem)+index)->data.f = f;
 271              		.loc 1 116 28 view .LVU35
 272 000a 0122     		movs	r2, #1
 273 000c 0272     		strb	r2, [r0, #8]
 117:source/HvMessage.h **** }
 274              		.loc 1 117 3 is_stmt 1 view .LVU36
 275              	.LBE220:
 276              	.LBE221:
  29:source/HvMessage.c ****   m->numBytes = sizeof(HvMessage);
  30:source/HvMessage.c ****   msg_setFloat(m, 0, f);
  31:source/HvMessage.c ****   return m;
 277              		.loc 2 31 3 view .LVU37
  32:source/HvMessage.c **** }
 278              		.loc 2 32 1 is_stmt 0 view .LVU38
 279 000e 7047     		bx	lr
 280              	.L24:
 281              		.align	2
 282              	.L23:
 283 0010 01001000 		.word	1048577
 284              		.cfi_endproc
 285              	.LFE346:
 287              		.section	.text.msg_initWithBang,"ax",%progbits
 288              		.align	1
 289              		.p2align 2,,3
 290              		.global	msg_initWithBang
 291              		.syntax unified
 292              		.thumb
 293              		.thumb_func
 295              	msg_initWithBang:
 296              	.LVL16:
 297              	.LFB347:
  33:source/HvMessage.c **** 
  34:source/HvMessage.c **** HvMessage *msg_initWithBang(HvMessage *m, hv_uint32_t timestamp) {
 298              		.loc 2 34 66 is_stmt 1 view -0
 299              		.cfi_startproc
 300              		@ args = 0, pretend = 0, frame = 0
 301              		@ frame_needed = 0, uses_anonymous_args = 0
 302              		@ link register save eliminated.
  35:source/HvMessage.c ****   m->timestamp = timestamp;
 303              		.loc 2 35 3 view .LVU40
 304              	.LBB226:
 305              	.LBB227:
 106:source/HvMessage.h ****   (&(m->elem)+index)->data.s = NULL;
 306              		.loc 1 106 28 is_stmt 0 view .LVU41
 307 0000 0022     		movs	r2, #0
 308              	.LBE227:
 309              	.LBE226:
  34:source/HvMessage.c ****   m->timestamp = timestamp;
 310              		.loc 2 34 66 view .LVU42
 311 0002 10B4     		push	{r4}
 312              		.cfi_def_cfa_offset 4
ARM GAS  /var/folders/fb/yfxt3z4538j6z0vjt03w70vc0000gn/T//ccEfYTmh.s 			page 10


 313              		.cfi_offset 4, -4
  36:source/HvMessage.c ****   m->numElements = 1;
 314              		.loc 2 36 18 view .LVU43
 315 0004 034C     		ldr	r4, .L27
 316              	.LBB229:
 317              	.LBB228:
 106:source/HvMessage.h ****   (&(m->elem)+index)->data.s = NULL;
 318              		.loc 1 106 28 view .LVU44
 319 0006 0272     		strb	r2, [r0, #8]
 107:source/HvMessage.h **** }
 320              		.loc 1 107 3 is_stmt 1 view .LVU45
 107:source/HvMessage.h **** }
 321              		.loc 1 107 30 is_stmt 0 view .LVU46
 322 0008 C260     		str	r2, [r0, #12]
 323              	.LBE228:
 324              	.LBE229:
  37:source/HvMessage.c ****   m->numBytes = sizeof(HvMessage);
  38:source/HvMessage.c ****   msg_setBang(m, 0);
  39:source/HvMessage.c ****   return m;
 325              		.loc 2 39 3 is_stmt 1 view .LVU47
  36:source/HvMessage.c ****   m->numBytes = sizeof(HvMessage);
 326              		.loc 2 36 18 is_stmt 0 view .LVU48
 327 000a C0E90014 		strd	r1, r4, [r0]
  40:source/HvMessage.c **** }
 328              		.loc 2 40 1 view .LVU49
 329 000e 5DF8044B 		ldr	r4, [sp], #4
 330              		.cfi_restore 4
 331              		.cfi_def_cfa_offset 0
 332 0012 7047     		bx	lr
 333              	.L28:
 334              		.align	2
 335              	.L27:
 336 0014 01001000 		.word	1048577
 337              		.cfi_endproc
 338              	.LFE347:
 340              		.section	.text.msg_initWithSymbol,"ax",%progbits
 341              		.align	1
 342              		.p2align 2,,3
 343              		.global	msg_initWithSymbol
 344              		.syntax unified
 345              		.thumb
 346              		.thumb_func
 348              	msg_initWithSymbol:
 349              	.LVL17:
 350              	.LFB348:
  41:source/HvMessage.c **** 
  42:source/HvMessage.c **** HvMessage *msg_initWithSymbol(HvMessage *m, hv_uint32_t timestamp, const char *s) {
 351              		.loc 2 42 83 is_stmt 1 view -0
 352              		.cfi_startproc
 353              		@ args = 0, pretend = 0, frame = 0
 354              		@ frame_needed = 0, uses_anonymous_args = 0
  43:source/HvMessage.c ****   m->timestamp = timestamp;
 355              		.loc 2 43 3 view .LVU51
  42:source/HvMessage.c ****   m->timestamp = timestamp;
 356              		.loc 2 42 83 is_stmt 0 view .LVU52
 357 0000 70B5     		push	{r4, r5, r6, lr}
 358              		.cfi_def_cfa_offset 16
ARM GAS  /var/folders/fb/yfxt3z4538j6z0vjt03w70vc0000gn/T//ccEfYTmh.s 			page 11


 359              		.cfi_offset 4, -16
 360              		.cfi_offset 5, -12
 361              		.cfi_offset 6, -8
 362              		.cfi_offset 14, -4
  44:source/HvMessage.c ****   m->numElements = 1;
 363              		.loc 2 44 18 view .LVU53
 364 0002 0123     		movs	r3, #1
  42:source/HvMessage.c ****   m->timestamp = timestamp;
 365              		.loc 2 42 83 view .LVU54
 366 0004 0446     		mov	r4, r0
  43:source/HvMessage.c ****   m->timestamp = timestamp;
 367              		.loc 2 43 16 view .LVU55
 368 0006 0160     		str	r1, [r0]
 369              		.loc 2 44 3 is_stmt 1 view .LVU56
  45:source/HvMessage.c ****   m->numBytes = sizeof(HvMessage) + (hv_uint16_t) hv_strlen(s);
 370              		.loc 2 45 51 is_stmt 0 view .LVU57
 371 0008 1046     		mov	r0, r2
 372              	.LVL18:
  44:source/HvMessage.c ****   m->numElements = 1;
 373              		.loc 2 44 18 view .LVU58
 374 000a A380     		strh	r3, [r4, #4]	@ movhi
 375              		.loc 2 45 3 is_stmt 1 view .LVU59
  42:source/HvMessage.c ****   m->timestamp = timestamp;
 376              		.loc 2 42 83 is_stmt 0 view .LVU60
 377 000c 1646     		mov	r6, r2
 378              		.loc 2 45 51 view .LVU61
 379 000e FFF7FEFF 		bl	strlen
 380              	.LVL19:
 381              		.loc 2 45 51 view .LVU62
 382 0012 0546     		mov	r5, r0
 383              	.LBB234:
 384              	.LBB235:
 150:source/HvMessage.h ****   (&(m->elem)+index)->type = HV_MSG_SYMBOL;
 385              		.loc 1 150 28 view .LVU63
 386 0014 0223     		movs	r3, #2
 151:source/HvMessage.h ****   (&(m->elem)+index)->data.s = s;
 152:source/HvMessage.h ****   // NOTE(mhroth): if the same message container is reused and string reset,
 153:source/HvMessage.h ****   // then the message size will be overcounted
 154:source/HvMessage.h ****   m->numBytes += (hv_uint16_t) (hv_strlen(s) + 1); // also count '\0'
 387              		.loc 1 154 33 view .LVU64
 388 0016 3046     		mov	r0, r6
 389              	.LBE235:
 390              	.LBE234:
 391              		.loc 2 45 35 view .LVU65
 392 0018 1035     		adds	r5, r5, #16
 393              	.LBB240:
 394              	.LBB236:
 151:source/HvMessage.h ****   (&(m->elem)+index)->data.s = s;
 395              		.loc 1 151 30 view .LVU66
 396 001a E660     		str	r6, [r4, #12]
 150:source/HvMessage.h ****   (&(m->elem)+index)->type = HV_MSG_SYMBOL;
 397              		.loc 1 150 28 view .LVU67
 398 001c 2372     		strb	r3, [r4, #8]
 399              	.LBE236:
 400              	.LBE240:
 401              		.loc 2 45 35 view .LVU68
 402 001e ADB2     		uxth	r5, r5
ARM GAS  /var/folders/fb/yfxt3z4538j6z0vjt03w70vc0000gn/T//ccEfYTmh.s 			page 12


 403              		.loc 2 45 15 view .LVU69
 404 0020 E580     		strh	r5, [r4, #6]	@ movhi
  46:source/HvMessage.c ****   msg_setSymbol(m, 0, s);
 405              		.loc 2 46 3 is_stmt 1 view .LVU70
 406              	.LVL20:
 407              	.LBB241:
 408              	.LBI234:
 147:source/HvMessage.h ****   hv_assert(index < msg_getNumElements(m)); // invalid index
 409              		.loc 1 147 20 view .LVU71
 410              	.LBB237:
 148:source/HvMessage.h ****   hv_assert(s != NULL);
 411              		.loc 1 148 3 view .LVU72
 148:source/HvMessage.h ****   hv_assert(s != NULL);
 412              		.loc 1 148 3 is_stmt 0 view .LVU73
 413              	.LBE237:
 414              	.LBE241:
  91:source/HvMessage.h **** }
 415              		.loc 1 91 3 is_stmt 1 view .LVU74
 416              	.LBB242:
 417              	.LBB238:
 149:source/HvMessage.h ****   (&(m->elem)+index)->type = HV_MSG_SYMBOL;
 418              		.loc 1 149 3 view .LVU75
 150:source/HvMessage.h ****   (&(m->elem)+index)->data.s = s;
 419              		.loc 1 150 3 view .LVU76
 151:source/HvMessage.h ****   // NOTE(mhroth): if the same message container is reused and string reset,
 420              		.loc 1 151 3 view .LVU77
 421              		.loc 1 154 3 view .LVU78
 422              		.loc 1 154 33 is_stmt 0 view .LVU79
 423 0022 FFF7FEFF 		bl	strlen
 424              	.LVL21:
 425 0026 0346     		mov	r3, r0
 426              	.LBE238:
 427              	.LBE242:
  47:source/HvMessage.c ****   return m;
  48:source/HvMessage.c **** }
 428              		.loc 2 48 1 view .LVU80
 429 0028 2046     		mov	r0, r4
 430              	.LBB243:
 431              	.LBB239:
 432              		.loc 1 154 15 view .LVU81
 433 002a 0133     		adds	r3, r3, #1
 434 002c 1D44     		add	r5, r5, r3
 435 002e E580     		strh	r5, [r4, #6]	@ movhi
 436              	.LVL22:
 437              		.loc 1 154 15 view .LVU82
 438              	.LBE239:
 439              	.LBE243:
  47:source/HvMessage.c ****   return m;
 440              		.loc 2 47 3 is_stmt 1 view .LVU83
 441              		.loc 2 48 1 is_stmt 0 view .LVU84
 442 0030 70BD     		pop	{r4, r5, r6, pc}
 443              		.loc 2 48 1 view .LVU85
 444              		.cfi_endproc
 445              	.LFE348:
 447 0032 00BF     		.section	.text.msg_initWithHash,"ax",%progbits
 448              		.align	1
 449              		.p2align 2,,3
ARM GAS  /var/folders/fb/yfxt3z4538j6z0vjt03w70vc0000gn/T//ccEfYTmh.s 			page 13


 450              		.global	msg_initWithHash
 451              		.syntax unified
 452              		.thumb
 453              		.thumb_func
 455              	msg_initWithHash:
 456              	.LVL23:
 457              	.LFB349:
  49:source/HvMessage.c **** 
  50:source/HvMessage.c **** HvMessage *msg_initWithHash(HvMessage *m, hv_uint32_t timestamp, hv_uint32_t h) {
 458              		.loc 2 50 81 is_stmt 1 view -0
 459              		.cfi_startproc
 460              		@ args = 0, pretend = 0, frame = 0
 461              		@ frame_needed = 0, uses_anonymous_args = 0
 462              		@ link register save eliminated.
  51:source/HvMessage.c ****   m->timestamp = timestamp;
 463              		.loc 2 51 3 view .LVU87
  50:source/HvMessage.c ****   m->timestamp = timestamp;
 464              		.loc 2 50 81 is_stmt 0 view .LVU88
 465 0000 10B4     		push	{r4}
 466              		.cfi_def_cfa_offset 4
 467              		.cfi_offset 4, -4
  52:source/HvMessage.c ****   m->numElements = 1;
 468              		.loc 2 52 18 view .LVU89
 469 0002 044C     		ldr	r4, .L33
 470              	.LBB244:
 471              	.LBB245:
 132:source/HvMessage.h **** }
 472              		.loc 1 132 30 view .LVU90
 473 0004 C260     		str	r2, [r0, #12]
 474              	.LBE245:
 475              	.LBE244:
 476              		.loc 2 52 18 view .LVU91
 477 0006 C0E90014 		strd	r1, r4, [r0]
 478              	.LBB248:
 479              	.LBB246:
 131:source/HvMessage.h ****   (&(m->elem)+index)->data.h = h;
 480              		.loc 1 131 28 view .LVU92
 481 000a 0321     		movs	r1, #3
 482              	.LVL24:
 131:source/HvMessage.h ****   (&(m->elem)+index)->data.h = h;
 483              		.loc 1 131 28 view .LVU93
 484              	.LBE246:
 485              	.LBE248:
  53:source/HvMessage.c ****   m->numBytes = sizeof(HvMessage);
  54:source/HvMessage.c ****   msg_setHash(m, 0, h);
  55:source/HvMessage.c ****   return m;
  56:source/HvMessage.c **** }
 486              		.loc 2 56 1 view .LVU94
 487 000c 5DF8044B 		ldr	r4, [sp], #4
 488              		.cfi_restore 4
 489              		.cfi_def_cfa_offset 0
 490              	.LBB249:
 491              	.LBB247:
 131:source/HvMessage.h ****   (&(m->elem)+index)->data.h = h;
 492              		.loc 1 131 28 view .LVU95
 493 0010 0172     		strb	r1, [r0, #8]
 132:source/HvMessage.h **** }
ARM GAS  /var/folders/fb/yfxt3z4538j6z0vjt03w70vc0000gn/T//ccEfYTmh.s 			page 14


 494              		.loc 1 132 3 is_stmt 1 view .LVU96
 495              	.LBE247:
 496              	.LBE249:
  55:source/HvMessage.c **** }
 497              		.loc 2 55 3 view .LVU97
 498              		.loc 2 56 1 is_stmt 0 view .LVU98
 499 0012 7047     		bx	lr
 500              	.L34:
 501              		.align	2
 502              	.L33:
 503 0014 01001000 		.word	1048577
 504              		.cfi_endproc
 505              	.LFE349:
 507              		.section	.rodata.msg_copyToBuffer.str1.4,"aMS",%progbits,1
 508              		.align	2
 509              	.LC4:
 510 0000 6C656E5F 		.ascii	"len_r <= len\000"
 510      72203C3D 
 510      206C656E 
 510      00
 511 000d 000000   		.align	2
 512              	.LC5:
 513 0010 736F7572 		.ascii	"source/HvMessage.c\000"
 513      63652F48 
 513      764D6573 
 513      73616765 
 513      2E6300
 514 0023 00       		.align	2
 515              	.LC6:
 516 0024 6C656E5F 		.ascii	"len_r + symLen <= len\000"
 516      72202B20 
 516      73796D4C 
 516      656E203C 
 516      3D206C65 
 517              		.section	.text.msg_copyToBuffer,"ax",%progbits
 518              		.align	1
 519              		.p2align 2,,3
 520              		.global	msg_copyToBuffer
 521              		.syntax unified
 522              		.thumb
 523              		.thumb_func
 525              	msg_copyToBuffer:
 526              	.LVL25:
 527              	.LFB350:
  57:source/HvMessage.c **** 
  58:source/HvMessage.c **** void msg_copyToBuffer(const HvMessage *m, char *buffer, hv_size_t len) {
 528              		.loc 2 58 72 is_stmt 1 view -0
 529              		.cfi_startproc
 530              		@ args = 0, pretend = 0, frame = 8
 531              		@ frame_needed = 0, uses_anonymous_args = 0
  59:source/HvMessage.c ****   HvMessage *r = (HvMessage *) buffer;
 532              		.loc 2 59 3 view .LVU100
  60:source/HvMessage.c **** 
  61:source/HvMessage.c ****   hv_size_t len_r = msg_getCoreSize(msg_getNumElements(m));
 533              		.loc 2 61 3 view .LVU101
 534              	.LBB272:
 535              	.LBI272:
ARM GAS  /var/folders/fb/yfxt3z4538j6z0vjt03w70vc0000gn/T//ccEfYTmh.s 			page 15


  90:source/HvMessage.h ****   return (int) m->numElements;
 536              		.loc 1 90 19 view .LVU102
 537              	.LBB273:
  91:source/HvMessage.h **** }
 538              		.loc 1 91 3 view .LVU103
  91:source/HvMessage.h **** }
 539              		.loc 1 91 3 is_stmt 0 view .LVU104
 540              	.LBE273:
 541              	.LBE272:
  58:source/HvMessage.c ****   HvMessage *r = (HvMessage *) buffer;
 542              		.loc 2 58 72 view .LVU105
 543 0000 2DE9F04F 		push	{r4, r5, r6, r7, r8, r9, r10, fp, lr}
 544              		.cfi_def_cfa_offset 36
 545              		.cfi_offset 4, -36
 546              		.cfi_offset 5, -32
 547              		.cfi_offset 6, -28
 548              		.cfi_offset 7, -24
 549              		.cfi_offset 8, -20
 550              		.cfi_offset 9, -16
 551              		.cfi_offset 10, -12
 552              		.cfi_offset 11, -8
 553              		.cfi_offset 14, -4
 554              		.loc 2 61 21 view .LVU106
 555 0004 8388     		ldrh	r3, [r0, #4]
 556              	.LVL26:
 557              	.LBB274:
 558              	.LBI274:
  57:source/HvMessage.h ****   hv_assert(numElements > 0);
 559              		.loc 1 57 25 is_stmt 1 view .LVU107
 560              	.LBB275:
  58:source/HvMessage.h ****   return sizeof(HvMessage) + ((numElements-1) * sizeof(Element));
 561              		.loc 1 58 3 view .LVU108
 562              	.LBE275:
 563              	.LBE274:
  58:source/HvMessage.c ****   HvMessage *r = (HvMessage *) buffer;
 564              		.loc 2 58 72 is_stmt 0 view .LVU109
 565 0006 83B0     		sub	sp, sp, #12
 566              		.cfi_def_cfa_offset 48
  58:source/HvMessage.c ****   HvMessage *r = (HvMessage *) buffer;
 567              		.loc 2 58 72 view .LVU110
 568 0008 0192     		str	r2, [sp, #4]
 569              	.LBB279:
 570              	.LBB276:
  58:source/HvMessage.h ****   return sizeof(HvMessage) + ((numElements-1) * sizeof(Element));
 571              		.loc 1 58 3 view .LVU111
 572 000a 002B     		cmp	r3, #0
 573 000c 5FD0     		beq	.L52
  59:source/HvMessage.h **** }
 574              		.loc 1 59 3 is_stmt 1 view .LVU112
  59:source/HvMessage.h **** }
 575              		.loc 1 59 28 is_stmt 0 view .LVU113
 576 000e 0133     		adds	r3, r3, #1
 577              	.LVL27:
  59:source/HvMessage.h **** }
 578              		.loc 1 59 28 view .LVU114
 579              	.LBE276:
 580              	.LBE279:
ARM GAS  /var/folders/fb/yfxt3z4538j6z0vjt03w70vc0000gn/T//ccEfYTmh.s 			page 16


  62:source/HvMessage.c **** 
  63:source/HvMessage.c ****   // assert that the message is not already larger than the length of the buffer
  64:source/HvMessage.c ****   hv_assert(len_r <= len);
 581              		.loc 2 64 3 view .LVU115
 582 0010 019A     		ldr	r2, [sp, #4]
 583              		.loc 2 64 3 view .LVU116
 584 0012 B2EBC30F 		cmp	r2, r3, lsl #3
 585              	.LBB280:
 586              	.LBB277:
  59:source/HvMessage.h **** }
 587              		.loc 1 59 28 view .LVU117
 588 0016 4FEAC309 		lsl	r9, r3, #3
 589              	.LVL28:
  59:source/HvMessage.h **** }
 590              		.loc 1 59 28 view .LVU118
 591              	.LBE277:
 592              	.LBE280:
 593              		.loc 2 64 3 is_stmt 1 view .LVU119
 594 001a 52D3     		bcc	.L53
  65:source/HvMessage.c **** 
  66:source/HvMessage.c ****   // copy the basic message to the buffer
  67:source/HvMessage.c ****   hv_memcpy(r, m, len_r);
 595              		.loc 2 67 3 view .LVU120
 596 001c 0F46     		mov	r7, r1
 597 001e 8046     		mov	r8, r0
 598 0020 4A46     		mov	r2, r9
 599              	.LVL29:
 600              		.loc 2 67 3 is_stmt 0 view .LVU121
 601 0022 0146     		mov	r1, r0
 602              	.LVL30:
 603              		.loc 2 67 3 view .LVU122
 604 0024 3846     		mov	r0, r7
 605              	.LVL31:
  68:source/HvMessage.c **** 
  69:source/HvMessage.c ****   char *p = buffer + len_r; // points to the end of the base message
 606              		.loc 2 69 9 view .LVU123
 607 0026 07EB090B 		add	fp, r7, r9
  67:source/HvMessage.c **** 
 608              		.loc 2 67 3 view .LVU124
 609 002a FFF7FEFF 		bl	memcpy
 610              	.LVL32:
 611              		.loc 2 69 3 is_stmt 1 view .LVU125
  70:source/HvMessage.c ****   for (int i = 0; i < msg_getNumElements(m); ++i) {
 612              		.loc 2 70 3 view .LVU126
 613              	.LBB281:
 614              		.loc 2 70 8 view .LVU127
 615              		.loc 2 70 19 view .LVU128
 616              	.LBB282:
 617              	.LBI282:
  90:source/HvMessage.h ****   return (int) m->numElements;
 618              		.loc 1 90 19 view .LVU129
 619              	.LBB283:
  91:source/HvMessage.h **** }
 620              		.loc 1 91 3 view .LVU130
  91:source/HvMessage.h **** }
 621              		.loc 1 91 3 is_stmt 0 view .LVU131
 622              	.LBE283:
ARM GAS  /var/folders/fb/yfxt3z4538j6z0vjt03w70vc0000gn/T//ccEfYTmh.s 			page 17


 623              	.LBE282:
 624              		.loc 2 70 3 view .LVU132
 625 002e B8F80420 		ldrh	r2, [r8, #4]
 626 0032 AAB3     		cbz	r2, .L38
 627 0034 0C25     		movs	r5, #12
 628 0036 0124     		movs	r4, #1
 629 0038 06E0     		b	.L42
 630              	.LVL33:
 631              	.L40:
 632              		.loc 2 70 46 is_stmt 1 discriminator 2 view .LVU133
 633              		.loc 2 70 19 discriminator 2 view .LVU134
 634              	.LBB286:
  90:source/HvMessage.h ****   return (int) m->numElements;
 635              		.loc 1 90 19 discriminator 2 view .LVU135
 636              	.LBB284:
  91:source/HvMessage.h **** }
 637              		.loc 1 91 3 discriminator 2 view .LVU136
 638              	.LBE284:
 639              	.LBE286:
 640              		.loc 2 70 3 is_stmt 0 discriminator 2 view .LVU137
 641 003a 9442     		cmp	r4, r2
 642 003c 04F10103 		add	r3, r4, #1
 643 0040 05F10805 		add	r5, r5, #8
 644 0044 2CDA     		bge	.L38
 645              	.L45:
 646              		.loc 2 70 3 discriminator 2 view .LVU138
 647 0046 1C46     		mov	r4, r3
 648              	.LVL34:
 649              	.L42:
  71:source/HvMessage.c ****     if (msg_isSymbol(m,i)) {
 650              		.loc 2 71 5 is_stmt 1 view .LVU139
 651              	.LBB287:
 652              	.LBI287:
 155:source/HvMessage.h **** }
 156:source/HvMessage.h **** 
 157:source/HvMessage.h **** static inline const char *msg_getSymbol(const HvMessage *m, int index) {
 158:source/HvMessage.h ****   hv_assert(index < msg_getNumElements(m)); // invalid index
 159:source/HvMessage.h ****   return (&(m->elem)+index)->data.s;
 160:source/HvMessage.h **** }
 161:source/HvMessage.h **** 
 162:source/HvMessage.h **** static inline bool msg_isSymbol(const HvMessage *m, int index) {
 653              		.loc 1 162 20 view .LVU140
 654              	.LBB288:
 163:source/HvMessage.h ****   return (index < msg_getNumElements(m)) ? (msg_getType(m, index) == HV_MSG_SYMBOL) : false;
 655              		.loc 1 163 3 view .LVU141
 656              		.loc 1 163 3 is_stmt 0 view .LVU142
 657              	.LBE288:
 658              	.LBE287:
 659              	.LBE281:
  91:source/HvMessage.h **** }
 660              		.loc 1 91 3 is_stmt 1 view .LVU143
 661              	.LBB323:
 662              	.LBB295:
 663              	.LBB293:
 664              	.LBB289:
 665              	.LBI289:
  99:source/HvMessage.h ****   hv_assert(index < msg_getNumElements(m)); // invalid index
ARM GAS  /var/folders/fb/yfxt3z4538j6z0vjt03w70vc0000gn/T//ccEfYTmh.s 			page 18


 666              		.loc 1 99 27 view .LVU144
 667              	.LBB290:
 100:source/HvMessage.h ****   return (&(m->elem)+index)->type;
 668              		.loc 1 100 3 view .LVU145
 100:source/HvMessage.h ****   return (&(m->elem)+index)->type;
 669              		.loc 1 100 3 is_stmt 0 view .LVU146
 670              	.LBE290:
 671              	.LBE289:
 672              	.LBE293:
 673              	.LBE295:
 674              	.LBE323:
  91:source/HvMessage.h **** }
 675              		.loc 1 91 3 is_stmt 1 view .LVU147
 676              	.LBB324:
 677              	.LBB296:
 678              	.LBB294:
 679              	.LBB292:
 680              	.LBB291:
 101:source/HvMessage.h **** }
 681              		.loc 1 101 3 view .LVU148
 101:source/HvMessage.h **** }
 682              		.loc 1 101 3 is_stmt 0 view .LVU149
 683              	.LBE291:
 684              	.LBE292:
 685              		.loc 1 163 85 view .LVU150
 686 0048 18F834A0 		ldrb	r10, [r8, r4, lsl #3]	@ zero_extendqisi2
 687 004c BAF1020F 		cmp	r10, #2
 688 0050 F3D1     		bne	.L40
 689              	.LVL35:
 690              		.loc 1 163 85 view .LVU151
 691              	.LBE294:
 692              	.LBE296:
 693              	.LBB297:
  72:source/HvMessage.c ****       const hv_size_t symLen = (hv_size_t) hv_strlen(msg_getSymbol(m,i)) + 1; // include the traili
 694              		.loc 2 72 7 is_stmt 1 view .LVU152
 695              	.LBB298:
 696              	.LBI298:
 157:source/HvMessage.h ****   hv_assert(index < msg_getNumElements(m)); // invalid index
 697              		.loc 1 157 27 view .LVU153
 698              	.LBB299:
 158:source/HvMessage.h ****   return (&(m->elem)+index)->data.s;
 699              		.loc 1 158 3 view .LVU154
 158:source/HvMessage.h ****   return (&(m->elem)+index)->data.s;
 700              		.loc 1 158 3 is_stmt 0 view .LVU155
 701              	.LBE299:
 702              	.LBE298:
 703              	.LBE297:
 704              	.LBE324:
  91:source/HvMessage.h **** }
 705              		.loc 1 91 3 is_stmt 1 view .LVU156
 706              	.LBB325:
 707              	.LBB316:
 708              	.LBB301:
 709              	.LBB300:
 159:source/HvMessage.h **** }
 710              		.loc 1 159 3 view .LVU157
 159:source/HvMessage.h **** }
ARM GAS  /var/folders/fb/yfxt3z4538j6z0vjt03w70vc0000gn/T//ccEfYTmh.s 			page 19


 711              		.loc 1 159 34 is_stmt 0 view .LVU158
 712 0052 58F80510 		ldr	r1, [r8, r5]
 713              	.LVL36:
 159:source/HvMessage.h **** }
 714              		.loc 1 159 34 view .LVU159
 715              	.LBE300:
 716              	.LBE301:
 717              		.loc 2 72 44 view .LVU160
 718 0056 0846     		mov	r0, r1
 719 0058 0091     		str	r1, [sp]
 720 005a FFF7FEFF 		bl	strlen
 721              	.LVL37:
 722              		.loc 2 72 23 view .LVU161
 723 005e 461C     		adds	r6, r0, #1
 724              	.LVL38:
  73:source/HvMessage.c ****       hv_assert(len_r + symLen <= len); // stay safe!
 725              		.loc 2 73 7 is_stmt 1 view .LVU162
 726 0060 019B     		ldr	r3, [sp, #4]
 727 0062 B144     		add	r9, r9, r6
 728              	.LVL39:
 729              		.loc 2 73 7 is_stmt 0 view .LVU163
 730 0064 0099     		ldr	r1, [sp]
 731 0066 9945     		cmp	r9, r3
 732 0068 1FD8     		bhi	.L54
  74:source/HvMessage.c ****       hv_strncpy(p, msg_getSymbol(m,i), symLen);
 733              		.loc 2 74 7 is_stmt 1 view .LVU164
 734              	.LVL40:
 735              		.loc 2 74 7 is_stmt 0 view .LVU165
 736              	.LBE316:
 737              	.LBE325:
 158:source/HvMessage.h ****   return (&(m->elem)+index)->data.s;
 738              		.loc 1 158 3 is_stmt 1 view .LVU166
  91:source/HvMessage.h **** }
 739              		.loc 1 91 3 view .LVU167
 159:source/HvMessage.h **** }
 740              		.loc 1 159 3 view .LVU168
 741              	.LBB326:
 742              	.LBB317:
 743              		.loc 2 74 7 is_stmt 0 view .LVU169
 744 006a 3246     		mov	r2, r6
 745 006c 5846     		mov	r0, fp
 746 006e FFF7FEFF 		bl	strncpy
 747              	.LVL41:
  75:source/HvMessage.c ****       msg_setSymbol(r, i, p);
 748              		.loc 2 75 7 is_stmt 1 view .LVU170
 749              	.LBB302:
 750              	.LBI302:
 147:source/HvMessage.h ****   hv_assert(index < msg_getNumElements(m)); // invalid index
 751              		.loc 1 147 20 view .LVU171
 752              	.LBB303:
 148:source/HvMessage.h ****   hv_assert(s != NULL);
 753              		.loc 1 148 3 view .LVU172
 754              	.LBB304:
 755              	.LBI304:
  90:source/HvMessage.h ****   return (int) m->numElements;
 756              		.loc 1 90 19 view .LVU173
 757              	.LBB305:
ARM GAS  /var/folders/fb/yfxt3z4538j6z0vjt03w70vc0000gn/T//ccEfYTmh.s 			page 20


  91:source/HvMessage.h **** }
 758              		.loc 1 91 3 view .LVU174
  91:source/HvMessage.h **** }
 759              		.loc 1 91 10 is_stmt 0 view .LVU175
 760 0072 B988     		ldrh	r1, [r7, #4]
 761              	.LBE305:
 762              	.LBE304:
 148:source/HvMessage.h ****   hv_assert(s != NULL);
 763              		.loc 1 148 3 view .LVU176
 764 0074 621E     		subs	r2, r4, #1
 765              	.LVL42:
 148:source/HvMessage.h ****   hv_assert(s != NULL);
 766              		.loc 1 148 3 view .LVU177
 767 0076 9142     		cmp	r1, r2
 768 0078 1DDD     		ble	.L55
 149:source/HvMessage.h ****   (&(m->elem)+index)->type = HV_MSG_SYMBOL;
 769              		.loc 1 149 3 is_stmt 1 view .LVU178
 150:source/HvMessage.h ****   (&(m->elem)+index)->data.s = s;
 770              		.loc 1 150 3 view .LVU179
 154:source/HvMessage.h **** }
 771              		.loc 1 154 33 is_stmt 0 view .LVU180
 772 007a 5846     		mov	r0, fp
 150:source/HvMessage.h ****   (&(m->elem)+index)->data.s = s;
 773              		.loc 1 150 28 view .LVU181
 774 007c 07F834A0 		strb	r10, [r7, r4, lsl #3]
 151:source/HvMessage.h ****   // NOTE(mhroth): if the same message container is reused and string reset,
 775              		.loc 1 151 3 is_stmt 1 view .LVU182
 151:source/HvMessage.h ****   // NOTE(mhroth): if the same message container is reused and string reset,
 776              		.loc 1 151 30 is_stmt 0 view .LVU183
 777 0080 47F805B0 		str	fp, [r7, r5]
 154:source/HvMessage.h **** }
 778              		.loc 1 154 3 is_stmt 1 view .LVU184
 779              	.LBE303:
 780              	.LBE302:
  76:source/HvMessage.c ****       p += symLen;
 781              		.loc 2 76 9 is_stmt 0 view .LVU185
 782 0084 B344     		add	fp, fp, r6
 783              	.LVL43:
 784              	.LBB311:
 785              	.LBB306:
 154:source/HvMessage.h **** }
 786              		.loc 1 154 33 view .LVU186
 787 0086 FFF7FEFF 		bl	strlen
 788              	.LVL44:
 154:source/HvMessage.h **** }
 789              		.loc 1 154 15 view .LVU187
 790 008a FB88     		ldrh	r3, [r7, #6]
 791 008c B8F80420 		ldrh	r2, [r8, #4]
 792              	.LBE306:
 793              	.LBE311:
 794              	.LBE317:
  70:source/HvMessage.c ****     if (msg_isSymbol(m,i)) {
 795              		.loc 2 70 3 view .LVU188
 796 0090 0835     		adds	r5, r5, #8
 797              	.LBB318:
 798              	.LBB312:
 799              	.LBB307:
ARM GAS  /var/folders/fb/yfxt3z4538j6z0vjt03w70vc0000gn/T//ccEfYTmh.s 			page 21


 154:source/HvMessage.h **** }
 800              		.loc 1 154 15 view .LVU189
 801 0092 0133     		adds	r3, r3, #1
 802              	.LBE307:
 803              	.LBE312:
 804              	.LBE318:
  70:source/HvMessage.c ****     if (msg_isSymbol(m,i)) {
 805              		.loc 2 70 3 view .LVU190
 806 0094 9442     		cmp	r4, r2
 807              	.LBB319:
 808              	.LBB313:
 809              	.LBB308:
 154:source/HvMessage.h **** }
 810              		.loc 1 154 15 view .LVU191
 811 0096 1844     		add	r0, r0, r3
 812              	.LBE308:
 813              	.LBE313:
 814              	.LBE319:
  70:source/HvMessage.c ****     if (msg_isSymbol(m,i)) {
 815              		.loc 2 70 3 view .LVU192
 816 0098 04F10103 		add	r3, r4, #1
 817              	.LBB320:
 818              	.LBB314:
 819              	.LBB309:
 154:source/HvMessage.h **** }
 820              		.loc 1 154 15 view .LVU193
 821 009c F880     		strh	r0, [r7, #6]	@ movhi
 822              	.LVL45:
 154:source/HvMessage.h **** }
 823              		.loc 1 154 15 view .LVU194
 824              	.LBE309:
 825              	.LBE314:
 826              		.loc 2 76 7 is_stmt 1 view .LVU195
  77:source/HvMessage.c ****       len_r += symLen;
 827              		.loc 2 77 7 view .LVU196
 828              		.loc 2 77 7 is_stmt 0 view .LVU197
 829              	.LBE320:
  70:source/HvMessage.c ****     if (msg_isSymbol(m,i)) {
 830              		.loc 2 70 46 is_stmt 1 view .LVU198
  70:source/HvMessage.c ****     if (msg_isSymbol(m,i)) {
 831              		.loc 2 70 19 view .LVU199
 832              	.LBB321:
  90:source/HvMessage.h ****   return (int) m->numElements;
 833              		.loc 1 90 19 view .LVU200
 834              	.LBB285:
  91:source/HvMessage.h **** }
 835              		.loc 1 91 3 view .LVU201
 836              	.LBE285:
 837              	.LBE321:
  70:source/HvMessage.c ****     if (msg_isSymbol(m,i)) {
 838              		.loc 2 70 3 is_stmt 0 view .LVU202
 839 009e D2DB     		blt	.L45
 840              	.LVL46:
 841              	.L38:
  70:source/HvMessage.c ****     if (msg_isSymbol(m,i)) {
 842              		.loc 2 70 3 view .LVU203
 843              	.LBE326:
ARM GAS  /var/folders/fb/yfxt3z4538j6z0vjt03w70vc0000gn/T//ccEfYTmh.s 			page 22


  78:source/HvMessage.c ****     }
  79:source/HvMessage.c ****   }
  80:source/HvMessage.c **** 
  81:source/HvMessage.c ****   r->numBytes = (hv_uint16_t) len_r; // update the message size in memory
 844              		.loc 2 81 3 is_stmt 1 view .LVU204
 845              		.loc 2 81 17 is_stmt 0 view .LVU205
 846 00a0 A7F80690 		strh	r9, [r7, #6]	@ movhi
  82:source/HvMessage.c **** }
 847              		.loc 2 82 1 view .LVU206
 848 00a4 03B0     		add	sp, sp, #12
 849              		.cfi_remember_state
 850              		.cfi_def_cfa_offset 36
 851              		@ sp needed
 852 00a6 BDE8F08F 		pop	{r4, r5, r6, r7, r8, r9, r10, fp, pc}
 853              	.LVL47:
 854              	.L54:
 855              		.cfi_restore_state
 856              	.LBB327:
 857              	.LBB322:
  73:source/HvMessage.c ****       hv_strncpy(p, msg_getSymbol(m,i), symLen);
 858              		.loc 2 73 7 discriminator 1 view .LVU207
 859 00aa 0A4B     		ldr	r3, .L56
 860 00ac 4921     		movs	r1, #73
 861 00ae 0A4A     		ldr	r2, .L56+4
 862 00b0 0A48     		ldr	r0, .L56+8
 863 00b2 FFF7FEFF 		bl	__assert_func
 864              	.LVL48:
 865              	.L55:
 866              	.LBB315:
 867              	.LBB310:
 148:source/HvMessage.h ****   hv_assert(s != NULL);
 868              		.loc 1 148 3 view .LVU208
 869 00b6 0A4B     		ldr	r3, .L56+12
 870 00b8 9421     		movs	r1, #148
 871 00ba 0A4A     		ldr	r2, .L56+16
 872              	.LVL49:
 148:source/HvMessage.h ****   hv_assert(s != NULL);
 873              		.loc 1 148 3 view .LVU209
 874 00bc 0A48     		ldr	r0, .L56+20
 875 00be FFF7FEFF 		bl	__assert_func
 876              	.LVL50:
 877              	.L53:
 148:source/HvMessage.h ****   hv_assert(s != NULL);
 878              		.loc 1 148 3 view .LVU210
 879              	.LBE310:
 880              	.LBE315:
 881              	.LBE322:
 882              	.LBE327:
  64:source/HvMessage.c **** 
 883              		.loc 2 64 3 discriminator 1 view .LVU211
 884 00c2 0A4B     		ldr	r3, .L56+24
 885 00c4 4021     		movs	r1, #64
 886              	.LVL51:
  64:source/HvMessage.c **** 
 887              		.loc 2 64 3 discriminator 1 view .LVU212
 888 00c6 044A     		ldr	r2, .L56+4
 889              	.LVL52:
ARM GAS  /var/folders/fb/yfxt3z4538j6z0vjt03w70vc0000gn/T//ccEfYTmh.s 			page 23


  64:source/HvMessage.c **** 
 890              		.loc 2 64 3 discriminator 1 view .LVU213
 891 00c8 0448     		ldr	r0, .L56+8
 892              	.LVL53:
  64:source/HvMessage.c **** 
 893              		.loc 2 64 3 discriminator 1 view .LVU214
 894 00ca FFF7FEFF 		bl	__assert_func
 895              	.LVL54:
 896              	.L52:
 897              	.LBB328:
 898              	.LBB278:
  64:source/HvMessage.c **** 
 899              		.loc 2 64 3 discriminator 1 view .LVU215
 900 00ce FFF7FEFF 		bl	msg_getCoreSize.part.0
 901              	.LVL55:
 902              	.L57:
  64:source/HvMessage.c **** 
 903              		.loc 2 64 3 discriminator 1 view .LVU216
 904 00d2 00BF     		.align	2
 905              	.L56:
 906 00d4 24000000 		.word	.LC6
 907 00d8 00000000 		.word	.LANCHOR4
 908 00dc 10000000 		.word	.LC5
 909 00e0 00000000 		.word	.LC2
 910 00e4 00000000 		.word	.LANCHOR3
 911 00e8 10000000 		.word	.LC1
 912 00ec 00000000 		.word	.LC4
 913              	.LBE278:
 914              	.LBE328:
 915              		.cfi_endproc
 916              	.LFE350:
 918              		.section	.rodata.msg_copy.str1.4,"aMS",%progbits,1
 919              		.align	2
 920              	.LC7:
 921 0000 7220213D 		.ascii	"r != ((void *)0)\000"
 921      20282876 
 921      6F696420 
 921      2A293029 
 921      00
 922              		.section	.text.msg_copy,"ax",%progbits
 923              		.align	1
 924              		.p2align 2,,3
 925              		.global	msg_copy
 926              		.syntax unified
 927              		.thumb
 928              		.thumb_func
 930              	msg_copy:
 931              	.LVL56:
 932              	.LFB351:
  83:source/HvMessage.c **** 
  84:source/HvMessage.c **** // the message is serialised such that all symbol elements are placed in order at the end of the bu
  85:source/HvMessage.c **** HvMessage *msg_copy(const HvMessage *m) {
 933              		.loc 2 85 41 is_stmt 1 view -0
 934              		.cfi_startproc
 935              		@ args = 0, pretend = 0, frame = 8
 936              		@ frame_needed = 0, uses_anonymous_args = 0
  86:source/HvMessage.c ****   const hv_uint32_t heapSize = msg_getSize(m);
ARM GAS  /var/folders/fb/yfxt3z4538j6z0vjt03w70vc0000gn/T//ccEfYTmh.s 			page 24


 937              		.loc 2 86 3 view .LVU218
 938              	.LBB329:
 939              	.LBB330:
  96:source/HvMessage.h **** }
 940              		.loc 1 96 11 is_stmt 0 view .LVU219
 941 0000 C288     		ldrh	r2, [r0, #6]
 942              	.LBE330:
 943              	.LBE329:
  85:source/HvMessage.c ****   const hv_uint32_t heapSize = msg_getSize(m);
 944              		.loc 2 85 41 view .LVU220
 945 0002 30B5     		push	{r4, r5, lr}
 946              		.cfi_def_cfa_offset 12
 947              		.cfi_offset 4, -12
 948              		.cfi_offset 5, -8
 949              		.cfi_offset 14, -4
 950 0004 83B0     		sub	sp, sp, #12
 951              		.cfi_def_cfa_offset 24
  85:source/HvMessage.c ****   const hv_uint32_t heapSize = msg_getSize(m);
 952              		.loc 2 85 41 view .LVU221
 953 0006 0546     		mov	r5, r0
 954              	.LVL57:
 955              	.LBB332:
 956              	.LBI329:
  95:source/HvMessage.h ****   return m->numBytes;
 957              		.loc 1 95 27 is_stmt 1 view .LVU222
 958              	.LBB331:
  96:source/HvMessage.h **** }
 959              		.loc 1 96 3 view .LVU223
  96:source/HvMessage.h **** }
 960              		.loc 1 96 3 is_stmt 0 view .LVU224
 961              	.LBE331:
 962              	.LBE332:
  87:source/HvMessage.c ****   char *r = (char *) hv_malloc(heapSize);
 963              		.loc 2 87 3 is_stmt 1 view .LVU225
 964              		.loc 2 87 22 is_stmt 0 view .LVU226
 965 0008 1046     		mov	r0, r2
 966              	.LVL58:
 967              		.loc 2 87 22 view .LVU227
 968 000a 0192     		str	r2, [sp, #4]
 969 000c FFF7FEFF 		bl	malloc
 970              	.LVL59:
  88:source/HvMessage.c ****   hv_assert(r != NULL);
 971              		.loc 2 88 3 is_stmt 1 view .LVU228
 972 0010 019A     		ldr	r2, [sp, #4]
 973 0012 38B1     		cbz	r0, .L61
 974 0014 0446     		mov	r4, r0
  89:source/HvMessage.c ****   msg_copyToBuffer(m, r, heapSize);
 975              		.loc 2 89 3 view .LVU229
 976 0016 0146     		mov	r1, r0
 977 0018 2846     		mov	r0, r5
 978              	.LVL60:
 979              		.loc 2 89 3 is_stmt 0 view .LVU230
 980 001a FFF7FEFF 		bl	msg_copyToBuffer
 981              	.LVL61:
  90:source/HvMessage.c ****   return (HvMessage *) r;
 982              		.loc 2 90 3 is_stmt 1 view .LVU231
  91:source/HvMessage.c **** }
ARM GAS  /var/folders/fb/yfxt3z4538j6z0vjt03w70vc0000gn/T//ccEfYTmh.s 			page 25


 983              		.loc 2 91 1 is_stmt 0 view .LVU232
 984 001e 2046     		mov	r0, r4
 985 0020 03B0     		add	sp, sp, #12
 986              		.cfi_remember_state
 987              		.cfi_def_cfa_offset 12
 988              		@ sp needed
 989 0022 30BD     		pop	{r4, r5, pc}
 990              	.LVL62:
 991              	.L61:
 992              		.cfi_restore_state
  88:source/HvMessage.c ****   msg_copyToBuffer(m, r, heapSize);
 993              		.loc 2 88 3 discriminator 1 view .LVU233
 994 0024 024B     		ldr	r3, .L62
 995 0026 5821     		movs	r1, #88
 996 0028 024A     		ldr	r2, .L62+4
 997 002a 0348     		ldr	r0, .L62+8
 998              	.LVL63:
  88:source/HvMessage.c ****   msg_copyToBuffer(m, r, heapSize);
 999              		.loc 2 88 3 discriminator 1 view .LVU234
 1000 002c FFF7FEFF 		bl	__assert_func
 1001              	.LVL64:
 1002              	.L63:
 1003              		.align	2
 1004              	.L62:
 1005 0030 00000000 		.word	.LC7
 1006 0034 00000000 		.word	.LANCHOR5
 1007 0038 10000000 		.word	.LC5
 1008              		.cfi_endproc
 1009              	.LFE351:
 1011              		.section	.text.msg_free,"ax",%progbits
 1012              		.align	1
 1013              		.p2align 2,,3
 1014              		.global	msg_free
 1015              		.syntax unified
 1016              		.thumb
 1017              		.thumb_func
 1019              	msg_free:
 1020              	.LVL65:
 1021              	.LFB352:
  92:source/HvMessage.c **** 
  93:source/HvMessage.c **** void msg_free(HvMessage *m) {
 1022              		.loc 2 93 29 is_stmt 1 view -0
 1023              		.cfi_startproc
 1024              		@ args = 0, pretend = 0, frame = 0
 1025              		@ frame_needed = 0, uses_anonymous_args = 0
 1026              		@ link register save eliminated.
  94:source/HvMessage.c ****   hv_free(m); // because heap messages are serialised in memory, a simple call to free releases the
 1027              		.loc 2 94 3 view .LVU236
 1028 0000 FFF7FEBF 		b	free
 1029              	.LVL66:
 1030              		.loc 2 94 3 is_stmt 0 view .LVU237
 1031              		.cfi_endproc
 1032              	.LFE352:
 1034              		.section	.rodata.msg_hasFormat.str1.4,"aMS",%progbits,1
 1035              		.align	2
 1036              	.LC8:
 1037 0000 666D7420 		.ascii	"fmt != ((void *)0)\000"
ARM GAS  /var/folders/fb/yfxt3z4538j6z0vjt03w70vc0000gn/T//ccEfYTmh.s 			page 26


 1037      213D2028 
 1037      28766F69 
 1037      64202A29 
 1037      302900
 1038              		.section	.text.msg_hasFormat,"ax",%progbits
 1039              		.align	1
 1040              		.p2align 2,,3
 1041              		.global	msg_hasFormat
 1042              		.syntax unified
 1043              		.thumb
 1044              		.thumb_func
 1046              	msg_hasFormat:
 1047              	.LVL67:
 1048              	.LFB353:
  95:source/HvMessage.c **** }
  96:source/HvMessage.c **** 
  97:source/HvMessage.c **** bool msg_hasFormat(const HvMessage *m, const char *fmt) {
 1049              		.loc 2 97 57 is_stmt 1 view -0
 1050              		.cfi_startproc
 1051              		@ args = 0, pretend = 0, frame = 0
 1052              		@ frame_needed = 0, uses_anonymous_args = 0
  98:source/HvMessage.c ****   hv_assert(fmt != NULL);
 1053              		.loc 2 98 3 view .LVU239
  97:source/HvMessage.c ****   hv_assert(fmt != NULL);
 1054              		.loc 2 97 57 is_stmt 0 view .LVU240
 1055 0000 10B5     		push	{r4, lr}
 1056              		.cfi_def_cfa_offset 8
 1057              		.cfi_offset 4, -8
 1058              		.cfi_offset 14, -4
 1059              		.loc 2 98 3 view .LVU241
 1060 0002 91B3     		cbz	r1, .L93
  99:source/HvMessage.c ****   const int n = msg_getNumElements(m);
 1061              		.loc 2 99 3 is_stmt 1 view .LVU242
 1062              	.LVL68:
 1063              	.LBB333:
 1064              	.LBI333:
  90:source/HvMessage.h ****   return (int) m->numElements;
 1065              		.loc 1 90 19 view .LVU243
 1066              	.LBB334:
  91:source/HvMessage.h **** }
 1067              		.loc 1 91 3 view .LVU244
  91:source/HvMessage.h **** }
 1068              		.loc 1 91 17 is_stmt 0 view .LVU245
 1069 0004 8488     		ldrh	r4, [r0, #4]
 1070              	.LVL69:
  91:source/HvMessage.h **** }
 1071              		.loc 1 91 17 view .LVU246
 1072              	.LBE334:
 1073              	.LBE333:
 100:source/HvMessage.c ****   for (int i = 0; i < n; ++i) {
 1074              		.loc 2 100 3 is_stmt 1 view .LVU247
 1075              	.LBB335:
 1076              		.loc 2 100 8 view .LVU248
 1077              		.loc 2 100 19 view .LVU249
 1078              		.loc 2 100 3 is_stmt 0 view .LVU250
 1079 0006 F4B1     		cbz	r4, .L67
 1080 0008 0A46     		mov	r2, r1
ARM GAS  /var/folders/fb/yfxt3z4538j6z0vjt03w70vc0000gn/T//ccEfYTmh.s 			page 27


 1081 000a 04EB010C 		add	ip, r4, r1
 1082              	.LVL70:
 1083              	.L75:
 101:source/HvMessage.c ****     switch (fmt[i]) {
 1084              		.loc 2 101 5 is_stmt 1 view .LVU251
 1085              		.loc 2 101 16 is_stmt 0 view .LVU252
 1086 000e 12F8013B 		ldrb	r3, [r2], #1	@ zero_extendqisi2
 1087              		.loc 2 101 5 view .LVU253
 1088 0012 623B     		subs	r3, r3, #98
 1089 0014 112B     		cmp	r3, #17
 1090 0016 0DD8     		bhi	.L77
 1091 0018 DFE803F0 		tbb	[pc, r3]
 1092              	.L70:
 1093 001c 1F       		.byte	(.L73-.L70)/2
 1094 001d 0C       		.byte	(.L77-.L70)/2
 1095 001e 0C       		.byte	(.L77-.L70)/2
 1096 001f 0C       		.byte	(.L77-.L70)/2
 1097 0020 1A       		.byte	(.L72-.L70)/2
 1098 0021 0C       		.byte	(.L77-.L70)/2
 1099 0022 0E       		.byte	(.L71-.L70)/2
 1100 0023 0C       		.byte	(.L77-.L70)/2
 1101 0024 0C       		.byte	(.L77-.L70)/2
 1102 0025 0C       		.byte	(.L77-.L70)/2
 1103 0026 0C       		.byte	(.L77-.L70)/2
 1104 0027 0C       		.byte	(.L77-.L70)/2
 1105 0028 0C       		.byte	(.L77-.L70)/2
 1106 0029 0C       		.byte	(.L77-.L70)/2
 1107 002a 0C       		.byte	(.L77-.L70)/2
 1108 002b 0C       		.byte	(.L77-.L70)/2
 1109 002c 0C       		.byte	(.L77-.L70)/2
 1110 002d 09       		.byte	(.L69-.L70)/2
 1111              		.p2align 1
 1112              	.L69:
 102:source/HvMessage.c ****       case 'b': if (!msg_isBang(m, i)) return false; break;
 103:source/HvMessage.c ****       case 'f': if (!msg_isFloat(m, i)) return false; break;
 104:source/HvMessage.c ****       case 'h': if (!msg_isHash(m, i)) return false; break;
 105:source/HvMessage.c ****       case 's': if (!msg_isSymbol(m, i)) return false; break;
 1113              		.loc 2 105 17 is_stmt 1 view .LVU254
 1114              	.LVL71:
 1115              	.LBB336:
 1116              	.LBI336:
 162:source/HvMessage.h ****   return (index < msg_getNumElements(m)) ? (msg_getType(m, index) == HV_MSG_SYMBOL) : false;
 1117              		.loc 1 162 20 view .LVU255
 1118              	.LBB337:
 1119              		.loc 1 163 3 view .LVU256
 1120              		.loc 1 163 3 is_stmt 0 view .LVU257
 1121              	.LBE337:
 1122              	.LBE336:
 1123              	.LBE335:
  91:source/HvMessage.h **** }
 1124              		.loc 1 91 3 is_stmt 1 view .LVU258
 1125              	.LBB376:
 1126              	.LBB344:
 1127              	.LBB342:
 1128              	.LBB338:
 1129              	.LBI338:
  99:source/HvMessage.h ****   hv_assert(index < msg_getNumElements(m)); // invalid index
ARM GAS  /var/folders/fb/yfxt3z4538j6z0vjt03w70vc0000gn/T//ccEfYTmh.s 			page 28


 1130              		.loc 1 99 27 view .LVU259
 1131              	.LBB339:
 100:source/HvMessage.h ****   return (&(m->elem)+index)->type;
 1132              		.loc 1 100 3 view .LVU260
 100:source/HvMessage.h ****   return (&(m->elem)+index)->type;
 1133              		.loc 1 100 3 is_stmt 0 view .LVU261
 1134              	.LBE339:
 1135              	.LBE338:
 1136              	.LBE342:
 1137              	.LBE344:
 1138              	.LBE376:
  91:source/HvMessage.h **** }
 1139              		.loc 1 91 3 is_stmt 1 view .LVU262
 1140              	.LBB377:
 1141              	.LBB345:
 1142              	.LBB343:
 1143              	.LBB341:
 1144              	.LBB340:
 101:source/HvMessage.h **** }
 1145              		.loc 1 101 3 view .LVU263
 101:source/HvMessage.h **** }
 1146              		.loc 1 101 3 is_stmt 0 view .LVU264
 1147              	.LBE340:
 1148              	.LBE341:
 1149              		.loc 1 163 85 view .LVU265
 1150 002e 037A     		ldrb	r3, [r0, #8]	@ zero_extendqisi2
 1151 0030 022B     		cmp	r3, #2
 1152 0032 04D0     		beq	.L74
 1153              	.LVL72:
 1154              	.L77:
 1155              		.loc 1 163 85 view .LVU266
 1156              	.LBE343:
 1157              	.LBE345:
 102:source/HvMessage.c ****       case 'f': if (!msg_isFloat(m, i)) return false; break;
 1158              		.loc 2 102 47 view .LVU267
 1159 0034 0020     		movs	r0, #0
 1160              	.L68:
 1161              	.LBE377:
 106:source/HvMessage.c ****       default: return false;
 107:source/HvMessage.c ****     }
 108:source/HvMessage.c ****   }
 109:source/HvMessage.c ****   return (fmt[n] == '\0');
 110:source/HvMessage.c **** }
 1162              		.loc 2 110 1 view .LVU268
 1163 0036 10BD     		pop	{r4, pc}
 1164              	.LVL73:
 1165              	.L71:
 1166              	.LBB378:
 104:source/HvMessage.c ****       case 's': if (!msg_isSymbol(m, i)) return false; break;
 1167              		.loc 2 104 17 is_stmt 1 view .LVU269
 1168              	.LBB346:
 1169              	.LBI346:
 135:source/HvMessage.h ****   return (index < msg_getNumElements(m)) ? (msg_getType(m, index) == HV_MSG_HASH) : false;
 1170              		.loc 1 135 20 view .LVU270
 1171              	.LBB347:
 136:source/HvMessage.h **** }
 1172              		.loc 1 136 3 view .LVU271
ARM GAS  /var/folders/fb/yfxt3z4538j6z0vjt03w70vc0000gn/T//ccEfYTmh.s 			page 29


 136:source/HvMessage.h **** }
 1173              		.loc 1 136 3 is_stmt 0 view .LVU272
 1174              	.LBE347:
 1175              	.LBE346:
 1176              	.LBE378:
  91:source/HvMessage.h **** }
 1177              		.loc 1 91 3 is_stmt 1 view .LVU273
 1178              	.LBB379:
 1179              	.LBB354:
 1180              	.LBB352:
 1181              	.LBB348:
 1182              	.LBI348:
  99:source/HvMessage.h ****   hv_assert(index < msg_getNumElements(m)); // invalid index
 1183              		.loc 1 99 27 view .LVU274
 1184              	.LBB349:
 100:source/HvMessage.h ****   return (&(m->elem)+index)->type;
 1185              		.loc 1 100 3 view .LVU275
 100:source/HvMessage.h ****   return (&(m->elem)+index)->type;
 1186              		.loc 1 100 3 is_stmt 0 view .LVU276
 1187              	.LBE349:
 1188              	.LBE348:
 1189              	.LBE352:
 1190              	.LBE354:
 1191              	.LBE379:
  91:source/HvMessage.h **** }
 1192              		.loc 1 91 3 is_stmt 1 view .LVU277
 1193              	.LBB380:
 1194              	.LBB355:
 1195              	.LBB353:
 1196              	.LBB351:
 1197              	.LBB350:
 101:source/HvMessage.h **** }
 1198              		.loc 1 101 3 view .LVU278
 101:source/HvMessage.h **** }
 1199              		.loc 1 101 3 is_stmt 0 view .LVU279
 1200              	.LBE350:
 1201              	.LBE351:
 136:source/HvMessage.h **** }
 1202              		.loc 1 136 83 view .LVU280
 1203 0038 037A     		ldrb	r3, [r0, #8]	@ zero_extendqisi2
 1204 003a 032B     		cmp	r3, #3
 1205 003c FAD1     		bne	.L77
 1206              	.LVL74:
 1207              	.L74:
 136:source/HvMessage.h **** }
 1208              		.loc 1 136 83 view .LVU281
 1209              	.LBE353:
 1210              	.LBE355:
 100:source/HvMessage.c ****     switch (fmt[i]) {
 1211              		.loc 2 100 26 is_stmt 1 discriminator 2 view .LVU282
 100:source/HvMessage.c ****     switch (fmt[i]) {
 1212              		.loc 2 100 19 discriminator 2 view .LVU283
 100:source/HvMessage.c ****     switch (fmt[i]) {
 1213              		.loc 2 100 3 is_stmt 0 discriminator 2 view .LVU284
 1214 003e 9445     		cmp	ip, r2
 1215 0040 00F10800 		add	r0, r0, #8
 1216 0044 E3D1     		bne	.L75
ARM GAS  /var/folders/fb/yfxt3z4538j6z0vjt03w70vc0000gn/T//ccEfYTmh.s 			page 30


 1217              	.L67:
 1218              	.LBE380:
 109:source/HvMessage.c **** }
 1219              		.loc 2 109 3 is_stmt 1 view .LVU285
 109:source/HvMessage.c **** }
 1220              		.loc 2 109 18 is_stmt 0 view .LVU286
 1221 0046 085D     		ldrb	r0, [r1, r4]	@ zero_extendqisi2
 1222 0048 B0FA80F0 		clz	r0, r0
 1223 004c 4009     		lsrs	r0, r0, #5
 1224              		.loc 2 110 1 view .LVU287
 1225 004e 10BD     		pop	{r4, pc}
 1226              	.LVL75:
 1227              	.L72:
 1228              	.LBB381:
 103:source/HvMessage.c ****       case 'h': if (!msg_isHash(m, i)) return false; break;
 1229              		.loc 2 103 17 is_stmt 1 view .LVU288
 1230              	.LBB356:
 1231              	.LBI356:
 125:source/HvMessage.h ****   return (index < msg_getNumElements(m)) ? (msg_getType(m,index) == HV_MSG_FLOAT) : false;
 1232              		.loc 1 125 20 view .LVU289
 1233              	.LBB357:
 126:source/HvMessage.h **** }
 1234              		.loc 1 126 3 view .LVU290
 126:source/HvMessage.h **** }
 1235              		.loc 1 126 3 is_stmt 0 view .LVU291
 1236              	.LBE357:
 1237              	.LBE356:
 1238              	.LBE381:
  91:source/HvMessage.h **** }
 1239              		.loc 1 91 3 is_stmt 1 view .LVU292
 1240              	.LBB382:
 1241              	.LBB364:
 1242              	.LBB362:
 1243              	.LBB358:
 1244              	.LBI358:
  99:source/HvMessage.h ****   hv_assert(index < msg_getNumElements(m)); // invalid index
 1245              		.loc 1 99 27 view .LVU293
 1246              	.LBB359:
 100:source/HvMessage.h ****   return (&(m->elem)+index)->type;
 1247              		.loc 1 100 3 view .LVU294
 100:source/HvMessage.h ****   return (&(m->elem)+index)->type;
 1248              		.loc 1 100 3 is_stmt 0 view .LVU295
 1249              	.LBE359:
 1250              	.LBE358:
 1251              	.LBE362:
 1252              	.LBE364:
 1253              	.LBE382:
  91:source/HvMessage.h **** }
 1254              		.loc 1 91 3 is_stmt 1 view .LVU296
 1255              	.LBB383:
 1256              	.LBB365:
 1257              	.LBB363:
 1258              	.LBB361:
 1259              	.LBB360:
 101:source/HvMessage.h **** }
 1260              		.loc 1 101 3 view .LVU297
 101:source/HvMessage.h **** }
ARM GAS  /var/folders/fb/yfxt3z4538j6z0vjt03w70vc0000gn/T//ccEfYTmh.s 			page 31


 1261              		.loc 1 101 3 is_stmt 0 view .LVU298
 1262              	.LBE360:
 1263              	.LBE361:
 126:source/HvMessage.h **** }
 1264              		.loc 1 126 83 view .LVU299
 1265 0050 037A     		ldrb	r3, [r0, #8]	@ zero_extendqisi2
 1266 0052 012B     		cmp	r3, #1
 1267 0054 F3D0     		beq	.L74
 1268              	.LBE363:
 1269              	.LBE365:
 102:source/HvMessage.c ****       case 'f': if (!msg_isFloat(m, i)) return false; break;
 1270              		.loc 2 102 47 view .LVU300
 1271 0056 0020     		movs	r0, #0
 1272 0058 EDE7     		b	.L68
 1273              	.LVL76:
 1274              	.L73:
 102:source/HvMessage.c ****       case 'f': if (!msg_isFloat(m, i)) return false; break;
 1275              		.loc 2 102 17 is_stmt 1 view .LVU301
 1276              	.LBB366:
 1277              	.LBI366:
 110:source/HvMessage.h ****   return (index < msg_getNumElements(m)) ? (msg_getType(m,index) == HV_MSG_BANG) : false;
 1278              		.loc 1 110 20 view .LVU302
 1279              	.LBB367:
 111:source/HvMessage.h **** }
 1280              		.loc 1 111 3 view .LVU303
 111:source/HvMessage.h **** }
 1281              		.loc 1 111 3 is_stmt 0 view .LVU304
 1282              	.LBE367:
 1283              	.LBE366:
 1284              	.LBE383:
  91:source/HvMessage.h **** }
 1285              		.loc 1 91 3 is_stmt 1 view .LVU305
 1286              	.LBB384:
 1287              	.LBB374:
 1288              	.LBB372:
 1289              	.LBB368:
 1290              	.LBI368:
  99:source/HvMessage.h ****   hv_assert(index < msg_getNumElements(m)); // invalid index
 1291              		.loc 1 99 27 view .LVU306
 1292              	.LBB369:
 100:source/HvMessage.h ****   return (&(m->elem)+index)->type;
 1293              		.loc 1 100 3 view .LVU307
 100:source/HvMessage.h ****   return (&(m->elem)+index)->type;
 1294              		.loc 1 100 3 is_stmt 0 view .LVU308
 1295              	.LBE369:
 1296              	.LBE368:
 1297              	.LBE372:
 1298              	.LBE374:
 1299              	.LBE384:
  91:source/HvMessage.h **** }
 1300              		.loc 1 91 3 is_stmt 1 view .LVU309
 1301              	.LBB385:
 1302              	.LBB375:
 1303              	.LBB373:
 1304              	.LBB371:
 1305              	.LBB370:
 101:source/HvMessage.h **** }
ARM GAS  /var/folders/fb/yfxt3z4538j6z0vjt03w70vc0000gn/T//ccEfYTmh.s 			page 32


 1306              		.loc 1 101 3 view .LVU310
 101:source/HvMessage.h **** }
 1307              		.loc 1 101 3 is_stmt 0 view .LVU311
 1308              	.LBE370:
 1309              	.LBE371:
 111:source/HvMessage.h **** }
 1310              		.loc 1 111 82 view .LVU312
 1311 005a 037A     		ldrb	r3, [r0, #8]	@ zero_extendqisi2
 1312 005c 002B     		cmp	r3, #0
 1313 005e E9D1     		bne	.L77
 1314              	.LVL77:
 111:source/HvMessage.h **** }
 1315              		.loc 1 111 82 view .LVU313
 1316              	.LBE373:
 1317              	.LBE375:
 100:source/HvMessage.c ****     switch (fmt[i]) {
 1318              		.loc 2 100 26 is_stmt 1 view .LVU314
 100:source/HvMessage.c ****     switch (fmt[i]) {
 1319              		.loc 2 100 19 view .LVU315
 100:source/HvMessage.c ****     switch (fmt[i]) {
 1320              		.loc 2 100 3 is_stmt 0 view .LVU316
 1321 0060 9445     		cmp	ip, r2
 1322 0062 00F10800 		add	r0, r0, #8
 1323 0066 D2D1     		bne	.L75
 1324 0068 EDE7     		b	.L67
 1325              	.LVL78:
 1326              	.L93:
 100:source/HvMessage.c ****     switch (fmt[i]) {
 1327              		.loc 2 100 3 view .LVU317
 1328              	.LBE385:
  98:source/HvMessage.c ****   const int n = msg_getNumElements(m);
 1329              		.loc 2 98 3 discriminator 1 view .LVU318
 1330 006a 034B     		ldr	r3, .L94
 1331 006c 6221     		movs	r1, #98
 1332              	.LVL79:
  98:source/HvMessage.c ****   const int n = msg_getNumElements(m);
 1333              		.loc 2 98 3 discriminator 1 view .LVU319
 1334 006e 034A     		ldr	r2, .L94+4
 1335 0070 0348     		ldr	r0, .L94+8
 1336              	.LVL80:
  98:source/HvMessage.c ****   const int n = msg_getNumElements(m);
 1337              		.loc 2 98 3 discriminator 1 view .LVU320
 1338 0072 FFF7FEFF 		bl	__assert_func
 1339              	.LVL81:
 1340              	.L95:
 1341 0076 00BF     		.align	2
 1342              	.L94:
 1343 0078 00000000 		.word	.LC8
 1344 007c 00000000 		.word	.LANCHOR6
 1345 0080 10000000 		.word	.LC5
 1346              		.cfi_endproc
 1347              	.LFE353:
 1349              		.section	.rodata.msg_getHash.str1.4,"aMS",%progbits,1
 1350              		.align	2
 1351              	.LC9:
 1352 0000 69203C20 		.ascii	"i < msg_getNumElements(m)\000"
 1352      6D73675F 
ARM GAS  /var/folders/fb/yfxt3z4538j6z0vjt03w70vc0000gn/T//ccEfYTmh.s 			page 33


 1352      6765744E 
 1352      756D456C 
 1352      656D656E 
 1353              		.section	.text.msg_getHash,"ax",%progbits
 1354              		.align	1
 1355              		.p2align 2,,3
 1356              		.global	msg_getHash
 1357              		.syntax unified
 1358              		.thumb
 1359              		.thumb_func
 1361              	msg_getHash:
 1362              	.LVL82:
 1363              	.LFB357:
 111:source/HvMessage.c **** 
 112:source/HvMessage.c **** bool msg_compareSymbol(const HvMessage *m, int i, const char *s) {
 113:source/HvMessage.c ****   switch (msg_getType(m,i)) {
 114:source/HvMessage.c ****     case HV_MSG_SYMBOL: return !hv_strcmp(msg_getSymbol(m, i), s);
 115:source/HvMessage.c ****     case HV_MSG_HASH: return (msg_getHash(m,i) == hv_string_to_hash(s));
 116:source/HvMessage.c ****     default: return false;
 117:source/HvMessage.c ****   }
 118:source/HvMessage.c **** }
 119:source/HvMessage.c **** 
 120:source/HvMessage.c **** bool msg_equalsElement(const HvMessage *m, int i_m, const HvMessage *n, int i_n) {
 121:source/HvMessage.c ****   if (i_m < msg_getNumElements(m) && i_n < msg_getNumElements(n)) {
 122:source/HvMessage.c ****     if (msg_getType(m, i_m) == msg_getType(n, i_n)) {
 123:source/HvMessage.c ****       switch (msg_getType(m, i_m)) {
 124:source/HvMessage.c ****         case HV_MSG_BANG: return true;
 125:source/HvMessage.c ****         case HV_MSG_FLOAT: return (msg_getFloat(m, i_m) == msg_getFloat(n, i_n));
 126:source/HvMessage.c ****         case HV_MSG_SYMBOL: return msg_compareSymbol(m, i_m, msg_getSymbol(n, i_n));
 127:source/HvMessage.c ****         case HV_MSG_HASH: return msg_getHash(m,i_m) == msg_getHash(n,i_n);
 128:source/HvMessage.c ****         default: break;
 129:source/HvMessage.c ****       }
 130:source/HvMessage.c ****     }
 131:source/HvMessage.c ****   }
 132:source/HvMessage.c ****   return false;
 133:source/HvMessage.c **** }
 134:source/HvMessage.c **** 
 135:source/HvMessage.c **** void msg_setElementToFrom(HvMessage *n, int i_n, const HvMessage *const m, int i_m) {
 136:source/HvMessage.c ****   switch (msg_getType(m, i_m)) {
 137:source/HvMessage.c ****     case HV_MSG_BANG: msg_setBang(n, i_n); break;
 138:source/HvMessage.c ****     case HV_MSG_FLOAT: msg_setFloat(n, i_n, msg_getFloat(m, i_m)); break;
 139:source/HvMessage.c ****     case HV_MSG_SYMBOL: msg_setSymbol(n, i_n, msg_getSymbol(m, i_m)); break;
 140:source/HvMessage.c ****     case HV_MSG_HASH: msg_setHash(n, i_n, msg_getHash(m, i_m));
 141:source/HvMessage.c ****     default: break;
 142:source/HvMessage.c ****   }
 143:source/HvMessage.c **** }
 144:source/HvMessage.c **** 
 145:source/HvMessage.c **** hv_uint32_t msg_getHash(const HvMessage *const m, int i) {
 1364              		.loc 2 145 58 is_stmt 1 view -0
 1365              		.cfi_startproc
 1366              		@ args = 0, pretend = 0, frame = 0
 1367              		@ frame_needed = 0, uses_anonymous_args = 0
 146:source/HvMessage.c ****   hv_assert(i < msg_getNumElements(m)); // invalid index
 1368              		.loc 2 146 3 view .LVU322
 1369              	.LBB386:
 1370              	.LBI386:
  90:source/HvMessage.h ****   return (int) m->numElements;
ARM GAS  /var/folders/fb/yfxt3z4538j6z0vjt03w70vc0000gn/T//ccEfYTmh.s 			page 34


 1371              		.loc 1 90 19 view .LVU323
 1372              	.LBB387:
  91:source/HvMessage.h **** }
 1373              		.loc 1 91 3 view .LVU324
  91:source/HvMessage.h **** }
 1374              		.loc 1 91 3 is_stmt 0 view .LVU325
 1375              	.LBE387:
 1376              	.LBE386:
 145:source/HvMessage.c ****   hv_assert(i < msg_getNumElements(m)); // invalid index
 1377              		.loc 2 145 58 view .LVU326
 1378 0000 08B5     		push	{r3, lr}
 1379              		.cfi_def_cfa_offset 8
 1380              		.cfi_offset 3, -8
 1381              		.cfi_offset 14, -4
 1382              	.LBB389:
 1383              	.LBB388:
  91:source/HvMessage.h **** }
 1384              		.loc 1 91 10 view .LVU327
 1385 0002 8388     		ldrh	r3, [r0, #4]
 1386              	.LBE388:
 1387              	.LBE389:
 1388              		.loc 2 146 3 view .LVU328
 1389 0004 9942     		cmp	r1, r3
 1390 0006 14DA     		bge	.L106
 147:source/HvMessage.c ****   switch (msg_getType(m,i)) {
 1391              		.loc 2 147 3 is_stmt 1 view .LVU329
 1392              	.LVL83:
 1393              	.LBB390:
 1394              	.LBI390:
  99:source/HvMessage.h ****   hv_assert(index < msg_getNumElements(m)); // invalid index
 1395              		.loc 1 99 27 view .LVU330
 1396              	.LBB391:
 100:source/HvMessage.h ****   return (&(m->elem)+index)->type;
 1397              		.loc 1 100 3 view .LVU331
 100:source/HvMessage.h ****   return (&(m->elem)+index)->type;
 1398              		.loc 1 100 3 is_stmt 0 view .LVU332
 1399              	.LBE391:
 1400              	.LBE390:
  91:source/HvMessage.h **** }
 1401              		.loc 1 91 3 is_stmt 1 view .LVU333
 1402              	.LBB394:
 1403              	.LBB392:
 101:source/HvMessage.h **** }
 1404              		.loc 1 101 3 view .LVU334
 101:source/HvMessage.h **** }
 1405              		.loc 1 101 11 is_stmt 0 view .LVU335
 1406 0008 0830     		adds	r0, r0, #8
 1407              	.LVL84:
 101:source/HvMessage.h **** }
 1408              		.loc 1 101 11 view .LVU336
 1409              	.LBE392:
 1410              	.LBE394:
 1411              		.loc 2 147 3 view .LVU337
 1412 000a 10F83130 		ldrb	r3, [r0, r1, lsl #3]	@ zero_extendqisi2
 1413              	.LBB395:
 1414              	.LBB393:
 101:source/HvMessage.h **** }
ARM GAS  /var/folders/fb/yfxt3z4538j6z0vjt03w70vc0000gn/T//ccEfYTmh.s 			page 35


 1415              		.loc 1 101 21 view .LVU338
 1416 000e 00EBC100 		add	r0, r0, r1, lsl #3
 1417              	.LVL85:
 101:source/HvMessage.h **** }
 1418              		.loc 1 101 21 view .LVU339
 1419              	.LBE393:
 1420              	.LBE395:
 1421              		.loc 2 147 3 view .LVU340
 1422 0012 032B     		cmp	r3, #3
 1423 0014 13D8     		bhi	.L98
 1424 0016 DFE803F0 		tbb	[pc, r3]
 1425              	.L100:
 1426 001a 04       		.byte	(.L104-.L100)/2
 1427 001b 02       		.byte	(.L99-.L100)/2
 1428 001c 07       		.byte	(.L101-.L100)/2
 1429 001d 02       		.byte	(.L99-.L100)/2
 1430              		.p2align 1
 1431              	.L99:
 148:source/HvMessage.c ****     case HV_MSG_BANG: return 0xFFFFFFFF;
 149:source/HvMessage.c ****     case HV_MSG_FLOAT: {
 150:source/HvMessage.c ****       float f = msg_getFloat(m,i);
 151:source/HvMessage.c ****       return *((hv_uint32_t *) &f);
 152:source/HvMessage.c ****     }
 153:source/HvMessage.c ****     case HV_MSG_SYMBOL: return hv_string_to_hash(msg_getSymbol(m,i));
 154:source/HvMessage.c ****     case HV_MSG_HASH: return (&(m->elem)+i)->data.h;
 1432              		.loc 2 154 23 is_stmt 1 view .LVU341
 1433              		.loc 2 154 50 is_stmt 0 view .LVU342
 1434 001e 4068     		ldr	r0, [r0, #4]
 155:source/HvMessage.c ****     default: return 0;
 156:source/HvMessage.c ****   }
 157:source/HvMessage.c **** }
 1435              		.loc 2 157 1 view .LVU343
 1436 0020 08BD     		pop	{r3, pc}
 1437              	.L104:
 148:source/HvMessage.c ****     case HV_MSG_BANG: return 0xFFFFFFFF;
 1438              		.loc 2 148 30 view .LVU344
 1439 0022 4FF0FF30 		mov	r0, #-1
 1440              		.loc 2 157 1 view .LVU345
 1441 0026 08BD     		pop	{r3, pc}
 1442              	.L101:
 153:source/HvMessage.c ****     case HV_MSG_HASH: return (&(m->elem)+i)->data.h;
 1443              		.loc 2 153 25 is_stmt 1 view .LVU346
 1444              	.LVL86:
 1445              	.LBB396:
 1446              	.LBI396:
 157:source/HvMessage.h ****   hv_assert(index < msg_getNumElements(m)); // invalid index
 1447              		.loc 1 157 27 view .LVU347
 1448              	.LBB397:
 158:source/HvMessage.h ****   return (&(m->elem)+index)->data.s;
 1449              		.loc 1 158 3 view .LVU348
 158:source/HvMessage.h ****   return (&(m->elem)+index)->data.s;
 1450              		.loc 1 158 3 is_stmt 0 view .LVU349
 1451              	.LBE397:
 1452              	.LBE396:
  91:source/HvMessage.h **** }
 1453              		.loc 1 91 3 is_stmt 1 view .LVU350
 1454              	.LBB399:
ARM GAS  /var/folders/fb/yfxt3z4538j6z0vjt03w70vc0000gn/T//ccEfYTmh.s 			page 36


 1455              	.LBB398:
 159:source/HvMessage.h **** }
 1456              		.loc 1 159 3 view .LVU351
 159:source/HvMessage.h **** }
 1457              		.loc 1 159 3 is_stmt 0 view .LVU352
 1458              	.LBE398:
 1459              	.LBE399:
 153:source/HvMessage.c ****     case HV_MSG_HASH: return (&(m->elem)+i)->data.h;
 1460              		.loc 2 153 32 view .LVU353
 1461 0028 4068     		ldr	r0, [r0, #4]
 1462              		.loc 2 157 1 view .LVU354
 1463 002a BDE80840 		pop	{r3, lr}
 1464              		.cfi_remember_state
 1465              		.cfi_restore 14
 1466              		.cfi_restore 3
 1467              		.cfi_def_cfa_offset 0
 153:source/HvMessage.c ****     case HV_MSG_HASH: return (&(m->elem)+i)->data.h;
 1468              		.loc 2 153 32 view .LVU355
 1469 002e FFF7FEBF 		b	hv_string_to_hash
 1470              	.LVL87:
 1471              	.L106:
 1472              		.cfi_restore_state
 146:source/HvMessage.c ****   switch (msg_getType(m,i)) {
 1473              		.loc 2 146 3 discriminator 1 view .LVU356
 1474 0032 044B     		ldr	r3, .L107
 1475 0034 9221     		movs	r1, #146
 1476              	.LVL88:
 146:source/HvMessage.c ****   switch (msg_getType(m,i)) {
 1477              		.loc 2 146 3 discriminator 1 view .LVU357
 1478 0036 044A     		ldr	r2, .L107+4
 1479 0038 0448     		ldr	r0, .L107+8
 1480              	.LVL89:
 146:source/HvMessage.c ****   switch (msg_getType(m,i)) {
 1481              		.loc 2 146 3 discriminator 1 view .LVU358
 1482 003a FFF7FEFF 		bl	__assert_func
 1483              	.LVL90:
 1484              	.L98:
 147:source/HvMessage.c ****     case HV_MSG_BANG: return 0xFFFFFFFF;
 1485              		.loc 2 147 3 view .LVU359
 1486 003e 0020     		movs	r0, #0
 1487              		.loc 2 157 1 view .LVU360
 1488 0040 08BD     		pop	{r3, pc}
 1489              	.L108:
 1490 0042 00BF     		.align	2
 1491              	.L107:
 1492 0044 00000000 		.word	.LC9
 1493 0048 00000000 		.word	.LANCHOR7
 1494 004c 10000000 		.word	.LC5
 1495              		.cfi_endproc
 1496              	.LFE357:
 1498              		.section	.text.msg_compareSymbol,"ax",%progbits
 1499              		.align	1
 1500              		.p2align 2,,3
 1501              		.global	msg_compareSymbol
 1502              		.syntax unified
 1503              		.thumb
 1504              		.thumb_func
ARM GAS  /var/folders/fb/yfxt3z4538j6z0vjt03w70vc0000gn/T//ccEfYTmh.s 			page 37


 1506              	msg_compareSymbol:
 1507              	.LVL91:
 1508              	.LFB354:
 112:source/HvMessage.c ****   switch (msg_getType(m,i)) {
 1509              		.loc 2 112 66 is_stmt 1 view -0
 1510              		.cfi_startproc
 1511              		@ args = 0, pretend = 0, frame = 0
 1512              		@ frame_needed = 0, uses_anonymous_args = 0
 113:source/HvMessage.c ****     case HV_MSG_SYMBOL: return !hv_strcmp(msg_getSymbol(m, i), s);
 1513              		.loc 2 113 3 view .LVU362
 1514              	.LBB400:
 1515              	.LBI400:
  99:source/HvMessage.h ****   hv_assert(index < msg_getNumElements(m)); // invalid index
 1516              		.loc 1 99 27 view .LVU363
 1517              	.LBB401:
 100:source/HvMessage.h ****   return (&(m->elem)+index)->type;
 1518              		.loc 1 100 3 view .LVU364
 1519              	.LBB402:
 1520              	.LBI402:
  90:source/HvMessage.h ****   return (int) m->numElements;
 1521              		.loc 1 90 19 view .LVU365
 1522              	.LBB403:
  91:source/HvMessage.h **** }
 1523              		.loc 1 91 3 view .LVU366
  91:source/HvMessage.h **** }
 1524              		.loc 1 91 3 is_stmt 0 view .LVU367
 1525              	.LBE403:
 1526              	.LBE402:
 1527              	.LBE401:
 1528              	.LBE400:
 112:source/HvMessage.c ****   switch (msg_getType(m,i)) {
 1529              		.loc 2 112 66 view .LVU368
 1530 0000 38B5     		push	{r3, r4, r5, lr}
 1531              		.cfi_def_cfa_offset 16
 1532              		.cfi_offset 3, -16
 1533              		.cfi_offset 4, -12
 1534              		.cfi_offset 5, -8
 1535              		.cfi_offset 14, -4
 112:source/HvMessage.c ****   switch (msg_getType(m,i)) {
 1536              		.loc 2 112 66 view .LVU369
 1537 0002 1546     		mov	r5, r2
 1538              	.LBB408:
 1539              	.LBB406:
 1540              	.LBB405:
 1541              	.LBB404:
  91:source/HvMessage.h **** }
 1542              		.loc 1 91 10 view .LVU370
 1543 0004 8288     		ldrh	r2, [r0, #4]
 1544              	.LVL92:
  91:source/HvMessage.h **** }
 1545              		.loc 1 91 10 view .LVU371
 1546              	.LBE404:
 1547              	.LBE405:
 100:source/HvMessage.h ****   return (&(m->elem)+index)->type;
 1548              		.loc 1 100 3 view .LVU372
 1549 0006 9142     		cmp	r1, r2
 1550 0008 1EDA     		bge	.L115
ARM GAS  /var/folders/fb/yfxt3z4538j6z0vjt03w70vc0000gn/T//ccEfYTmh.s 			page 38


 101:source/HvMessage.h **** }
 1551              		.loc 1 101 3 is_stmt 1 view .LVU373
 1552 000a 0346     		mov	r3, r0
 101:source/HvMessage.h **** }
 1553              		.loc 1 101 11 is_stmt 0 view .LVU374
 1554 000c 0833     		adds	r3, r3, #8
 101:source/HvMessage.h **** }
 1555              		.loc 1 101 28 view .LVU375
 1556 000e 13F83120 		ldrb	r2, [r3, r1, lsl #3]	@ zero_extendqisi2
 1557              	.LVL93:
 101:source/HvMessage.h **** }
 1558              		.loc 1 101 21 view .LVU376
 1559 0012 03EBC103 		add	r3, r3, r1, lsl #3
 1560              	.LBE406:
 1561              	.LBE408:
 113:source/HvMessage.c ****     case HV_MSG_SYMBOL: return !hv_strcmp(msg_getSymbol(m, i), s);
 1562              		.loc 2 113 3 view .LVU377
 1563 0016 022A     		cmp	r2, #2
 1564 0018 0ED0     		beq	.L111
 1565 001a 032A     		cmp	r2, #3
 1566 001c 01D0     		beq	.L112
 1567 001e 0020     		movs	r0, #0
 1568              	.LVL94:
 118:source/HvMessage.c **** 
 1569              		.loc 2 118 1 view .LVU378
 1570 0020 38BD     		pop	{r3, r4, r5, pc}
 1571              	.LVL95:
 1572              	.L112:
 115:source/HvMessage.c ****     default: return false;
 1573              		.loc 2 115 23 is_stmt 1 view .LVU379
 115:source/HvMessage.c ****     default: return false;
 1574              		.loc 2 115 31 is_stmt 0 view .LVU380
 1575 0022 FFF7FEFF 		bl	msg_getHash
 1576              	.LVL96:
 115:source/HvMessage.c ****     default: return false;
 1577              		.loc 2 115 31 view .LVU381
 1578 0026 0446     		mov	r4, r0
 115:source/HvMessage.c ****     default: return false;
 1579              		.loc 2 115 51 view .LVU382
 1580 0028 2846     		mov	r0, r5
 1581 002a FFF7FEFF 		bl	hv_string_to_hash
 1582              	.LVL97:
 115:source/HvMessage.c ****     default: return false;
 1583              		.loc 2 115 48 view .LVU383
 1584 002e 201A     		subs	r0, r4, r0
 1585 0030 B0FA80F0 		clz	r0, r0
 1586 0034 4009     		lsrs	r0, r0, #5
 118:source/HvMessage.c **** 
 1587              		.loc 2 118 1 view .LVU384
 1588 0036 38BD     		pop	{r3, r4, r5, pc}
 1589              	.LVL98:
 1590              	.L111:
 114:source/HvMessage.c ****     case HV_MSG_HASH: return (msg_getHash(m,i) == hv_string_to_hash(s));
 1591              		.loc 2 114 25 is_stmt 1 view .LVU385
 1592              	.LBB409:
 1593              	.LBI409:
 157:source/HvMessage.h ****   hv_assert(index < msg_getNumElements(m)); // invalid index
ARM GAS  /var/folders/fb/yfxt3z4538j6z0vjt03w70vc0000gn/T//ccEfYTmh.s 			page 39


 1594              		.loc 1 157 27 view .LVU386
 1595              	.LBB410:
 158:source/HvMessage.h ****   return (&(m->elem)+index)->data.s;
 1596              		.loc 1 158 3 view .LVU387
 158:source/HvMessage.h ****   return (&(m->elem)+index)->data.s;
 1597              		.loc 1 158 3 is_stmt 0 view .LVU388
 1598              	.LBE410:
 1599              	.LBE409:
  91:source/HvMessage.h **** }
 1600              		.loc 1 91 3 is_stmt 1 view .LVU389
 1601              	.LBB412:
 1602              	.LBB411:
 159:source/HvMessage.h **** }
 1603              		.loc 1 159 3 view .LVU390
 159:source/HvMessage.h **** }
 1604              		.loc 1 159 3 is_stmt 0 view .LVU391
 1605              	.LBE411:
 1606              	.LBE412:
 114:source/HvMessage.c ****     case HV_MSG_HASH: return (msg_getHash(m,i) == hv_string_to_hash(s));
 1607              		.loc 2 114 33 view .LVU392
 1608 0038 2946     		mov	r1, r5
 1609              	.LVL99:
 114:source/HvMessage.c ****     case HV_MSG_HASH: return (msg_getHash(m,i) == hv_string_to_hash(s));
 1610              		.loc 2 114 33 view .LVU393
 1611 003a 5868     		ldr	r0, [r3, #4]
 1612              	.LVL100:
 114:source/HvMessage.c ****     case HV_MSG_HASH: return (msg_getHash(m,i) == hv_string_to_hash(s));
 1613              		.loc 2 114 33 view .LVU394
 1614 003c FFF7FEFF 		bl	strcmp
 1615              	.LVL101:
 114:source/HvMessage.c ****     case HV_MSG_HASH: return (msg_getHash(m,i) == hv_string_to_hash(s));
 1616              		.loc 2 114 32 view .LVU395
 1617 0040 B0FA80F0 		clz	r0, r0
 1618 0044 4009     		lsrs	r0, r0, #5
 118:source/HvMessage.c **** 
 1619              		.loc 2 118 1 view .LVU396
 1620 0046 38BD     		pop	{r3, r4, r5, pc}
 1621              	.LVL102:
 1622              	.L115:
 1623              	.LBB413:
 1624              	.LBB407:
 118:source/HvMessage.c **** 
 1625              		.loc 2 118 1 view .LVU397
 1626 0048 FFF7FEFF 		bl	msg_getType.part.0
 1627              	.LVL103:
 118:source/HvMessage.c **** 
 1628              		.loc 2 118 1 view .LVU398
 1629              	.LBE407:
 1630              	.LBE413:
 1631              		.cfi_endproc
 1632              	.LFE354:
 1634              		.section	.text.msg_equalsElement,"ax",%progbits
 1635              		.align	1
 1636              		.p2align 2,,3
 1637              		.global	msg_equalsElement
 1638              		.syntax unified
 1639              		.thumb
ARM GAS  /var/folders/fb/yfxt3z4538j6z0vjt03w70vc0000gn/T//ccEfYTmh.s 			page 40


 1640              		.thumb_func
 1642              	msg_equalsElement:
 1643              	.LVL104:
 1644              	.LFB355:
 120:source/HvMessage.c ****   if (i_m < msg_getNumElements(m) && i_n < msg_getNumElements(n)) {
 1645              		.loc 2 120 82 is_stmt 1 view -0
 1646              		.cfi_startproc
 1647              		@ args = 0, pretend = 0, frame = 8
 1648              		@ frame_needed = 0, uses_anonymous_args = 0
 121:source/HvMessage.c ****     if (msg_getType(m, i_m) == msg_getType(n, i_n)) {
 1649              		.loc 2 121 3 view .LVU400
 1650              	.LBB414:
 1651              	.LBI414:
  90:source/HvMessage.h ****   return (int) m->numElements;
 1652              		.loc 1 90 19 view .LVU401
 1653              	.LBB415:
  91:source/HvMessage.h **** }
 1654              		.loc 1 91 3 view .LVU402
  91:source/HvMessage.h **** }
 1655              		.loc 1 91 3 is_stmt 0 view .LVU403
 1656              	.LBE415:
 1657              	.LBE414:
 120:source/HvMessage.c ****   if (i_m < msg_getNumElements(m) && i_n < msg_getNumElements(n)) {
 1658              		.loc 2 120 82 view .LVU404
 1659 0000 30B5     		push	{r4, r5, lr}
 1660              		.cfi_def_cfa_offset 12
 1661              		.cfi_offset 4, -12
 1662              		.cfi_offset 5, -8
 1663              		.cfi_offset 14, -4
 1664              	.LBB417:
 1665              	.LBB416:
  91:source/HvMessage.h **** }
 1666              		.loc 1 91 10 view .LVU405
 1667 0002 8488     		ldrh	r4, [r0, #4]
 1668              	.LBE416:
 1669              	.LBE417:
 120:source/HvMessage.c ****   if (i_m < msg_getNumElements(m) && i_n < msg_getNumElements(n)) {
 1670              		.loc 2 120 82 view .LVU406
 1671 0004 83B0     		sub	sp, sp, #12
 1672              		.cfi_def_cfa_offset 24
 121:source/HvMessage.c ****     if (msg_getType(m, i_m) == msg_getType(n, i_n)) {
 1673              		.loc 2 121 6 view .LVU407
 1674 0006 A142     		cmp	r1, r4
 1675 0008 02DA     		bge	.L126
 1676              	.LVL105:
 1677              	.LBB418:
 1678              	.LBI418:
  90:source/HvMessage.h ****   return (int) m->numElements;
 1679              		.loc 1 90 19 is_stmt 1 view .LVU408
 1680              	.LBB419:
  91:source/HvMessage.h **** }
 1681              		.loc 1 91 3 view .LVU409
  91:source/HvMessage.h **** }
 1682              		.loc 1 91 10 is_stmt 0 view .LVU410
 1683 000a 9488     		ldrh	r4, [r2, #4]
 1684              	.LBE419:
 1685              	.LBE418:
ARM GAS  /var/folders/fb/yfxt3z4538j6z0vjt03w70vc0000gn/T//ccEfYTmh.s 			page 41


 121:source/HvMessage.c ****     if (msg_getType(m, i_m) == msg_getType(n, i_n)) {
 1686              		.loc 2 121 35 view .LVU411
 1687 000c A342     		cmp	r3, r4
 1688 000e 02DB     		blt	.L128
 1689              	.L126:
 132:source/HvMessage.c **** }
 1690              		.loc 2 132 10 view .LVU412
 1691 0010 0020     		movs	r0, #0
 1692              	.LVL106:
 1693              	.L117:
 133:source/HvMessage.c **** 
 1694              		.loc 2 133 1 view .LVU413
 1695 0012 03B0     		add	sp, sp, #12
 1696              		.cfi_remember_state
 1697              		.cfi_def_cfa_offset 12
 1698              		@ sp needed
 1699 0014 30BD     		pop	{r4, r5, pc}
 1700              	.LVL107:
 1701              	.L128:
 1702              		.cfi_restore_state
 122:source/HvMessage.c ****       switch (msg_getType(m, i_m)) {
 1703              		.loc 2 122 5 is_stmt 1 view .LVU414
 1704              	.LBB420:
 1705              	.LBI420:
  99:source/HvMessage.h ****   hv_assert(index < msg_getNumElements(m)); // invalid index
 1706              		.loc 1 99 27 view .LVU415
 1707              	.LBB421:
 100:source/HvMessage.h ****   return (&(m->elem)+index)->type;
 1708              		.loc 1 100 3 view .LVU416
 100:source/HvMessage.h ****   return (&(m->elem)+index)->type;
 1709              		.loc 1 100 3 is_stmt 0 view .LVU417
 1710              	.LBE421:
 1711              	.LBE420:
  91:source/HvMessage.h **** }
 1712              		.loc 1 91 3 is_stmt 1 view .LVU418
 1713              	.LBB425:
 1714              	.LBB422:
 101:source/HvMessage.h **** }
 1715              		.loc 1 101 3 view .LVU419
 101:source/HvMessage.h **** }
 1716              		.loc 1 101 11 is_stmt 0 view .LVU420
 1717 0016 00F1080C 		add	ip, r0, #8
 1718              	.LBE422:
 1719              	.LBE425:
 1720              	.LBB426:
 1721              	.LBB427:
 1722 001a 02F10804 		add	r4, r2, #8
 1723              	.LBE427:
 1724              	.LBE426:
 1725              	.LBB431:
 1726              	.LBB423:
 101:source/HvMessage.h **** }
 1727              		.loc 1 101 28 view .LVU421
 1728 001e 1CF83150 		ldrb	r5, [ip, r1, lsl #3]	@ zero_extendqisi2
 1729              	.LVL108:
 101:source/HvMessage.h **** }
 1730              		.loc 1 101 28 view .LVU422
ARM GAS  /var/folders/fb/yfxt3z4538j6z0vjt03w70vc0000gn/T//ccEfYTmh.s 			page 42


 1731              	.LBE423:
 1732              	.LBE431:
 1733              	.LBB432:
 1734              	.LBI426:
  99:source/HvMessage.h ****   hv_assert(index < msg_getNumElements(m)); // invalid index
 1735              		.loc 1 99 27 is_stmt 1 view .LVU423
 1736              	.LBB428:
 100:source/HvMessage.h ****   return (&(m->elem)+index)->type;
 1737              		.loc 1 100 3 view .LVU424
 100:source/HvMessage.h ****   return (&(m->elem)+index)->type;
 1738              		.loc 1 100 3 is_stmt 0 view .LVU425
 1739              	.LBE428:
 1740              	.LBE432:
  91:source/HvMessage.h **** }
 1741              		.loc 1 91 3 is_stmt 1 view .LVU426
 1742              	.LBB433:
 1743              	.LBB429:
 101:source/HvMessage.h **** }
 1744              		.loc 1 101 3 view .LVU427
 1745              	.LBE429:
 1746              	.LBE433:
 1747              	.LBB434:
 1748              	.LBB424:
 101:source/HvMessage.h **** }
 1749              		.loc 1 101 21 is_stmt 0 view .LVU428
 1750 0022 0CEBC10C 		add	ip, ip, r1, lsl #3
 1751              	.LBE424:
 1752              	.LBE434:
 122:source/HvMessage.c ****       switch (msg_getType(m, i_m)) {
 1753              		.loc 2 122 8 view .LVU429
 1754 0026 14F833E0 		ldrb	lr, [r4, r3, lsl #3]	@ zero_extendqisi2
 1755              	.LBB435:
 1756              	.LBB430:
 101:source/HvMessage.h **** }
 1757              		.loc 1 101 21 view .LVU430
 1758 002a 04EBC304 		add	r4, r4, r3, lsl #3
 1759              	.LVL109:
 101:source/HvMessage.h **** }
 1760              		.loc 1 101 21 view .LVU431
 1761              	.LBE430:
 1762              	.LBE435:
 122:source/HvMessage.c ****       switch (msg_getType(m, i_m)) {
 1763              		.loc 2 122 8 view .LVU432
 1764 002e AE45     		cmp	lr, r5
 1765 0030 EED1     		bne	.L126
 123:source/HvMessage.c ****         case HV_MSG_BANG: return true;
 1766              		.loc 2 123 7 is_stmt 1 view .LVU433
 1767              	.LVL110:
 100:source/HvMessage.h ****   return (&(m->elem)+index)->type;
 1768              		.loc 1 100 3 view .LVU434
  91:source/HvMessage.h **** }
 1769              		.loc 1 91 3 view .LVU435
 101:source/HvMessage.h **** }
 1770              		.loc 1 101 3 view .LVU436
 123:source/HvMessage.c ****         case HV_MSG_BANG: return true;
 1771              		.loc 2 123 7 is_stmt 0 view .LVU437
 1772 0032 BEF1030F 		cmp	lr, #3
ARM GAS  /var/folders/fb/yfxt3z4538j6z0vjt03w70vc0000gn/T//ccEfYTmh.s 			page 43


 1773 0036 EBD8     		bhi	.L126
 1774 0038 DFE80EF0 		tbb	[pc, lr]
 1775              	.L119:
 1776 003c 02       		.byte	(.L122-.L119)/2
 1777 003d 1A       		.byte	(.L121-.L119)/2
 1778 003e 14       		.byte	(.L120-.L119)/2
 1779 003f 04       		.byte	(.L118-.L119)/2
 1780              		.p2align 1
 1781              	.L122:
 1782 0040 0120     		movs	r0, #1
 1783              	.LVL111:
 123:source/HvMessage.c ****         case HV_MSG_BANG: return true;
 1784              		.loc 2 123 7 view .LVU438
 1785 0042 E6E7     		b	.L117
 1786              	.LVL112:
 1787              	.L118:
 127:source/HvMessage.c ****         default: break;
 1788              		.loc 2 127 27 is_stmt 1 view .LVU439
 1789 0044 CDE90023 		strd	r2, r3, [sp]
 127:source/HvMessage.c ****         default: break;
 1790              		.loc 2 127 34 is_stmt 0 view .LVU440
 1791 0048 FFF7FEFF 		bl	msg_getHash
 1792              	.LVL113:
 127:source/HvMessage.c ****         default: break;
 1793              		.loc 2 127 56 view .LVU441
 1794 004c 019B     		ldr	r3, [sp, #4]
 1795 004e 009A     		ldr	r2, [sp]
 127:source/HvMessage.c ****         default: break;
 1796              		.loc 2 127 34 view .LVU442
 1797 0050 0446     		mov	r4, r0
 127:source/HvMessage.c ****         default: break;
 1798              		.loc 2 127 56 view .LVU443
 1799 0052 1946     		mov	r1, r3
 1800 0054 1046     		mov	r0, r2
 1801 0056 FFF7FEFF 		bl	msg_getHash
 1802              	.LVL114:
 127:source/HvMessage.c ****         default: break;
 1803              		.loc 2 127 53 view .LVU444
 1804 005a 201A     		subs	r0, r4, r0
 1805 005c B0FA80F0 		clz	r0, r0
 1806 0060 4009     		lsrs	r0, r0, #5
 1807 0062 D6E7     		b	.L117
 1808              	.LVL115:
 1809              	.L120:
 126:source/HvMessage.c ****         case HV_MSG_HASH: return msg_getHash(m,i_m) == msg_getHash(n,i_n);
 1810              		.loc 2 126 29 is_stmt 1 view .LVU445
 1811              	.LBB436:
 1812              	.LBI436:
 157:source/HvMessage.h ****   hv_assert(index < msg_getNumElements(m)); // invalid index
 1813              		.loc 1 157 27 view .LVU446
 1814              	.LBB437:
 158:source/HvMessage.h ****   return (&(m->elem)+index)->data.s;
 1815              		.loc 1 158 3 view .LVU447
 158:source/HvMessage.h ****   return (&(m->elem)+index)->data.s;
 1816              		.loc 1 158 3 is_stmt 0 view .LVU448
 1817              	.LBE437:
 1818              	.LBE436:
ARM GAS  /var/folders/fb/yfxt3z4538j6z0vjt03w70vc0000gn/T//ccEfYTmh.s 			page 44


  91:source/HvMessage.h **** }
 1819              		.loc 1 91 3 is_stmt 1 view .LVU449
 1820              	.LBB439:
 1821              	.LBB438:
 159:source/HvMessage.h **** }
 1822              		.loc 1 159 3 view .LVU450
 159:source/HvMessage.h **** }
 1823              		.loc 1 159 3 is_stmt 0 view .LVU451
 1824              	.LBE438:
 1825              	.LBE439:
 126:source/HvMessage.c ****         case HV_MSG_HASH: return msg_getHash(m,i_m) == msg_getHash(n,i_n);
 1826              		.loc 2 126 36 view .LVU452
 1827 0064 6268     		ldr	r2, [r4, #4]
 1828              	.LVL116:
 133:source/HvMessage.c **** 
 1829              		.loc 2 133 1 view .LVU453
 1830 0066 03B0     		add	sp, sp, #12
 1831              		.cfi_remember_state
 1832              		.cfi_def_cfa_offset 12
 1833              		@ sp needed
 1834 0068 BDE83040 		pop	{r4, r5, lr}
 1835              		.cfi_restore 14
 1836              		.cfi_restore 5
 1837              		.cfi_restore 4
 1838              		.cfi_def_cfa_offset 0
 126:source/HvMessage.c ****         case HV_MSG_HASH: return msg_getHash(m,i_m) == msg_getHash(n,i_n);
 1839              		.loc 2 126 36 view .LVU454
 1840 006c FFF7FEBF 		b	msg_compareSymbol
 1841              	.LVL117:
 1842              	.L121:
 1843              		.cfi_restore_state
 125:source/HvMessage.c ****         case HV_MSG_SYMBOL: return msg_compareSymbol(m, i_m, msg_getSymbol(n, i_n));
 1844              		.loc 2 125 28 is_stmt 1 view .LVU455
 1845              	.LBB440:
 1846              	.LBI440:
 120:source/HvMessage.h ****   hv_assert(index < msg_getNumElements(m)); // invalid index
 1847              		.loc 1 120 21 view .LVU456
 1848              	.LBB441:
 121:source/HvMessage.h ****   return (&(m->elem)+index)->data.f;
 1849              		.loc 1 121 3 view .LVU457
 121:source/HvMessage.h ****   return (&(m->elem)+index)->data.f;
 1850              		.loc 1 121 3 is_stmt 0 view .LVU458
 1851              	.LBE441:
 1852              	.LBE440:
  91:source/HvMessage.h **** }
 1853              		.loc 1 91 3 is_stmt 1 view .LVU459
 1854              	.LBB443:
 1855              	.LBB442:
 122:source/HvMessage.h **** }
 1856              		.loc 1 122 3 view .LVU460
 122:source/HvMessage.h **** }
 1857              		.loc 1 122 3 is_stmt 0 view .LVU461
 1858              	.LBE442:
 1859              	.LBE443:
 1860              	.LBB444:
 1861              	.LBI444:
 120:source/HvMessage.h ****   hv_assert(index < msg_getNumElements(m)); // invalid index
ARM GAS  /var/folders/fb/yfxt3z4538j6z0vjt03w70vc0000gn/T//ccEfYTmh.s 			page 45


 1862              		.loc 1 120 21 is_stmt 1 view .LVU462
 1863              	.LBB445:
 121:source/HvMessage.h ****   return (&(m->elem)+index)->data.f;
 1864              		.loc 1 121 3 view .LVU463
 121:source/HvMessage.h ****   return (&(m->elem)+index)->data.f;
 1865              		.loc 1 121 3 is_stmt 0 view .LVU464
 1866              	.LBE445:
 1867              	.LBE444:
  91:source/HvMessage.h **** }
 1868              		.loc 1 91 3 is_stmt 1 view .LVU465
 1869              	.LBB447:
 1870              	.LBB446:
 122:source/HvMessage.h **** }
 1871              		.loc 1 122 3 view .LVU466
 122:source/HvMessage.h **** }
 1872              		.loc 1 122 3 is_stmt 0 view .LVU467
 1873              	.LBE446:
 1874              	.LBE447:
 125:source/HvMessage.c ****         case HV_MSG_SYMBOL: return msg_compareSymbol(m, i_m, msg_getSymbol(n, i_n));
 1875              		.loc 2 125 57 view .LVU468
 1876 0070 94ED017A 		vldr.32	s14, [r4, #4]
 1877 0074 DCED017A 		vldr.32	s15, [ip, #4]
 1878 0078 B4EE677A 		vcmp.f32	s14, s15
 1879 007c F1EE10FA 		vmrs	APSR_nzcv, FPSCR
 1880 0080 0CBF     		ite	eq
 1881 0082 0120     		moveq	r0, #1
 1882              	.LVL118:
 125:source/HvMessage.c ****         case HV_MSG_SYMBOL: return msg_compareSymbol(m, i_m, msg_getSymbol(n, i_n));
 1883              		.loc 2 125 57 view .LVU469
 1884 0084 0020     		movne	r0, #0
 1885 0086 C4E7     		b	.L117
 1886              		.cfi_endproc
 1887              	.LFE355:
 1889              		.section	.text.msg_setElementToFrom,"ax",%progbits
 1890              		.align	1
 1891              		.p2align 2,,3
 1892              		.global	msg_setElementToFrom
 1893              		.syntax unified
 1894              		.thumb
 1895              		.thumb_func
 1897              	msg_setElementToFrom:
 1898              	.LVL119:
 1899              	.LFB356:
 135:source/HvMessage.c ****   switch (msg_getType(m, i_m)) {
 1900              		.loc 2 135 85 is_stmt 1 view -0
 1901              		.cfi_startproc
 1902              		@ args = 0, pretend = 0, frame = 0
 1903              		@ frame_needed = 0, uses_anonymous_args = 0
 135:source/HvMessage.c ****   switch (msg_getType(m, i_m)) {
 1904              		.loc 2 135 85 is_stmt 0 view .LVU471
 1905 0000 38B5     		push	{r3, r4, r5, lr}
 1906              		.cfi_def_cfa_offset 16
 1907              		.cfi_offset 3, -16
 1908              		.cfi_offset 4, -12
 1909              		.cfi_offset 5, -8
 1910              		.cfi_offset 14, -4
 135:source/HvMessage.c ****   switch (msg_getType(m, i_m)) {
ARM GAS  /var/folders/fb/yfxt3z4538j6z0vjt03w70vc0000gn/T//ccEfYTmh.s 			page 46


 1911              		.loc 2 135 85 view .LVU472
 1912 0002 0D46     		mov	r5, r1
 136:source/HvMessage.c ****     case HV_MSG_BANG: msg_setBang(n, i_n); break;
 1913              		.loc 2 136 3 is_stmt 1 view .LVU473
 1914              	.LVL120:
 1915              	.LBB480:
 1916              	.LBI480:
  99:source/HvMessage.h ****   hv_assert(index < msg_getNumElements(m)); // invalid index
 1917              		.loc 1 99 27 view .LVU474
 1918              	.LBB481:
 100:source/HvMessage.h ****   return (&(m->elem)+index)->type;
 1919              		.loc 1 100 3 view .LVU475
 1920              	.LBB482:
 1921              	.LBI482:
  90:source/HvMessage.h ****   return (int) m->numElements;
 1922              		.loc 1 90 19 view .LVU476
 1923              	.LBB483:
  91:source/HvMessage.h **** }
 1924              		.loc 1 91 3 view .LVU477
  91:source/HvMessage.h **** }
 1925              		.loc 1 91 10 is_stmt 0 view .LVU478
 1926 0004 9188     		ldrh	r1, [r2, #4]
 1927              	.LVL121:
  91:source/HvMessage.h **** }
 1928              		.loc 1 91 10 view .LVU479
 1929              	.LBE483:
 1930              	.LBE482:
 100:source/HvMessage.h ****   return (&(m->elem)+index)->type;
 1931              		.loc 1 100 3 view .LVU480
 1932 0006 8B42     		cmp	r3, r1
 1933 0008 46DA     		bge	.L143
 101:source/HvMessage.h **** }
 1934              		.loc 1 101 3 is_stmt 1 view .LVU481
 101:source/HvMessage.h **** }
 1935              		.loc 1 101 11 is_stmt 0 view .LVU482
 1936 000a 02F10801 		add	r1, r2, #8
 1937 000e 0446     		mov	r4, r0
 1938              	.LBE481:
 1939              	.LBE480:
 136:source/HvMessage.c ****     case HV_MSG_BANG: msg_setBang(n, i_n); break;
 1940              		.loc 2 136 3 view .LVU483
 1941 0010 11F83300 		ldrb	r0, [r1, r3, lsl #3]	@ zero_extendqisi2
 1942              	.LVL122:
 1943              	.LBB486:
 1944              	.LBB484:
 101:source/HvMessage.h **** }
 1945              		.loc 1 101 21 view .LVU484
 1946 0014 01EBC301 		add	r1, r1, r3, lsl #3
 1947              	.LVL123:
 101:source/HvMessage.h **** }
 1948              		.loc 1 101 21 view .LVU485
 1949              	.LBE484:
 1950              	.LBE486:
 136:source/HvMessage.c ****     case HV_MSG_BANG: msg_setBang(n, i_n); break;
 1951              		.loc 2 136 3 view .LVU486
 1952 0018 0328     		cmp	r0, #3
 1953 001a 11D8     		bhi	.L129
ARM GAS  /var/folders/fb/yfxt3z4538j6z0vjt03w70vc0000gn/T//ccEfYTmh.s 			page 47


 1954 001c DFE800F0 		tbb	[pc, r0]
 1955              	.L133:
 1956 0020 11       		.byte	(.L136-.L133)/2
 1957 0021 1C       		.byte	(.L135-.L133)/2
 1958 0022 28       		.byte	(.L134-.L133)/2
 1959 0023 02       		.byte	(.L132-.L133)/2
 1960              		.p2align 1
 1961              	.L132:
 140:source/HvMessage.c ****     default: break;
 1962              		.loc 2 140 23 is_stmt 1 view .LVU487
 1963 0024 1946     		mov	r1, r3
 1964 0026 1046     		mov	r0, r2
 1965 0028 FFF7FEFF 		bl	msg_getHash
 1966              	.LVL124:
 1967              	.LBB487:
 1968              	.LBB488:
 1969              	.LBB489:
 1970              	.LBB490:
  91:source/HvMessage.h **** }
 1971              		.loc 1 91 10 is_stmt 0 view .LVU488
 1972 002c A388     		ldrh	r3, [r4, #4]
 1973              	.LVL125:
  91:source/HvMessage.h **** }
 1974              		.loc 1 91 10 view .LVU489
 1975              	.LBE490:
 1976              	.LBE489:
 1977              	.LBE488:
 1978              	.LBI487:
 129:source/HvMessage.h ****   hv_assert(index < msg_getNumElements(m)); // invalid index
 1979              		.loc 1 129 20 is_stmt 1 view .LVU490
 1980              	.LBB495:
 130:source/HvMessage.h ****   (&(m->elem)+index)->type = HV_MSG_HASH;
 1981              		.loc 1 130 3 view .LVU491
 1982              	.LBB492:
 1983              	.LBI489:
  90:source/HvMessage.h ****   return (int) m->numElements;
 1984              		.loc 1 90 19 view .LVU492
 1985              	.LBB491:
  91:source/HvMessage.h **** }
 1986              		.loc 1 91 3 view .LVU493
  91:source/HvMessage.h **** }
 1987              		.loc 1 91 3 is_stmt 0 view .LVU494
 1988              	.LBE491:
 1989              	.LBE492:
 130:source/HvMessage.h ****   (&(m->elem)+index)->type = HV_MSG_HASH;
 1990              		.loc 1 130 3 view .LVU495
 1991 002e 9D42     		cmp	r5, r3
 1992 0030 44DA     		bge	.L144
 131:source/HvMessage.h ****   (&(m->elem)+index)->data.h = h;
 1993              		.loc 1 131 3 is_stmt 1 view .LVU496
 131:source/HvMessage.h ****   (&(m->elem)+index)->data.h = h;
 1994              		.loc 1 131 4 is_stmt 0 view .LVU497
 1995 0032 0834     		adds	r4, r4, #8
 1996              	.LVL126:
 131:source/HvMessage.h ****   (&(m->elem)+index)->data.h = h;
 1997              		.loc 1 131 28 view .LVU498
 1998 0034 0322     		movs	r2, #3
ARM GAS  /var/folders/fb/yfxt3z4538j6z0vjt03w70vc0000gn/T//ccEfYTmh.s 			page 48


 131:source/HvMessage.h ****   (&(m->elem)+index)->data.h = h;
 1999              		.loc 1 131 14 view .LVU499
 2000 0036 04EBC503 		add	r3, r4, r5, lsl #3
 131:source/HvMessage.h ****   (&(m->elem)+index)->data.h = h;
 2001              		.loc 1 131 28 view .LVU500
 2002 003a 04F83520 		strb	r2, [r4, r5, lsl #3]
 132:source/HvMessage.h **** }
 2003              		.loc 1 132 3 is_stmt 1 view .LVU501
 132:source/HvMessage.h **** }
 2004              		.loc 1 132 30 is_stmt 0 view .LVU502
 2005 003e 5860     		str	r0, [r3, #4]
 2006              	.LVL127:
 2007              	.L129:
 132:source/HvMessage.h **** }
 2008              		.loc 1 132 30 view .LVU503
 2009              	.LBE495:
 2010              	.LBE487:
 143:source/HvMessage.c **** 
 2011              		.loc 2 143 1 view .LVU504
 2012 0040 38BD     		pop	{r3, r4, r5, pc}
 2013              	.LVL128:
 2014              	.L136:
 137:source/HvMessage.c ****     case HV_MSG_FLOAT: msg_setFloat(n, i_n, msg_getFloat(m, i_m)); break;
 2015              		.loc 2 137 23 is_stmt 1 view .LVU505
 2016              	.LBB497:
 2017              	.LBI497:
 104:source/HvMessage.h ****   hv_assert(index < msg_getNumElements(m)); // invalid index
 2018              		.loc 1 104 20 view .LVU506
 2019              	.LBB498:
 105:source/HvMessage.h ****   (&(m->elem)+index)->type = HV_MSG_BANG;
 2020              		.loc 1 105 3 view .LVU507
 2021              	.LBB499:
 2022              	.LBI499:
  90:source/HvMessage.h ****   return (int) m->numElements;
 2023              		.loc 1 90 19 view .LVU508
 2024              	.LBB500:
  91:source/HvMessage.h **** }
 2025              		.loc 1 91 3 view .LVU509
  91:source/HvMessage.h **** }
 2026              		.loc 1 91 10 is_stmt 0 view .LVU510
 2027 0042 A388     		ldrh	r3, [r4, #4]
 2028              	.LVL129:
  91:source/HvMessage.h **** }
 2029              		.loc 1 91 10 view .LVU511
 2030              	.LBE500:
 2031              	.LBE499:
 105:source/HvMessage.h ****   (&(m->elem)+index)->type = HV_MSG_BANG;
 2032              		.loc 1 105 3 view .LVU512
 2033 0044 9D42     		cmp	r5, r3
 2034 0046 37DA     		bge	.L145
 106:source/HvMessage.h ****   (&(m->elem)+index)->data.s = NULL;
 2035              		.loc 1 106 3 is_stmt 1 view .LVU513
 106:source/HvMessage.h ****   (&(m->elem)+index)->data.s = NULL;
 2036              		.loc 1 106 4 is_stmt 0 view .LVU514
 2037 0048 0834     		adds	r4, r4, #8
 2038              	.LVL130:
 106:source/HvMessage.h ****   (&(m->elem)+index)->data.s = NULL;
ARM GAS  /var/folders/fb/yfxt3z4538j6z0vjt03w70vc0000gn/T//ccEfYTmh.s 			page 49


 2039              		.loc 1 106 28 view .LVU515
 2040 004a 0023     		movs	r3, #0
 106:source/HvMessage.h ****   (&(m->elem)+index)->data.s = NULL;
 2041              		.loc 1 106 14 view .LVU516
 2042 004c 04EBC502 		add	r2, r4, r5, lsl #3
 2043              	.LVL131:
 106:source/HvMessage.h ****   (&(m->elem)+index)->data.s = NULL;
 2044              		.loc 1 106 28 view .LVU517
 2045 0050 04F83530 		strb	r3, [r4, r5, lsl #3]
 107:source/HvMessage.h **** }
 2046              		.loc 1 107 3 is_stmt 1 view .LVU518
 107:source/HvMessage.h **** }
 2047              		.loc 1 107 30 is_stmt 0 view .LVU519
 2048 0054 5360     		str	r3, [r2, #4]
 2049              	.LBE498:
 2050              	.LBE497:
 143:source/HvMessage.c **** 
 2051              		.loc 2 143 1 view .LVU520
 2052 0056 38BD     		pop	{r3, r4, r5, pc}
 2053              	.LVL132:
 2054              	.L135:
 138:source/HvMessage.c ****     case HV_MSG_SYMBOL: msg_setSymbol(n, i_n, msg_getSymbol(m, i_m)); break;
 2055              		.loc 2 138 24 is_stmt 1 view .LVU521
 2056              	.LBB502:
 2057              	.LBI502:
 120:source/HvMessage.h ****   hv_assert(index < msg_getNumElements(m)); // invalid index
 2058              		.loc 1 120 21 view .LVU522
 2059              	.LBB503:
 121:source/HvMessage.h ****   return (&(m->elem)+index)->data.f;
 2060              		.loc 1 121 3 view .LVU523
 121:source/HvMessage.h ****   return (&(m->elem)+index)->data.f;
 2061              		.loc 1 121 3 is_stmt 0 view .LVU524
 2062              	.LBE503:
 2063              	.LBE502:
  91:source/HvMessage.h **** }
 2064              		.loc 1 91 3 is_stmt 1 view .LVU525
 2065              	.LBB506:
 2066              	.LBB504:
 122:source/HvMessage.h **** }
 2067              		.loc 1 122 3 view .LVU526
 2068              	.LBE504:
 2069              	.LBE506:
 2070              	.LBB507:
 2071              	.LBB508:
 2072              	.LBB509:
 2073              	.LBB510:
  91:source/HvMessage.h **** }
 2074              		.loc 1 91 10 is_stmt 0 view .LVU527
 2075 0058 A388     		ldrh	r3, [r4, #4]
 2076              	.LVL133:
  91:source/HvMessage.h **** }
 2077              		.loc 1 91 10 view .LVU528
 2078              	.LBE510:
 2079              	.LBE509:
 2080              	.LBE508:
 2081              	.LBE507:
 2082              	.LBB517:
ARM GAS  /var/folders/fb/yfxt3z4538j6z0vjt03w70vc0000gn/T//ccEfYTmh.s 			page 50


 2083              	.LBB505:
 122:source/HvMessage.h **** }
 2084              		.loc 1 122 34 view .LVU529
 2085 005a 4A68     		ldr	r2, [r1, #4]	@ float
 2086              	.LVL134:
 122:source/HvMessage.h **** }
 2087              		.loc 1 122 34 view .LVU530
 2088              	.LBE505:
 2089              	.LBE517:
 2090              	.LBB518:
 2091              	.LBI507:
 114:source/HvMessage.h ****   hv_assert(index < msg_getNumElements(m)); // invalid index
 2092              		.loc 1 114 20 is_stmt 1 view .LVU531
 2093              	.LBB515:
 115:source/HvMessage.h ****   (&(m->elem)+index)->type = HV_MSG_FLOAT;
 2094              		.loc 1 115 3 view .LVU532
 2095              	.LBB512:
 2096              	.LBI509:
  90:source/HvMessage.h ****   return (int) m->numElements;
 2097              		.loc 1 90 19 view .LVU533
 2098              	.LBB511:
  91:source/HvMessage.h **** }
 2099              		.loc 1 91 3 view .LVU534
  91:source/HvMessage.h **** }
 2100              		.loc 1 91 3 is_stmt 0 view .LVU535
 2101              	.LBE511:
 2102              	.LBE512:
 115:source/HvMessage.h ****   (&(m->elem)+index)->type = HV_MSG_FLOAT;
 2103              		.loc 1 115 3 view .LVU536
 2104 005c 9D42     		cmp	r5, r3
 2105 005e 25DA     		bge	.L146
 116:source/HvMessage.h ****   (&(m->elem)+index)->data.f = f;
 2106              		.loc 1 116 3 is_stmt 1 view .LVU537
 116:source/HvMessage.h ****   (&(m->elem)+index)->data.f = f;
 2107              		.loc 1 116 4 is_stmt 0 view .LVU538
 2108 0060 0834     		adds	r4, r4, #8
 2109              	.LVL135:
 116:source/HvMessage.h ****   (&(m->elem)+index)->data.f = f;
 2110              		.loc 1 116 28 view .LVU539
 2111 0062 0121     		movs	r1, #1
 116:source/HvMessage.h ****   (&(m->elem)+index)->data.f = f;
 2112              		.loc 1 116 14 view .LVU540
 2113 0064 04EBC503 		add	r3, r4, r5, lsl #3
 116:source/HvMessage.h ****   (&(m->elem)+index)->data.f = f;
 2114              		.loc 1 116 28 view .LVU541
 2115 0068 04F83510 		strb	r1, [r4, r5, lsl #3]
 117:source/HvMessage.h **** }
 2116              		.loc 1 117 3 is_stmt 1 view .LVU542
 117:source/HvMessage.h **** }
 2117              		.loc 1 117 30 is_stmt 0 view .LVU543
 2118 006c 5A60     		str	r2, [r3, #4]	@ float
 2119              	.LBE515:
 2120              	.LBE518:
 143:source/HvMessage.c **** 
 2121              		.loc 2 143 1 view .LVU544
 2122 006e 38BD     		pop	{r3, r4, r5, pc}
 2123              	.LVL136:
ARM GAS  /var/folders/fb/yfxt3z4538j6z0vjt03w70vc0000gn/T//ccEfYTmh.s 			page 51


 2124              	.L134:
 139:source/HvMessage.c ****     case HV_MSG_HASH: msg_setHash(n, i_n, msg_getHash(m, i_m));
 2125              		.loc 2 139 25 is_stmt 1 view .LVU545
 2126              	.LBB519:
 2127              	.LBI519:
 157:source/HvMessage.h ****   hv_assert(index < msg_getNumElements(m)); // invalid index
 2128              		.loc 1 157 27 view .LVU546
 2129              	.LBB520:
 158:source/HvMessage.h ****   return (&(m->elem)+index)->data.s;
 2130              		.loc 1 158 3 view .LVU547
 158:source/HvMessage.h ****   return (&(m->elem)+index)->data.s;
 2131              		.loc 1 158 3 is_stmt 0 view .LVU548
 2132              	.LBE520:
 2133              	.LBE519:
  91:source/HvMessage.h **** }
 2134              		.loc 1 91 3 is_stmt 1 view .LVU549
 2135              	.LBB523:
 2136              	.LBB521:
 159:source/HvMessage.h **** }
 2137              		.loc 1 159 3 view .LVU550
 2138              	.LBE521:
 2139              	.LBE523:
 2140              	.LBB524:
 2141              	.LBB525:
 2142              	.LBB526:
 2143              	.LBB527:
  91:source/HvMessage.h **** }
 2144              		.loc 1 91 10 is_stmt 0 view .LVU551
 2145 0070 A388     		ldrh	r3, [r4, #4]
 2146              	.LVL137:
  91:source/HvMessage.h **** }
 2147              		.loc 1 91 10 view .LVU552
 2148              	.LBE527:
 2149              	.LBE526:
 2150              	.LBE525:
 2151              	.LBE524:
 2152              	.LBB532:
 2153              	.LBB522:
 159:source/HvMessage.h **** }
 2154              		.loc 1 159 34 view .LVU553
 2155 0072 4868     		ldr	r0, [r1, #4]
 2156              	.LVL138:
 159:source/HvMessage.h **** }
 2157              		.loc 1 159 34 view .LVU554
 2158              	.LBE522:
 2159              	.LBE532:
 2160              	.LBB533:
 2161              	.LBI524:
 147:source/HvMessage.h ****   hv_assert(index < msg_getNumElements(m)); // invalid index
 2162              		.loc 1 147 20 is_stmt 1 view .LVU555
 2163              	.LBB530:
 148:source/HvMessage.h ****   hv_assert(s != NULL);
 2164              		.loc 1 148 3 view .LVU556
 2165              	.LBB529:
 2166              	.LBI526:
  90:source/HvMessage.h ****   return (int) m->numElements;
 2167              		.loc 1 90 19 view .LVU557
ARM GAS  /var/folders/fb/yfxt3z4538j6z0vjt03w70vc0000gn/T//ccEfYTmh.s 			page 52


 2168              	.LBB528:
  91:source/HvMessage.h **** }
 2169              		.loc 1 91 3 view .LVU558
  91:source/HvMessage.h **** }
 2170              		.loc 1 91 3 is_stmt 0 view .LVU559
 2171              	.LBE528:
 2172              	.LBE529:
 148:source/HvMessage.h ****   hv_assert(s != NULL);
 2173              		.loc 1 148 3 view .LVU560
 2174 0074 9D42     		cmp	r5, r3
 2175 0076 13DA     		bge	.L147
 149:source/HvMessage.h ****   (&(m->elem)+index)->type = HV_MSG_SYMBOL;
 2176              		.loc 1 149 3 is_stmt 1 view .LVU561
 2177 0078 80B1     		cbz	r0, .L148
 150:source/HvMessage.h ****   (&(m->elem)+index)->data.s = s;
 2178              		.loc 1 150 3 view .LVU562
 150:source/HvMessage.h ****   (&(m->elem)+index)->data.s = s;
 2179              		.loc 1 150 4 is_stmt 0 view .LVU563
 2180 007a 04F10803 		add	r3, r4, #8
 150:source/HvMessage.h ****   (&(m->elem)+index)->data.s = s;
 2181              		.loc 1 150 28 view .LVU564
 2182 007e 0221     		movs	r1, #2
 150:source/HvMessage.h ****   (&(m->elem)+index)->data.s = s;
 2183              		.loc 1 150 14 view .LVU565
 2184 0080 03EBC502 		add	r2, r3, r5, lsl #3
 2185              	.LVL139:
 150:source/HvMessage.h ****   (&(m->elem)+index)->data.s = s;
 2186              		.loc 1 150 28 view .LVU566
 2187 0084 03F83510 		strb	r1, [r3, r5, lsl #3]
 151:source/HvMessage.h ****   // NOTE(mhroth): if the same message container is reused and string reset,
 2188              		.loc 1 151 3 is_stmt 1 view .LVU567
 151:source/HvMessage.h ****   // NOTE(mhroth): if the same message container is reused and string reset,
 2189              		.loc 1 151 30 is_stmt 0 view .LVU568
 2190 0088 5060     		str	r0, [r2, #4]
 154:source/HvMessage.h **** }
 2191              		.loc 1 154 3 is_stmt 1 view .LVU569
 154:source/HvMessage.h **** }
 2192              		.loc 1 154 33 is_stmt 0 view .LVU570
 2193 008a FFF7FEFF 		bl	strlen
 2194              	.LVL140:
 154:source/HvMessage.h **** }
 2195              		.loc 1 154 15 view .LVU571
 2196 008e E388     		ldrh	r3, [r4, #6]
 2197 0090 0133     		adds	r3, r3, #1
 2198 0092 1844     		add	r0, r0, r3
 2199 0094 E080     		strh	r0, [r4, #6]	@ movhi
 2200              	.LBE530:
 2201              	.LBE533:
 143:source/HvMessage.c **** 
 2202              		.loc 2 143 1 view .LVU572
 2203 0096 38BD     		pop	{r3, r4, r5, pc}
 2204              	.LVL141:
 2205              	.L143:
 2206              	.LBB534:
 2207              	.LBB485:
 143:source/HvMessage.c **** 
 2208              		.loc 2 143 1 view .LVU573
ARM GAS  /var/folders/fb/yfxt3z4538j6z0vjt03w70vc0000gn/T//ccEfYTmh.s 			page 53


 2209 0098 FFF7FEFF 		bl	msg_getType.part.0
 2210              	.LVL142:
 2211              	.L148:
 143:source/HvMessage.c **** 
 2212              		.loc 2 143 1 view .LVU574
 2213              	.LBE485:
 2214              	.LBE534:
 2215              	.LBB535:
 2216              	.LBB531:
 2217 009c FFF7FEFF 		bl	msg_setSymbol.part.0
 2218              	.LVL143:
 2219              	.L147:
 148:source/HvMessage.h ****   hv_assert(s != NULL);
 2220              		.loc 1 148 3 view .LVU575
 2221 00a0 094B     		ldr	r3, .L149
 2222 00a2 9421     		movs	r1, #148
 2223 00a4 094A     		ldr	r2, .L149+4
 2224              	.LVL144:
 148:source/HvMessage.h ****   hv_assert(s != NULL);
 2225              		.loc 1 148 3 view .LVU576
 2226 00a6 0A48     		ldr	r0, .L149+8
 2227              	.LVL145:
 148:source/HvMessage.h ****   hv_assert(s != NULL);
 2228              		.loc 1 148 3 view .LVU577
 2229 00a8 FFF7FEFF 		bl	__assert_func
 2230              	.LVL146:
 2231              	.L146:
 148:source/HvMessage.h ****   hv_assert(s != NULL);
 2232              		.loc 1 148 3 view .LVU578
 2233              	.LBE531:
 2234              	.LBE535:
 2235              	.LBB536:
 2236              	.LBB516:
 2237              	.LBB513:
 2238              	.LBI513:
 114:source/HvMessage.h ****   hv_assert(index < msg_getNumElements(m)); // invalid index
 2239              		.loc 1 114 20 is_stmt 1 view .LVU579
 2240              	.LBB514:
 115:source/HvMessage.h ****   (&(m->elem)+index)->type = HV_MSG_FLOAT;
 2241              		.loc 1 115 3 is_stmt 0 view .LVU580
 2242 00ac 064B     		ldr	r3, .L149
 2243 00ae 7321     		movs	r1, #115
 2244 00b0 084A     		ldr	r2, .L149+12
 2245              	.LVL147:
 115:source/HvMessage.h ****   (&(m->elem)+index)->type = HV_MSG_FLOAT;
 2246              		.loc 1 115 3 view .LVU581
 2247 00b2 0748     		ldr	r0, .L149+8
 2248 00b4 FFF7FEFF 		bl	__assert_func
 2249              	.LVL148:
 2250              	.L145:
 115:source/HvMessage.h ****   (&(m->elem)+index)->type = HV_MSG_FLOAT;
 2251              		.loc 1 115 3 view .LVU582
 2252              	.LBE514:
 2253              	.LBE513:
 2254              	.LBE516:
 2255              	.LBE536:
 2256              	.LBB537:
ARM GAS  /var/folders/fb/yfxt3z4538j6z0vjt03w70vc0000gn/T//ccEfYTmh.s 			page 54


 2257              	.LBB501:
 2258 00b8 FFF7FEFF 		bl	msg_setBang.part.0
 2259              	.LVL149:
 2260              	.L144:
 115:source/HvMessage.h ****   (&(m->elem)+index)->type = HV_MSG_FLOAT;
 2261              		.loc 1 115 3 view .LVU583
 2262              	.LBE501:
 2263              	.LBE537:
 2264              	.LBB538:
 2265              	.LBB496:
 2266              	.LBB493:
 2267              	.LBI493:
 129:source/HvMessage.h ****   hv_assert(index < msg_getNumElements(m)); // invalid index
 2268              		.loc 1 129 20 is_stmt 1 view .LVU584
 2269              	.LBB494:
 130:source/HvMessage.h ****   (&(m->elem)+index)->type = HV_MSG_HASH;
 2270              		.loc 1 130 3 is_stmt 0 view .LVU585
 2271 00bc 024B     		ldr	r3, .L149
 2272 00be 8221     		movs	r1, #130
 2273 00c0 054A     		ldr	r2, .L149+16
 2274 00c2 0348     		ldr	r0, .L149+8
 2275              	.LVL150:
 130:source/HvMessage.h ****   (&(m->elem)+index)->type = HV_MSG_HASH;
 2276              		.loc 1 130 3 view .LVU586
 2277 00c4 FFF7FEFF 		bl	__assert_func
 2278              	.LVL151:
 2279              	.L150:
 2280              		.align	2
 2281              	.L149:
 2282 00c8 00000000 		.word	.LC2
 2283 00cc 00000000 		.word	.LANCHOR3
 2284 00d0 10000000 		.word	.LC1
 2285 00d4 00000000 		.word	.LANCHOR8
 2286 00d8 00000000 		.word	.LANCHOR9
 2287              	.LBE494:
 2288              	.LBE493:
 2289              	.LBE496:
 2290              	.LBE538:
 2291              		.cfi_endproc
 2292              	.LFE356:
 2294              		.section	.rodata.msg_toString.str1.4,"aMS",%progbits,1
 2295              		.align	2
 2296              	.LC10:
 2297 0000 6D73675F 		.ascii	"msg_getNumElements(m) > 0\000"
 2297      6765744E 
 2297      756D456C 
 2297      656D656E 
 2297      7473286D 
 2298 001a 0000     		.align	2
 2299              	.LC11:
 2300 001c 256700   		.ascii	"%g\000"
 2301 001f 00       		.align	2
 2302              	.LC12:
 2303 0020 257300   		.ascii	"%s\000"
 2304 0023 00       		.align	2
 2305              	.LC13:
 2306 0024 30782558 		.ascii	"0x%X\000"
ARM GAS  /var/folders/fb/yfxt3z4538j6z0vjt03w70vc0000gn/T//ccEfYTmh.s 			page 55


 2306      00
 2307 0029 000000   		.align	2
 2308              	.LC14:
 2309 002c 73697A65 		.ascii	"size > 0\000"
 2309      203E2030 
 2309      00
 2310 0035 000000   		.align	2
 2311              	.LC15:
 2312 0038 66696E61 		.ascii	"finalString != ((void *)0)\000"
 2312      6C537472 
 2312      696E6720 
 2312      213D2028 
 2312      28766F69 
 2313 0053 00       		.align	2
 2314              	.LC16:
 2315 0054 62616E67 		.ascii	"bang\000"
 2315      00
 2316              		.section	.text.msg_toString,"ax",%progbits
 2317              		.align	1
 2318              		.p2align 2,,3
 2319              		.global	msg_toString
 2320              		.syntax unified
 2321              		.thumb
 2322              		.thumb_func
 2324              	msg_toString:
 2325              	.LVL152:
 2326              	.LFB358:
 158:source/HvMessage.c **** 
 159:source/HvMessage.c **** char *msg_toString(const HvMessage *m) {
 2327              		.loc 2 159 40 is_stmt 1 view -0
 2328              		.cfi_startproc
 2329              		@ args = 0, pretend = 0, frame = 8
 2330              		@ frame_needed = 1, uses_anonymous_args = 0
 160:source/HvMessage.c ****   hv_assert(msg_getNumElements(m) > 0);
 2331              		.loc 2 160 3 view .LVU588
 2332              	.LBB539:
 2333              	.LBI539:
  90:source/HvMessage.h ****   return (int) m->numElements;
 2334              		.loc 1 90 19 view .LVU589
 2335              	.LBB540:
  91:source/HvMessage.h **** }
 2336              		.loc 1 91 3 view .LVU590
 2337              	.LBE540:
 2338              	.LBE539:
 159:source/HvMessage.c ****   hv_assert(msg_getNumElements(m) > 0);
 2339              		.loc 2 159 40 is_stmt 0 view .LVU591
 2340 0000 2DE9F04F 		push	{r4, r5, r6, r7, r8, r9, r10, fp, lr}
 2341              		.cfi_def_cfa_offset 36
 2342              		.cfi_offset 4, -36
 2343              		.cfi_offset 5, -32
 2344              		.cfi_offset 6, -28
 2345              		.cfi_offset 7, -24
 2346              		.cfi_offset 8, -20
 2347              		.cfi_offset 9, -16
 2348              		.cfi_offset 10, -12
 2349              		.cfi_offset 11, -8
 2350              		.cfi_offset 14, -4
ARM GAS  /var/folders/fb/yfxt3z4538j6z0vjt03w70vc0000gn/T//ccEfYTmh.s 			page 56


 2351 0004 85B0     		sub	sp, sp, #20
 2352              		.cfi_def_cfa_offset 56
 2353              	.LBB542:
 2354              	.LBB541:
  91:source/HvMessage.h **** }
 2355              		.loc 1 91 17 view .LVU592
 2356 0006 8388     		ldrh	r3, [r0, #4]
 2357              	.LVL153:
  91:source/HvMessage.h **** }
 2358              		.loc 1 91 17 view .LVU593
 2359              	.LBE541:
 2360              	.LBE542:
 159:source/HvMessage.c ****   hv_assert(msg_getNumElements(m) > 0);
 2361              		.loc 2 159 40 view .LVU594
 2362 0008 02AF     		add	r7, sp, #8
 2363              		.cfi_def_cfa 7, 48
 2364              		.loc 2 160 3 view .LVU595
 2365 000a 002B     		cmp	r3, #0
 2366 000c 00F0A780 		beq	.L178
 161:source/HvMessage.c ****   int *len = (int *) hv_alloca(msg_getNumElements(m)*sizeof(int));
 2367              		.loc 2 161 3 is_stmt 1 view .LVU596
 2368              	.LVL154:
  91:source/HvMessage.h **** }
 2369              		.loc 1 91 3 view .LVU597
 2370              		.loc 2 161 22 is_stmt 0 view .LVU598
 2371 0010 9A00     		lsls	r2, r3, #2
 2372              	.LBB543:
 162:source/HvMessage.c ****   int size = 0; // the total length of our final buffer
 163:source/HvMessage.c **** 
 164:source/HvMessage.c ****   // loop through every element in our list of atoms
 165:source/HvMessage.c ****   // first loop figures out how long our buffer should be
 166:source/HvMessage.c ****   for (int i = 0; i < msg_getNumElements(m); i++) {
 2373              		.loc 2 166 12 view .LVU599
 2374 0012 0026     		movs	r6, #0
 2375 0014 8346     		mov	fp, r0
 2376              	.LBE543:
 161:source/HvMessage.c ****   int *len = (int *) hv_alloca(msg_getNumElements(m)*sizeof(int));
 2377              		.loc 2 161 22 view .LVU600
 2378 0016 0446     		mov	r4, r0
 2379 0018 0732     		adds	r2, r2, #7
 2380              	.LBB560:
 167:source/HvMessage.c ****     // length of our string is each atom plus a space, or \0 on the end
 168:source/HvMessage.c ****     switch (msg_getType(m, i)) {
 169:source/HvMessage.c ****       case HV_MSG_BANG: len[i] = hv_snprintf(NULL, 0, "%s", "bang") + 1; break;
 170:source/HvMessage.c ****       case HV_MSG_FLOAT: len[i] = hv_snprintf(NULL, 0, "%g", msg_getFloat(m, i)) + 1; break;
 171:source/HvMessage.c ****       case HV_MSG_SYMBOL: len[i] = hv_snprintf(NULL, 0, "%s", msg_getSymbol(m, i)) + 1; break;
 172:source/HvMessage.c ****       case HV_MSG_HASH: len[i] = hv_snprintf(NULL, 0, "0x%X", msg_getHash(m, i)) + 1; break;
 2381              		.loc 2 172 34 view .LVU601
 2382 001a DFF87CA1 		ldr	r10, .L180+8
 170:source/HvMessage.c ****       case HV_MSG_SYMBOL: len[i] = hv_snprintf(NULL, 0, "%s", msg_getSymbol(m, i)) + 1; break;
 2383              		.loc 2 170 35 view .LVU602
 2384 001e 3546     		mov	r5, r6
 2385 0020 3860     		str	r0, [r7]
 2386              	.LBE560:
 161:source/HvMessage.c ****   int size = 0; // the total length of our final buffer
 2387              		.loc 2 161 22 view .LVU603
 2388 0022 22F00702 		bic	r2, r2, #7
ARM GAS  /var/folders/fb/yfxt3z4538j6z0vjt03w70vc0000gn/T//ccEfYTmh.s 			page 57


 2389 0026 ADEB020D 		sub	sp, sp, r2
 2390              	.LVL155:
 162:source/HvMessage.c **** 
 2391              		.loc 2 162 3 is_stmt 1 view .LVU604
 166:source/HvMessage.c ****     // length of our string is each atom plus a space, or \0 on the end
 2392              		.loc 2 166 3 view .LVU605
 2393              	.LBB561:
 166:source/HvMessage.c ****     // length of our string is each atom plus a space, or \0 on the end
 2394              		.loc 2 166 8 view .LVU606
 166:source/HvMessage.c ****     // length of our string is each atom plus a space, or \0 on the end
 2395              		.loc 2 166 19 view .LVU607
 2396              	.LBB544:
 2397              	.LBI544:
  90:source/HvMessage.h ****   return (int) m->numElements;
 2398              		.loc 1 90 19 view .LVU608
 2399              	.LBB545:
  91:source/HvMessage.h **** }
 2400              		.loc 1 91 3 view .LVU609
  91:source/HvMessage.h **** }
 2401              		.loc 1 91 3 is_stmt 0 view .LVU610
 2402 002a 0DF10808 		add	r8, sp, #8
 2403              	.LVL156:
  91:source/HvMessage.h **** }
 2404              		.loc 1 91 3 view .LVU611
 2405              	.LBE545:
 2406              	.LBE544:
 2407              	.LBE561:
 161:source/HvMessage.c ****   int size = 0; // the total length of our final buffer
 2408              		.loc 2 161 22 view .LVU612
 2409 002e C146     		mov	r9, r8
 2410              	.LVL157:
 2411              	.L160:
 2412              	.LBB562:
 168:source/HvMessage.c ****       case HV_MSG_BANG: len[i] = hv_snprintf(NULL, 0, "%s", "bang") + 1; break;
 2413              		.loc 2 168 5 is_stmt 1 view .LVU613
 2414              	.LBB547:
 2415              	.LBI547:
  99:source/HvMessage.h ****   hv_assert(index < msg_getNumElements(m)); // invalid index
 2416              		.loc 1 99 27 view .LVU614
 2417              	.LBB548:
 100:source/HvMessage.h ****   return (&(m->elem)+index)->type;
 2418              		.loc 1 100 3 view .LVU615
 2419              	.LBE548:
 2420              	.LBE547:
 2421              	.LBE562:
  91:source/HvMessage.h **** }
 2422              		.loc 1 91 3 view .LVU616
 2423              	.LBB563:
 2424              	.LBB550:
 2425              	.LBB549:
 101:source/HvMessage.h **** }
 2426              		.loc 1 101 3 view .LVU617
 101:source/HvMessage.h **** }
 2427              		.loc 1 101 3 is_stmt 0 view .LVU618
 2428              	.LBE549:
 2429              	.LBE550:
 168:source/HvMessage.c ****       case HV_MSG_BANG: len[i] = hv_snprintf(NULL, 0, "%s", "bang") + 1; break;
ARM GAS  /var/folders/fb/yfxt3z4538j6z0vjt03w70vc0000gn/T//ccEfYTmh.s 			page 58


 2430              		.loc 2 168 5 view .LVU619
 2431 0030 227A     		ldrb	r2, [r4, #8]	@ zero_extendqisi2
 2432 0032 032A     		cmp	r2, #3
 2433 0034 00F2A880 		bhi	.L153
 2434 0038 DFE802F0 		tbb	[pc, r2]
 2435              	.L155:
 2436 003c 45       		.byte	(.L158-.L155)/2
 2437 003d 34       		.byte	(.L157-.L155)/2
 2438 003e 30       		.byte	(.L156-.L155)/2
 2439 003f 02       		.byte	(.L154-.L155)/2
 2440              		.p2align 1
 2441              	.L154:
 2442              		.loc 2 172 25 is_stmt 1 view .LVU620
 2443              		.loc 2 172 34 is_stmt 0 view .LVU621
 2444 0040 3146     		mov	r1, r6
 2445 0042 5846     		mov	r0, fp
 2446 0044 FFF7FEFF 		bl	msg_getHash
 2447              	.LVL158:
 2448 0048 5246     		mov	r2, r10
 2449 004a 0346     		mov	r3, r0
 2450 004c 0021     		movs	r1, #0
 2451              	.L177:
 2452              		.loc 2 172 34 view .LVU622
 2453 004e 0846     		mov	r0, r1
 2454 0050 FFF7FEFF 		bl	snprintf
 2455              	.LVL159:
 2456 0054 BBF80430 		ldrh	r3, [fp, #4]
 2457              		.loc 2 172 82 view .LVU623
 2458 0058 0130     		adds	r0, r0, #1
 2459              		.loc 2 172 32 view .LVU624
 2460 005a C9F80000 		str	r0, [r9]
 2461              		.loc 2 172 87 is_stmt 1 view .LVU625
 2462              	.L159:
 173:source/HvMessage.c ****       default: break;
 174:source/HvMessage.c ****     }
 175:source/HvMessage.c ****     size += len[i];
 2463              		.loc 2 175 5 discriminator 2 view .LVU626
 166:source/HvMessage.c ****     // length of our string is each atom plus a space, or \0 on the end
 2464              		.loc 2 166 47 is_stmt 0 discriminator 2 view .LVU627
 2465 005e 0136     		adds	r6, r6, #1
 2466              	.LVL160:
 2467              		.loc 2 175 10 discriminator 2 view .LVU628
 2468 0060 0544     		add	r5, r5, r0
 2469              	.LVL161:
 166:source/HvMessage.c ****     // length of our string is each atom plus a space, or \0 on the end
 2470              		.loc 2 166 46 is_stmt 1 discriminator 2 view .LVU629
 166:source/HvMessage.c ****     // length of our string is each atom plus a space, or \0 on the end
 2471              		.loc 2 166 19 discriminator 2 view .LVU630
 2472              	.LBB551:
  90:source/HvMessage.h ****   return (int) m->numElements;
 2473              		.loc 1 90 19 discriminator 2 view .LVU631
 2474              	.LBB546:
  91:source/HvMessage.h **** }
 2475              		.loc 1 91 3 discriminator 2 view .LVU632
 2476              	.LBE546:
 2477              	.LBE551:
 166:source/HvMessage.c ****     // length of our string is each atom plus a space, or \0 on the end
ARM GAS  /var/folders/fb/yfxt3z4538j6z0vjt03w70vc0000gn/T//ccEfYTmh.s 			page 59


 2478              		.loc 2 166 3 is_stmt 0 discriminator 2 view .LVU633
 2479 0062 0834     		adds	r4, r4, #8
 2480 0064 09F10409 		add	r9, r9, #4
 2481 0068 9E42     		cmp	r6, r3
 2482 006a E1DB     		blt	.L160
 2483              	.LBE563:
 176:source/HvMessage.c ****   }
 177:source/HvMessage.c **** 
 178:source/HvMessage.c ****   hv_assert(size > 0);
 2484              		.loc 2 178 3 view .LVU634
 2485 006c 2A46     		mov	r2, r5
 2486 006e 7D60     		str	r5, [r7, #4]
 2487 0070 3D68     		ldr	r5, [r7]
 2488              	.LVL162:
 2489              		.loc 2 178 3 is_stmt 1 view .LVU635
 2490 0072 002A     		cmp	r2, #0
 2491 0074 7FDD     		ble	.L179
 179:source/HvMessage.c **** 
 180:source/HvMessage.c ****   // now we do the piecewise concatenation into our final string
 181:source/HvMessage.c ****   // the final buffer we will pass back after concatenating all strings - user should free it
 182:source/HvMessage.c ****   char *finalString = (char *) hv_malloc(size*sizeof(char));
 2492              		.loc 2 182 3 view .LVU636
 2493              		.loc 2 182 32 is_stmt 0 view .LVU637
 2494 0076 7868     		ldr	r0, [r7, #4]
 2495 0078 3B60     		str	r3, [r7]
 2496 007a FFF7FEFF 		bl	malloc
 2497              	.LVL163:
 183:source/HvMessage.c ****   hv_assert(finalString != NULL);
 2498              		.loc 2 183 3 is_stmt 1 view .LVU638
 2499 007e 8246     		mov	r10, r0
 2500 0080 0028     		cmp	r0, #0
 2501 0082 72D0     		beq	.L162
 2502              	.LVL164:
 2503              	.LBB564:
 184:source/HvMessage.c ****   int pos = 0;
 185:source/HvMessage.c ****   for (int i = 0; i < msg_getNumElements(m); i++) {
 2504              		.loc 2 185 19 view .LVU639
 2505              	.LBB565:
 2506              	.LBI565:
  90:source/HvMessage.h ****   return (int) m->numElements;
 2507              		.loc 1 90 19 view .LVU640
 2508              	.LBB566:
  91:source/HvMessage.h **** }
 2509              		.loc 1 91 3 view .LVU641
  91:source/HvMessage.h **** }
 2510              		.loc 1 91 3 is_stmt 0 view .LVU642
 2511              	.LBE566:
 2512              	.LBE565:
 2513              		.loc 2 185 3 view .LVU643
 2514 0084 3B68     		ldr	r3, [r7]
 2515 0086 002B     		cmp	r3, #0
 2516 0088 3CD0     		beq	.L171
 2517              		.loc 2 185 12 view .LVU644
 2518 008a 0026     		movs	r6, #0
 2519              	.LVL165:
 2520              		.loc 2 185 12 view .LVU645
 2521              	.LBE564:
ARM GAS  /var/folders/fb/yfxt3z4538j6z0vjt03w70vc0000gn/T//ccEfYTmh.s 			page 60


 184:source/HvMessage.c ****   int pos = 0;
 2522              		.loc 2 184 7 view .LVU646
 2523 008c 3446     		mov	r4, r6
 2524              	.LVL166:
 2525              	.L163:
 2526              	.LBB583:
 186:source/HvMessage.c ****     // put a string representation of each atom into the final string
 187:source/HvMessage.c ****     switch (msg_getType(m, i)) {
 2527              		.loc 2 187 5 is_stmt 1 view .LVU647
 2528              	.LBB569:
 2529              	.LBI569:
  99:source/HvMessage.h ****   hv_assert(index < msg_getNumElements(m)); // invalid index
 2530              		.loc 1 99 27 view .LVU648
 2531              	.LBB570:
 100:source/HvMessage.h ****   return (&(m->elem)+index)->type;
 2532              		.loc 1 100 3 view .LVU649
 2533              	.LBE570:
 2534              	.LBE569:
 2535              	.LBE583:
  91:source/HvMessage.h **** }
 2536              		.loc 1 91 3 view .LVU650
 2537              	.LBB584:
 2538              	.LBB572:
 2539              	.LBB571:
 101:source/HvMessage.h **** }
 2540              		.loc 1 101 3 view .LVU651
 101:source/HvMessage.h **** }
 2541              		.loc 1 101 3 is_stmt 0 view .LVU652
 2542              	.LBE571:
 2543              	.LBE572:
 2544              		.loc 2 187 5 view .LVU653
 2545 008e 2B7A     		ldrb	r3, [r5, #8]	@ zero_extendqisi2
 2546 0090 032B     		cmp	r3, #3
 2547 0092 76D8     		bhi	.L164
 2548 0094 DFE803F0 		tbb	[pc, r3]
 2549              	.L166:
 2550 0098 59       		.byte	(.L169-.L166)/2
 2551 0099 4A       		.byte	(.L168-.L166)/2
 2552 009a 40       		.byte	(.L167-.L166)/2
 2553 009b 1B       		.byte	(.L165-.L166)/2
 2554              	.LVL167:
 2555              		.p2align 1
 2556              	.L156:
 2557              		.loc 2 187 5 view .LVU654
 2558              	.LBE584:
 2559              	.LBB585:
 171:source/HvMessage.c ****       case HV_MSG_HASH: len[i] = hv_snprintf(NULL, 0, "0x%X", msg_getHash(m, i)) + 1; break;
 2560              		.loc 2 171 27 is_stmt 1 view .LVU655
 2561              	.LBB552:
 2562              	.LBI552:
 157:source/HvMessage.h ****   hv_assert(index < msg_getNumElements(m)); // invalid index
 2563              		.loc 1 157 27 view .LVU656
 2564              	.LBB553:
 158:source/HvMessage.h ****   return (&(m->elem)+index)->data.s;
 2565              		.loc 1 158 3 view .LVU657
 158:source/HvMessage.h ****   return (&(m->elem)+index)->data.s;
 2566              		.loc 1 158 3 is_stmt 0 view .LVU658
ARM GAS  /var/folders/fb/yfxt3z4538j6z0vjt03w70vc0000gn/T//ccEfYTmh.s 			page 61


 2567              	.LBE553:
 2568              	.LBE552:
 2569              	.LBE585:
  91:source/HvMessage.h **** }
 2570              		.loc 1 91 3 is_stmt 1 view .LVU659
 2571              	.LBB586:
 2572              	.LBB555:
 2573              	.LBB554:
 159:source/HvMessage.h **** }
 2574              		.loc 1 159 3 view .LVU660
 159:source/HvMessage.h **** }
 2575              		.loc 1 159 3 is_stmt 0 view .LVU661
 2576              	.LBE554:
 2577              	.LBE555:
 171:source/HvMessage.c ****       case HV_MSG_HASH: len[i] = hv_snprintf(NULL, 0, "0x%X", msg_getHash(m, i)) + 1; break;
 2578              		.loc 2 171 36 view .LVU662
 2579 009c 0021     		movs	r1, #0
 2580 009e E368     		ldr	r3, [r4, #12]
 2581 00a0 3B4A     		ldr	r2, .L180
 2582 00a2 D4E7     		b	.L177
 2583              	.L157:
 170:source/HvMessage.c ****       case HV_MSG_SYMBOL: len[i] = hv_snprintf(NULL, 0, "%s", msg_getSymbol(m, i)) + 1; break;
 2584              		.loc 2 170 26 is_stmt 1 view .LVU663
 2585              	.LVL168:
 2586              	.LBB556:
 2587              	.LBI556:
 120:source/HvMessage.h ****   hv_assert(index < msg_getNumElements(m)); // invalid index
 2588              		.loc 1 120 21 view .LVU664
 2589              	.LBB557:
 121:source/HvMessage.h ****   return (&(m->elem)+index)->data.f;
 2590              		.loc 1 121 3 view .LVU665
 121:source/HvMessage.h ****   return (&(m->elem)+index)->data.f;
 2591              		.loc 1 121 3 is_stmt 0 view .LVU666
 2592              	.LBE557:
 2593              	.LBE556:
 2594              	.LBE586:
  91:source/HvMessage.h **** }
 2595              		.loc 1 91 3 is_stmt 1 view .LVU667
 2596              	.LBB587:
 2597              	.LBB559:
 2598              	.LBB558:
 122:source/HvMessage.h **** }
 2599              		.loc 1 122 3 view .LVU668
 122:source/HvMessage.h **** }
 2600              		.loc 1 122 3 is_stmt 0 view .LVU669
 2601              	.LBE558:
 2602              	.LBE559:
 170:source/HvMessage.c ****       case HV_MSG_SYMBOL: len[i] = hv_snprintf(NULL, 0, "%s", msg_getSymbol(m, i)) + 1; break;
 2603              		.loc 2 170 35 view .LVU670
 2604 00a4 94ED037A 		vldr.32	s14, [r4, #12]
 2605 00a8 0021     		movs	r1, #0
 2606 00aa 3A4A     		ldr	r2, .L180+4
 2607 00ac B7EEC77A 		vcvt.f64.f32	d7, s14
 2608 00b0 0846     		mov	r0, r1
 2609 00b2 8DED007B 		vstr.64	d7, [sp]
 2610 00b6 FFF7FEFF 		bl	snprintf
 2611              	.LVL169:
ARM GAS  /var/folders/fb/yfxt3z4538j6z0vjt03w70vc0000gn/T//ccEfYTmh.s 			page 62


 170:source/HvMessage.c ****       case HV_MSG_SYMBOL: len[i] = hv_snprintf(NULL, 0, "%s", msg_getSymbol(m, i)) + 1; break;
 2612              		.loc 2 170 82 view .LVU671
 2613 00ba 0130     		adds	r0, r0, #1
 2614 00bc BBF80430 		ldrh	r3, [fp, #4]
 170:source/HvMessage.c ****       case HV_MSG_SYMBOL: len[i] = hv_snprintf(NULL, 0, "%s", msg_getSymbol(m, i)) + 1; break;
 2615              		.loc 2 170 33 view .LVU672
 2616 00c0 C9F80000 		str	r0, [r9]
 170:source/HvMessage.c ****       case HV_MSG_SYMBOL: len[i] = hv_snprintf(NULL, 0, "%s", msg_getSymbol(m, i)) + 1; break;
 2617              		.loc 2 170 87 is_stmt 1 view .LVU673
 170:source/HvMessage.c ****       case HV_MSG_SYMBOL: len[i] = hv_snprintf(NULL, 0, "%s", msg_getSymbol(m, i)) + 1; break;
 2618              		.loc 2 170 7 is_stmt 0 view .LVU674
 2619 00c4 CBE7     		b	.L159
 2620              	.L158:
 169:source/HvMessage.c ****       case HV_MSG_FLOAT: len[i] = hv_snprintf(NULL, 0, "%g", msg_getFloat(m, i)) + 1; break;
 2621              		.loc 2 169 25 is_stmt 1 view .LVU675
 169:source/HvMessage.c ****       case HV_MSG_FLOAT: len[i] = hv_snprintf(NULL, 0, "%g", msg_getFloat(m, i)) + 1; break;
 2622              		.loc 2 169 32 is_stmt 0 view .LVU676
 2623 00c6 0520     		movs	r0, #5
 2624 00c8 C9F80000 		str	r0, [r9]
 169:source/HvMessage.c ****       case HV_MSG_FLOAT: len[i] = hv_snprintf(NULL, 0, "%g", msg_getFloat(m, i)) + 1; break;
 2625              		.loc 2 169 74 is_stmt 1 view .LVU677
 169:source/HvMessage.c ****       case HV_MSG_FLOAT: len[i] = hv_snprintf(NULL, 0, "%g", msg_getFloat(m, i)) + 1; break;
 2626              		.loc 2 169 7 is_stmt 0 view .LVU678
 2627 00cc C7E7     		b	.L159
 2628              	.LVL170:
 2629              	.L165:
 169:source/HvMessage.c ****       case HV_MSG_FLOAT: len[i] = hv_snprintf(NULL, 0, "%g", msg_getFloat(m, i)) + 1; break;
 2630              		.loc 2 169 7 view .LVU679
 2631              	.LBE587:
 2632              	.LBB588:
 188:source/HvMessage.c ****       case HV_MSG_BANG: hv_snprintf(finalString+pos, len[i], "%s", "bang"); break;
 189:source/HvMessage.c ****       case HV_MSG_FLOAT: hv_snprintf(finalString+pos, len[i], "%g", msg_getFloat(m, i)); break;
 190:source/HvMessage.c ****       case HV_MSG_SYMBOL: hv_snprintf(finalString+pos, len[i], "%s", msg_getSymbol(m, i)); break;
 191:source/HvMessage.c ****       case HV_MSG_HASH: hv_snprintf(finalString+pos, len[i], "0x%X", msg_getHash(m, i)); break;
 2633              		.loc 2 191 25 is_stmt 1 view .LVU680
 2634 00ce D8F80090 		ldr	r9, [r8]
 2635 00d2 3146     		mov	r1, r6
 2636 00d4 5846     		mov	r0, fp
 2637 00d6 FFF7FEFF 		bl	msg_getHash
 2638              	.LVL171:
 2639 00da 2F4A     		ldr	r2, .L180+8
 2640 00dc 0346     		mov	r3, r0
 2641 00de 4946     		mov	r1, r9
 2642 00e0 0AEB0400 		add	r0, r10, r4
 2643 00e4 FFF7FEFF 		bl	snprintf
 2644              	.LVL172:
 2645              		.loc 2 191 90 view .LVU681
 2646              	.L170:
 192:source/HvMessage.c ****       default: break;
 193:source/HvMessage.c ****     }
 194:source/HvMessage.c ****     pos += len[i];
 2647              		.loc 2 194 5 discriminator 2 view .LVU682
 2648              		.loc 2 194 9 is_stmt 0 discriminator 2 view .LVU683
 2649 00e8 4C44     		add	r4, r4, r9
 2650              	.LVL173:
 195:source/HvMessage.c ****     finalString[pos-1] = 32; // ASCII space
 2651              		.loc 2 195 5 is_stmt 1 discriminator 2 view .LVU684
ARM GAS  /var/folders/fb/yfxt3z4538j6z0vjt03w70vc0000gn/T//ccEfYTmh.s 			page 63


 185:source/HvMessage.c ****     // put a string representation of each atom into the final string
 2652              		.loc 2 185 47 is_stmt 0 discriminator 2 view .LVU685
 2653 00ea 0136     		adds	r6, r6, #1
 2654              	.LVL174:
 2655              	.LBB573:
 2656              	.LBB567:
  91:source/HvMessage.h **** }
 2657              		.loc 1 91 10 discriminator 2 view .LVU686
 2658 00ec BBF80430 		ldrh	r3, [fp, #4]
 2659              	.LBE567:
 2660              	.LBE573:
 2661              		.loc 2 195 24 discriminator 2 view .LVU687
 2662 00f0 2021     		movs	r1, #32
 2663 00f2 0AEB0402 		add	r2, r10, r4
 185:source/HvMessage.c ****     // put a string representation of each atom into the final string
 2664              		.loc 2 185 3 discriminator 2 view .LVU688
 2665 00f6 0835     		adds	r5, r5, #8
 2666 00f8 9E42     		cmp	r6, r3
 2667 00fa 08F10408 		add	r8, r8, #4
 2668              		.loc 2 195 24 discriminator 2 view .LVU689
 2669 00fe 02F8011C 		strb	r1, [r2, #-1]
 185:source/HvMessage.c ****     // put a string representation of each atom into the final string
 2670              		.loc 2 185 46 is_stmt 1 discriminator 2 view .LVU690
 2671              	.LVL175:
 185:source/HvMessage.c ****     // put a string representation of each atom into the final string
 2672              		.loc 2 185 19 discriminator 2 view .LVU691
 2673              	.LBB574:
  90:source/HvMessage.h ****   return (int) m->numElements;
 2674              		.loc 1 90 19 discriminator 2 view .LVU692
 2675              	.LBB568:
  91:source/HvMessage.h **** }
 2676              		.loc 1 91 3 discriminator 2 view .LVU693
  91:source/HvMessage.h **** }
 2677              		.loc 1 91 3 is_stmt 0 discriminator 2 view .LVU694
 2678              	.LBE568:
 2679              	.LBE574:
 185:source/HvMessage.c ****     // put a string representation of each atom into the final string
 2680              		.loc 2 185 3 discriminator 2 view .LVU695
 2681 0102 C4DB     		blt	.L163
 2682              	.LVL176:
 2683              	.L171:
 185:source/HvMessage.c ****     // put a string representation of each atom into the final string
 2684              		.loc 2 185 3 discriminator 2 view .LVU696
 2685              	.LBE588:
 196:source/HvMessage.c ****   }
 197:source/HvMessage.c ****   finalString[size-1] = '\0'; // ensure that the string is null terminated
 2686              		.loc 2 197 3 is_stmt 1 view .LVU697
 2687              		.loc 2 197 23 is_stmt 0 view .LVU698
 2688 0104 7B68     		ldr	r3, [r7, #4]
 2689 0106 0022     		movs	r2, #0
 198:source/HvMessage.c ****   return finalString;
 199:source/HvMessage.c **** }
 2690              		.loc 2 199 1 view .LVU699
 2691 0108 5046     		mov	r0, r10
 2692 010a 0C37     		adds	r7, r7, #12
 2693              		.cfi_remember_state
 2694              		.cfi_def_cfa_offset 36
ARM GAS  /var/folders/fb/yfxt3z4538j6z0vjt03w70vc0000gn/T//ccEfYTmh.s 			page 64


 197:source/HvMessage.c ****   return finalString;
 2695              		.loc 2 197 23 view .LVU700
 2696 010c 5344     		add	r3, r3, r10
 2697 010e 03F8012C 		strb	r2, [r3, #-1]
 198:source/HvMessage.c ****   return finalString;
 2698              		.loc 2 198 3 is_stmt 1 view .LVU701
 2699              		.loc 2 199 1 is_stmt 0 view .LVU702
 2700 0112 BD46     		mov	sp, r7
 2701              		.cfi_def_cfa_register 13
 2702              	.LVL177:
 2703              		.loc 2 199 1 view .LVU703
 2704              		@ sp needed
 2705 0114 BDE8F08F 		pop	{r4, r5, r6, r7, r8, r9, r10, fp, pc}
 2706              	.LVL178:
 2707              	.L167:
 2708              		.cfi_restore_state
 2709              	.LBB589:
 190:source/HvMessage.c ****       case HV_MSG_HASH: hv_snprintf(finalString+pos, len[i], "0x%X", msg_getHash(m, i)); break;
 2710              		.loc 2 190 27 is_stmt 1 view .LVU704
 2711 0118 D8F80090 		ldr	r9, [r8]
 2712              	.LVL179:
 2713              	.LBB575:
 2714              	.LBI575:
 157:source/HvMessage.h ****   hv_assert(index < msg_getNumElements(m)); // invalid index
 2715              		.loc 1 157 27 view .LVU705
 2716              	.LBB576:
 158:source/HvMessage.h ****   return (&(m->elem)+index)->data.s;
 2717              		.loc 1 158 3 view .LVU706
 2718              	.LBE576:
 2719              	.LBE575:
 2720              	.LBE589:
  91:source/HvMessage.h **** }
 2721              		.loc 1 91 3 view .LVU707
 2722              	.LBB590:
 2723              	.LBB578:
 2724              	.LBB577:
 159:source/HvMessage.h **** }
 2725              		.loc 1 159 3 view .LVU708
 159:source/HvMessage.h **** }
 2726              		.loc 1 159 3 is_stmt 0 view .LVU709
 2727              	.LBE577:
 2728              	.LBE578:
 190:source/HvMessage.c ****       case HV_MSG_HASH: hv_snprintf(finalString+pos, len[i], "0x%X", msg_getHash(m, i)); break;
 2729              		.loc 2 190 27 view .LVU710
 2730 011c 0AEB0400 		add	r0, r10, r4
 2731 0120 EB68     		ldr	r3, [r5, #12]
 2732 0122 1B4A     		ldr	r2, .L180
 2733 0124 4946     		mov	r1, r9
 2734 0126 FFF7FEFF 		bl	snprintf
 2735              	.LVL180:
 190:source/HvMessage.c ****       case HV_MSG_HASH: hv_snprintf(finalString+pos, len[i], "0x%X", msg_getHash(m, i)); break;
 2736              		.loc 2 190 92 is_stmt 1 view .LVU711
 190:source/HvMessage.c ****       case HV_MSG_HASH: hv_snprintf(finalString+pos, len[i], "0x%X", msg_getHash(m, i)); break;
 2737              		.loc 2 190 7 is_stmt 0 view .LVU712
 2738 012a DDE7     		b	.L170
 2739              	.L168:
 189:source/HvMessage.c ****       case HV_MSG_SYMBOL: hv_snprintf(finalString+pos, len[i], "%s", msg_getSymbol(m, i)); break;
ARM GAS  /var/folders/fb/yfxt3z4538j6z0vjt03w70vc0000gn/T//ccEfYTmh.s 			page 65


 2740              		.loc 2 189 26 is_stmt 1 view .LVU713
 2741 012c 95ED037A 		vldr.32	s14, [r5, #12]
 2742 0130 0AEB0400 		add	r0, r10, r4
 2743 0134 D8F80090 		ldr	r9, [r8]
 2744              	.LVL181:
 2745              	.LBB579:
 2746              	.LBI579:
 120:source/HvMessage.h ****   hv_assert(index < msg_getNumElements(m)); // invalid index
 2747              		.loc 1 120 21 view .LVU714
 2748              	.LBB580:
 121:source/HvMessage.h ****   return (&(m->elem)+index)->data.f;
 2749              		.loc 1 121 3 view .LVU715
 2750              	.LBE580:
 2751              	.LBE579:
 2752              	.LBE590:
  91:source/HvMessage.h **** }
 2753              		.loc 1 91 3 view .LVU716
 2754              	.LBB591:
 2755              	.LBB582:
 2756              	.LBB581:
 122:source/HvMessage.h **** }
 2757              		.loc 1 122 3 view .LVU717
 122:source/HvMessage.h **** }
 2758              		.loc 1 122 3 is_stmt 0 view .LVU718
 2759              	.LBE581:
 2760              	.LBE582:
 189:source/HvMessage.c ****       case HV_MSG_SYMBOL: hv_snprintf(finalString+pos, len[i], "%s", msg_getSymbol(m, i)); break;
 2761              		.loc 2 189 26 view .LVU719
 2762 0138 B7EEC77A 		vcvt.f64.f32	d7, s14
 2763 013c 154A     		ldr	r2, .L180+4
 2764 013e 4946     		mov	r1, r9
 2765 0140 8DED007B 		vstr.64	d7, [sp]
 2766 0144 FFF7FEFF 		bl	snprintf
 2767              	.LVL182:
 189:source/HvMessage.c ****       case HV_MSG_SYMBOL: hv_snprintf(finalString+pos, len[i], "%s", msg_getSymbol(m, i)); break;
 2768              		.loc 2 189 90 is_stmt 1 view .LVU720
 189:source/HvMessage.c ****       case HV_MSG_SYMBOL: hv_snprintf(finalString+pos, len[i], "%s", msg_getSymbol(m, i)); break;
 2769              		.loc 2 189 7 is_stmt 0 view .LVU721
 2770 0148 CEE7     		b	.L170
 2771              	.L169:
 188:source/HvMessage.c ****       case HV_MSG_FLOAT: hv_snprintf(finalString+pos, len[i], "%g", msg_getFloat(m, i)); break;
 2772              		.loc 2 188 25 is_stmt 1 view .LVU722
 2773 014a D8F80090 		ldr	r9, [r8]
 2774 014e 0AEB0400 		add	r0, r10, r4
 2775 0152 124B     		ldr	r3, .L180+12
 2776 0154 0E4A     		ldr	r2, .L180
 2777 0156 4946     		mov	r1, r9
 2778 0158 FFF7FEFF 		bl	snprintf
 2779              	.LVL183:
 188:source/HvMessage.c ****       case HV_MSG_FLOAT: hv_snprintf(finalString+pos, len[i], "%g", msg_getFloat(m, i)); break;
 2780              		.loc 2 188 77 view .LVU723
 188:source/HvMessage.c ****       case HV_MSG_FLOAT: hv_snprintf(finalString+pos, len[i], "%g", msg_getFloat(m, i)); break;
 2781              		.loc 2 188 7 is_stmt 0 view .LVU724
 2782 015c C4E7     		b	.L170
 2783              	.LVL184:
 2784              	.L178:
 188:source/HvMessage.c ****       case HV_MSG_FLOAT: hv_snprintf(finalString+pos, len[i], "%g", msg_getFloat(m, i)); break;
ARM GAS  /var/folders/fb/yfxt3z4538j6z0vjt03w70vc0000gn/T//ccEfYTmh.s 			page 66


 2785              		.loc 2 188 7 view .LVU725
 2786              	.LBE591:
 160:source/HvMessage.c ****   int *len = (int *) hv_alloca(msg_getNumElements(m)*sizeof(int));
 2787              		.loc 2 160 3 discriminator 1 view .LVU726
 2788 015e 104B     		ldr	r3, .L180+16
 2789 0160 A021     		movs	r1, #160
 2790 0162 104A     		ldr	r2, .L180+20
 2791 0164 1048     		ldr	r0, .L180+24
 2792              	.LVL185:
 160:source/HvMessage.c ****   int *len = (int *) hv_alloca(msg_getNumElements(m)*sizeof(int));
 2793              		.loc 2 160 3 discriminator 1 view .LVU727
 2794 0166 FFF7FEFF 		bl	__assert_func
 2795              	.LVL186:
 2796              	.L162:
 183:source/HvMessage.c ****   int pos = 0;
 2797              		.loc 2 183 3 discriminator 1 view .LVU728
 2798 016a 104B     		ldr	r3, .L180+28
 2799 016c B721     		movs	r1, #183
 2800 016e 0D4A     		ldr	r2, .L180+20
 2801 0170 0D48     		ldr	r0, .L180+24
 2802              	.LVL187:
 183:source/HvMessage.c ****   int pos = 0;
 2803              		.loc 2 183 3 discriminator 1 view .LVU729
 2804 0172 FFF7FEFF 		bl	__assert_func
 2805              	.LVL188:
 2806              	.L179:
 178:source/HvMessage.c **** 
 2807              		.loc 2 178 3 discriminator 1 view .LVU730
 2808 0176 0E4B     		ldr	r3, .L180+32
 2809 0178 B221     		movs	r1, #178
 2810 017a 0A4A     		ldr	r2, .L180+20
 2811              	.LVL189:
 178:source/HvMessage.c **** 
 2812              		.loc 2 178 3 discriminator 1 view .LVU731
 2813 017c 0A48     		ldr	r0, .L180+24
 2814 017e FFF7FEFF 		bl	__assert_func
 2815              	.LVL190:
 2816              	.L164:
 2817              	.LBB592:
 188:source/HvMessage.c ****       case HV_MSG_FLOAT: hv_snprintf(finalString+pos, len[i], "%g", msg_getFloat(m, i)); break;
 2818              		.loc 2 188 25 view .LVU732
 2819 0182 D8F80090 		ldr	r9, [r8]
 2820 0186 AFE7     		b	.L170
 2821              	.LVL191:
 2822              	.L153:
 188:source/HvMessage.c ****       case HV_MSG_FLOAT: hv_snprintf(finalString+pos, len[i], "%g", msg_getFloat(m, i)); break;
 2823              		.loc 2 188 25 view .LVU733
 2824              	.LBE592:
 2825              	.LBB593:
 175:source/HvMessage.c ****   }
 2826              		.loc 2 175 16 view .LVU734
 2827 0188 D9F80000 		ldr	r0, [r9]
 2828 018c 67E7     		b	.L159
 2829              	.L181:
 2830 018e 00BF     		.align	2
 2831              	.L180:
 2832 0190 20000000 		.word	.LC12
ARM GAS  /var/folders/fb/yfxt3z4538j6z0vjt03w70vc0000gn/T//ccEfYTmh.s 			page 67


 2833 0194 1C000000 		.word	.LC11
 2834 0198 24000000 		.word	.LC13
 2835 019c 54000000 		.word	.LC16
 2836 01a0 00000000 		.word	.LC10
 2837 01a4 00000000 		.word	.LANCHOR10
 2838 01a8 10000000 		.word	.LC5
 2839 01ac 38000000 		.word	.LC15
 2840 01b0 2C000000 		.word	.LC14
 2841              	.LBE593:
 2842              		.cfi_endproc
 2843              	.LFE358:
 2845              		.section	.rodata.__func__.0,"a"
 2846              		.align	2
 2847              		.set	.LANCHOR10,. + 0
 2850              	__func__.0:
 2851 0000 6D73675F 		.ascii	"msg_toString\000"
 2851      746F5374 
 2851      72696E67 
 2851      00
 2852              		.section	.rodata.__func__.1,"a"
 2853              		.align	2
 2854              		.set	.LANCHOR7,. + 0
 2857              	__func__.1:
 2858 0000 6D73675F 		.ascii	"msg_getHash\000"
 2858      67657448 
 2858      61736800 
 2859              		.section	.rodata.__func__.10,"a"
 2860              		.align	2
 2861              		.set	.LANCHOR1,. + 0
 2864              	__func__.10:
 2865 0000 6D73675F 		.ascii	"msg_setBang\000"
 2865      73657442 
 2865      616E6700 
 2866              		.section	.rodata.__func__.11,"a"
 2867              		.align	2
 2868              		.set	.LANCHOR8,. + 0
 2871              	__func__.11:
 2872 0000 6D73675F 		.ascii	"msg_setFloat\000"
 2872      73657446 
 2872      6C6F6174 
 2872      00
 2873              		.section	.rodata.__func__.12,"a"
 2874              		.align	2
 2875              		.set	.LANCHOR0,. + 0
 2878              	__func__.12:
 2879 0000 6D73675F 		.ascii	"msg_getCoreSize\000"
 2879      67657443 
 2879      6F726553 
 2879      697A6500 
 2880              		.section	.rodata.__func__.3,"a"
 2881              		.align	2
 2882              		.set	.LANCHOR6,. + 0
 2885              	__func__.3:
 2886 0000 6D73675F 		.ascii	"msg_hasFormat\000"
 2886      68617346 
 2886      6F726D61 
 2886      7400
ARM GAS  /var/folders/fb/yfxt3z4538j6z0vjt03w70vc0000gn/T//ccEfYTmh.s 			page 68


 2887              		.section	.rodata.__func__.4,"a"
 2888              		.align	2
 2889              		.set	.LANCHOR5,. + 0
 2892              	__func__.4:
 2893 0000 6D73675F 		.ascii	"msg_copy\000"
 2893      636F7079 
 2893      00
 2894              		.section	.rodata.__func__.6,"a"
 2895              		.align	2
 2896              		.set	.LANCHOR2,. + 0
 2899              	__func__.6:
 2900 0000 6D73675F 		.ascii	"msg_getType\000"
 2900      67657454 
 2900      79706500 
 2901              		.section	.rodata.__func__.7,"a"
 2902              		.align	2
 2903              		.set	.LANCHOR4,. + 0
 2906              	__func__.7:
 2907 0000 6D73675F 		.ascii	"msg_copyToBuffer\000"
 2907      636F7079 
 2907      546F4275 
 2907      66666572 
 2907      00
 2908              		.section	.rodata.__func__.8,"a"
 2909              		.align	2
 2910              		.set	.LANCHOR9,. + 0
 2913              	__func__.8:
 2914 0000 6D73675F 		.ascii	"msg_setHash\000"
 2914      73657448 
 2914      61736800 
 2915              		.section	.rodata.__func__.9,"a"
 2916              		.align	2
 2917              		.set	.LANCHOR3,. + 0
 2920              	__func__.9:
 2921 0000 6D73675F 		.ascii	"msg_setSymbol\000"
 2921      73657453 
 2921      796D626F 
 2921      6C00
 2922              		.text
 2923              	.Letext0:
 2924              		.file 3 "/Library/DaisyToolchain/0.2.0/arm/arm-none-eabi/include/machine/_default_types.h"
 2925              		.file 4 "/Library/DaisyToolchain/0.2.0/arm/arm-none-eabi/include/sys/_stdint.h"
 2926              		.file 5 "/Library/DaisyToolchain/0.2.0/arm/lib/gcc/arm-none-eabi/10.3.1/include/stddef.h"
 2927              		.file 6 "/Library/DaisyToolchain/0.2.0/arm/arm-none-eabi/include/stdio.h"
 2928              		.file 7 "/Library/DaisyToolchain/0.2.0/arm/arm-none-eabi/include/stdlib.h"
 2929              		.file 8 "/Library/DaisyToolchain/0.2.0/arm/arm-none-eabi/include/assert.h"
 2930              		.file 9 "source/HvUtils.h"
 2931              		.file 10 "/Library/DaisyToolchain/0.2.0/arm/arm-none-eabi/include/string.h"
 2932              		.file 11 "<built-in>"
ARM GAS  /var/folders/fb/yfxt3z4538j6z0vjt03w70vc0000gn/T//ccEfYTmh.s 			page 69

