ARM GAS  /var/folders/fb/yfxt3z4538j6z0vjt03w70vc0000gn/T//cc7XoObz.s 			page 1


   1              		.cpu cortex-m7
   2              		.arch armv7e-m
   3              		.fpu fpv5-d16
   4              		.eabi_attribute 28, 1
   5              		.eabi_attribute 20, 1
   6              		.eabi_attribute 21, 1
   7              		.eabi_attribute 23, 3
   8              		.eabi_attribute 24, 1
   9              		.eabi_attribute 25, 1
  10              		.eabi_attribute 26, 1
  11              		.eabi_attribute 30, 2
  12              		.eabi_attribute 34, 1
  13              		.eabi_attribute 18, 4
  14              		.file	"Heavy_grillosychicharrasosc.cpp"
  15              		.text
  16              	.Ltext0:
  17              		.cfi_sections	.debug_frame
  18              		.section	.text._ZN12HeavyContext7getSizeEv,"axG",%progbits,_ZN12HeavyContext7getSizeEv,comdat
  19              		.align	1
  20              		.p2align 2,,3
  21              		.weak	_ZN12HeavyContext7getSizeEv
  22              		.syntax unified
  23              		.thumb
  24              		.thumb_func
  26              	_ZN12HeavyContext7getSizeEv:
  27              	.LVL0:
  28              	.LFB965:
  29              		.file 1 "source/HeavyContext.hpp"
   1:source/HeavyContext.hpp **** /**
   2:source/HeavyContext.hpp ****  * Copyright (c) 2014-2018 Enzien Audio Ltd.
   3:source/HeavyContext.hpp ****  *
   4:source/HeavyContext.hpp ****  * Permission to use, copy, modify, and/or distribute this software for any
   5:source/HeavyContext.hpp ****  * purpose with or without fee is hereby granted, provided that the above
   6:source/HeavyContext.hpp ****  * copyright notice and this permission notice appear in all copies.
   7:source/HeavyContext.hpp ****  *
   8:source/HeavyContext.hpp ****  * THE SOFTWARE IS PROVIDED "AS IS" AND THE AUTHOR DISCLAIMS ALL WARRANTIES WITH
   9:source/HeavyContext.hpp ****  * REGARD TO THIS SOFTWARE INCLUDING ALL IMPLIED WARRANTIES OF MERCHANTABILITY
  10:source/HeavyContext.hpp ****  * AND FITNESS. IN NO EVENT SHALL THE AUTHOR BE LIABLE FOR ANY SPECIAL, DIRECT,
  11:source/HeavyContext.hpp ****  * INDIRECT, OR CONSEQUENTIAL DAMAGES OR ANY DAMAGES WHATSOEVER RESULTING FROM
  12:source/HeavyContext.hpp ****  * LOSS OF USE, DATA OR PROFITS, WHETHER IN AN ACTION OF CONTRACT, NEGLIGENCE OR
  13:source/HeavyContext.hpp ****  * OTHER TORTIOUS ACTION, ARISING OUT OF OR IN CONNECTION WITH THE USE OR
  14:source/HeavyContext.hpp ****  * PERFORMANCE OF THIS SOFTWARE.
  15:source/HeavyContext.hpp ****  */
  16:source/HeavyContext.hpp **** 
  17:source/HeavyContext.hpp **** #ifndef _HEAVY_CONTEXT_H_
  18:source/HeavyContext.hpp **** #define _HEAVY_CONTEXT_H_
  19:source/HeavyContext.hpp **** 
  20:source/HeavyContext.hpp **** #include "HeavyContextInterface.hpp"
  21:source/HeavyContext.hpp **** #include "HvLightPipe.h"
  22:source/HeavyContext.hpp **** #include "HvMessageQueue.h"
  23:source/HeavyContext.hpp **** #include "HvMath.h"
  24:source/HeavyContext.hpp **** 
  25:source/HeavyContext.hpp **** struct HvTable;
  26:source/HeavyContext.hpp **** 
  27:source/HeavyContext.hpp **** class HeavyContext : public HeavyContextInterface {
  28:source/HeavyContext.hpp **** 
  29:source/HeavyContext.hpp ****  public:
ARM GAS  /var/folders/fb/yfxt3z4538j6z0vjt03w70vc0000gn/T//cc7XoObz.s 			page 2


  30:source/HeavyContext.hpp ****   HeavyContext(double sampleRate, int poolKb=10, int inQueueKb=2, int outQueueKb=0);
  31:source/HeavyContext.hpp ****   virtual ~HeavyContext();
  32:source/HeavyContext.hpp **** 
  33:source/HeavyContext.hpp ****   int getSize() override { return (int) numBytes; }
  30              		.loc 1 33 7 view -0
  31              		.cfi_startproc
  32              		@ args = 0, pretend = 0, frame = 0
  33              		@ frame_needed = 0, uses_anonymous_args = 0
  34              		@ link register save eliminated.
  35              		.loc 1 33 28 view .LVU1
  36              		.loc 1 33 51 is_stmt 0 view .LVU2
  37 0000 4069     		ldr	r0, [r0, #20]
  38              	.LVL1:
  39              		.loc 1 33 51 view .LVU3
  40 0002 7047     		bx	lr
  41              		.cfi_endproc
  42              	.LFE965:
  44              		.section	.text._ZN12HeavyContext13getSampleRateEv,"axG",%progbits,_ZN12HeavyContext13getSampleRate
  45              		.align	1
  46              		.p2align 2,,3
  47              		.weak	_ZN12HeavyContext13getSampleRateEv
  48              		.syntax unified
  49              		.thumb
  50              		.thumb_func
  52              	_ZN12HeavyContext13getSampleRateEv:
  53              	.LVL2:
  54              	.LFB966:
  34:source/HeavyContext.hpp **** 
  35:source/HeavyContext.hpp ****   double getSampleRate() override { return sampleRate; }
  55              		.loc 1 35 10 is_stmt 1 view -0
  56              		.cfi_startproc
  57              		@ args = 0, pretend = 0, frame = 0
  58              		@ frame_needed = 0, uses_anonymous_args = 0
  59              		@ link register save eliminated.
  60              		.loc 1 35 37 view .LVU5
  61              		.loc 1 35 56 is_stmt 0 view .LVU6
  62 0000 90ED020B 		vldr.64	d0, [r0, #8]
  63 0004 7047     		bx	lr
  64              		.cfi_endproc
  65              	.LFE966:
  67 0006 00BF     		.section	.text._ZN12HeavyContext16getCurrentSampleEv,"axG",%progbits,_ZN12HeavyContext16getCurrent
  68              		.align	1
  69              		.p2align 2,,3
  70              		.weak	_ZN12HeavyContext16getCurrentSampleEv
  71              		.syntax unified
  72              		.thumb
  73              		.thumb_func
  75              	_ZN12HeavyContext16getCurrentSampleEv:
  76              	.LVL3:
  77              	.LFB967:
  36:source/HeavyContext.hpp **** 
  37:source/HeavyContext.hpp ****   hv_uint32_t getCurrentSample() override { return blockStartTimestamp; }
  78              		.loc 1 37 15 is_stmt 1 view -0
  79              		.cfi_startproc
  80              		@ args = 0, pretend = 0, frame = 0
  81              		@ frame_needed = 0, uses_anonymous_args = 0
  82              		@ link register save eliminated.
ARM GAS  /var/folders/fb/yfxt3z4538j6z0vjt03w70vc0000gn/T//cc7XoObz.s 			page 3


  83              		.loc 1 37 45 view .LVU8
  84              		.loc 1 37 73 is_stmt 0 view .LVU9
  85 0000 0069     		ldr	r0, [r0, #16]
  86              	.LVL4:
  87              		.loc 1 37 73 view .LVU10
  88 0002 7047     		bx	lr
  89              		.cfi_endproc
  90              	.LFE967:
  92              		.section	.text._ZN12HeavyContext21samplesToMillisecondsEm,"axG",%progbits,_ZN12HeavyContext21sampl
  93              		.align	1
  94              		.p2align 2,,3
  95              		.weak	_ZN12HeavyContext21samplesToMillisecondsEm
  96              		.syntax unified
  97              		.thumb
  98              		.thumb_func
 100              	_ZN12HeavyContext21samplesToMillisecondsEm:
 101              	.LVL5:
 102              	.LFB968:
  38:source/HeavyContext.hpp ****   float samplesToMilliseconds(hv_uint32_t numSamples) override { return (float) (1000.0*numSamples/
 103              		.loc 1 38 9 is_stmt 1 view -0
 104              		.cfi_startproc
 105              		@ args = 0, pretend = 0, frame = 0
 106              		@ frame_needed = 0, uses_anonymous_args = 0
 107              		@ link register save eliminated.
 108              		.loc 1 38 66 view .LVU12
 109              		.loc 1 38 88 is_stmt 0 view .LVU13
 110 0000 07EE901A 		vmov	s15, r1	@ int
 111 0004 9FED065B 		vldr.64	d5, .L6
 112 0008 B8EE677B 		vcvt.f64.u32	d7, s15
 113              		.loc 1 38 99 view .LVU14
 114 000c 90ED026B 		vldr.64	d6, [r0, #8]
 115              		.loc 1 38 88 view .LVU15
 116 0010 27EE057B 		vmul.f64	d7, d7, d5
 117              		.loc 1 38 99 view .LVU16
 118 0014 87EE060B 		vdiv.f64	d0, d7, d6
 119              		.loc 1 38 113 view .LVU17
 120 0018 B7EEC00B 		vcvt.f32.f64	s0, d0
 121 001c 7047     		bx	lr
 122              	.L7:
 123 001e 00BF     		.align	3
 124              	.L6:
 125 0020 00000000 		.word	0
 126 0024 00408F40 		.word	1083129856
 127              		.cfi_endproc
 128              	.LFE968:
 130              		.section	.text._ZN12HeavyContext11setUserDataEPv,"axG",%progbits,_ZN12HeavyContext11setUserDataEPv
 131              		.align	1
 132              		.p2align 2,,3
 133              		.weak	_ZN12HeavyContext11setUserDataEPv
 134              		.syntax unified
 135              		.thumb
 136              		.thumb_func
 138              	_ZN12HeavyContext11setUserDataEPv:
 139              	.LVL6:
 140              	.LFB970:
  39:source/HeavyContext.hpp ****   hv_uint32_t millisecondsToSamples(float ms) override { return (hv_uint32_t) (hv_max_f(0.0f,ms)*sa
  40:source/HeavyContext.hpp **** 
ARM GAS  /var/folders/fb/yfxt3z4538j6z0vjt03w70vc0000gn/T//cc7XoObz.s 			page 4


  41:source/HeavyContext.hpp ****   void setUserData(void *x) override { userData = x; }
 141              		.loc 1 41 8 is_stmt 1 view -0
 142              		.cfi_startproc
 143              		@ args = 0, pretend = 0, frame = 0
 144              		@ frame_needed = 0, uses_anonymous_args = 0
 145              		@ link register save eliminated.
 146              		.loc 1 41 40 view .LVU19
 147              		.loc 1 41 49 is_stmt 0 view .LVU20
 148 0000 8165     		str	r1, [r0, #88]
 149              		.loc 1 41 54 view .LVU21
 150 0002 7047     		bx	lr
 151              		.cfi_endproc
 152              	.LFE970:
 154              		.section	.text._ZN12HeavyContext11getUserDataEv,"axG",%progbits,_ZN12HeavyContext11getUserDataEv,c
 155              		.align	1
 156              		.p2align 2,,3
 157              		.weak	_ZN12HeavyContext11getUserDataEv
 158              		.syntax unified
 159              		.thumb
 160              		.thumb_func
 162              	_ZN12HeavyContext11getUserDataEv:
 163              	.LVL7:
 164              	.LFB971:
  42:source/HeavyContext.hpp ****   void *getUserData() override { return userData; }
 165              		.loc 1 42 9 is_stmt 1 view -0
 166              		.cfi_startproc
 167              		@ args = 0, pretend = 0, frame = 0
 168              		@ frame_needed = 0, uses_anonymous_args = 0
 169              		@ link register save eliminated.
 170              		.loc 1 42 34 view .LVU23
 171              		.loc 1 42 51 is_stmt 0 view .LVU24
 172 0000 806D     		ldr	r0, [r0, #88]
 173              	.LVL8:
 174              		.loc 1 42 51 view .LVU25
 175 0002 7047     		bx	lr
 176              		.cfi_endproc
 177              	.LFE971:
 179              		.section	.text._ZN12HeavyContext11setSendHookEPFvP21HeavyContextInterfacePKcmPK9HvMessageE,"axG",%
 180              		.align	1
 181              		.p2align 2,,3
 182              		.weak	_ZN12HeavyContext11setSendHookEPFvP21HeavyContextInterfacePKcmPK9HvMessageE
 183              		.syntax unified
 184              		.thumb
 185              		.thumb_func
 187              	_ZN12HeavyContext11setSendHookEPFvP21HeavyContextInterfacePKcmPK9HvMessageE:
 188              	.LVL9:
 189              	.LFB972:
  43:source/HeavyContext.hpp **** 
  44:source/HeavyContext.hpp ****   // hook management
  45:source/HeavyContext.hpp ****   void setSendHook(HvSendHook_t *f) override { sendHook = f; }
 190              		.loc 1 45 8 is_stmt 1 view -0
 191              		.cfi_startproc
 192              		@ args = 0, pretend = 0, frame = 0
 193              		@ frame_needed = 0, uses_anonymous_args = 0
 194              		@ link register save eliminated.
 195              		.loc 1 45 48 view .LVU27
 196              		.loc 1 45 57 is_stmt 0 view .LVU28
ARM GAS  /var/folders/fb/yfxt3z4538j6z0vjt03w70vc0000gn/T//cc7XoObz.s 			page 5


 197 0000 0165     		str	r1, [r0, #80]
 198              		.loc 1 45 62 view .LVU29
 199 0002 7047     		bx	lr
 200              		.cfi_endproc
 201              	.LFE972:
 203              		.section	.text._ZN12HeavyContext11getSendHookEv,"axG",%progbits,_ZN12HeavyContext11getSendHookEv,c
 204              		.align	1
 205              		.p2align 2,,3
 206              		.weak	_ZN12HeavyContext11getSendHookEv
 207              		.syntax unified
 208              		.thumb
 209              		.thumb_func
 211              	_ZN12HeavyContext11getSendHookEv:
 212              	.LVL10:
 213              	.LFB973:
  46:source/HeavyContext.hpp ****   HvSendHook_t *getSendHook() override { return sendHook; }
 214              		.loc 1 46 17 is_stmt 1 view -0
 215              		.cfi_startproc
 216              		@ args = 0, pretend = 0, frame = 0
 217              		@ frame_needed = 0, uses_anonymous_args = 0
 218              		@ link register save eliminated.
 219              		.loc 1 46 42 view .LVU31
 220              		.loc 1 46 59 is_stmt 0 view .LVU32
 221 0000 006D     		ldr	r0, [r0, #80]
 222              	.LVL11:
 223              		.loc 1 46 59 view .LVU33
 224 0002 7047     		bx	lr
 225              		.cfi_endproc
 226              	.LFE973:
 228              		.section	.text._ZN12HeavyContext12setPrintHookEPFvP21HeavyContextInterfacePKcS3_PK9HvMessageE,"axG
 229              		.align	1
 230              		.p2align 2,,3
 231              		.weak	_ZN12HeavyContext12setPrintHookEPFvP21HeavyContextInterfacePKcS3_PK9HvMessageE
 232              		.syntax unified
 233              		.thumb
 234              		.thumb_func
 236              	_ZN12HeavyContext12setPrintHookEPFvP21HeavyContextInterfacePKcS3_PK9HvMessageE:
 237              	.LVL12:
 238              	.LFB974:
  47:source/HeavyContext.hpp **** 
  48:source/HeavyContext.hpp ****   void setPrintHook(HvPrintHook_t *f) override { printHook = f; }
 239              		.loc 1 48 8 is_stmt 1 view -0
 240              		.cfi_startproc
 241              		@ args = 0, pretend = 0, frame = 0
 242              		@ frame_needed = 0, uses_anonymous_args = 0
 243              		@ link register save eliminated.
 244              		.loc 1 48 50 view .LVU35
 245              		.loc 1 48 60 is_stmt 0 view .LVU36
 246 0000 4165     		str	r1, [r0, #84]
 247              		.loc 1 48 65 view .LVU37
 248 0002 7047     		bx	lr
 249              		.cfi_endproc
 250              	.LFE974:
 252              		.section	.text._ZN12HeavyContext12getPrintHookEv,"axG",%progbits,_ZN12HeavyContext12getPrintHookEv
 253              		.align	1
 254              		.p2align 2,,3
 255              		.weak	_ZN12HeavyContext12getPrintHookEv
ARM GAS  /var/folders/fb/yfxt3z4538j6z0vjt03w70vc0000gn/T//cc7XoObz.s 			page 6


 256              		.syntax unified
 257              		.thumb
 258              		.thumb_func
 260              	_ZN12HeavyContext12getPrintHookEv:
 261              	.LVL13:
 262              	.LFB975:
  49:source/HeavyContext.hpp ****   HvPrintHook_t *getPrintHook() override { return printHook; }
 263              		.loc 1 49 18 is_stmt 1 view -0
 264              		.cfi_startproc
 265              		@ args = 0, pretend = 0, frame = 0
 266              		@ frame_needed = 0, uses_anonymous_args = 0
 267              		@ link register save eliminated.
 268              		.loc 1 49 44 view .LVU39
 269              		.loc 1 49 62 is_stmt 0 view .LVU40
 270 0000 406D     		ldr	r0, [r0, #84]
 271              	.LVL14:
 272              		.loc 1 49 62 view .LVU41
 273 0002 7047     		bx	lr
 274              		.cfi_endproc
 275              	.LFE975:
 277              		.section	.rodata._ZN27Heavy_grillosychicharrasosc7getNameEv.str1.4,"aMS",%progbits,1
 278              		.align	2
 279              	.LC0:
 280 0000 6772696C 		.ascii	"grillosychicharrasosc\000"
 280      6C6F7379 
 280      63686963 
 280      68617272 
 280      61736F73 
 281              		.section	.text._ZN27Heavy_grillosychicharrasosc7getNameEv,"axG",%progbits,_ZN27Heavy_grillosychich
 282              		.align	1
 283              		.p2align 2,,3
 284              		.weak	_ZN27Heavy_grillosychicharrasosc7getNameEv
 285              		.syntax unified
 286              		.thumb
 287              		.thumb_func
 289              	_ZN27Heavy_grillosychicharrasosc7getNameEv:
 290              	.LVL15:
 291              	.LFB990:
 292              		.file 2 "source/Heavy_grillosychicharrasosc.hpp"
   1:source/Heavy_grillosychicharrasosc.hpp **** /**
   2:source/Heavy_grillosychicharrasosc.hpp ****  * Copyright (c) 2023 Enzien Audio, Ltd.
   3:source/Heavy_grillosychicharrasosc.hpp ****  * 
   4:source/Heavy_grillosychicharrasosc.hpp ****  * Redistribution and use in source and binary forms, with or without modification,
   5:source/Heavy_grillosychicharrasosc.hpp ****  * are permitted provided that the following conditions are met:
   6:source/Heavy_grillosychicharrasosc.hpp ****  * 
   7:source/Heavy_grillosychicharrasosc.hpp ****  * 1. Redistributions of source code must retain the above copyright notice,
   8:source/Heavy_grillosychicharrasosc.hpp ****  *    this list of conditions, and the following disclaimer.
   9:source/Heavy_grillosychicharrasosc.hpp ****  * 
  10:source/Heavy_grillosychicharrasosc.hpp ****  * 2. Redistributions in binary form must reproduce the phrase "powered by heavy",
  11:source/Heavy_grillosychicharrasosc.hpp ****  *    the heavy logo, and a hyperlink to https://enzienaudio.com, all in a visible
  12:source/Heavy_grillosychicharrasosc.hpp ****  *    form.
  13:source/Heavy_grillosychicharrasosc.hpp ****  * 
  14:source/Heavy_grillosychicharrasosc.hpp ****  *   2.1 If the Application is distributed in a store system (for example,
  15:source/Heavy_grillosychicharrasosc.hpp ****  *       the Apple "App Store" or "Google Play"), the phrase "powered by heavy"
  16:source/Heavy_grillosychicharrasosc.hpp ****  *       shall be included in the app description or the copyright text as well as
  17:source/Heavy_grillosychicharrasosc.hpp ****  *       the in the app itself. The heavy logo will shall be visible in the app
  18:source/Heavy_grillosychicharrasosc.hpp ****  *       itself as well.
ARM GAS  /var/folders/fb/yfxt3z4538j6z0vjt03w70vc0000gn/T//cc7XoObz.s 			page 7


  19:source/Heavy_grillosychicharrasosc.hpp ****  * 
  20:source/Heavy_grillosychicharrasosc.hpp ****  * THIS SOFTWARE IS PROVIDED BY THE COPYRIGHT HOLDERS AND CONTRIBUTORS "AS IS"
  21:source/Heavy_grillosychicharrasosc.hpp ****  * AND ANY EXPRESS OR IMPLIED WARRANTIES, INCLUDING, BUT NOT LIMITED TO,
  22:source/Heavy_grillosychicharrasosc.hpp ****  * THE IMPLIED WARRANTIES OF MERCHANTABILITY AND FITNESS FOR A PARTICULAR PURPOSE
  23:source/Heavy_grillosychicharrasosc.hpp ****  * ARE DISCLAIMED. IN NO EVENT SHALL THE COPYRIGHT HOLDER OR CONTRIBUTORS BE LIABLE
  24:source/Heavy_grillosychicharrasosc.hpp ****  * FOR ANY DIRECT, INDIRECT, INCIDENTAL, SPECIAL, EXEMPLARY, OR CONSEQUENTIAL
  25:source/Heavy_grillosychicharrasosc.hpp ****  * DAMAGES (INCLUDING, BUT NOT LIMITED TO, PROCUREMENT OF SUBSTITUTE GOODS OR
  26:source/Heavy_grillosychicharrasosc.hpp ****  * SERVICES; LOSS OF USE, DATA, OR PROFITS; OR BUSINESS INTERRUPTION) HOWEVER
  27:source/Heavy_grillosychicharrasosc.hpp ****  * CAUSED AND ON ANY THEORY OF LIABILITY, WHETHER IN CONTRACT, STRICT LIABILITY,
  28:source/Heavy_grillosychicharrasosc.hpp ****  * OR TORT (INCLUDING NEGLIGENCE OR OTHERWISE) ARISING IN ANY WAY OUT OF THE USE OF
  29:source/Heavy_grillosychicharrasosc.hpp ****  * THIS SOFTWARE, EVEN IF ADVISED OF THE POSSIBILITY OF SUCH DAMAGE.
  30:source/Heavy_grillosychicharrasosc.hpp ****  * 
  31:source/Heavy_grillosychicharrasosc.hpp ****  */
  32:source/Heavy_grillosychicharrasosc.hpp **** 
  33:source/Heavy_grillosychicharrasosc.hpp **** #ifndef _HEAVY_CONTEXT_GRILLOSYCHICHARRASOSC_HPP_
  34:source/Heavy_grillosychicharrasosc.hpp **** #define _HEAVY_CONTEXT_GRILLOSYCHICHARRASOSC_HPP_
  35:source/Heavy_grillosychicharrasosc.hpp **** 
  36:source/Heavy_grillosychicharrasosc.hpp **** // object includes
  37:source/Heavy_grillosychicharrasosc.hpp **** #include "HeavyContext.hpp"
  38:source/Heavy_grillosychicharrasosc.hpp **** #include "HvSignalBiquad.h"
  39:source/Heavy_grillosychicharrasosc.hpp **** #include "HvMath.h"
  40:source/Heavy_grillosychicharrasosc.hpp **** #include "HvSignalPhasor.h"
  41:source/Heavy_grillosychicharrasosc.hpp **** #include "HvControlUnop.h"
  42:source/Heavy_grillosychicharrasosc.hpp **** #include "HvControlSlice.h"
  43:source/Heavy_grillosychicharrasosc.hpp **** #include "HvControlBinop.h"
  44:source/Heavy_grillosychicharrasosc.hpp **** #include "HvControlSystem.h"
  45:source/Heavy_grillosychicharrasosc.hpp **** #include "HvSignalLine.h"
  46:source/Heavy_grillosychicharrasosc.hpp **** #include "HvControlRandom.h"
  47:source/Heavy_grillosychicharrasosc.hpp **** #include "HvSignalVar.h"
  48:source/Heavy_grillosychicharrasosc.hpp **** #include "HvControlIf.h"
  49:source/Heavy_grillosychicharrasosc.hpp **** #include "HvControlCast.h"
  50:source/Heavy_grillosychicharrasosc.hpp **** #include "HvControlDelay.h"
  51:source/Heavy_grillosychicharrasosc.hpp **** #include "HvControlVar.h"
  52:source/Heavy_grillosychicharrasosc.hpp **** 
  53:source/Heavy_grillosychicharrasosc.hpp **** class Heavy_grillosychicharrasosc : public HeavyContext {
  54:source/Heavy_grillosychicharrasosc.hpp **** 
  55:source/Heavy_grillosychicharrasosc.hpp ****  public:
  56:source/Heavy_grillosychicharrasosc.hpp ****   Heavy_grillosychicharrasosc(double sampleRate, int poolKb=10, int inQueueKb=2, int outQueueKb=0);
  57:source/Heavy_grillosychicharrasosc.hpp ****   ~Heavy_grillosychicharrasosc();
  58:source/Heavy_grillosychicharrasosc.hpp **** 
  59:source/Heavy_grillosychicharrasosc.hpp ****   const char *getName() override { return "grillosychicharrasosc"; }
 293              		.loc 2 59 15 is_stmt 1 view -0
 294              		.cfi_startproc
 295              		@ args = 0, pretend = 0, frame = 0
 296              		@ frame_needed = 0, uses_anonymous_args = 0
 297              		@ link register save eliminated.
 298              		.loc 2 59 36 view .LVU43
 299              		.loc 2 59 68 is_stmt 0 view .LVU44
 300 0000 0048     		ldr	r0, .L15
 301              	.LVL16:
 302              		.loc 2 59 68 view .LVU45
 303 0002 7047     		bx	lr
 304              	.L16:
 305              		.align	2
 306              	.L15:
 307 0004 00000000 		.word	.LC0
 308              		.cfi_endproc
ARM GAS  /var/folders/fb/yfxt3z4538j6z0vjt03w70vc0000gn/T//cc7XoObz.s 			page 8


 309              	.LFE990:
 311              		.section	.text._ZN27Heavy_grillosychicharrasosc19getNumInputChannelsEv,"axG",%progbits,_ZN27Heavy_
 312              		.align	1
 313              		.p2align 2,,3
 314              		.weak	_ZN27Heavy_grillosychicharrasosc19getNumInputChannelsEv
 315              		.syntax unified
 316              		.thumb
 317              		.thumb_func
 319              	_ZN27Heavy_grillosychicharrasosc19getNumInputChannelsEv:
 320              	.LVL17:
 321              	.LFB991:
  60:source/Heavy_grillosychicharrasosc.hpp ****   int getNumInputChannels() override { return 0; }
 322              		.loc 2 60 7 is_stmt 1 view -0
 323              		.cfi_startproc
 324              		@ args = 0, pretend = 0, frame = 0
 325              		@ frame_needed = 0, uses_anonymous_args = 0
 326              		@ link register save eliminated.
 327              		.loc 2 60 40 view .LVU47
 328              		.loc 2 60 50 is_stmt 0 view .LVU48
 329 0000 0020     		movs	r0, #0
 330              	.LVL18:
 331              		.loc 2 60 50 view .LVU49
 332 0002 7047     		bx	lr
 333              		.cfi_endproc
 334              	.LFE991:
 336              		.section	.text._ZN27Heavy_grillosychicharrasosc20getNumOutputChannelsEv,"axG",%progbits,_ZN27Heavy
 337              		.align	1
 338              		.p2align 2,,3
 339              		.weak	_ZN27Heavy_grillosychicharrasosc20getNumOutputChannelsEv
 340              		.syntax unified
 341              		.thumb
 342              		.thumb_func
 344              	_ZN27Heavy_grillosychicharrasosc20getNumOutputChannelsEv:
 345              	.LVL19:
 346              	.LFB992:
  61:source/Heavy_grillosychicharrasosc.hpp ****   int getNumOutputChannels() override { return 2; }
 347              		.loc 2 61 7 is_stmt 1 view -0
 348              		.cfi_startproc
 349              		@ args = 0, pretend = 0, frame = 0
 350              		@ frame_needed = 0, uses_anonymous_args = 0
 351              		@ link register save eliminated.
 352              		.loc 2 61 41 view .LVU51
 353              		.loc 2 61 51 is_stmt 0 view .LVU52
 354 0000 0220     		movs	r0, #2
 355              	.LVL20:
 356              		.loc 2 61 51 view .LVU53
 357 0002 7047     		bx	lr
 358              		.cfi_endproc
 359              	.LFE992:
 361              		.section	.text._ZN27Heavy_grillosychicharrasosc15getTableForHashEm,"ax",%progbits
 362              		.align	1
 363              		.p2align 2,,3
 364              		.global	_ZN27Heavy_grillosychicharrasosc15getTableForHashEm
 365              		.syntax unified
 366              		.thumb
 367              		.thumb_func
 369              	_ZN27Heavy_grillosychicharrasosc15getTableForHashEm:
ARM GAS  /var/folders/fb/yfxt3z4538j6z0vjt03w70vc0000gn/T//cc7XoObz.s 			page 9


 370              	.LVL21:
 371              	.LFB1002:
 372              		.file 3 "source/Heavy_grillosychicharrasosc.cpp"
   1:source/Heavy_grillosychicharrasosc.cpp **** /**
   2:source/Heavy_grillosychicharrasosc.cpp ****  * Copyright (c) 2023 Enzien Audio, Ltd.
   3:source/Heavy_grillosychicharrasosc.cpp ****  * 
   4:source/Heavy_grillosychicharrasosc.cpp ****  * Redistribution and use in source and binary forms, with or without modification,
   5:source/Heavy_grillosychicharrasosc.cpp ****  * are permitted provided that the following conditions are met:
   6:source/Heavy_grillosychicharrasosc.cpp ****  * 
   7:source/Heavy_grillosychicharrasosc.cpp ****  * 1. Redistributions of source code must retain the above copyright notice,
   8:source/Heavy_grillosychicharrasosc.cpp ****  *    this list of conditions, and the following disclaimer.
   9:source/Heavy_grillosychicharrasosc.cpp ****  * 
  10:source/Heavy_grillosychicharrasosc.cpp ****  * 2. Redistributions in binary form must reproduce the phrase "powered by heavy",
  11:source/Heavy_grillosychicharrasosc.cpp ****  *    the heavy logo, and a hyperlink to https://enzienaudio.com, all in a visible
  12:source/Heavy_grillosychicharrasosc.cpp ****  *    form.
  13:source/Heavy_grillosychicharrasosc.cpp ****  * 
  14:source/Heavy_grillosychicharrasosc.cpp ****  *   2.1 If the Application is distributed in a store system (for example,
  15:source/Heavy_grillosychicharrasosc.cpp ****  *       the Apple "App Store" or "Google Play"), the phrase "powered by heavy"
  16:source/Heavy_grillosychicharrasosc.cpp ****  *       shall be included in the app description or the copyright text as well as
  17:source/Heavy_grillosychicharrasosc.cpp ****  *       the in the app itself. The heavy logo will shall be visible in the app
  18:source/Heavy_grillosychicharrasosc.cpp ****  *       itself as well.
  19:source/Heavy_grillosychicharrasosc.cpp ****  * 
  20:source/Heavy_grillosychicharrasosc.cpp ****  * THIS SOFTWARE IS PROVIDED BY THE COPYRIGHT HOLDERS AND CONTRIBUTORS "AS IS"
  21:source/Heavy_grillosychicharrasosc.cpp ****  * AND ANY EXPRESS OR IMPLIED WARRANTIES, INCLUDING, BUT NOT LIMITED TO,
  22:source/Heavy_grillosychicharrasosc.cpp ****  * THE IMPLIED WARRANTIES OF MERCHANTABILITY AND FITNESS FOR A PARTICULAR PURPOSE
  23:source/Heavy_grillosychicharrasosc.cpp ****  * ARE DISCLAIMED. IN NO EVENT SHALL THE COPYRIGHT HOLDER OR CONTRIBUTORS BE LIABLE
  24:source/Heavy_grillosychicharrasosc.cpp ****  * FOR ANY DIRECT, INDIRECT, INCIDENTAL, SPECIAL, EXEMPLARY, OR CONSEQUENTIAL
  25:source/Heavy_grillosychicharrasosc.cpp ****  * DAMAGES (INCLUDING, BUT NOT LIMITED TO, PROCUREMENT OF SUBSTITUTE GOODS OR
  26:source/Heavy_grillosychicharrasosc.cpp ****  * SERVICES; LOSS OF USE, DATA, OR PROFITS; OR BUSINESS INTERRUPTION) HOWEVER
  27:source/Heavy_grillosychicharrasosc.cpp ****  * CAUSED AND ON ANY THEORY OF LIABILITY, WHETHER IN CONTRACT, STRICT LIABILITY,
  28:source/Heavy_grillosychicharrasosc.cpp ****  * OR TORT (INCLUDING NEGLIGENCE OR OTHERWISE) ARISING IN ANY WAY OUT OF THE USE OF
  29:source/Heavy_grillosychicharrasosc.cpp ****  * THIS SOFTWARE, EVEN IF ADVISED OF THE POSSIBILITY OF SUCH DAMAGE.
  30:source/Heavy_grillosychicharrasosc.cpp ****  * 
  31:source/Heavy_grillosychicharrasosc.cpp ****  */
  32:source/Heavy_grillosychicharrasosc.cpp **** 
  33:source/Heavy_grillosychicharrasosc.cpp **** #include "Heavy_grillosychicharrasosc.hpp"
  34:source/Heavy_grillosychicharrasosc.cpp **** 
  35:source/Heavy_grillosychicharrasosc.cpp **** #define Context(_c) reinterpret_cast<Heavy_grillosychicharrasosc *>(_c)
  36:source/Heavy_grillosychicharrasosc.cpp **** 
  37:source/Heavy_grillosychicharrasosc.cpp **** 
  38:source/Heavy_grillosychicharrasosc.cpp **** 
  39:source/Heavy_grillosychicharrasosc.cpp **** /*
  40:source/Heavy_grillosychicharrasosc.cpp ****  * C Functions
  41:source/Heavy_grillosychicharrasosc.cpp ****  */
  42:source/Heavy_grillosychicharrasosc.cpp **** 
  43:source/Heavy_grillosychicharrasosc.cpp **** extern "C" {
  44:source/Heavy_grillosychicharrasosc.cpp ****   HV_EXPORT HeavyContextInterface *hv_grillosychicharrasosc_new(double sampleRate) {
  45:source/Heavy_grillosychicharrasosc.cpp ****     return new Heavy_grillosychicharrasosc(sampleRate);
  46:source/Heavy_grillosychicharrasosc.cpp ****   }
  47:source/Heavy_grillosychicharrasosc.cpp **** 
  48:source/Heavy_grillosychicharrasosc.cpp ****   HV_EXPORT HeavyContextInterface *hv_grillosychicharrasosc_new_with_options(double sampleRate,
  49:source/Heavy_grillosychicharrasosc.cpp ****       int poolKb, int inQueueKb, int outQueueKb) {
  50:source/Heavy_grillosychicharrasosc.cpp ****     return new Heavy_grillosychicharrasosc(sampleRate, poolKb, inQueueKb, outQueueKb);
  51:source/Heavy_grillosychicharrasosc.cpp ****   }
  52:source/Heavy_grillosychicharrasosc.cpp **** } // extern "C"
  53:source/Heavy_grillosychicharrasosc.cpp **** 
  54:source/Heavy_grillosychicharrasosc.cpp **** 
ARM GAS  /var/folders/fb/yfxt3z4538j6z0vjt03w70vc0000gn/T//cc7XoObz.s 			page 10


  55:source/Heavy_grillosychicharrasosc.cpp **** 
  56:source/Heavy_grillosychicharrasosc.cpp **** 
  57:source/Heavy_grillosychicharrasosc.cpp **** 
  58:source/Heavy_grillosychicharrasosc.cpp **** 
  59:source/Heavy_grillosychicharrasosc.cpp **** 
  60:source/Heavy_grillosychicharrasosc.cpp **** /*
  61:source/Heavy_grillosychicharrasosc.cpp ****  * Class Functions
  62:source/Heavy_grillosychicharrasosc.cpp ****  */
  63:source/Heavy_grillosychicharrasosc.cpp **** 
  64:source/Heavy_grillosychicharrasosc.cpp **** Heavy_grillosychicharrasosc::Heavy_grillosychicharrasosc(double sampleRate, int poolKb, int inQueue
  65:source/Heavy_grillosychicharrasosc.cpp ****     : HeavyContext(sampleRate, poolKb, inQueueKb, outQueueKb) {
  66:source/Heavy_grillosychicharrasosc.cpp ****   numBytes += sPhasor_k_init(&sPhasor_3Iq721RA, 10.0f, sampleRate);
  67:source/Heavy_grillosychicharrasosc.cpp ****   numBytes += sBiquad_k_init(&sBiquad_k_nGDESKZU, 1.0f, 0.0f, 0.0f, 0.0f, 0.0f);
  68:source/Heavy_grillosychicharrasosc.cpp ****   numBytes += sPhasor_k_init(&sPhasor_jheYmMUo, 13000.0f, sampleRate);
  69:source/Heavy_grillosychicharrasosc.cpp ****   numBytes += sPhasor_k_init(&sPhasor_q0quS1iW, 4500.0f, sampleRate);
  70:source/Heavy_grillosychicharrasosc.cpp ****   numBytes += sPhasor_k_init(&sPhasor_P3LuLCLz, 9000.0f, sampleRate);
  71:source/Heavy_grillosychicharrasosc.cpp ****   numBytes += sLine_init(&sLine_ZEhsY3GJ);
  72:source/Heavy_grillosychicharrasosc.cpp ****   numBytes += cDelay_init(this, &cDelay_Yu8ay0lQ, 0.0f);
  73:source/Heavy_grillosychicharrasosc.cpp ****   numBytes += cVar_init_f(&cVar_Nnfc7x9C, 1000.0f);
  74:source/Heavy_grillosychicharrasosc.cpp ****   numBytes += cBinop_init(&cBinop_whoE78sD, 0.0f); // __mul
  75:source/Heavy_grillosychicharrasosc.cpp ****   numBytes += cVar_init_f(&cVar_P3KL6noN, 0.0f);
  76:source/Heavy_grillosychicharrasosc.cpp ****   numBytes += cVar_init_f(&cVar_eUIKfLve, 0.0f);
  77:source/Heavy_grillosychicharrasosc.cpp ****   numBytes += cIf_init(&cIf_hOFE8kyf, false);
  78:source/Heavy_grillosychicharrasosc.cpp ****   numBytes += cRandom_init(&cRandom_v7pWLsoa, 19582766);
  79:source/Heavy_grillosychicharrasosc.cpp ****   numBytes += cSlice_init(&cSlice_TQ5jAajU, 1, 1);
  80:source/Heavy_grillosychicharrasosc.cpp ****   numBytes += sVari_init(&sVari_7VgJQjRv, 0, 0, false);
  81:source/Heavy_grillosychicharrasosc.cpp ****   numBytes += cVar_init_f(&cVar_ObOUWnoI, 0.0f);
  82:source/Heavy_grillosychicharrasosc.cpp ****   numBytes += cVar_init_f(&cVar_mKyLpCkL, 0.0f);
  83:source/Heavy_grillosychicharrasosc.cpp ****   numBytes += cVar_init_f(&cVar_n2TyQRTN, 0.0f);
  84:source/Heavy_grillosychicharrasosc.cpp ****   numBytes += cVar_init_f(&cVar_SQRUBity, 0.0f);
  85:source/Heavy_grillosychicharrasosc.cpp ****   numBytes += cDelay_init(this, &cDelay_u22bsNJt, 0.0f);
  86:source/Heavy_grillosychicharrasosc.cpp ****   numBytes += cVar_init_f(&cVar_VuUO8pOT, 20.0f);
  87:source/Heavy_grillosychicharrasosc.cpp ****   numBytes += cBinop_init(&cBinop_V9kkKiuu, 0.0f); // __mul
  88:source/Heavy_grillosychicharrasosc.cpp ****   numBytes += cVar_init_f(&cVar_b7X8kTRD, 0.0f);
  89:source/Heavy_grillosychicharrasosc.cpp ****   numBytes += cSlice_init(&cSlice_suiSbvgo, 1, -1);
  90:source/Heavy_grillosychicharrasosc.cpp ****   numBytes += cSlice_init(&cSlice_gQaBz8x0, 1, -1);
  91:source/Heavy_grillosychicharrasosc.cpp ****   numBytes += cVar_init_f(&cVar_1Go5tnsh, 0.0f);
  92:source/Heavy_grillosychicharrasosc.cpp ****   numBytes += cVar_init_f(&cVar_XyTmFvhx, 20.0f);
  93:source/Heavy_grillosychicharrasosc.cpp ****   numBytes += cVar_init_f(&cVar_yUmE2zKD, 2000.0f);
  94:source/Heavy_grillosychicharrasosc.cpp ****   numBytes += cVar_init_f(&cVar_kumb9KeP, 0.0f);
  95:source/Heavy_grillosychicharrasosc.cpp ****   numBytes += cVar_init_f(&cVar_IaKoKe7K, 2000.0f);
  96:source/Heavy_grillosychicharrasosc.cpp ****   numBytes += cSlice_init(&cSlice_AUvEPHcH, 1, 1);
  97:source/Heavy_grillosychicharrasosc.cpp ****   numBytes += cSlice_init(&cSlice_9901yvQJ, 0, 1);
  98:source/Heavy_grillosychicharrasosc.cpp ****   numBytes += cBinop_init(&cBinop_MnWPJHoa, 0.0f); // __mul
  99:source/Heavy_grillosychicharrasosc.cpp ****   numBytes += cBinop_init(&cBinop_OfvUtCed, 0.0f); // __mul
 100:source/Heavy_grillosychicharrasosc.cpp ****   numBytes += cBinop_init(&cBinop_DqCOIhPF, 0.0f); // __sub
 101:source/Heavy_grillosychicharrasosc.cpp ****   numBytes += cBinop_init(&cBinop_6HWKc81T, 0.0f); // __add
 102:source/Heavy_grillosychicharrasosc.cpp ****   numBytes += cBinop_init(&cBinop_mV5g0T3w, 20.0f); // __div
 103:source/Heavy_grillosychicharrasosc.cpp ****   numBytes += cBinop_init(&cBinop_2EhbrWuc, 0.0f); // __div
 104:source/Heavy_grillosychicharrasosc.cpp ****   numBytes += cBinop_init(&cBinop_Cq97QXLx, 0.0f); // __add
 105:source/Heavy_grillosychicharrasosc.cpp ****   numBytes += cBinop_init(&cBinop_6x8OpbvE, 0.0f); // __sub
 106:source/Heavy_grillosychicharrasosc.cpp ****   numBytes += cRandom_init(&cRandom_cBjjgoSs, 616061152);
 107:source/Heavy_grillosychicharrasosc.cpp ****   numBytes += cSlice_init(&cSlice_sZfVq8jD, 1, 1);
 108:source/Heavy_grillosychicharrasosc.cpp ****   numBytes += cVar_init_f(&cVar_9qp5BItd, 5000.0f);
 109:source/Heavy_grillosychicharrasosc.cpp ****   numBytes += cVar_init_f(&cVar_R45Qg3wP, 6.0f);
 110:source/Heavy_grillosychicharrasosc.cpp ****   numBytes += cBinop_init(&cBinop_LwzhYklL, 0.0f); // __div
 111:source/Heavy_grillosychicharrasosc.cpp ****   numBytes += cBinop_init(&cBinop_6vxLx8Vr, 0.0f); // __div
ARM GAS  /var/folders/fb/yfxt3z4538j6z0vjt03w70vc0000gn/T//cc7XoObz.s 			page 11


 112:source/Heavy_grillosychicharrasosc.cpp ****   numBytes += cBinop_init(&cBinop_K7ebZwft, 0.0f); // __mul
 113:source/Heavy_grillosychicharrasosc.cpp ****   numBytes += cBinop_init(&cBinop_yip3Mvj2, 0.0f); // __mul
 114:source/Heavy_grillosychicharrasosc.cpp ****   numBytes += cBinop_init(&cBinop_wmR3cs6y, 0.0f); // __add
 115:source/Heavy_grillosychicharrasosc.cpp ****   numBytes += cBinop_init(&cBinop_shVLnjCS, 0.0f); // __mul
 116:source/Heavy_grillosychicharrasosc.cpp ****   numBytes += cDelay_init(this, &cDelay_3RJCOYcc, 0.0f);
 117:source/Heavy_grillosychicharrasosc.cpp ****   numBytes += cVar_init_f(&cVar_cZOROno5, 20.0f);
 118:source/Heavy_grillosychicharrasosc.cpp ****   numBytes += cBinop_init(&cBinop_PKYneWMg, 0.0f); // __mul
 119:source/Heavy_grillosychicharrasosc.cpp ****   numBytes += cVar_init_f(&cVar_bfBrGQS9, 0.0f);
 120:source/Heavy_grillosychicharrasosc.cpp ****   numBytes += cSlice_init(&cSlice_b5EiwBH6, 1, -1);
 121:source/Heavy_grillosychicharrasosc.cpp ****   numBytes += cSlice_init(&cSlice_JQV7rzsL, 1, -1);
 122:source/Heavy_grillosychicharrasosc.cpp ****   numBytes += cVar_init_f(&cVar_RNwsu7Qp, 0.0f);
 123:source/Heavy_grillosychicharrasosc.cpp ****   numBytes += cVar_init_f(&cVar_TqsPRgvJ, 20.0f);
 124:source/Heavy_grillosychicharrasosc.cpp ****   numBytes += cVar_init_f(&cVar_USNPbtPW, 0.0f);
 125:source/Heavy_grillosychicharrasosc.cpp ****   numBytes += cVar_init_f(&cVar_FA9HM06u, 0.0f);
 126:source/Heavy_grillosychicharrasosc.cpp ****   numBytes += cVar_init_f(&cVar_68g9fpZP, 0.0f);
 127:source/Heavy_grillosychicharrasosc.cpp ****   numBytes += cSlice_init(&cSlice_9Rcv20sv, 1, 1);
 128:source/Heavy_grillosychicharrasosc.cpp ****   numBytes += cSlice_init(&cSlice_H5REGhA3, 0, 1);
 129:source/Heavy_grillosychicharrasosc.cpp ****   numBytes += cBinop_init(&cBinop_NWGmmZbL, 0.0f); // __mul
 130:source/Heavy_grillosychicharrasosc.cpp ****   numBytes += cBinop_init(&cBinop_HkobI4YQ, 0.0f); // __mul
 131:source/Heavy_grillosychicharrasosc.cpp ****   numBytes += cBinop_init(&cBinop_Id4eDgmg, 0.0f); // __sub
 132:source/Heavy_grillosychicharrasosc.cpp ****   numBytes += cBinop_init(&cBinop_sYjQzHyd, 0.0f); // __add
 133:source/Heavy_grillosychicharrasosc.cpp ****   numBytes += cBinop_init(&cBinop_U8PTT4zA, 20.0f); // __div
 134:source/Heavy_grillosychicharrasosc.cpp ****   numBytes += cBinop_init(&cBinop_kHEXUx6A, 0.0f); // __div
 135:source/Heavy_grillosychicharrasosc.cpp ****   numBytes += cBinop_init(&cBinop_aVLrzYKi, 0.0f); // __add
 136:source/Heavy_grillosychicharrasosc.cpp ****   numBytes += cBinop_init(&cBinop_Z3lEbYEy, 0.0f); // __sub
 137:source/Heavy_grillosychicharrasosc.cpp ****   numBytes += cVar_init_f(&cVar_wYXJkuu3, 0.0f);
 138:source/Heavy_grillosychicharrasosc.cpp ****   numBytes += cVar_init_f(&cVar_7XMFG1Jx, 0.0f);
 139:source/Heavy_grillosychicharrasosc.cpp ****   numBytes += cVar_init_f(&cVar_4SrcHYHo, 0.0f);
 140:source/Heavy_grillosychicharrasosc.cpp ****   numBytes += cRandom_init(&cRandom_JF0BuKA0, -553475535);
 141:source/Heavy_grillosychicharrasosc.cpp ****   numBytes += cSlice_init(&cSlice_77b0Z3qh, 1, 1);
 142:source/Heavy_grillosychicharrasosc.cpp ****   numBytes += cRandom_init(&cRandom_i9t3pPrX, -98399279);
 143:source/Heavy_grillosychicharrasosc.cpp ****   numBytes += cSlice_init(&cSlice_khUFGaEr, 1, 1);
 144:source/Heavy_grillosychicharrasosc.cpp ****   numBytes += cVar_init_f(&cVar_lJiJqIrv, 1.0f);
 145:source/Heavy_grillosychicharrasosc.cpp ****   numBytes += cDelay_init(this, &cDelay_p7OdiHgQ, 0.0f);
 146:source/Heavy_grillosychicharrasosc.cpp ****   numBytes += cVar_init_f(&cVar_MBFODPm4, 5000.0f);
 147:source/Heavy_grillosychicharrasosc.cpp ****   numBytes += cBinop_init(&cBinop_0QS5SfF7, 0.0f); // __mul
 148:source/Heavy_grillosychicharrasosc.cpp ****   numBytes += cRandom_init(&cRandom_2so6wfvk, 866301503);
 149:source/Heavy_grillosychicharrasosc.cpp ****   numBytes += cSlice_init(&cSlice_0bPF1CDO, 1, 1);
 150:source/Heavy_grillosychicharrasosc.cpp ****   numBytes += cDelay_init(this, &cDelay_Cyt5ljfN, 0.0f);
 151:source/Heavy_grillosychicharrasosc.cpp ****   numBytes += cVar_init_f(&cVar_KZzpRZHu, 5000.0f);
 152:source/Heavy_grillosychicharrasosc.cpp ****   numBytes += cBinop_init(&cBinop_EaLgdUhr, 0.0f); // __mul
 153:source/Heavy_grillosychicharrasosc.cpp ****   numBytes += cRandom_init(&cRandom_YHJH6zTc, 1738728339);
 154:source/Heavy_grillosychicharrasosc.cpp ****   numBytes += cSlice_init(&cSlice_H8WLX0Iq, 1, 1);
 155:source/Heavy_grillosychicharrasosc.cpp ****   numBytes += cRandom_init(&cRandom_PiQsvku9, 1535940773);
 156:source/Heavy_grillosychicharrasosc.cpp ****   numBytes += cSlice_init(&cSlice_jIX7xxc7, 1, 1);
 157:source/Heavy_grillosychicharrasosc.cpp ****   numBytes += cDelay_init(this, &cDelay_PqaUaY8t, 0.0f);
 158:source/Heavy_grillosychicharrasosc.cpp ****   numBytes += cVar_init_f(&cVar_QQ3c7mjd, 20.0f);
 159:source/Heavy_grillosychicharrasosc.cpp ****   numBytes += cBinop_init(&cBinop_0EEBEXb9, 0.0f); // __mul
 160:source/Heavy_grillosychicharrasosc.cpp ****   numBytes += cVar_init_f(&cVar_OIqXkG1F, 0.0f);
 161:source/Heavy_grillosychicharrasosc.cpp ****   numBytes += cSlice_init(&cSlice_5Qo8DRgA, 1, -1);
 162:source/Heavy_grillosychicharrasosc.cpp ****   numBytes += cSlice_init(&cSlice_8dT8qj1B, 1, -1);
 163:source/Heavy_grillosychicharrasosc.cpp ****   numBytes += cVar_init_f(&cVar_L86GS0rj, 0.0f);
 164:source/Heavy_grillosychicharrasosc.cpp ****   numBytes += cVar_init_f(&cVar_pOgk2fvX, 20.0f);
 165:source/Heavy_grillosychicharrasosc.cpp ****   numBytes += cVar_init_f(&cVar_rRmXwkhu, 0.0f);
 166:source/Heavy_grillosychicharrasosc.cpp ****   numBytes += cVar_init_f(&cVar_hdQhtWbh, 0.0f);
 167:source/Heavy_grillosychicharrasosc.cpp ****   numBytes += cVar_init_f(&cVar_BGG0hetm, 0.0f);
 168:source/Heavy_grillosychicharrasosc.cpp ****   numBytes += cSlice_init(&cSlice_y08LbGNS, 1, 1);
ARM GAS  /var/folders/fb/yfxt3z4538j6z0vjt03w70vc0000gn/T//cc7XoObz.s 			page 12


 169:source/Heavy_grillosychicharrasosc.cpp ****   numBytes += cSlice_init(&cSlice_ov2A0O1C, 0, 1);
 170:source/Heavy_grillosychicharrasosc.cpp ****   numBytes += cBinop_init(&cBinop_96fhtK7S, 0.0f); // __mul
 171:source/Heavy_grillosychicharrasosc.cpp ****   numBytes += cBinop_init(&cBinop_quEGVJ1U, 0.0f); // __mul
 172:source/Heavy_grillosychicharrasosc.cpp ****   numBytes += cBinop_init(&cBinop_Y9zFco5H, 0.0f); // __sub
 173:source/Heavy_grillosychicharrasosc.cpp ****   numBytes += cBinop_init(&cBinop_ea3HLll1, 0.0f); // __add
 174:source/Heavy_grillosychicharrasosc.cpp ****   numBytes += cBinop_init(&cBinop_zeg3ioTW, 20.0f); // __div
 175:source/Heavy_grillosychicharrasosc.cpp ****   numBytes += cBinop_init(&cBinop_khxlaUhk, 0.0f); // __div
 176:source/Heavy_grillosychicharrasosc.cpp ****   numBytes += cBinop_init(&cBinop_5P1Hb7z4, 0.0f); // __add
 177:source/Heavy_grillosychicharrasosc.cpp ****   numBytes += cBinop_init(&cBinop_Gqj0ryco, 0.0f); // __sub
 178:source/Heavy_grillosychicharrasosc.cpp ****   numBytes += cVar_init_f(&cVar_NXTkXCSs, 1.0f);
 179:source/Heavy_grillosychicharrasosc.cpp ****   numBytes += cVar_init_f(&cVar_OwvzQoYk, 0.0f);
 180:source/Heavy_grillosychicharrasosc.cpp ****   numBytes += cVar_init_f(&cVar_s8NSUgUT, 0.0f);
 181:source/Heavy_grillosychicharrasosc.cpp ****   numBytes += cDelay_init(this, &cDelay_9cTclMV7, 0.0f);
 182:source/Heavy_grillosychicharrasosc.cpp ****   numBytes += cVar_init_f(&cVar_AVMDlWey, 500.0f);
 183:source/Heavy_grillosychicharrasosc.cpp ****   numBytes += cBinop_init(&cBinop_hkTMVp8Q, 0.0f); // __mul
 184:source/Heavy_grillosychicharrasosc.cpp ****   numBytes += cVar_init_f(&cVar_ottfoJXb, 1.0f);
 185:source/Heavy_grillosychicharrasosc.cpp ****   numBytes += cDelay_init(this, &cDelay_gRRCpeNl, 20.0f);
 186:source/Heavy_grillosychicharrasosc.cpp ****   numBytes += cDelay_init(this, &cDelay_li9JZJAJ, 20.0f);
 187:source/Heavy_grillosychicharrasosc.cpp ****   numBytes += cDelay_init(this, &cDelay_bDp0Em7l, 20.0f);
 188:source/Heavy_grillosychicharrasosc.cpp ****   numBytes += cDelay_init(this, &cDelay_KYdtSpcr, 30.0f);
 189:source/Heavy_grillosychicharrasosc.cpp ****   numBytes += cDelay_init(this, &cDelay_QrGvT5Yt, 30.0f);
 190:source/Heavy_grillosychicharrasosc.cpp ****   numBytes += cDelay_init(this, &cDelay_nvxwvLIr, 30.0f);
 191:source/Heavy_grillosychicharrasosc.cpp ****   numBytes += cDelay_init(this, &cDelay_S5MaK3OA, 30.0f);
 192:source/Heavy_grillosychicharrasosc.cpp ****   numBytes += cVar_init_f(&cVar_8CyP6UBV, 0.0f);
 193:source/Heavy_grillosychicharrasosc.cpp ****   numBytes += cVar_init_f(&cVar_qoAHRdJi, 0.0f);
 194:source/Heavy_grillosychicharrasosc.cpp ****   numBytes += cVar_init_f(&cVar_u2p8tCx9, 0.0f);
 195:source/Heavy_grillosychicharrasosc.cpp ****   numBytes += cVar_init_f(&cVar_HkiDCFMJ, 1.0f);
 196:source/Heavy_grillosychicharrasosc.cpp ****   numBytes += cDelay_init(this, &cDelay_kLoEC4eE, 0.0f);
 197:source/Heavy_grillosychicharrasosc.cpp ****   numBytes += cVar_init_f(&cVar_U4EkIXYq, 2000.0f);
 198:source/Heavy_grillosychicharrasosc.cpp ****   numBytes += cBinop_init(&cBinop_DF6o1oSK, 0.0f); // __mul
 199:source/Heavy_grillosychicharrasosc.cpp ****   numBytes += cDelay_init(this, &cDelay_ElIMyhI4, 1000.0f);
 200:source/Heavy_grillosychicharrasosc.cpp ****   numBytes += cRandom_init(&cRandom_NjsBlyXK, -185236850);
 201:source/Heavy_grillosychicharrasosc.cpp ****   numBytes += cSlice_init(&cSlice_pFc3oYz0, 1, 1);
 202:source/Heavy_grillosychicharrasosc.cpp ****   numBytes += cDelay_init(this, &cDelay_5umfRAyp, 0.0f);
 203:source/Heavy_grillosychicharrasosc.cpp ****   numBytes += cVar_init_f(&cVar_pS2KruIk, 1000.0f);
 204:source/Heavy_grillosychicharrasosc.cpp ****   numBytes += cBinop_init(&cBinop_chgNfAfk, 0.0f); // __mul
 205:source/Heavy_grillosychicharrasosc.cpp ****   numBytes += cVar_init_f(&cVar_V503mQR2, 1.0f);
 206:source/Heavy_grillosychicharrasosc.cpp ****   numBytes += cDelay_init(this, &cDelay_J1E6pX7q, 5000.0f);
 207:source/Heavy_grillosychicharrasosc.cpp ****   numBytes += cVar_init_f(&cVar_I3lWjcEm, 1.0f);
 208:source/Heavy_grillosychicharrasosc.cpp ****   numBytes += cRandom_init(&cRandom_j8IJW7sl, -1743963944);
 209:source/Heavy_grillosychicharrasosc.cpp ****   numBytes += cSlice_init(&cSlice_pZkf2HDY, 1, 1);
 210:source/Heavy_grillosychicharrasosc.cpp ****   numBytes += cDelay_init(this, &cDelay_41evEucb, 5000.0f);
 211:source/Heavy_grillosychicharrasosc.cpp ****   numBytes += cDelay_init(this, &cDelay_CZ43RpKE, 0.0f);
 212:source/Heavy_grillosychicharrasosc.cpp ****   numBytes += cVar_init_f(&cVar_sgz0sbH8, 20.0f);
 213:source/Heavy_grillosychicharrasosc.cpp ****   numBytes += cBinop_init(&cBinop_ZnzomJYv, 0.0f); // __mul
 214:source/Heavy_grillosychicharrasosc.cpp ****   numBytes += cVar_init_f(&cVar_y46Bm6Zu, 0.0f);
 215:source/Heavy_grillosychicharrasosc.cpp ****   numBytes += cSlice_init(&cSlice_psW4eCG8, 1, -1);
 216:source/Heavy_grillosychicharrasosc.cpp ****   numBytes += cSlice_init(&cSlice_7m0Inwpv, 1, -1);
 217:source/Heavy_grillosychicharrasosc.cpp ****   numBytes += cVar_init_f(&cVar_A9IDcNzF, 0.0f);
 218:source/Heavy_grillosychicharrasosc.cpp ****   numBytes += cVar_init_f(&cVar_v7M1WUqA, 20.0f);
 219:source/Heavy_grillosychicharrasosc.cpp ****   numBytes += cVar_init_f(&cVar_lzt4oFBo, 0.0f);
 220:source/Heavy_grillosychicharrasosc.cpp ****   numBytes += cVar_init_f(&cVar_RNoZ0NsK, 0.0f);
 221:source/Heavy_grillosychicharrasosc.cpp ****   numBytes += cVar_init_f(&cVar_EZN8BtLf, 0.0f);
 222:source/Heavy_grillosychicharrasosc.cpp ****   numBytes += cSlice_init(&cSlice_HemW1RcB, 1, 1);
 223:source/Heavy_grillosychicharrasosc.cpp ****   numBytes += cSlice_init(&cSlice_MEWQBFaB, 0, 1);
 224:source/Heavy_grillosychicharrasosc.cpp ****   numBytes += cBinop_init(&cBinop_p1hgJmgs, 0.0f); // __mul
 225:source/Heavy_grillosychicharrasosc.cpp ****   numBytes += cBinop_init(&cBinop_bIceu0a5, 0.0f); // __mul
ARM GAS  /var/folders/fb/yfxt3z4538j6z0vjt03w70vc0000gn/T//cc7XoObz.s 			page 13


 226:source/Heavy_grillosychicharrasosc.cpp ****   numBytes += cBinop_init(&cBinop_DViOseny, 0.0f); // __sub
 227:source/Heavy_grillosychicharrasosc.cpp ****   numBytes += cBinop_init(&cBinop_9G2yErcz, 0.0f); // __add
 228:source/Heavy_grillosychicharrasosc.cpp ****   numBytes += cBinop_init(&cBinop_rv88LeR6, 20.0f); // __div
 229:source/Heavy_grillosychicharrasosc.cpp ****   numBytes += cBinop_init(&cBinop_QuUF7Uto, 0.0f); // __div
 230:source/Heavy_grillosychicharrasosc.cpp ****   numBytes += cBinop_init(&cBinop_8zEWHjmM, 0.0f); // __add
 231:source/Heavy_grillosychicharrasosc.cpp ****   numBytes += cBinop_init(&cBinop_oXfbQjHp, 0.0f); // __sub
 232:source/Heavy_grillosychicharrasosc.cpp ****   numBytes += cVar_init_f(&cVar_yxSrksL3, 0.0f);
 233:source/Heavy_grillosychicharrasosc.cpp ****   numBytes += cRandom_init(&cRandom_GbGZkESD, -612919467);
 234:source/Heavy_grillosychicharrasosc.cpp ****   numBytes += cSlice_init(&cSlice_I86YF72x, 1, 1);
 235:source/Heavy_grillosychicharrasosc.cpp ****   numBytes += cDelay_init(this, &cDelay_a5wfCUjy, 0.0f);
 236:source/Heavy_grillosychicharrasosc.cpp ****   numBytes += cVar_init_f(&cVar_PyhZPnaU, 1000.0f);
 237:source/Heavy_grillosychicharrasosc.cpp ****   numBytes += cBinop_init(&cBinop_Gk65LOcD, 0.0f); // __mul
 238:source/Heavy_grillosychicharrasosc.cpp ****   numBytes += cVar_init_f(&cVar_YrGju7j8, 1.0f);
 239:source/Heavy_grillosychicharrasosc.cpp ****   numBytes += cDelay_init(this, &cDelay_7U1bb9hT, 5000.0f);
 240:source/Heavy_grillosychicharrasosc.cpp ****   numBytes += cVar_init_f(&cVar_ZZUedFlg, 1.0f);
 241:source/Heavy_grillosychicharrasosc.cpp ****   numBytes += cRandom_init(&cRandom_psO9A26B, 1755727079);
 242:source/Heavy_grillosychicharrasosc.cpp ****   numBytes += cSlice_init(&cSlice_ecqJ4sfE, 1, 1);
 243:source/Heavy_grillosychicharrasosc.cpp ****   numBytes += cDelay_init(this, &cDelay_2vxR4c2p, 5000.0f);
 244:source/Heavy_grillosychicharrasosc.cpp ****   numBytes += cDelay_init(this, &cDelay_pIKdjt2k, 0.0f);
 245:source/Heavy_grillosychicharrasosc.cpp ****   numBytes += cVar_init_f(&cVar_HZC1ip7W, 20.0f);
 246:source/Heavy_grillosychicharrasosc.cpp ****   numBytes += cBinop_init(&cBinop_NmPYD90t, 0.0f); // __mul
 247:source/Heavy_grillosychicharrasosc.cpp ****   numBytes += cVar_init_f(&cVar_eOO7M87x, 0.0f);
 248:source/Heavy_grillosychicharrasosc.cpp ****   numBytes += cSlice_init(&cSlice_xWoOn2P4, 1, -1);
 249:source/Heavy_grillosychicharrasosc.cpp ****   numBytes += cSlice_init(&cSlice_35rqWCye, 1, -1);
 250:source/Heavy_grillosychicharrasosc.cpp ****   numBytes += cVar_init_f(&cVar_8np9dfCS, 0.0f);
 251:source/Heavy_grillosychicharrasosc.cpp ****   numBytes += cVar_init_f(&cVar_yC2Epoyf, 20.0f);
 252:source/Heavy_grillosychicharrasosc.cpp ****   numBytes += cVar_init_f(&cVar_tPIfC3EU, 0.0f);
 253:source/Heavy_grillosychicharrasosc.cpp ****   numBytes += cVar_init_f(&cVar_uGmXX6Pk, 0.0f);
 254:source/Heavy_grillosychicharrasosc.cpp ****   numBytes += cVar_init_f(&cVar_utPgX8hA, 0.0f);
 255:source/Heavy_grillosychicharrasosc.cpp ****   numBytes += cSlice_init(&cSlice_cK9ucvDU, 1, 1);
 256:source/Heavy_grillosychicharrasosc.cpp ****   numBytes += cSlice_init(&cSlice_ZeZu8QhV, 0, 1);
 257:source/Heavy_grillosychicharrasosc.cpp ****   numBytes += cBinop_init(&cBinop_pIXcJ2vz, 0.0f); // __mul
 258:source/Heavy_grillosychicharrasosc.cpp ****   numBytes += cBinop_init(&cBinop_cmzPEfkn, 0.0f); // __mul
 259:source/Heavy_grillosychicharrasosc.cpp ****   numBytes += cBinop_init(&cBinop_flOCJfnO, 0.0f); // __sub
 260:source/Heavy_grillosychicharrasosc.cpp ****   numBytes += cBinop_init(&cBinop_0GJHY5Lk, 0.0f); // __add
 261:source/Heavy_grillosychicharrasosc.cpp ****   numBytes += cBinop_init(&cBinop_oIxuVsnq, 20.0f); // __div
 262:source/Heavy_grillosychicharrasosc.cpp ****   numBytes += cBinop_init(&cBinop_UGKDYVI2, 0.0f); // __div
 263:source/Heavy_grillosychicharrasosc.cpp ****   numBytes += cBinop_init(&cBinop_8eVEy7Al, 0.0f); // __add
 264:source/Heavy_grillosychicharrasosc.cpp ****   numBytes += cBinop_init(&cBinop_XTQTY9Cb, 0.0f); // __sub
 265:source/Heavy_grillosychicharrasosc.cpp ****   numBytes += cVar_init_f(&cVar_MdAGGFnZ, 0.0f);
 266:source/Heavy_grillosychicharrasosc.cpp ****   numBytes += cBinop_init(&cBinop_F0IQVI6d, 1.0f); // __add
 267:source/Heavy_grillosychicharrasosc.cpp ****   numBytes += cBinop_init(&cBinop_hbyRQ0zt, 30.0f); // __bimod
 268:source/Heavy_grillosychicharrasosc.cpp ****   numBytes += sVarf_init(&sVarf_OQxdukrC, 1.0f, 0.0f, false);
 269:source/Heavy_grillosychicharrasosc.cpp ****   numBytes += sVarf_init(&sVarf_Ie4VYlva, 0.5f, 0.0f, false);
 270:source/Heavy_grillosychicharrasosc.cpp ****   numBytes += sVarf_init(&sVarf_nw3eEMj2, 0.5f, 0.0f, false);
 271:source/Heavy_grillosychicharrasosc.cpp ****   numBytes += sVarf_init(&sVarf_ewXMsNMW, 0.5f, 0.0f, false);
 272:source/Heavy_grillosychicharrasosc.cpp ****   numBytes += sVarf_init(&sVarf_jmhQqPsJ, 1.0f, 0.0f, false);
 273:source/Heavy_grillosychicharrasosc.cpp ****   numBytes += sVarf_init(&sVarf_zMC2F8vL, 0.0f, 0.0f, false);
 274:source/Heavy_grillosychicharrasosc.cpp ****   
 275:source/Heavy_grillosychicharrasosc.cpp ****   // schedule a message to trigger all loadbangs via the __hv_init receiver
 276:source/Heavy_grillosychicharrasosc.cpp ****   scheduleMessageForReceiver(0xCE5CC65B, msg_initWithBang(HV_MESSAGE_ON_STACK(1), 0));
 277:source/Heavy_grillosychicharrasosc.cpp **** }
 278:source/Heavy_grillosychicharrasosc.cpp **** 
 279:source/Heavy_grillosychicharrasosc.cpp **** Heavy_grillosychicharrasosc::~Heavy_grillosychicharrasosc() {
 280:source/Heavy_grillosychicharrasosc.cpp ****   // nothing to free
 281:source/Heavy_grillosychicharrasosc.cpp **** }
 282:source/Heavy_grillosychicharrasosc.cpp **** 
ARM GAS  /var/folders/fb/yfxt3z4538j6z0vjt03w70vc0000gn/T//cc7XoObz.s 			page 14


 283:source/Heavy_grillosychicharrasosc.cpp **** HvTable *Heavy_grillosychicharrasosc::getTableForHash(hv_uint32_t tableHash) {
 373              		.loc 3 283 78 is_stmt 1 view -0
 374              		.cfi_startproc
 375              		@ args = 0, pretend = 0, frame = 0
 376              		@ frame_needed = 0, uses_anonymous_args = 0
 377              		@ link register save eliminated.
 284:source/Heavy_grillosychicharrasosc.cpp ****   return nullptr;
 378              		.loc 3 284 3 view .LVU55
 285:source/Heavy_grillosychicharrasosc.cpp **** }
 379              		.loc 3 285 1 is_stmt 0 view .LVU56
 380 0000 0020     		movs	r0, #0
 381              	.LVL22:
 382              		.loc 3 285 1 view .LVU57
 383 0002 7047     		bx	lr
 384              		.cfi_endproc
 385              	.LFE1002:
 387              		.section	.text._ZN27Heavy_grillosychicharrasosc25cVar_ObOUWnoI_sendMessageEP21HeavyContextInterfac
 388              		.align	1
 389              		.p2align 2,,3
 390              		.global	_ZN27Heavy_grillosychicharrasosc25cVar_ObOUWnoI_sendMessageEP21HeavyContextInterfaceiPK9Hv
 391              		.syntax unified
 392              		.thumb
 393              		.thumb_func
 395              	_ZN27Heavy_grillosychicharrasosc25cVar_ObOUWnoI_sendMessageEP21HeavyContextInterfaceiPK9HvMessage:
 396              	.LVL23:
 397              	.LFB1028:
 286:source/Heavy_grillosychicharrasosc.cpp **** 
 287:source/Heavy_grillosychicharrasosc.cpp **** void Heavy_grillosychicharrasosc::scheduleMessageForReceiver(hv_uint32_t receiverHash, HvMessage *m
 288:source/Heavy_grillosychicharrasosc.cpp ****   switch (receiverHash) {
 289:source/Heavy_grillosychicharrasosc.cpp ****     case 0xCE5CC65B: { // __hv_init
 290:source/Heavy_grillosychicharrasosc.cpp ****       mq_addMessageByTimestamp(&mq, m, 0, &cReceive_PLadF4GM_sendMessage);
 291:source/Heavy_grillosychicharrasosc.cpp ****       break;
 292:source/Heavy_grillosychicharrasosc.cpp ****     }
 293:source/Heavy_grillosychicharrasosc.cpp ****     case 0xFB2DC5B6: { // button1
 294:source/Heavy_grillosychicharrasosc.cpp ****       mq_addMessageByTimestamp(&mq, m, 0, &cReceive_xHrx9b6t_sendMessage);
 295:source/Heavy_grillosychicharrasosc.cpp ****       break;
 296:source/Heavy_grillosychicharrasosc.cpp ****     }
 297:source/Heavy_grillosychicharrasosc.cpp ****     default: return;
 298:source/Heavy_grillosychicharrasosc.cpp ****   }
 299:source/Heavy_grillosychicharrasosc.cpp **** }
 300:source/Heavy_grillosychicharrasosc.cpp **** 
 301:source/Heavy_grillosychicharrasosc.cpp **** int Heavy_grillosychicharrasosc::getParameterInfo(int index, HvParameterInfo *info) {
 302:source/Heavy_grillosychicharrasosc.cpp ****   if (info != nullptr) {
 303:source/Heavy_grillosychicharrasosc.cpp ****     switch (index) {
 304:source/Heavy_grillosychicharrasosc.cpp ****       case 0: {
 305:source/Heavy_grillosychicharrasosc.cpp ****         info->name = "button1";
 306:source/Heavy_grillosychicharrasosc.cpp ****         info->hash = 0xFB2DC5B6;
 307:source/Heavy_grillosychicharrasosc.cpp ****         info->type = HvParameterType::HV_PARAM_TYPE_PARAMETER_IN;
 308:source/Heavy_grillosychicharrasosc.cpp ****         info->minVal = 0.0f;
 309:source/Heavy_grillosychicharrasosc.cpp ****         info->maxVal = 1.0f;
 310:source/Heavy_grillosychicharrasosc.cpp ****         info->defaultVal = 0.5f;
 311:source/Heavy_grillosychicharrasosc.cpp ****         break;
 312:source/Heavy_grillosychicharrasosc.cpp ****       }
 313:source/Heavy_grillosychicharrasosc.cpp ****       default: {
 314:source/Heavy_grillosychicharrasosc.cpp ****         info->name = "invalid parameter index";
 315:source/Heavy_grillosychicharrasosc.cpp ****         info->hash = 0;
 316:source/Heavy_grillosychicharrasosc.cpp ****         info->type = HvParameterType::HV_PARAM_TYPE_PARAMETER_IN;
ARM GAS  /var/folders/fb/yfxt3z4538j6z0vjt03w70vc0000gn/T//cc7XoObz.s 			page 15


 317:source/Heavy_grillosychicharrasosc.cpp ****         info->minVal = 0.0f;
 318:source/Heavy_grillosychicharrasosc.cpp ****         info->maxVal = 0.0f;
 319:source/Heavy_grillosychicharrasosc.cpp ****         info->defaultVal = 0.0f;
 320:source/Heavy_grillosychicharrasosc.cpp ****         break;
 321:source/Heavy_grillosychicharrasosc.cpp ****       }
 322:source/Heavy_grillosychicharrasosc.cpp ****     }
 323:source/Heavy_grillosychicharrasosc.cpp ****   }
 324:source/Heavy_grillosychicharrasosc.cpp ****   return 1;
 325:source/Heavy_grillosychicharrasosc.cpp **** }
 326:source/Heavy_grillosychicharrasosc.cpp **** 
 327:source/Heavy_grillosychicharrasosc.cpp **** 
 328:source/Heavy_grillosychicharrasosc.cpp **** 
 329:source/Heavy_grillosychicharrasosc.cpp **** /*
 330:source/Heavy_grillosychicharrasosc.cpp ****  * Send Function Implementations
 331:source/Heavy_grillosychicharrasosc.cpp ****  */
 332:source/Heavy_grillosychicharrasosc.cpp **** 
 333:source/Heavy_grillosychicharrasosc.cpp **** 
 334:source/Heavy_grillosychicharrasosc.cpp **** void Heavy_grillosychicharrasosc::cSwitchcase_Cbwk7oy4_onMessage(HeavyContextInterface *_c, void *o
 335:source/Heavy_grillosychicharrasosc.cpp ****   switch (msg_getHash(m, 0)) {
 336:source/Heavy_grillosychicharrasosc.cpp ****     case 0x0: { // "0.0"
 337:source/Heavy_grillosychicharrasosc.cpp ****       cMsg_XuD0Af2d_sendMessage(_c, 0, m);
 338:source/Heavy_grillosychicharrasosc.cpp ****       break;
 339:source/Heavy_grillosychicharrasosc.cpp ****     }
 340:source/Heavy_grillosychicharrasosc.cpp ****     case 0x7A5B032D: { // "stop"
 341:source/Heavy_grillosychicharrasosc.cpp ****       cMsg_XuD0Af2d_sendMessage(_c, 0, m);
 342:source/Heavy_grillosychicharrasosc.cpp ****       break;
 343:source/Heavy_grillosychicharrasosc.cpp ****     }
 344:source/Heavy_grillosychicharrasosc.cpp ****     default: {
 345:source/Heavy_grillosychicharrasosc.cpp ****       cCast_onMessage(_c, HV_CAST_BANG, 0, m, &cCast_vH7CHwhb_sendMessage);
 346:source/Heavy_grillosychicharrasosc.cpp ****       break;
 347:source/Heavy_grillosychicharrasosc.cpp ****     }
 348:source/Heavy_grillosychicharrasosc.cpp ****   }
 349:source/Heavy_grillosychicharrasosc.cpp **** }
 350:source/Heavy_grillosychicharrasosc.cpp **** 
 351:source/Heavy_grillosychicharrasosc.cpp **** void Heavy_grillosychicharrasosc::cDelay_Yu8ay0lQ_sendMessage(HeavyContextInterface *_c, int letIn,
 352:source/Heavy_grillosychicharrasosc.cpp ****   cDelay_clearExecutingMessage(&Context(_c)->cDelay_Yu8ay0lQ, m);
 353:source/Heavy_grillosychicharrasosc.cpp ****   cDelay_onMessage(_c, &Context(_c)->cDelay_Yu8ay0lQ, 0, m, &cDelay_Yu8ay0lQ_sendMessage);
 354:source/Heavy_grillosychicharrasosc.cpp ****   cVar_onMessage(_c, &Context(_c)->cVar_eUIKfLve, 0, m, &cVar_eUIKfLve_sendMessage);
 355:source/Heavy_grillosychicharrasosc.cpp ****   cSwitchcase_PCO0VYX9_onMessage(_c, NULL, 0, m, NULL);
 356:source/Heavy_grillosychicharrasosc.cpp **** }
 357:source/Heavy_grillosychicharrasosc.cpp **** 
 358:source/Heavy_grillosychicharrasosc.cpp **** void Heavy_grillosychicharrasosc::cCast_vH7CHwhb_sendMessage(HeavyContextInterface *_c, int letIn, 
 359:source/Heavy_grillosychicharrasosc.cpp ****   cMsg_XuD0Af2d_sendMessage(_c, 0, m);
 360:source/Heavy_grillosychicharrasosc.cpp ****   cDelay_onMessage(_c, &Context(_c)->cDelay_Yu8ay0lQ, 0, m, &cDelay_Yu8ay0lQ_sendMessage);
 361:source/Heavy_grillosychicharrasosc.cpp ****   cVar_onMessage(_c, &Context(_c)->cVar_eUIKfLve, 0, m, &cVar_eUIKfLve_sendMessage);
 362:source/Heavy_grillosychicharrasosc.cpp ****   cSwitchcase_PCO0VYX9_onMessage(_c, NULL, 0, m, NULL);
 363:source/Heavy_grillosychicharrasosc.cpp **** }
 364:source/Heavy_grillosychicharrasosc.cpp **** 
 365:source/Heavy_grillosychicharrasosc.cpp **** void Heavy_grillosychicharrasosc::cMsg_RWQj5MQd_sendMessage(HeavyContextInterface *_c, int letIn, c
 366:source/Heavy_grillosychicharrasosc.cpp ****   HvMessage *m = nullptr;
 367:source/Heavy_grillosychicharrasosc.cpp ****   m = HV_MESSAGE_ON_STACK(1);
 368:source/Heavy_grillosychicharrasosc.cpp ****   msg_init(m, 1, msg_getTimestamp(n));
 369:source/Heavy_grillosychicharrasosc.cpp ****   msg_setSymbol(m, 0, "samplerate");
 370:source/Heavy_grillosychicharrasosc.cpp ****   cSystem_onMessage(_c, NULL, 0, m, &cSystem_QuSBQYIg_sendMessage);
 371:source/Heavy_grillosychicharrasosc.cpp **** }
 372:source/Heavy_grillosychicharrasosc.cpp **** 
 373:source/Heavy_grillosychicharrasosc.cpp **** void Heavy_grillosychicharrasosc::cSystem_QuSBQYIg_sendMessage(HeavyContextInterface *_c, int letIn
ARM GAS  /var/folders/fb/yfxt3z4538j6z0vjt03w70vc0000gn/T//cc7XoObz.s 			page 16


 374:source/Heavy_grillosychicharrasosc.cpp ****   cBinop_k_onMessage(_c, NULL, HV_BINOP_DIVIDE, 1000.0f, 0, m, &cBinop_A6MVYCVF_sendMessage);
 375:source/Heavy_grillosychicharrasosc.cpp **** }
 376:source/Heavy_grillosychicharrasosc.cpp **** 
 377:source/Heavy_grillosychicharrasosc.cpp **** void Heavy_grillosychicharrasosc::cVar_Nnfc7x9C_sendMessage(HeavyContextInterface *_c, int letIn, c
 378:source/Heavy_grillosychicharrasosc.cpp ****   cBinop_onMessage(_c, &Context(_c)->cBinop_whoE78sD, HV_BINOP_MULTIPLY, 0, m, &cBinop_whoE78sD_sen
 379:source/Heavy_grillosychicharrasosc.cpp **** }
 380:source/Heavy_grillosychicharrasosc.cpp **** 
 381:source/Heavy_grillosychicharrasosc.cpp **** void Heavy_grillosychicharrasosc::cMsg_XuD0Af2d_sendMessage(HeavyContextInterface *_c, int letIn, c
 382:source/Heavy_grillosychicharrasosc.cpp ****   HvMessage *m = nullptr;
 383:source/Heavy_grillosychicharrasosc.cpp ****   m = HV_MESSAGE_ON_STACK(1);
 384:source/Heavy_grillosychicharrasosc.cpp ****   msg_init(m, 1, msg_getTimestamp(n));
 385:source/Heavy_grillosychicharrasosc.cpp ****   msg_setSymbol(m, 0, "clear");
 386:source/Heavy_grillosychicharrasosc.cpp ****   cDelay_onMessage(_c, &Context(_c)->cDelay_Yu8ay0lQ, 0, m, &cDelay_Yu8ay0lQ_sendMessage);
 387:source/Heavy_grillosychicharrasosc.cpp **** }
 388:source/Heavy_grillosychicharrasosc.cpp **** 
 389:source/Heavy_grillosychicharrasosc.cpp **** void Heavy_grillosychicharrasosc::cBinop_dWrblezy_sendMessage(HeavyContextInterface *_c, int letIn,
 390:source/Heavy_grillosychicharrasosc.cpp ****   cDelay_onMessage(_c, &Context(_c)->cDelay_Yu8ay0lQ, 2, m, &cDelay_Yu8ay0lQ_sendMessage);
 391:source/Heavy_grillosychicharrasosc.cpp **** }
 392:source/Heavy_grillosychicharrasosc.cpp **** 
 393:source/Heavy_grillosychicharrasosc.cpp **** void Heavy_grillosychicharrasosc::cBinop_A6MVYCVF_sendMessage(HeavyContextInterface *_c, int letIn,
 394:source/Heavy_grillosychicharrasosc.cpp ****   cBinop_onMessage(_c, &Context(_c)->cBinop_whoE78sD, HV_BINOP_MULTIPLY, 1, m, &cBinop_whoE78sD_sen
 395:source/Heavy_grillosychicharrasosc.cpp **** }
 396:source/Heavy_grillosychicharrasosc.cpp **** 
 397:source/Heavy_grillosychicharrasosc.cpp **** void Heavy_grillosychicharrasosc::cBinop_whoE78sD_sendMessage(HeavyContextInterface *_c, int letIn,
 398:source/Heavy_grillosychicharrasosc.cpp ****   cBinop_k_onMessage(_c, NULL, HV_BINOP_MAX, 1.0f, 0, m, &cBinop_dWrblezy_sendMessage);
 399:source/Heavy_grillosychicharrasosc.cpp **** }
 400:source/Heavy_grillosychicharrasosc.cpp **** 
 401:source/Heavy_grillosychicharrasosc.cpp **** void Heavy_grillosychicharrasosc::cVar_P3KL6noN_sendMessage(HeavyContextInterface *_c, int letIn, c
 402:source/Heavy_grillosychicharrasosc.cpp ****   cBinop_k_onMessage(_c, NULL, HV_BINOP_MULTIPLY, 20.0f, 0, m, &cBinop_LNbTDWEF_sendMessage);
 403:source/Heavy_grillosychicharrasosc.cpp ****   cBinop_onMessage(_c, &Context(_c)->cBinop_hbyRQ0zt, HV_BINOP_MOD_BIPOLAR, 0, m, &cBinop_hbyRQ0zt_
 404:source/Heavy_grillosychicharrasosc.cpp **** }
 405:source/Heavy_grillosychicharrasosc.cpp **** 
 406:source/Heavy_grillosychicharrasosc.cpp **** void Heavy_grillosychicharrasosc::cVar_eUIKfLve_sendMessage(HeavyContextInterface *_c, int letIn, c
 407:source/Heavy_grillosychicharrasosc.cpp ****   cBinop_k_onMessage(_c, NULL, HV_BINOP_GREATER_THAN, 0.0f, 0, m, &cBinop_WuU3C4Lp_sendMessage);
 408:source/Heavy_grillosychicharrasosc.cpp ****   cIf_onMessage(_c, &Context(_c)->cIf_hOFE8kyf, 0, m, &cIf_hOFE8kyf_sendMessage);
 409:source/Heavy_grillosychicharrasosc.cpp **** }
 410:source/Heavy_grillosychicharrasosc.cpp **** 
 411:source/Heavy_grillosychicharrasosc.cpp **** void Heavy_grillosychicharrasosc::cUnop_7lFwUGAG_sendMessage(HeavyContextInterface *_c, int letIn, 
 412:source/Heavy_grillosychicharrasosc.cpp ****   cBinop_onMessage(_c, &Context(_c)->cBinop_F0IQVI6d, HV_BINOP_ADD, 0, m, &cBinop_F0IQVI6d_sendMess
 413:source/Heavy_grillosychicharrasosc.cpp ****   cVar_onMessage(_c, &Context(_c)->cVar_P3KL6noN, 0, m, &cVar_P3KL6noN_sendMessage);
 414:source/Heavy_grillosychicharrasosc.cpp **** }
 415:source/Heavy_grillosychicharrasosc.cpp **** 
 416:source/Heavy_grillosychicharrasosc.cpp **** void Heavy_grillosychicharrasosc::cUnop_UGP0k8lj_sendMessage(HeavyContextInterface *_c, int letIn, 
 417:source/Heavy_grillosychicharrasosc.cpp ****   cBinop_onMessage(_c, &Context(_c)->cBinop_F0IQVI6d, HV_BINOP_ADD, 0, m, &cBinop_F0IQVI6d_sendMess
 418:source/Heavy_grillosychicharrasosc.cpp ****   cVar_onMessage(_c, &Context(_c)->cVar_P3KL6noN, 0, m, &cVar_P3KL6noN_sendMessage);
 419:source/Heavy_grillosychicharrasosc.cpp **** }
 420:source/Heavy_grillosychicharrasosc.cpp **** 
 421:source/Heavy_grillosychicharrasosc.cpp **** void Heavy_grillosychicharrasosc::cIf_hOFE8kyf_sendMessage(HeavyContextInterface *_c, int letIn, co
 422:source/Heavy_grillosychicharrasosc.cpp ****   switch (letIn) {
 423:source/Heavy_grillosychicharrasosc.cpp ****     case 0: {
 424:source/Heavy_grillosychicharrasosc.cpp ****       cUnop_onMessage(_c, HV_UNOP_CEIL, m, &cUnop_UGP0k8lj_sendMessage);
 425:source/Heavy_grillosychicharrasosc.cpp ****       break;
 426:source/Heavy_grillosychicharrasosc.cpp ****     }
 427:source/Heavy_grillosychicharrasosc.cpp ****     case 1: {
 428:source/Heavy_grillosychicharrasosc.cpp ****       cUnop_onMessage(_c, HV_UNOP_FLOOR, m, &cUnop_7lFwUGAG_sendMessage);
 429:source/Heavy_grillosychicharrasosc.cpp ****       break;
 430:source/Heavy_grillosychicharrasosc.cpp ****     }
ARM GAS  /var/folders/fb/yfxt3z4538j6z0vjt03w70vc0000gn/T//cc7XoObz.s 			page 17


 431:source/Heavy_grillosychicharrasosc.cpp ****     default: return;
 432:source/Heavy_grillosychicharrasosc.cpp ****   }
 433:source/Heavy_grillosychicharrasosc.cpp **** }
 434:source/Heavy_grillosychicharrasosc.cpp **** 
 435:source/Heavy_grillosychicharrasosc.cpp **** void Heavy_grillosychicharrasosc::cBinop_WuU3C4Lp_sendMessage(HeavyContextInterface *_c, int letIn,
 436:source/Heavy_grillosychicharrasosc.cpp ****   cIf_onMessage(_c, &Context(_c)->cIf_hOFE8kyf, 1, m, &cIf_hOFE8kyf_sendMessage);
 437:source/Heavy_grillosychicharrasosc.cpp **** }
 438:source/Heavy_grillosychicharrasosc.cpp **** 
 439:source/Heavy_grillosychicharrasosc.cpp **** void Heavy_grillosychicharrasosc::cSwitchcase_mSey5KC8_onMessage(HeavyContextInterface *_c, void *o
 440:source/Heavy_grillosychicharrasosc.cpp ****   switch (msg_getHash(m, 0)) {
 441:source/Heavy_grillosychicharrasosc.cpp ****     case 0x7E64BD01: { // "seed"
 442:source/Heavy_grillosychicharrasosc.cpp ****       cSlice_onMessage(_c, &Context(_c)->cSlice_TQ5jAajU, 0, m, &cSlice_TQ5jAajU_sendMessage);
 443:source/Heavy_grillosychicharrasosc.cpp ****       break;
 444:source/Heavy_grillosychicharrasosc.cpp ****     }
 445:source/Heavy_grillosychicharrasosc.cpp ****     default: {
 446:source/Heavy_grillosychicharrasosc.cpp ****       cRandom_onMessage(_c, &Context(_c)->cRandom_v7pWLsoa, 0, m, &cRandom_v7pWLsoa_sendMessage);
 447:source/Heavy_grillosychicharrasosc.cpp ****       break;
 448:source/Heavy_grillosychicharrasosc.cpp ****     }
 449:source/Heavy_grillosychicharrasosc.cpp ****   }
 450:source/Heavy_grillosychicharrasosc.cpp **** }
 451:source/Heavy_grillosychicharrasosc.cpp **** 
 452:source/Heavy_grillosychicharrasosc.cpp **** void Heavy_grillosychicharrasosc::cBinop_7NQTkXJf_sendMessage(HeavyContextInterface *_c, int letIn,
 453:source/Heavy_grillosychicharrasosc.cpp ****   cUnop_onMessage(_c, HV_UNOP_FLOOR, m, &cUnop_QRu4amnD_sendMessage);
 454:source/Heavy_grillosychicharrasosc.cpp **** }
 455:source/Heavy_grillosychicharrasosc.cpp **** 
 456:source/Heavy_grillosychicharrasosc.cpp **** void Heavy_grillosychicharrasosc::cUnop_QRu4amnD_sendMessage(HeavyContextInterface *_c, int letIn, 
 457:source/Heavy_grillosychicharrasosc.cpp ****   cMsg_XX4B0Ylm_sendMessage(_c, 0, m);
 458:source/Heavy_grillosychicharrasosc.cpp **** }
 459:source/Heavy_grillosychicharrasosc.cpp **** 
 460:source/Heavy_grillosychicharrasosc.cpp **** void Heavy_grillosychicharrasosc::cRandom_v7pWLsoa_sendMessage(HeavyContextInterface *_c, int letIn
 461:source/Heavy_grillosychicharrasosc.cpp ****   cBinop_k_onMessage(_c, NULL, HV_BINOP_MULTIPLY, 8388610.0f, 0, m, &cBinop_7NQTkXJf_sendMessage);
 462:source/Heavy_grillosychicharrasosc.cpp **** }
 463:source/Heavy_grillosychicharrasosc.cpp **** 
 464:source/Heavy_grillosychicharrasosc.cpp **** void Heavy_grillosychicharrasosc::cSlice_TQ5jAajU_sendMessage(HeavyContextInterface *_c, int letIn,
 465:source/Heavy_grillosychicharrasosc.cpp ****   switch (letIn) {
 466:source/Heavy_grillosychicharrasosc.cpp ****     case 0: {
 467:source/Heavy_grillosychicharrasosc.cpp ****       cRandom_onMessage(_c, &Context(_c)->cRandom_v7pWLsoa, 1, m, &cRandom_v7pWLsoa_sendMessage);
 468:source/Heavy_grillosychicharrasosc.cpp ****       break;
 469:source/Heavy_grillosychicharrasosc.cpp ****     }
 470:source/Heavy_grillosychicharrasosc.cpp ****     case 1: {
 471:source/Heavy_grillosychicharrasosc.cpp ****       break;
 472:source/Heavy_grillosychicharrasosc.cpp ****     }
 473:source/Heavy_grillosychicharrasosc.cpp ****     default: return;
 474:source/Heavy_grillosychicharrasosc.cpp ****   }
 475:source/Heavy_grillosychicharrasosc.cpp **** }
 476:source/Heavy_grillosychicharrasosc.cpp **** 
 477:source/Heavy_grillosychicharrasosc.cpp **** void Heavy_grillosychicharrasosc::cMsg_XX4B0Ylm_sendMessage(HeavyContextInterface *_c, int letIn, c
 478:source/Heavy_grillosychicharrasosc.cpp ****   HvMessage *m = nullptr;
 479:source/Heavy_grillosychicharrasosc.cpp ****   m = HV_MESSAGE_ON_STACK(2);
 480:source/Heavy_grillosychicharrasosc.cpp ****   msg_init(m, 2, msg_getTimestamp(n));
 481:source/Heavy_grillosychicharrasosc.cpp ****   msg_setElementToFrom(m, 0, n, 0);
 482:source/Heavy_grillosychicharrasosc.cpp ****   msg_setFloat(m, 1, 1.0f);
 483:source/Heavy_grillosychicharrasosc.cpp ****   sVari_onMessage(_c, &Context(_c)->sVari_7VgJQjRv, m);
 484:source/Heavy_grillosychicharrasosc.cpp **** }
 485:source/Heavy_grillosychicharrasosc.cpp **** 
 486:source/Heavy_grillosychicharrasosc.cpp **** void Heavy_grillosychicharrasosc::cUnop_MvzFBJsX_sendMessage(HeavyContextInterface *_c, int letIn, 
 487:source/Heavy_grillosychicharrasosc.cpp ****   cVar_onMessage(_c, &Context(_c)->cVar_ObOUWnoI, 0, m, &cVar_ObOUWnoI_sendMessage);
ARM GAS  /var/folders/fb/yfxt3z4538j6z0vjt03w70vc0000gn/T//cc7XoObz.s 			page 18


 488:source/Heavy_grillosychicharrasosc.cpp **** }
 489:source/Heavy_grillosychicharrasosc.cpp **** 
 490:source/Heavy_grillosychicharrasosc.cpp **** void Heavy_grillosychicharrasosc::cVar_ObOUWnoI_sendMessage(HeavyContextInterface *_c, int letIn, c
 398              		.loc 3 490 119 is_stmt 1 view -0
 399              		.cfi_startproc
 400              		@ args = 0, pretend = 0, frame = 0
 401              		@ frame_needed = 0, uses_anonymous_args = 0
 402              		@ link register save eliminated.
 491:source/Heavy_grillosychicharrasosc.cpp **** }
 403              		.loc 3 491 1 is_stmt 0 view .LVU59
 404 0000 7047     		bx	lr
 405              		.cfi_endproc
 406              	.LFE1028:
 408 0002 00BF     		.section	.text._ZN27Heavy_grillosychicharrasosc13processInlineEPfS0_i,"ax",%progbits
 409              		.align	1
 410              		.p2align 2,,3
 411              		.global	_ZN27Heavy_grillosychicharrasosc13processInlineEPfS0_i
 412              		.syntax unified
 413              		.thumb
 414              		.thumb_func
 416              	_ZN27Heavy_grillosychicharrasosc13processInlineEPfS0_i:
 417              	.LVL24:
 418              	.LFB1557:
 492:source/Heavy_grillosychicharrasosc.cpp **** 
 493:source/Heavy_grillosychicharrasosc.cpp **** void Heavy_grillosychicharrasosc::cVar_mKyLpCkL_sendMessage(HeavyContextInterface *_c, int letIn, c
 494:source/Heavy_grillosychicharrasosc.cpp **** }
 495:source/Heavy_grillosychicharrasosc.cpp **** 
 496:source/Heavy_grillosychicharrasosc.cpp **** void Heavy_grillosychicharrasosc::cVar_n2TyQRTN_sendMessage(HeavyContextInterface *_c, int letIn, c
 497:source/Heavy_grillosychicharrasosc.cpp ****   cBinop_k_onMessage(_c, NULL, HV_BINOP_MAX, 0.0f, 0, m, &cBinop_xvEgfs4S_sendMessage);
 498:source/Heavy_grillosychicharrasosc.cpp **** }
 499:source/Heavy_grillosychicharrasosc.cpp **** 
 500:source/Heavy_grillosychicharrasosc.cpp **** void Heavy_grillosychicharrasosc::cVar_SQRUBity_sendMessage(HeavyContextInterface *_c, int letIn, c
 501:source/Heavy_grillosychicharrasosc.cpp ****   sPhasor_k_onMessage(_c, &Context(_c)->sPhasor_3Iq721RA, 0, m);
 502:source/Heavy_grillosychicharrasosc.cpp **** }
 503:source/Heavy_grillosychicharrasosc.cpp **** 
 504:source/Heavy_grillosychicharrasosc.cpp **** void Heavy_grillosychicharrasosc::cMsg_3iEOSrVd_sendMessage(HeavyContextInterface *_c, int letIn, c
 505:source/Heavy_grillosychicharrasosc.cpp ****   HvMessage *m = nullptr;
 506:source/Heavy_grillosychicharrasosc.cpp ****   m = HV_MESSAGE_ON_STACK(1);
 507:source/Heavy_grillosychicharrasosc.cpp ****   msg_init(m, 1, msg_getTimestamp(n));
 508:source/Heavy_grillosychicharrasosc.cpp ****   msg_setSymbol(m, 0, "samplerate");
 509:source/Heavy_grillosychicharrasosc.cpp ****   cSystem_onMessage(_c, NULL, 0, m, &cSystem_gi6wfGWj_sendMessage);
 510:source/Heavy_grillosychicharrasosc.cpp **** }
 511:source/Heavy_grillosychicharrasosc.cpp **** 
 512:source/Heavy_grillosychicharrasosc.cpp **** void Heavy_grillosychicharrasosc::cSystem_gi6wfGWj_sendMessage(HeavyContextInterface *_c, int letIn
 513:source/Heavy_grillosychicharrasosc.cpp ****   cBinop_onMessage(_c, &Context(_c)->cBinop_OfvUtCed, HV_BINOP_MULTIPLY, 1, m, &cBinop_OfvUtCed_sen
 514:source/Heavy_grillosychicharrasosc.cpp ****   cBinop_onMessage(_c, &Context(_c)->cBinop_MnWPJHoa, HV_BINOP_MULTIPLY, 1, m, &cBinop_MnWPJHoa_sen
 515:source/Heavy_grillosychicharrasosc.cpp **** }
 516:source/Heavy_grillosychicharrasosc.cpp **** 
 517:source/Heavy_grillosychicharrasosc.cpp **** void Heavy_grillosychicharrasosc::cSwitchcase_rSCzT55f_onMessage(HeavyContextInterface *_c, void *o
 518:source/Heavy_grillosychicharrasosc.cpp ****   switch (msg_getHash(m, 0)) {
 519:source/Heavy_grillosychicharrasosc.cpp ****     case 0x0: { // "0.0"
 520:source/Heavy_grillosychicharrasosc.cpp ****       cMsg_q79nJAh7_sendMessage(_c, 0, m);
 521:source/Heavy_grillosychicharrasosc.cpp ****       break;
 522:source/Heavy_grillosychicharrasosc.cpp ****     }
 523:source/Heavy_grillosychicharrasosc.cpp ****     case 0x7A5B032D: { // "stop"
 524:source/Heavy_grillosychicharrasosc.cpp ****       cMsg_q79nJAh7_sendMessage(_c, 0, m);
 525:source/Heavy_grillosychicharrasosc.cpp ****       break;
ARM GAS  /var/folders/fb/yfxt3z4538j6z0vjt03w70vc0000gn/T//cc7XoObz.s 			page 19


 526:source/Heavy_grillosychicharrasosc.cpp ****     }
 527:source/Heavy_grillosychicharrasosc.cpp ****     default: {
 528:source/Heavy_grillosychicharrasosc.cpp ****       cCast_onMessage(_c, HV_CAST_BANG, 0, m, &cCast_2KYMBCXH_sendMessage);
 529:source/Heavy_grillosychicharrasosc.cpp ****       break;
 530:source/Heavy_grillosychicharrasosc.cpp ****     }
 531:source/Heavy_grillosychicharrasosc.cpp ****   }
 532:source/Heavy_grillosychicharrasosc.cpp **** }
 533:source/Heavy_grillosychicharrasosc.cpp **** 
 534:source/Heavy_grillosychicharrasosc.cpp **** void Heavy_grillosychicharrasosc::cDelay_u22bsNJt_sendMessage(HeavyContextInterface *_c, int letIn,
 535:source/Heavy_grillosychicharrasosc.cpp ****   cDelay_clearExecutingMessage(&Context(_c)->cDelay_u22bsNJt, m);
 536:source/Heavy_grillosychicharrasosc.cpp ****   cDelay_onMessage(_c, &Context(_c)->cDelay_u22bsNJt, 0, m, &cDelay_u22bsNJt_sendMessage);
 537:source/Heavy_grillosychicharrasosc.cpp ****   cVar_onMessage(_c, &Context(_c)->cVar_b7X8kTRD, 0, m, &cVar_b7X8kTRD_sendMessage);
 538:source/Heavy_grillosychicharrasosc.cpp **** }
 539:source/Heavy_grillosychicharrasosc.cpp **** 
 540:source/Heavy_grillosychicharrasosc.cpp **** void Heavy_grillosychicharrasosc::cCast_2KYMBCXH_sendMessage(HeavyContextInterface *_c, int letIn, 
 541:source/Heavy_grillosychicharrasosc.cpp ****   cMsg_q79nJAh7_sendMessage(_c, 0, m);
 542:source/Heavy_grillosychicharrasosc.cpp ****   cDelay_onMessage(_c, &Context(_c)->cDelay_u22bsNJt, 0, m, &cDelay_u22bsNJt_sendMessage);
 543:source/Heavy_grillosychicharrasosc.cpp ****   cVar_onMessage(_c, &Context(_c)->cVar_b7X8kTRD, 0, m, &cVar_b7X8kTRD_sendMessage);
 544:source/Heavy_grillosychicharrasosc.cpp **** }
 545:source/Heavy_grillosychicharrasosc.cpp **** 
 546:source/Heavy_grillosychicharrasosc.cpp **** void Heavy_grillosychicharrasosc::cMsg_Ys5vXoGF_sendMessage(HeavyContextInterface *_c, int letIn, c
 547:source/Heavy_grillosychicharrasosc.cpp ****   HvMessage *m = nullptr;
 548:source/Heavy_grillosychicharrasosc.cpp ****   m = HV_MESSAGE_ON_STACK(1);
 549:source/Heavy_grillosychicharrasosc.cpp ****   msg_init(m, 1, msg_getTimestamp(n));
 550:source/Heavy_grillosychicharrasosc.cpp ****   msg_setSymbol(m, 0, "samplerate");
 551:source/Heavy_grillosychicharrasosc.cpp ****   cSystem_onMessage(_c, NULL, 0, m, &cSystem_8JCiD3xu_sendMessage);
 552:source/Heavy_grillosychicharrasosc.cpp **** }
 553:source/Heavy_grillosychicharrasosc.cpp **** 
 554:source/Heavy_grillosychicharrasosc.cpp **** void Heavy_grillosychicharrasosc::cSystem_8JCiD3xu_sendMessage(HeavyContextInterface *_c, int letIn
 555:source/Heavy_grillosychicharrasosc.cpp ****   cBinop_k_onMessage(_c, NULL, HV_BINOP_DIVIDE, 1000.0f, 0, m, &cBinop_lEGH7x11_sendMessage);
 556:source/Heavy_grillosychicharrasosc.cpp **** }
 557:source/Heavy_grillosychicharrasosc.cpp **** 
 558:source/Heavy_grillosychicharrasosc.cpp **** void Heavy_grillosychicharrasosc::cVar_VuUO8pOT_sendMessage(HeavyContextInterface *_c, int letIn, c
 559:source/Heavy_grillosychicharrasosc.cpp ****   cBinop_onMessage(_c, &Context(_c)->cBinop_V9kkKiuu, HV_BINOP_MULTIPLY, 0, m, &cBinop_V9kkKiuu_sen
 560:source/Heavy_grillosychicharrasosc.cpp **** }
 561:source/Heavy_grillosychicharrasosc.cpp **** 
 562:source/Heavy_grillosychicharrasosc.cpp **** void Heavy_grillosychicharrasosc::cMsg_q79nJAh7_sendMessage(HeavyContextInterface *_c, int letIn, c
 563:source/Heavy_grillosychicharrasosc.cpp ****   HvMessage *m = nullptr;
 564:source/Heavy_grillosychicharrasosc.cpp ****   m = HV_MESSAGE_ON_STACK(1);
 565:source/Heavy_grillosychicharrasosc.cpp ****   msg_init(m, 1, msg_getTimestamp(n));
 566:source/Heavy_grillosychicharrasosc.cpp ****   msg_setSymbol(m, 0, "clear");
 567:source/Heavy_grillosychicharrasosc.cpp ****   cDelay_onMessage(_c, &Context(_c)->cDelay_u22bsNJt, 0, m, &cDelay_u22bsNJt_sendMessage);
 568:source/Heavy_grillosychicharrasosc.cpp **** }
 569:source/Heavy_grillosychicharrasosc.cpp **** 
 570:source/Heavy_grillosychicharrasosc.cpp **** void Heavy_grillosychicharrasosc::cBinop_GUwf6car_sendMessage(HeavyContextInterface *_c, int letIn,
 571:source/Heavy_grillosychicharrasosc.cpp ****   cDelay_onMessage(_c, &Context(_c)->cDelay_u22bsNJt, 2, m, &cDelay_u22bsNJt_sendMessage);
 572:source/Heavy_grillosychicharrasosc.cpp **** }
 573:source/Heavy_grillosychicharrasosc.cpp **** 
 574:source/Heavy_grillosychicharrasosc.cpp **** void Heavy_grillosychicharrasosc::cBinop_lEGH7x11_sendMessage(HeavyContextInterface *_c, int letIn,
 575:source/Heavy_grillosychicharrasosc.cpp ****   cBinop_onMessage(_c, &Context(_c)->cBinop_V9kkKiuu, HV_BINOP_MULTIPLY, 1, m, &cBinop_V9kkKiuu_sen
 576:source/Heavy_grillosychicharrasosc.cpp **** }
 577:source/Heavy_grillosychicharrasosc.cpp **** 
 578:source/Heavy_grillosychicharrasosc.cpp **** void Heavy_grillosychicharrasosc::cBinop_V9kkKiuu_sendMessage(HeavyContextInterface *_c, int letIn,
 579:source/Heavy_grillosychicharrasosc.cpp ****   cBinop_k_onMessage(_c, NULL, HV_BINOP_MAX, 1.0f, 0, m, &cBinop_GUwf6car_sendMessage);
 580:source/Heavy_grillosychicharrasosc.cpp **** }
 581:source/Heavy_grillosychicharrasosc.cpp **** 
 582:source/Heavy_grillosychicharrasosc.cpp **** void Heavy_grillosychicharrasosc::cVar_b7X8kTRD_sendMessage(HeavyContextInterface *_c, int letIn, c
ARM GAS  /var/folders/fb/yfxt3z4538j6z0vjt03w70vc0000gn/T//cc7XoObz.s 			page 20


 583:source/Heavy_grillosychicharrasosc.cpp ****   cBinop_onMessage(_c, &Context(_c)->cBinop_DqCOIhPF, HV_BINOP_SUBTRACT, 0, m, &cBinop_DqCOIhPF_sen
 584:source/Heavy_grillosychicharrasosc.cpp ****   cBinop_k_onMessage(_c, NULL, HV_BINOP_LESS_THAN_EQL, 0.0f, 0, m, &cBinop_K7HGzSWC_sendMessage);
 585:source/Heavy_grillosychicharrasosc.cpp **** }
 586:source/Heavy_grillosychicharrasosc.cpp **** 
 587:source/Heavy_grillosychicharrasosc.cpp **** void Heavy_grillosychicharrasosc::cSwitchcase_1gnwmFKC_onMessage(HeavyContextInterface *_c, void *o
 588:source/Heavy_grillosychicharrasosc.cpp ****   switch (msg_getHash(m, 0)) {
 589:source/Heavy_grillosychicharrasosc.cpp ****     case 0x0: { // "0.0"
 590:source/Heavy_grillosychicharrasosc.cpp ****       cCast_onMessage(_c, HV_CAST_BANG, 0, m, &cCast_I9HGiHfh_sendMessage);
 591:source/Heavy_grillosychicharrasosc.cpp ****       break;
 592:source/Heavy_grillosychicharrasosc.cpp ****     }
 593:source/Heavy_grillosychicharrasosc.cpp ****     case 0x3F800000: { // "1.0"
 594:source/Heavy_grillosychicharrasosc.cpp ****       cCast_onMessage(_c, HV_CAST_BANG, 0, m, &cCast_0Cq6OON0_sendMessage);
 595:source/Heavy_grillosychicharrasosc.cpp ****       break;
 596:source/Heavy_grillosychicharrasosc.cpp ****     }
 597:source/Heavy_grillosychicharrasosc.cpp ****     default: {
 598:source/Heavy_grillosychicharrasosc.cpp ****       break;
 599:source/Heavy_grillosychicharrasosc.cpp ****     }
 600:source/Heavy_grillosychicharrasosc.cpp ****   }
 601:source/Heavy_grillosychicharrasosc.cpp **** }
 602:source/Heavy_grillosychicharrasosc.cpp **** 
 603:source/Heavy_grillosychicharrasosc.cpp **** void Heavy_grillosychicharrasosc::cCast_I9HGiHfh_sendMessage(HeavyContextInterface *_c, int letIn, 
 604:source/Heavy_grillosychicharrasosc.cpp ****   cVar_onMessage(_c, &Context(_c)->cVar_IaKoKe7K, 0, m, &cVar_IaKoKe7K_sendMessage);
 605:source/Heavy_grillosychicharrasosc.cpp **** }
 606:source/Heavy_grillosychicharrasosc.cpp **** 
 607:source/Heavy_grillosychicharrasosc.cpp **** void Heavy_grillosychicharrasosc::cCast_0Cq6OON0_sendMessage(HeavyContextInterface *_c, int letIn, 
 608:source/Heavy_grillosychicharrasosc.cpp ****   cCast_onMessage(_c, HV_CAST_BANG, 0, m, &cCast_Q2oXPhBt_sendMessage);
 609:source/Heavy_grillosychicharrasosc.cpp ****   cCast_onMessage(_c, HV_CAST_BANG, 0, m, &cCast_ZbtC0Rmd_sendMessage);
 610:source/Heavy_grillosychicharrasosc.cpp **** }
 611:source/Heavy_grillosychicharrasosc.cpp **** 
 612:source/Heavy_grillosychicharrasosc.cpp **** void Heavy_grillosychicharrasosc::cSwitchcase_jMqHt8CW_onMessage(HeavyContextInterface *_c, void *o
 613:source/Heavy_grillosychicharrasosc.cpp ****   switch (msg_getHash(m, 0)) {
 614:source/Heavy_grillosychicharrasosc.cpp ****     case 0x7A5B032D: { // "stop"
 615:source/Heavy_grillosychicharrasosc.cpp ****       cSlice_onMessage(_c, &Context(_c)->cSlice_suiSbvgo, 0, m, &cSlice_suiSbvgo_sendMessage);
 616:source/Heavy_grillosychicharrasosc.cpp ****       break;
 617:source/Heavy_grillosychicharrasosc.cpp ****     }
 618:source/Heavy_grillosychicharrasosc.cpp ****     case 0x3E004DAB: { // "set"
 619:source/Heavy_grillosychicharrasosc.cpp ****       cSlice_onMessage(_c, &Context(_c)->cSlice_gQaBz8x0, 0, m, &cSlice_gQaBz8x0_sendMessage);
 620:source/Heavy_grillosychicharrasosc.cpp ****       break;
 621:source/Heavy_grillosychicharrasosc.cpp ****     }
 622:source/Heavy_grillosychicharrasosc.cpp ****     default: {
 623:source/Heavy_grillosychicharrasosc.cpp ****       cCast_onMessage(_c, HV_CAST_BANG, 0, m, &cCast_B5PReqbP_sendMessage);
 624:source/Heavy_grillosychicharrasosc.cpp ****       cSlice_onMessage(_c, &Context(_c)->cSlice_AUvEPHcH, 0, m, &cSlice_AUvEPHcH_sendMessage);
 625:source/Heavy_grillosychicharrasosc.cpp ****       cSlice_onMessage(_c, &Context(_c)->cSlice_9901yvQJ, 0, m, &cSlice_9901yvQJ_sendMessage);
 626:source/Heavy_grillosychicharrasosc.cpp ****       cCast_onMessage(_c, HV_CAST_BANG, 0, m, &cCast_sTIyL0PO_sendMessage);
 627:source/Heavy_grillosychicharrasosc.cpp ****       cCast_onMessage(_c, HV_CAST_BANG, 0, m, &cCast_apMnaPfX_sendMessage);
 628:source/Heavy_grillosychicharrasosc.cpp ****       break;
 629:source/Heavy_grillosychicharrasosc.cpp ****     }
 630:source/Heavy_grillosychicharrasosc.cpp ****   }
 631:source/Heavy_grillosychicharrasosc.cpp **** }
 632:source/Heavy_grillosychicharrasosc.cpp **** 
 633:source/Heavy_grillosychicharrasosc.cpp **** void Heavy_grillosychicharrasosc::cSlice_suiSbvgo_sendMessage(HeavyContextInterface *_c, int letIn,
 634:source/Heavy_grillosychicharrasosc.cpp ****   switch (letIn) {
 635:source/Heavy_grillosychicharrasosc.cpp ****     case 0: {
 636:source/Heavy_grillosychicharrasosc.cpp ****       cMsg_LwIxeSF8_sendMessage(_c, 0, m);
 637:source/Heavy_grillosychicharrasosc.cpp ****       break;
 638:source/Heavy_grillosychicharrasosc.cpp ****     }
 639:source/Heavy_grillosychicharrasosc.cpp ****     case 1: {
ARM GAS  /var/folders/fb/yfxt3z4538j6z0vjt03w70vc0000gn/T//cc7XoObz.s 			page 21


 640:source/Heavy_grillosychicharrasosc.cpp ****       cMsg_LwIxeSF8_sendMessage(_c, 0, m);
 641:source/Heavy_grillosychicharrasosc.cpp ****       break;
 642:source/Heavy_grillosychicharrasosc.cpp ****     }
 643:source/Heavy_grillosychicharrasosc.cpp ****     default: return;
 644:source/Heavy_grillosychicharrasosc.cpp ****   }
 645:source/Heavy_grillosychicharrasosc.cpp **** }
 646:source/Heavy_grillosychicharrasosc.cpp **** 
 647:source/Heavy_grillosychicharrasosc.cpp **** void Heavy_grillosychicharrasosc::cSlice_gQaBz8x0_sendMessage(HeavyContextInterface *_c, int letIn,
 648:source/Heavy_grillosychicharrasosc.cpp ****   switch (letIn) {
 649:source/Heavy_grillosychicharrasosc.cpp ****     case 0: {
 650:source/Heavy_grillosychicharrasosc.cpp ****       cCast_onMessage(_c, HV_CAST_BANG, 0, m, &cCast_asUbGycQ_sendMessage);
 651:source/Heavy_grillosychicharrasosc.cpp ****       cCast_onMessage(_c, HV_CAST_FLOAT, 0, m, &cCast_RaaKDN2X_sendMessage);
 652:source/Heavy_grillosychicharrasosc.cpp ****       break;
 653:source/Heavy_grillosychicharrasosc.cpp ****     }
 654:source/Heavy_grillosychicharrasosc.cpp ****     case 1: {
 655:source/Heavy_grillosychicharrasosc.cpp ****       cCast_onMessage(_c, HV_CAST_BANG, 0, m, &cCast_asUbGycQ_sendMessage);
 656:source/Heavy_grillosychicharrasosc.cpp ****       cCast_onMessage(_c, HV_CAST_FLOAT, 0, m, &cCast_RaaKDN2X_sendMessage);
 657:source/Heavy_grillosychicharrasosc.cpp ****       break;
 658:source/Heavy_grillosychicharrasosc.cpp ****     }
 659:source/Heavy_grillosychicharrasosc.cpp ****     default: return;
 660:source/Heavy_grillosychicharrasosc.cpp ****   }
 661:source/Heavy_grillosychicharrasosc.cpp **** }
 662:source/Heavy_grillosychicharrasosc.cpp **** 
 663:source/Heavy_grillosychicharrasosc.cpp **** void Heavy_grillosychicharrasosc::cVar_1Go5tnsh_sendMessage(HeavyContextInterface *_c, int letIn, c
 664:source/Heavy_grillosychicharrasosc.cpp ****   cCast_onMessage(_c, HV_CAST_FLOAT, 0, m, &cCast_jj0I2Gyy_sendMessage);
 665:source/Heavy_grillosychicharrasosc.cpp ****   cCast_onMessage(_c, HV_CAST_FLOAT, 0, m, &cCast_n7BdOojc_sendMessage);
 666:source/Heavy_grillosychicharrasosc.cpp **** }
 667:source/Heavy_grillosychicharrasosc.cpp **** 
 668:source/Heavy_grillosychicharrasosc.cpp **** void Heavy_grillosychicharrasosc::cVar_XyTmFvhx_sendMessage(HeavyContextInterface *_c, int letIn, c
 669:source/Heavy_grillosychicharrasosc.cpp ****   cSwitchcase_dJJFMQQg_onMessage(_c, NULL, 0, m, NULL);
 670:source/Heavy_grillosychicharrasosc.cpp **** }
 671:source/Heavy_grillosychicharrasosc.cpp **** 
 672:source/Heavy_grillosychicharrasosc.cpp **** void Heavy_grillosychicharrasosc::cSwitchcase_dJJFMQQg_onMessage(HeavyContextInterface *_c, void *o
 673:source/Heavy_grillosychicharrasosc.cpp ****   switch (msg_getHash(m, 0)) {
 674:source/Heavy_grillosychicharrasosc.cpp ****     case 0x0: { // "0.0"
 675:source/Heavy_grillosychicharrasosc.cpp ****       cCast_onMessage(_c, HV_CAST_BANG, 0, m, &cCast_rfoxT6AR_sendMessage);
 676:source/Heavy_grillosychicharrasosc.cpp ****       break;
 677:source/Heavy_grillosychicharrasosc.cpp ****     }
 678:source/Heavy_grillosychicharrasosc.cpp ****     default: {
 679:source/Heavy_grillosychicharrasosc.cpp ****       cBinop_onMessage(_c, &Context(_c)->cBinop_OfvUtCed, HV_BINOP_MULTIPLY, 0, m, &cBinop_OfvUtCed
 680:source/Heavy_grillosychicharrasosc.cpp ****       cBinop_onMessage(_c, &Context(_c)->cBinop_mV5g0T3w, HV_BINOP_DIVIDE, 1, m, &cBinop_mV5g0T3w_s
 681:source/Heavy_grillosychicharrasosc.cpp ****       cVar_onMessage(_c, &Context(_c)->cVar_VuUO8pOT, 0, m, &cVar_VuUO8pOT_sendMessage);
 682:source/Heavy_grillosychicharrasosc.cpp ****       break;
 683:source/Heavy_grillosychicharrasosc.cpp ****     }
 684:source/Heavy_grillosychicharrasosc.cpp ****   }
 685:source/Heavy_grillosychicharrasosc.cpp **** }
 686:source/Heavy_grillosychicharrasosc.cpp **** 
 687:source/Heavy_grillosychicharrasosc.cpp **** void Heavy_grillosychicharrasosc::cCast_rfoxT6AR_sendMessage(HeavyContextInterface *_c, int letIn, 
 688:source/Heavy_grillosychicharrasosc.cpp ****   cMsg_E9AObh1O_sendMessage(_c, 0, m);
 689:source/Heavy_grillosychicharrasosc.cpp **** }
 690:source/Heavy_grillosychicharrasosc.cpp **** 
 691:source/Heavy_grillosychicharrasosc.cpp **** void Heavy_grillosychicharrasosc::cVar_yUmE2zKD_sendMessage(HeavyContextInterface *_c, int letIn, c
 692:source/Heavy_grillosychicharrasosc.cpp ****   cBinop_onMessage(_c, &Context(_c)->cBinop_6x8OpbvE, HV_BINOP_SUBTRACT, 1, m, &cBinop_6x8OpbvE_sen
 693:source/Heavy_grillosychicharrasosc.cpp **** }
 694:source/Heavy_grillosychicharrasosc.cpp **** 
 695:source/Heavy_grillosychicharrasosc.cpp **** void Heavy_grillosychicharrasosc::cVar_kumb9KeP_sendMessage(HeavyContextInterface *_c, int letIn, c
 696:source/Heavy_grillosychicharrasosc.cpp ****   cVar_onMessage(_c, &Context(_c)->cVar_IaKoKe7K, 0, m, &cVar_IaKoKe7K_sendMessage);
ARM GAS  /var/folders/fb/yfxt3z4538j6z0vjt03w70vc0000gn/T//cc7XoObz.s 			page 22


 697:source/Heavy_grillosychicharrasosc.cpp **** }
 698:source/Heavy_grillosychicharrasosc.cpp **** 
 699:source/Heavy_grillosychicharrasosc.cpp **** void Heavy_grillosychicharrasosc::cVar_IaKoKe7K_sendMessage(HeavyContextInterface *_c, int letIn, c
 700:source/Heavy_grillosychicharrasosc.cpp ****   cBinop_onMessage(_c, &Context(_c)->cBinop_6HWKc81T, HV_BINOP_ADD, 0, m, &cBinop_6HWKc81T_sendMess
 701:source/Heavy_grillosychicharrasosc.cpp ****   cBinop_onMessage(_c, &Context(_c)->cBinop_Cq97QXLx, HV_BINOP_ADD, 0, m, &cBinop_Cq97QXLx_sendMess
 702:source/Heavy_grillosychicharrasosc.cpp ****   cVar_onMessage(_c, &Context(_c)->cVar_SQRUBity, 0, m, &cVar_SQRUBity_sendMessage);
 703:source/Heavy_grillosychicharrasosc.cpp **** }
 704:source/Heavy_grillosychicharrasosc.cpp **** 
 705:source/Heavy_grillosychicharrasosc.cpp **** void Heavy_grillosychicharrasosc::cSlice_AUvEPHcH_sendMessage(HeavyContextInterface *_c, int letIn,
 706:source/Heavy_grillosychicharrasosc.cpp ****   switch (letIn) {
 707:source/Heavy_grillosychicharrasosc.cpp ****     case 0: {
 708:source/Heavy_grillosychicharrasosc.cpp ****       cCast_onMessage(_c, HV_CAST_FLOAT, 0, m, &cCast_jj0I2Gyy_sendMessage);
 709:source/Heavy_grillosychicharrasosc.cpp ****       cCast_onMessage(_c, HV_CAST_FLOAT, 0, m, &cCast_n7BdOojc_sendMessage);
 710:source/Heavy_grillosychicharrasosc.cpp ****       break;
 711:source/Heavy_grillosychicharrasosc.cpp ****     }
 712:source/Heavy_grillosychicharrasosc.cpp ****     case 1: {
 713:source/Heavy_grillosychicharrasosc.cpp ****       break;
 714:source/Heavy_grillosychicharrasosc.cpp ****     }
 715:source/Heavy_grillosychicharrasosc.cpp ****     default: return;
 716:source/Heavy_grillosychicharrasosc.cpp ****   }
 717:source/Heavy_grillosychicharrasosc.cpp **** }
 718:source/Heavy_grillosychicharrasosc.cpp **** 
 719:source/Heavy_grillosychicharrasosc.cpp **** void Heavy_grillosychicharrasosc::cSlice_9901yvQJ_sendMessage(HeavyContextInterface *_c, int letIn,
 720:source/Heavy_grillosychicharrasosc.cpp ****   switch (letIn) {
 721:source/Heavy_grillosychicharrasosc.cpp ****     case 0: {
 722:source/Heavy_grillosychicharrasosc.cpp ****       cCast_onMessage(_c, HV_CAST_FLOAT, 0, m, &cCast_LkvaFqZl_sendMessage);
 723:source/Heavy_grillosychicharrasosc.cpp ****       cCast_onMessage(_c, HV_CAST_FLOAT, 0, m, &cCast_QW4mOUH0_sendMessage);
 724:source/Heavy_grillosychicharrasosc.cpp ****       break;
 725:source/Heavy_grillosychicharrasosc.cpp ****     }
 726:source/Heavy_grillosychicharrasosc.cpp ****     case 1: {
 727:source/Heavy_grillosychicharrasosc.cpp ****       break;
 728:source/Heavy_grillosychicharrasosc.cpp ****     }
 729:source/Heavy_grillosychicharrasosc.cpp ****     default: return;
 730:source/Heavy_grillosychicharrasosc.cpp ****   }
 731:source/Heavy_grillosychicharrasosc.cpp **** }
 732:source/Heavy_grillosychicharrasosc.cpp **** 
 733:source/Heavy_grillosychicharrasosc.cpp **** void Heavy_grillosychicharrasosc::cBinop_miFiRetk_sendMessage(HeavyContextInterface *_c, int letIn,
 734:source/Heavy_grillosychicharrasosc.cpp ****   cVar_onMessage(_c, &Context(_c)->cVar_b7X8kTRD, 1, m, &cVar_b7X8kTRD_sendMessage);
 735:source/Heavy_grillosychicharrasosc.cpp **** }
 736:source/Heavy_grillosychicharrasosc.cpp **** 
 737:source/Heavy_grillosychicharrasosc.cpp **** void Heavy_grillosychicharrasosc::cBinop_MnWPJHoa_sendMessage(HeavyContextInterface *_c, int letIn,
 738:source/Heavy_grillosychicharrasosc.cpp ****   cBinop_k_onMessage(_c, NULL, HV_BINOP_DIVIDE, 1000.0f, 0, m, &cBinop_miFiRetk_sendMessage);
 739:source/Heavy_grillosychicharrasosc.cpp **** }
 740:source/Heavy_grillosychicharrasosc.cpp **** 
 741:source/Heavy_grillosychicharrasosc.cpp **** void Heavy_grillosychicharrasosc::cBinop_OfvUtCed_sendMessage(HeavyContextInterface *_c, int letIn,
 742:source/Heavy_grillosychicharrasosc.cpp ****   cBinop_k_onMessage(_c, NULL, HV_BINOP_DIVIDE, 1000.0f, 0, m, &cBinop_RwHb5AJR_sendMessage);
 743:source/Heavy_grillosychicharrasosc.cpp **** }
 744:source/Heavy_grillosychicharrasosc.cpp **** 
 745:source/Heavy_grillosychicharrasosc.cpp **** void Heavy_grillosychicharrasosc::cBinop_RwHb5AJR_sendMessage(HeavyContextInterface *_c, int letIn,
 746:source/Heavy_grillosychicharrasosc.cpp ****   cBinop_onMessage(_c, &Context(_c)->cBinop_DqCOIhPF, HV_BINOP_SUBTRACT, 1, m, &cBinop_DqCOIhPF_sen
 747:source/Heavy_grillosychicharrasosc.cpp **** }
 748:source/Heavy_grillosychicharrasosc.cpp **** 
 749:source/Heavy_grillosychicharrasosc.cpp **** void Heavy_grillosychicharrasosc::cBinop_DqCOIhPF_sendMessage(HeavyContextInterface *_c, int letIn,
 750:source/Heavy_grillosychicharrasosc.cpp ****   cVar_onMessage(_c, &Context(_c)->cVar_b7X8kTRD, 1, m, &cVar_b7X8kTRD_sendMessage);
 751:source/Heavy_grillosychicharrasosc.cpp **** }
 752:source/Heavy_grillosychicharrasosc.cpp **** 
 753:source/Heavy_grillosychicharrasosc.cpp **** void Heavy_grillosychicharrasosc::cMsg_MLSWh2ar_sendMessage(HeavyContextInterface *_c, int letIn, c
ARM GAS  /var/folders/fb/yfxt3z4538j6z0vjt03w70vc0000gn/T//cc7XoObz.s 			page 23


 754:source/Heavy_grillosychicharrasosc.cpp ****   HvMessage *m = nullptr;
 755:source/Heavy_grillosychicharrasosc.cpp ****   m = HV_MESSAGE_ON_STACK(1);
 756:source/Heavy_grillosychicharrasosc.cpp ****   msg_init(m, 1, msg_getTimestamp(n));
 757:source/Heavy_grillosychicharrasosc.cpp ****   msg_setFloat(m, 0, 1.0f);
 758:source/Heavy_grillosychicharrasosc.cpp ****   cSwitchcase_rSCzT55f_onMessage(_c, NULL, 0, m, NULL);
 759:source/Heavy_grillosychicharrasosc.cpp **** }
 760:source/Heavy_grillosychicharrasosc.cpp **** 
 761:source/Heavy_grillosychicharrasosc.cpp **** void Heavy_grillosychicharrasosc::cMsg_nt8XXNDD_sendMessage(HeavyContextInterface *_c, int letIn, c
 762:source/Heavy_grillosychicharrasosc.cpp ****   HvMessage *m = nullptr;
 763:source/Heavy_grillosychicharrasosc.cpp ****   m = HV_MESSAGE_ON_STACK(1);
 764:source/Heavy_grillosychicharrasosc.cpp ****   msg_init(m, 1, msg_getTimestamp(n));
 765:source/Heavy_grillosychicharrasosc.cpp ****   msg_setFloat(m, 0, 0.0f);
 766:source/Heavy_grillosychicharrasosc.cpp ****   cSwitchcase_rSCzT55f_onMessage(_c, NULL, 0, m, NULL);
 767:source/Heavy_grillosychicharrasosc.cpp ****   cBinop_onMessage(_c, &Context(_c)->cBinop_Cq97QXLx, HV_BINOP_ADD, 1, m, &cBinop_Cq97QXLx_sendMess
 768:source/Heavy_grillosychicharrasosc.cpp ****   cBinop_onMessage(_c, &Context(_c)->cBinop_6HWKc81T, HV_BINOP_ADD, 1, m, &cBinop_6HWKc81T_sendMess
 769:source/Heavy_grillosychicharrasosc.cpp **** }
 770:source/Heavy_grillosychicharrasosc.cpp **** 
 771:source/Heavy_grillosychicharrasosc.cpp **** void Heavy_grillosychicharrasosc::cBinop_K7HGzSWC_sendMessage(HeavyContextInterface *_c, int letIn,
 772:source/Heavy_grillosychicharrasosc.cpp ****   cSwitchcase_1gnwmFKC_onMessage(_c, NULL, 0, m, NULL);
 773:source/Heavy_grillosychicharrasosc.cpp **** }
 774:source/Heavy_grillosychicharrasosc.cpp **** 
 775:source/Heavy_grillosychicharrasosc.cpp **** void Heavy_grillosychicharrasosc::cBinop_6HWKc81T_sendMessage(HeavyContextInterface *_c, int letIn,
 776:source/Heavy_grillosychicharrasosc.cpp ****   cVar_onMessage(_c, &Context(_c)->cVar_IaKoKe7K, 1, m, &cVar_IaKoKe7K_sendMessage);
 777:source/Heavy_grillosychicharrasosc.cpp **** }
 778:source/Heavy_grillosychicharrasosc.cpp **** 
 779:source/Heavy_grillosychicharrasosc.cpp **** void Heavy_grillosychicharrasosc::cBinop_mV5g0T3w_sendMessage(HeavyContextInterface *_c, int letIn,
 780:source/Heavy_grillosychicharrasosc.cpp ****   cBinop_onMessage(_c, &Context(_c)->cBinop_2EhbrWuc, HV_BINOP_DIVIDE, 1, m, &cBinop_2EhbrWuc_sendM
 781:source/Heavy_grillosychicharrasosc.cpp **** }
 782:source/Heavy_grillosychicharrasosc.cpp **** 
 783:source/Heavy_grillosychicharrasosc.cpp **** void Heavy_grillosychicharrasosc::cBinop_2EhbrWuc_sendMessage(HeavyContextInterface *_c, int letIn,
 784:source/Heavy_grillosychicharrasosc.cpp ****   cBinop_onMessage(_c, &Context(_c)->cBinop_Cq97QXLx, HV_BINOP_ADD, 1, m, &cBinop_Cq97QXLx_sendMess
 785:source/Heavy_grillosychicharrasosc.cpp ****   cBinop_onMessage(_c, &Context(_c)->cBinop_6HWKc81T, HV_BINOP_ADD, 1, m, &cBinop_6HWKc81T_sendMess
 786:source/Heavy_grillosychicharrasosc.cpp **** }
 787:source/Heavy_grillosychicharrasosc.cpp **** 
 788:source/Heavy_grillosychicharrasosc.cpp **** void Heavy_grillosychicharrasosc::cCast_n7BdOojc_sendMessage(HeavyContextInterface *_c, int letIn, 
 789:source/Heavy_grillosychicharrasosc.cpp ****   cBinop_onMessage(_c, &Context(_c)->cBinop_mV5g0T3w, HV_BINOP_DIVIDE, 0, m, &cBinop_mV5g0T3w_sendM
 790:source/Heavy_grillosychicharrasosc.cpp **** }
 791:source/Heavy_grillosychicharrasosc.cpp **** 
 792:source/Heavy_grillosychicharrasosc.cpp **** void Heavy_grillosychicharrasosc::cCast_jj0I2Gyy_sendMessage(HeavyContextInterface *_c, int letIn, 
 793:source/Heavy_grillosychicharrasosc.cpp ****   cBinop_onMessage(_c, &Context(_c)->cBinop_MnWPJHoa, HV_BINOP_MULTIPLY, 0, m, &cBinop_MnWPJHoa_sen
 794:source/Heavy_grillosychicharrasosc.cpp **** }
 795:source/Heavy_grillosychicharrasosc.cpp **** 
 796:source/Heavy_grillosychicharrasosc.cpp **** void Heavy_grillosychicharrasosc::cCast_QW4mOUH0_sendMessage(HeavyContextInterface *_c, int letIn, 
 797:source/Heavy_grillosychicharrasosc.cpp ****   cBinop_onMessage(_c, &Context(_c)->cBinop_6x8OpbvE, HV_BINOP_SUBTRACT, 0, m, &cBinop_6x8OpbvE_sen
 798:source/Heavy_grillosychicharrasosc.cpp **** }
 799:source/Heavy_grillosychicharrasosc.cpp **** 
 800:source/Heavy_grillosychicharrasosc.cpp **** void Heavy_grillosychicharrasosc::cCast_LkvaFqZl_sendMessage(HeavyContextInterface *_c, int letIn, 
 801:source/Heavy_grillosychicharrasosc.cpp ****   cVar_onMessage(_c, &Context(_c)->cVar_kumb9KeP, 1, m, &cVar_kumb9KeP_sendMessage);
 802:source/Heavy_grillosychicharrasosc.cpp **** }
 803:source/Heavy_grillosychicharrasosc.cpp **** 
 804:source/Heavy_grillosychicharrasosc.cpp **** void Heavy_grillosychicharrasosc::cCast_Q2oXPhBt_sendMessage(HeavyContextInterface *_c, int letIn, 
 805:source/Heavy_grillosychicharrasosc.cpp ****   cMsg_nt8XXNDD_sendMessage(_c, 0, m);
 806:source/Heavy_grillosychicharrasosc.cpp **** }
 807:source/Heavy_grillosychicharrasosc.cpp **** 
 808:source/Heavy_grillosychicharrasosc.cpp **** void Heavy_grillosychicharrasosc::cCast_ZbtC0Rmd_sendMessage(HeavyContextInterface *_c, int letIn, 
 809:source/Heavy_grillosychicharrasosc.cpp ****   cVar_onMessage(_c, &Context(_c)->cVar_kumb9KeP, 0, m, &cVar_kumb9KeP_sendMessage);
 810:source/Heavy_grillosychicharrasosc.cpp **** }
ARM GAS  /var/folders/fb/yfxt3z4538j6z0vjt03w70vc0000gn/T//cc7XoObz.s 			page 24


 811:source/Heavy_grillosychicharrasosc.cpp **** 
 812:source/Heavy_grillosychicharrasosc.cpp **** void Heavy_grillosychicharrasosc::cBinop_Cq97QXLx_sendMessage(HeavyContextInterface *_c, int letIn,
 813:source/Heavy_grillosychicharrasosc.cpp ****   cVar_onMessage(_c, &Context(_c)->cVar_yUmE2zKD, 0, m, &cVar_yUmE2zKD_sendMessage);
 814:source/Heavy_grillosychicharrasosc.cpp **** }
 815:source/Heavy_grillosychicharrasosc.cpp **** 
 816:source/Heavy_grillosychicharrasosc.cpp **** void Heavy_grillosychicharrasosc::cMsg_LwIxeSF8_sendMessage(HeavyContextInterface *_c, int letIn, c
 817:source/Heavy_grillosychicharrasosc.cpp ****   HvMessage *m = nullptr;
 818:source/Heavy_grillosychicharrasosc.cpp ****   m = HV_MESSAGE_ON_STACK(1);
 819:source/Heavy_grillosychicharrasosc.cpp ****   msg_init(m, 1, msg_getTimestamp(n));
 820:source/Heavy_grillosychicharrasosc.cpp ****   msg_setFloat(m, 0, 0.0f);
 821:source/Heavy_grillosychicharrasosc.cpp ****   cSwitchcase_rSCzT55f_onMessage(_c, NULL, 0, m, NULL);
 822:source/Heavy_grillosychicharrasosc.cpp **** }
 823:source/Heavy_grillosychicharrasosc.cpp **** 
 824:source/Heavy_grillosychicharrasosc.cpp **** void Heavy_grillosychicharrasosc::cMsg_AstJS1GT_sendMessage(HeavyContextInterface *_c, int letIn, c
 825:source/Heavy_grillosychicharrasosc.cpp ****   HvMessage *m = nullptr;
 826:source/Heavy_grillosychicharrasosc.cpp ****   m = HV_MESSAGE_ON_STACK(1);
 827:source/Heavy_grillosychicharrasosc.cpp ****   msg_init(m, 1, msg_getTimestamp(n));
 828:source/Heavy_grillosychicharrasosc.cpp ****   msg_setFloat(m, 0, 0.0f);
 829:source/Heavy_grillosychicharrasosc.cpp ****   cVar_onMessage(_c, &Context(_c)->cVar_1Go5tnsh, 1, m, &cVar_1Go5tnsh_sendMessage);
 830:source/Heavy_grillosychicharrasosc.cpp **** }
 831:source/Heavy_grillosychicharrasosc.cpp **** 
 832:source/Heavy_grillosychicharrasosc.cpp **** void Heavy_grillosychicharrasosc::cBinop_xvEgfs4S_sendMessage(HeavyContextInterface *_c, int letIn,
 833:source/Heavy_grillosychicharrasosc.cpp ****   cVar_onMessage(_c, &Context(_c)->cVar_XyTmFvhx, 0, m, &cVar_XyTmFvhx_sendMessage);
 834:source/Heavy_grillosychicharrasosc.cpp **** }
 835:source/Heavy_grillosychicharrasosc.cpp **** 
 836:source/Heavy_grillosychicharrasosc.cpp **** void Heavy_grillosychicharrasosc::cMsg_E9AObh1O_sendMessage(HeavyContextInterface *_c, int letIn, c
 837:source/Heavy_grillosychicharrasosc.cpp ****   HvMessage *m = nullptr;
 838:source/Heavy_grillosychicharrasosc.cpp ****   m = HV_MESSAGE_ON_STACK(1);
 839:source/Heavy_grillosychicharrasosc.cpp ****   msg_init(m, 1, msg_getTimestamp(n));
 840:source/Heavy_grillosychicharrasosc.cpp ****   msg_setFloat(m, 0, 20.0f);
 841:source/Heavy_grillosychicharrasosc.cpp ****   cBinop_onMessage(_c, &Context(_c)->cBinop_OfvUtCed, HV_BINOP_MULTIPLY, 0, m, &cBinop_OfvUtCed_sen
 842:source/Heavy_grillosychicharrasosc.cpp ****   cBinop_onMessage(_c, &Context(_c)->cBinop_mV5g0T3w, HV_BINOP_DIVIDE, 1, m, &cBinop_mV5g0T3w_sendM
 843:source/Heavy_grillosychicharrasosc.cpp ****   cVar_onMessage(_c, &Context(_c)->cVar_VuUO8pOT, 0, m, &cVar_VuUO8pOT_sendMessage);
 844:source/Heavy_grillosychicharrasosc.cpp **** }
 845:source/Heavy_grillosychicharrasosc.cpp **** 
 846:source/Heavy_grillosychicharrasosc.cpp **** void Heavy_grillosychicharrasosc::cCast_asUbGycQ_sendMessage(HeavyContextInterface *_c, int letIn, 
 847:source/Heavy_grillosychicharrasosc.cpp ****   cMsg_LwIxeSF8_sendMessage(_c, 0, m);
 848:source/Heavy_grillosychicharrasosc.cpp **** }
 849:source/Heavy_grillosychicharrasosc.cpp **** 
 850:source/Heavy_grillosychicharrasosc.cpp **** void Heavy_grillosychicharrasosc::cCast_RaaKDN2X_sendMessage(HeavyContextInterface *_c, int letIn, 
 851:source/Heavy_grillosychicharrasosc.cpp ****   cCast_onMessage(_c, HV_CAST_BANG, 0, m, &cCast_DS1seFj6_sendMessage);
 852:source/Heavy_grillosychicharrasosc.cpp ****   cBinop_onMessage(_c, &Context(_c)->cBinop_Cq97QXLx, HV_BINOP_ADD, 0, m, &cBinop_Cq97QXLx_sendMess
 853:source/Heavy_grillosychicharrasosc.cpp ****   cVar_onMessage(_c, &Context(_c)->cVar_IaKoKe7K, 1, m, &cVar_IaKoKe7K_sendMessage);
 854:source/Heavy_grillosychicharrasosc.cpp **** }
 855:source/Heavy_grillosychicharrasosc.cpp **** 
 856:source/Heavy_grillosychicharrasosc.cpp **** void Heavy_grillosychicharrasosc::cBinop_6x8OpbvE_sendMessage(HeavyContextInterface *_c, int letIn,
 857:source/Heavy_grillosychicharrasosc.cpp ****   cBinop_onMessage(_c, &Context(_c)->cBinop_2EhbrWuc, HV_BINOP_DIVIDE, 0, m, &cBinop_2EhbrWuc_sendM
 858:source/Heavy_grillosychicharrasosc.cpp **** }
 859:source/Heavy_grillosychicharrasosc.cpp **** 
 860:source/Heavy_grillosychicharrasosc.cpp **** void Heavy_grillosychicharrasosc::cCast_DS1seFj6_sendMessage(HeavyContextInterface *_c, int letIn, 
 861:source/Heavy_grillosychicharrasosc.cpp ****   cMsg_nt8XXNDD_sendMessage(_c, 0, m);
 862:source/Heavy_grillosychicharrasosc.cpp **** }
 863:source/Heavy_grillosychicharrasosc.cpp **** 
 864:source/Heavy_grillosychicharrasosc.cpp **** void Heavy_grillosychicharrasosc::cCast_B5PReqbP_sendMessage(HeavyContextInterface *_c, int letIn, 
 865:source/Heavy_grillosychicharrasosc.cpp ****   cVar_onMessage(_c, &Context(_c)->cVar_1Go5tnsh, 0, m, &cVar_1Go5tnsh_sendMessage);
 866:source/Heavy_grillosychicharrasosc.cpp **** }
 867:source/Heavy_grillosychicharrasosc.cpp **** 
ARM GAS  /var/folders/fb/yfxt3z4538j6z0vjt03w70vc0000gn/T//cc7XoObz.s 			page 25


 868:source/Heavy_grillosychicharrasosc.cpp **** void Heavy_grillosychicharrasosc::cCast_sTIyL0PO_sendMessage(HeavyContextInterface *_c, int letIn, 
 869:source/Heavy_grillosychicharrasosc.cpp ****   cMsg_MLSWh2ar_sendMessage(_c, 0, m);
 870:source/Heavy_grillosychicharrasosc.cpp **** }
 871:source/Heavy_grillosychicharrasosc.cpp **** 
 872:source/Heavy_grillosychicharrasosc.cpp **** void Heavy_grillosychicharrasosc::cCast_apMnaPfX_sendMessage(HeavyContextInterface *_c, int letIn, 
 873:source/Heavy_grillosychicharrasosc.cpp ****   cMsg_AstJS1GT_sendMessage(_c, 0, m);
 874:source/Heavy_grillosychicharrasosc.cpp **** }
 875:source/Heavy_grillosychicharrasosc.cpp **** 
 876:source/Heavy_grillosychicharrasosc.cpp **** void Heavy_grillosychicharrasosc::cSwitchcase_0E56Ry9P_onMessage(HeavyContextInterface *_c, void *o
 877:source/Heavy_grillosychicharrasosc.cpp ****   switch (msg_getHash(m, 0)) {
 878:source/Heavy_grillosychicharrasosc.cpp ****     case 0x7E64BD01: { // "seed"
 879:source/Heavy_grillosychicharrasosc.cpp ****       cSlice_onMessage(_c, &Context(_c)->cSlice_sZfVq8jD, 0, m, &cSlice_sZfVq8jD_sendMessage);
 880:source/Heavy_grillosychicharrasosc.cpp ****       break;
 881:source/Heavy_grillosychicharrasosc.cpp ****     }
 882:source/Heavy_grillosychicharrasosc.cpp ****     default: {
 883:source/Heavy_grillosychicharrasosc.cpp ****       cRandom_onMessage(_c, &Context(_c)->cRandom_cBjjgoSs, 0, m, &cRandom_cBjjgoSs_sendMessage);
 884:source/Heavy_grillosychicharrasosc.cpp ****       break;
 885:source/Heavy_grillosychicharrasosc.cpp ****     }
 886:source/Heavy_grillosychicharrasosc.cpp ****   }
 887:source/Heavy_grillosychicharrasosc.cpp **** }
 888:source/Heavy_grillosychicharrasosc.cpp **** 
 889:source/Heavy_grillosychicharrasosc.cpp **** void Heavy_grillosychicharrasosc::cBinop_07Fccqhv_sendMessage(HeavyContextInterface *_c, int letIn,
 890:source/Heavy_grillosychicharrasosc.cpp ****   cUnop_onMessage(_c, HV_UNOP_FLOOR, m, &cUnop_W4LTFttb_sendMessage);
 891:source/Heavy_grillosychicharrasosc.cpp **** }
 892:source/Heavy_grillosychicharrasosc.cpp **** 
 893:source/Heavy_grillosychicharrasosc.cpp **** void Heavy_grillosychicharrasosc::cUnop_W4LTFttb_sendMessage(HeavyContextInterface *_c, int letIn, 
 894:source/Heavy_grillosychicharrasosc.cpp ****   cBinop_onMessage(_c, &Context(_c)->cBinop_hbyRQ0zt, HV_BINOP_MOD_BIPOLAR, 1, m, &cBinop_hbyRQ0zt_
 895:source/Heavy_grillosychicharrasosc.cpp ****   cVar_onMessage(_c, &Context(_c)->cVar_n2TyQRTN, 0, m, &cVar_n2TyQRTN_sendMessage);
 896:source/Heavy_grillosychicharrasosc.cpp **** }
 897:source/Heavy_grillosychicharrasosc.cpp **** 
 898:source/Heavy_grillosychicharrasosc.cpp **** void Heavy_grillosychicharrasosc::cRandom_cBjjgoSs_sendMessage(HeavyContextInterface *_c, int letIn
 899:source/Heavy_grillosychicharrasosc.cpp ****   cBinop_k_onMessage(_c, NULL, HV_BINOP_MULTIPLY, 20.0f, 0, m, &cBinop_07Fccqhv_sendMessage);
 900:source/Heavy_grillosychicharrasosc.cpp **** }
 901:source/Heavy_grillosychicharrasosc.cpp **** 
 902:source/Heavy_grillosychicharrasosc.cpp **** void Heavy_grillosychicharrasosc::cSlice_sZfVq8jD_sendMessage(HeavyContextInterface *_c, int letIn,
 903:source/Heavy_grillosychicharrasosc.cpp ****   switch (letIn) {
 904:source/Heavy_grillosychicharrasosc.cpp ****     case 0: {
 905:source/Heavy_grillosychicharrasosc.cpp ****       cRandom_onMessage(_c, &Context(_c)->cRandom_cBjjgoSs, 1, m, &cRandom_cBjjgoSs_sendMessage);
 906:source/Heavy_grillosychicharrasosc.cpp ****       break;
 907:source/Heavy_grillosychicharrasosc.cpp ****     }
 908:source/Heavy_grillosychicharrasosc.cpp ****     case 1: {
 909:source/Heavy_grillosychicharrasosc.cpp ****       break;
 910:source/Heavy_grillosychicharrasosc.cpp ****     }
 911:source/Heavy_grillosychicharrasosc.cpp ****     default: return;
 912:source/Heavy_grillosychicharrasosc.cpp ****   }
 913:source/Heavy_grillosychicharrasosc.cpp **** }
 914:source/Heavy_grillosychicharrasosc.cpp **** 
 915:source/Heavy_grillosychicharrasosc.cpp **** void Heavy_grillosychicharrasosc::cMsg_waQ539xS_sendMessage(HeavyContextInterface *_c, int letIn, c
 916:source/Heavy_grillosychicharrasosc.cpp ****   HvMessage *m = nullptr;
 917:source/Heavy_grillosychicharrasosc.cpp ****   m = HV_MESSAGE_ON_STACK(1);
 918:source/Heavy_grillosychicharrasosc.cpp ****   msg_init(m, 1, msg_getTimestamp(n));
 919:source/Heavy_grillosychicharrasosc.cpp ****   msg_setSymbol(m, 0, "samplerate");
 920:source/Heavy_grillosychicharrasosc.cpp ****   cSystem_onMessage(_c, NULL, 0, m, &cSystem_OHJwD2Ih_sendMessage);
 921:source/Heavy_grillosychicharrasosc.cpp **** }
 922:source/Heavy_grillosychicharrasosc.cpp **** 
 923:source/Heavy_grillosychicharrasosc.cpp **** void Heavy_grillosychicharrasosc::cSystem_OHJwD2Ih_sendMessage(HeavyContextInterface *_c, int letIn
 924:source/Heavy_grillosychicharrasosc.cpp ****   cBinop_onMessage(_c, &Context(_c)->cBinop_LwzhYklL, HV_BINOP_DIVIDE, 1, m, &cBinop_LwzhYklL_sendM
ARM GAS  /var/folders/fb/yfxt3z4538j6z0vjt03w70vc0000gn/T//cc7XoObz.s 			page 26


 925:source/Heavy_grillosychicharrasosc.cpp **** }
 926:source/Heavy_grillosychicharrasosc.cpp **** 
 927:source/Heavy_grillosychicharrasosc.cpp **** void Heavy_grillosychicharrasosc::cVar_9qp5BItd_sendMessage(HeavyContextInterface *_c, int letIn, c
 928:source/Heavy_grillosychicharrasosc.cpp ****   cBinop_k_onMessage(_c, NULL, HV_BINOP_MULTIPLY, 6.28319f, 0, m, &cBinop_g0xgEbCg_sendMessage);
 929:source/Heavy_grillosychicharrasosc.cpp **** }
 930:source/Heavy_grillosychicharrasosc.cpp **** 
 931:source/Heavy_grillosychicharrasosc.cpp **** void Heavy_grillosychicharrasosc::cVar_R45Qg3wP_sendMessage(HeavyContextInterface *_c, int letIn, c
 932:source/Heavy_grillosychicharrasosc.cpp ****   cBinop_k_onMessage(_c, NULL, HV_BINOP_MAX, 0.001f, 0, m, &cBinop_NYxrAlj3_sendMessage);
 933:source/Heavy_grillosychicharrasosc.cpp **** }
 934:source/Heavy_grillosychicharrasosc.cpp **** 
 935:source/Heavy_grillosychicharrasosc.cpp **** void Heavy_grillosychicharrasosc::cUnop_Vktpfbd8_sendMessage(HeavyContextInterface *_c, int letIn, 
 936:source/Heavy_grillosychicharrasosc.cpp ****   cBinop_k_onMessage(_c, NULL, HV_BINOP_MULTIPLY, 2.0f, 0, m, &cBinop_eogoMDMN_sendMessage);
 937:source/Heavy_grillosychicharrasosc.cpp **** }
 938:source/Heavy_grillosychicharrasosc.cpp **** 
 939:source/Heavy_grillosychicharrasosc.cpp **** void Heavy_grillosychicharrasosc::cBinop_LwzhYklL_sendMessage(HeavyContextInterface *_c, int letIn,
 940:source/Heavy_grillosychicharrasosc.cpp ****   cBinop_onMessage(_c, &Context(_c)->cBinop_yip3Mvj2, HV_BINOP_MULTIPLY, 1, m, &cBinop_yip3Mvj2_sen
 941:source/Heavy_grillosychicharrasosc.cpp ****   cUnop_onMessage(_c, HV_UNOP_COS, m, &cUnop_Vktpfbd8_sendMessage);
 942:source/Heavy_grillosychicharrasosc.cpp ****   cBinop_onMessage(_c, &Context(_c)->cBinop_6vxLx8Vr, HV_BINOP_DIVIDE, 0, m, &cBinop_6vxLx8Vr_sendM
 943:source/Heavy_grillosychicharrasosc.cpp **** }
 944:source/Heavy_grillosychicharrasosc.cpp **** 
 945:source/Heavy_grillosychicharrasosc.cpp **** void Heavy_grillosychicharrasosc::cBinop_g0xgEbCg_sendMessage(HeavyContextInterface *_c, int letIn,
 946:source/Heavy_grillosychicharrasosc.cpp ****   cBinop_onMessage(_c, &Context(_c)->cBinop_LwzhYklL, HV_BINOP_DIVIDE, 0, m, &cBinop_LwzhYklL_sendM
 947:source/Heavy_grillosychicharrasosc.cpp **** }
 948:source/Heavy_grillosychicharrasosc.cpp **** 
 949:source/Heavy_grillosychicharrasosc.cpp **** void Heavy_grillosychicharrasosc::cBinop_6vxLx8Vr_sendMessage(HeavyContextInterface *_c, int letIn,
 950:source/Heavy_grillosychicharrasosc.cpp ****   cBinop_k_onMessage(_c, NULL, HV_BINOP_MIN, 1.0f, 0, m, &cBinop_KWQ8SFiE_sendMessage);
 951:source/Heavy_grillosychicharrasosc.cpp **** }
 952:source/Heavy_grillosychicharrasosc.cpp **** 
 953:source/Heavy_grillosychicharrasosc.cpp **** void Heavy_grillosychicharrasosc::cBinop_LYXvGp3l_sendMessage(HeavyContextInterface *_c, int letIn,
 954:source/Heavy_grillosychicharrasosc.cpp ****   cBinop_k_onMessage(_c, NULL, HV_BINOP_ADD, 1.0f, 0, m, &cBinop_Wsj5boRx_sendMessage);
 955:source/Heavy_grillosychicharrasosc.cpp **** }
 956:source/Heavy_grillosychicharrasosc.cpp **** 
 957:source/Heavy_grillosychicharrasosc.cpp **** void Heavy_grillosychicharrasosc::cBinop_Wsj5boRx_sendMessage(HeavyContextInterface *_c, int letIn,
 958:source/Heavy_grillosychicharrasosc.cpp ****   cBinop_k_onMessage(_c, NULL, HV_BINOP_POW, 2.0f, 0, m, &cBinop_c0YyRIgN_sendMessage);
 959:source/Heavy_grillosychicharrasosc.cpp ****   cBinop_onMessage(_c, &Context(_c)->cBinop_K7ebZwft, HV_BINOP_MULTIPLY, 0, m, &cBinop_K7ebZwft_sen
 960:source/Heavy_grillosychicharrasosc.cpp ****   cBinop_onMessage(_c, &Context(_c)->cBinop_yip3Mvj2, HV_BINOP_MULTIPLY, 0, m, &cBinop_yip3Mvj2_sen
 961:source/Heavy_grillosychicharrasosc.cpp **** }
 962:source/Heavy_grillosychicharrasosc.cpp **** 
 963:source/Heavy_grillosychicharrasosc.cpp **** void Heavy_grillosychicharrasosc::cBinop_eogoMDMN_sendMessage(HeavyContextInterface *_c, int letIn,
 964:source/Heavy_grillosychicharrasosc.cpp ****   cBinop_onMessage(_c, &Context(_c)->cBinop_K7ebZwft, HV_BINOP_MULTIPLY, 1, m, &cBinop_K7ebZwft_sen
 965:source/Heavy_grillosychicharrasosc.cpp **** }
 966:source/Heavy_grillosychicharrasosc.cpp **** 
 967:source/Heavy_grillosychicharrasosc.cpp **** void Heavy_grillosychicharrasosc::cBinop_K7ebZwft_sendMessage(HeavyContextInterface *_c, int letIn,
 968:source/Heavy_grillosychicharrasosc.cpp ****   cBinop_k_onMessage(_c, NULL, HV_BINOP_MULTIPLY, -1.0f, 0, m, &cBinop_OAggoaE2_sendMessage);
 969:source/Heavy_grillosychicharrasosc.cpp **** }
 970:source/Heavy_grillosychicharrasosc.cpp **** 
 971:source/Heavy_grillosychicharrasosc.cpp **** void Heavy_grillosychicharrasosc::cCast_YvzUZ60u_sendMessage(HeavyContextInterface *_c, int letIn, 
 972:source/Heavy_grillosychicharrasosc.cpp ****   cVar_onMessage(_c, &Context(_c)->cVar_9qp5BItd, 0, m, &cVar_9qp5BItd_sendMessage);
 973:source/Heavy_grillosychicharrasosc.cpp **** }
 974:source/Heavy_grillosychicharrasosc.cpp **** 
 975:source/Heavy_grillosychicharrasosc.cpp **** void Heavy_grillosychicharrasosc::cBinop_5rhoA3ga_sendMessage(HeavyContextInterface *_c, int letIn,
 976:source/Heavy_grillosychicharrasosc.cpp ****   cBinop_k_onMessage(_c, NULL, HV_BINOP_MULTIPLY, -1.0f, 0, m, &cBinop_eRBgk2p4_sendMessage);
 977:source/Heavy_grillosychicharrasosc.cpp **** }
 978:source/Heavy_grillosychicharrasosc.cpp **** 
 979:source/Heavy_grillosychicharrasosc.cpp **** void Heavy_grillosychicharrasosc::cBinop_eRBgk2p4_sendMessage(HeavyContextInterface *_c, int letIn,
 980:source/Heavy_grillosychicharrasosc.cpp ****   sBiquad_k_onMessage(&Context(_c)->sBiquad_k_nGDESKZU, 5, m);
 981:source/Heavy_grillosychicharrasosc.cpp **** }
ARM GAS  /var/folders/fb/yfxt3z4538j6z0vjt03w70vc0000gn/T//cc7XoObz.s 			page 27


 982:source/Heavy_grillosychicharrasosc.cpp **** 
 983:source/Heavy_grillosychicharrasosc.cpp **** void Heavy_grillosychicharrasosc::cBinop_OAggoaE2_sendMessage(HeavyContextInterface *_c, int letIn,
 984:source/Heavy_grillosychicharrasosc.cpp ****   sBiquad_k_onMessage(&Context(_c)->sBiquad_k_nGDESKZU, 4, m);
 985:source/Heavy_grillosychicharrasosc.cpp **** }
 986:source/Heavy_grillosychicharrasosc.cpp **** 
 987:source/Heavy_grillosychicharrasosc.cpp **** void Heavy_grillosychicharrasosc::cBinop_sBYYDrxv_sendMessage(HeavyContextInterface *_c, int letIn,
 988:source/Heavy_grillosychicharrasosc.cpp ****   cBinop_onMessage(_c, &Context(_c)->cBinop_shVLnjCS, HV_BINOP_MULTIPLY, 0, m, &cBinop_shVLnjCS_sen
 989:source/Heavy_grillosychicharrasosc.cpp **** }
 990:source/Heavy_grillosychicharrasosc.cpp **** 
 991:source/Heavy_grillosychicharrasosc.cpp **** void Heavy_grillosychicharrasosc::cBinop_yip3Mvj2_sendMessage(HeavyContextInterface *_c, int letIn,
 992:source/Heavy_grillosychicharrasosc.cpp ****   cBinop_onMessage(_c, &Context(_c)->cBinop_wmR3cs6y, HV_BINOP_ADD, 1, m, &cBinop_wmR3cs6y_sendMess
 993:source/Heavy_grillosychicharrasosc.cpp **** }
 994:source/Heavy_grillosychicharrasosc.cpp **** 
 995:source/Heavy_grillosychicharrasosc.cpp **** void Heavy_grillosychicharrasosc::cBinop_c0YyRIgN_sendMessage(HeavyContextInterface *_c, int letIn,
 996:source/Heavy_grillosychicharrasosc.cpp ****   cBinop_k_onMessage(_c, NULL, HV_BINOP_MULTIPLY, -1.0f, 0, m, &cBinop_5rhoA3ga_sendMessage);
 997:source/Heavy_grillosychicharrasosc.cpp **** }
 998:source/Heavy_grillosychicharrasosc.cpp **** 
 999:source/Heavy_grillosychicharrasosc.cpp **** void Heavy_grillosychicharrasosc::cBinop_wmR3cs6y_sendMessage(HeavyContextInterface *_c, int letIn,
1000:source/Heavy_grillosychicharrasosc.cpp ****   cBinop_onMessage(_c, &Context(_c)->cBinop_shVLnjCS, HV_BINOP_MULTIPLY, 1, m, &cBinop_shVLnjCS_sen
1001:source/Heavy_grillosychicharrasosc.cpp **** }
1002:source/Heavy_grillosychicharrasosc.cpp **** 
1003:source/Heavy_grillosychicharrasosc.cpp **** void Heavy_grillosychicharrasosc::cBinop_shVLnjCS_sendMessage(HeavyContextInterface *_c, int letIn,
1004:source/Heavy_grillosychicharrasosc.cpp ****   sBiquad_k_onMessage(&Context(_c)->sBiquad_k_nGDESKZU, 1, m);
1005:source/Heavy_grillosychicharrasosc.cpp **** }
1006:source/Heavy_grillosychicharrasosc.cpp **** 
1007:source/Heavy_grillosychicharrasosc.cpp **** void Heavy_grillosychicharrasosc::cBinop_NYxrAlj3_sendMessage(HeavyContextInterface *_c, int letIn,
1008:source/Heavy_grillosychicharrasosc.cpp ****   cBinop_onMessage(_c, &Context(_c)->cBinop_6vxLx8Vr, HV_BINOP_DIVIDE, 1, m, &cBinop_6vxLx8Vr_sendM
1009:source/Heavy_grillosychicharrasosc.cpp **** }
1010:source/Heavy_grillosychicharrasosc.cpp **** 
1011:source/Heavy_grillosychicharrasosc.cpp **** void Heavy_grillosychicharrasosc::cBinop_KWQ8SFiE_sendMessage(HeavyContextInterface *_c, int letIn,
1012:source/Heavy_grillosychicharrasosc.cpp ****   cBinop_k_onMessage(_c, NULL, HV_BINOP_MULTIPLY, -1.0f, 0, m, &cBinop_LYXvGp3l_sendMessage);
1013:source/Heavy_grillosychicharrasosc.cpp ****   cBinop_onMessage(_c, &Context(_c)->cBinop_wmR3cs6y, HV_BINOP_ADD, 0, m, &cBinop_wmR3cs6y_sendMess
1014:source/Heavy_grillosychicharrasosc.cpp ****   cBinop_k_onMessage(_c, NULL, HV_BINOP_MULTIPLY, 2.0f, 0, m, &cBinop_sBYYDrxv_sendMessage);
1015:source/Heavy_grillosychicharrasosc.cpp **** }
1016:source/Heavy_grillosychicharrasosc.cpp **** 
1017:source/Heavy_grillosychicharrasosc.cpp **** void Heavy_grillosychicharrasosc::cMsg_vlwLyyMZ_sendMessage(HeavyContextInterface *_c, int letIn, c
1018:source/Heavy_grillosychicharrasosc.cpp ****   HvMessage *m = nullptr;
1019:source/Heavy_grillosychicharrasosc.cpp ****   m = HV_MESSAGE_ON_STACK(1);
1020:source/Heavy_grillosychicharrasosc.cpp ****   msg_init(m, 1, msg_getTimestamp(n));
1021:source/Heavy_grillosychicharrasosc.cpp ****   msg_setSymbol(m, 0, "samplerate");
1022:source/Heavy_grillosychicharrasosc.cpp ****   cSystem_onMessage(_c, NULL, 0, m, &cSystem_Q2YtODBe_sendMessage);
1023:source/Heavy_grillosychicharrasosc.cpp **** }
1024:source/Heavy_grillosychicharrasosc.cpp **** 
1025:source/Heavy_grillosychicharrasosc.cpp **** void Heavy_grillosychicharrasosc::cSystem_Q2YtODBe_sendMessage(HeavyContextInterface *_c, int letIn
1026:source/Heavy_grillosychicharrasosc.cpp ****   cBinop_onMessage(_c, &Context(_c)->cBinop_HkobI4YQ, HV_BINOP_MULTIPLY, 1, m, &cBinop_HkobI4YQ_sen
1027:source/Heavy_grillosychicharrasosc.cpp ****   cBinop_onMessage(_c, &Context(_c)->cBinop_NWGmmZbL, HV_BINOP_MULTIPLY, 1, m, &cBinop_NWGmmZbL_sen
1028:source/Heavy_grillosychicharrasosc.cpp **** }
1029:source/Heavy_grillosychicharrasosc.cpp **** 
1030:source/Heavy_grillosychicharrasosc.cpp **** void Heavy_grillosychicharrasosc::cSwitchcase_FXYnpodj_onMessage(HeavyContextInterface *_c, void *o
1031:source/Heavy_grillosychicharrasosc.cpp ****   switch (msg_getHash(m, 0)) {
1032:source/Heavy_grillosychicharrasosc.cpp ****     case 0x0: { // "0.0"
1033:source/Heavy_grillosychicharrasosc.cpp ****       cMsg_J14XC6HZ_sendMessage(_c, 0, m);
1034:source/Heavy_grillosychicharrasosc.cpp ****       break;
1035:source/Heavy_grillosychicharrasosc.cpp ****     }
1036:source/Heavy_grillosychicharrasosc.cpp ****     case 0x7A5B032D: { // "stop"
1037:source/Heavy_grillosychicharrasosc.cpp ****       cMsg_J14XC6HZ_sendMessage(_c, 0, m);
1038:source/Heavy_grillosychicharrasosc.cpp ****       break;
ARM GAS  /var/folders/fb/yfxt3z4538j6z0vjt03w70vc0000gn/T//cc7XoObz.s 			page 28


1039:source/Heavy_grillosychicharrasosc.cpp ****     }
1040:source/Heavy_grillosychicharrasosc.cpp ****     default: {
1041:source/Heavy_grillosychicharrasosc.cpp ****       cCast_onMessage(_c, HV_CAST_BANG, 0, m, &cCast_Vr5tWdRJ_sendMessage);
1042:source/Heavy_grillosychicharrasosc.cpp ****       break;
1043:source/Heavy_grillosychicharrasosc.cpp ****     }
1044:source/Heavy_grillosychicharrasosc.cpp ****   }
1045:source/Heavy_grillosychicharrasosc.cpp **** }
1046:source/Heavy_grillosychicharrasosc.cpp **** 
1047:source/Heavy_grillosychicharrasosc.cpp **** void Heavy_grillosychicharrasosc::cDelay_3RJCOYcc_sendMessage(HeavyContextInterface *_c, int letIn,
1048:source/Heavy_grillosychicharrasosc.cpp ****   cDelay_clearExecutingMessage(&Context(_c)->cDelay_3RJCOYcc, m);
1049:source/Heavy_grillosychicharrasosc.cpp ****   cDelay_onMessage(_c, &Context(_c)->cDelay_3RJCOYcc, 0, m, &cDelay_3RJCOYcc_sendMessage);
1050:source/Heavy_grillosychicharrasosc.cpp ****   cVar_onMessage(_c, &Context(_c)->cVar_bfBrGQS9, 0, m, &cVar_bfBrGQS9_sendMessage);
1051:source/Heavy_grillosychicharrasosc.cpp **** }
1052:source/Heavy_grillosychicharrasosc.cpp **** 
1053:source/Heavy_grillosychicharrasosc.cpp **** void Heavy_grillosychicharrasosc::cCast_Vr5tWdRJ_sendMessage(HeavyContextInterface *_c, int letIn, 
1054:source/Heavy_grillosychicharrasosc.cpp ****   cMsg_J14XC6HZ_sendMessage(_c, 0, m);
1055:source/Heavy_grillosychicharrasosc.cpp ****   cDelay_onMessage(_c, &Context(_c)->cDelay_3RJCOYcc, 0, m, &cDelay_3RJCOYcc_sendMessage);
1056:source/Heavy_grillosychicharrasosc.cpp ****   cVar_onMessage(_c, &Context(_c)->cVar_bfBrGQS9, 0, m, &cVar_bfBrGQS9_sendMessage);
1057:source/Heavy_grillosychicharrasosc.cpp **** }
1058:source/Heavy_grillosychicharrasosc.cpp **** 
1059:source/Heavy_grillosychicharrasosc.cpp **** void Heavy_grillosychicharrasosc::cMsg_M5qb9FJm_sendMessage(HeavyContextInterface *_c, int letIn, c
1060:source/Heavy_grillosychicharrasosc.cpp ****   HvMessage *m = nullptr;
1061:source/Heavy_grillosychicharrasosc.cpp ****   m = HV_MESSAGE_ON_STACK(1);
1062:source/Heavy_grillosychicharrasosc.cpp ****   msg_init(m, 1, msg_getTimestamp(n));
1063:source/Heavy_grillosychicharrasosc.cpp ****   msg_setSymbol(m, 0, "samplerate");
1064:source/Heavy_grillosychicharrasosc.cpp ****   cSystem_onMessage(_c, NULL, 0, m, &cSystem_6UaQ42gt_sendMessage);
1065:source/Heavy_grillosychicharrasosc.cpp **** }
1066:source/Heavy_grillosychicharrasosc.cpp **** 
1067:source/Heavy_grillosychicharrasosc.cpp **** void Heavy_grillosychicharrasosc::cSystem_6UaQ42gt_sendMessage(HeavyContextInterface *_c, int letIn
1068:source/Heavy_grillosychicharrasosc.cpp ****   cBinop_k_onMessage(_c, NULL, HV_BINOP_DIVIDE, 1000.0f, 0, m, &cBinop_yDPQIzrg_sendMessage);
1069:source/Heavy_grillosychicharrasosc.cpp **** }
1070:source/Heavy_grillosychicharrasosc.cpp **** 
1071:source/Heavy_grillosychicharrasosc.cpp **** void Heavy_grillosychicharrasosc::cVar_cZOROno5_sendMessage(HeavyContextInterface *_c, int letIn, c
1072:source/Heavy_grillosychicharrasosc.cpp ****   cBinop_onMessage(_c, &Context(_c)->cBinop_PKYneWMg, HV_BINOP_MULTIPLY, 0, m, &cBinop_PKYneWMg_sen
1073:source/Heavy_grillosychicharrasosc.cpp **** }
1074:source/Heavy_grillosychicharrasosc.cpp **** 
1075:source/Heavy_grillosychicharrasosc.cpp **** void Heavy_grillosychicharrasosc::cMsg_J14XC6HZ_sendMessage(HeavyContextInterface *_c, int letIn, c
1076:source/Heavy_grillosychicharrasosc.cpp ****   HvMessage *m = nullptr;
1077:source/Heavy_grillosychicharrasosc.cpp ****   m = HV_MESSAGE_ON_STACK(1);
1078:source/Heavy_grillosychicharrasosc.cpp ****   msg_init(m, 1, msg_getTimestamp(n));
1079:source/Heavy_grillosychicharrasosc.cpp ****   msg_setSymbol(m, 0, "clear");
1080:source/Heavy_grillosychicharrasosc.cpp ****   cDelay_onMessage(_c, &Context(_c)->cDelay_3RJCOYcc, 0, m, &cDelay_3RJCOYcc_sendMessage);
1081:source/Heavy_grillosychicharrasosc.cpp **** }
1082:source/Heavy_grillosychicharrasosc.cpp **** 
1083:source/Heavy_grillosychicharrasosc.cpp **** void Heavy_grillosychicharrasosc::cBinop_S6u3ul1z_sendMessage(HeavyContextInterface *_c, int letIn,
1084:source/Heavy_grillosychicharrasosc.cpp ****   cDelay_onMessage(_c, &Context(_c)->cDelay_3RJCOYcc, 2, m, &cDelay_3RJCOYcc_sendMessage);
1085:source/Heavy_grillosychicharrasosc.cpp **** }
1086:source/Heavy_grillosychicharrasosc.cpp **** 
1087:source/Heavy_grillosychicharrasosc.cpp **** void Heavy_grillosychicharrasosc::cBinop_yDPQIzrg_sendMessage(HeavyContextInterface *_c, int letIn,
1088:source/Heavy_grillosychicharrasosc.cpp ****   cBinop_onMessage(_c, &Context(_c)->cBinop_PKYneWMg, HV_BINOP_MULTIPLY, 1, m, &cBinop_PKYneWMg_sen
1089:source/Heavy_grillosychicharrasosc.cpp **** }
1090:source/Heavy_grillosychicharrasosc.cpp **** 
1091:source/Heavy_grillosychicharrasosc.cpp **** void Heavy_grillosychicharrasosc::cBinop_PKYneWMg_sendMessage(HeavyContextInterface *_c, int letIn,
1092:source/Heavy_grillosychicharrasosc.cpp ****   cBinop_k_onMessage(_c, NULL, HV_BINOP_MAX, 1.0f, 0, m, &cBinop_S6u3ul1z_sendMessage);
1093:source/Heavy_grillosychicharrasosc.cpp **** }
1094:source/Heavy_grillosychicharrasosc.cpp **** 
1095:source/Heavy_grillosychicharrasosc.cpp **** void Heavy_grillosychicharrasosc::cVar_bfBrGQS9_sendMessage(HeavyContextInterface *_c, int letIn, c
ARM GAS  /var/folders/fb/yfxt3z4538j6z0vjt03w70vc0000gn/T//cc7XoObz.s 			page 29


1096:source/Heavy_grillosychicharrasosc.cpp ****   cBinop_onMessage(_c, &Context(_c)->cBinop_Id4eDgmg, HV_BINOP_SUBTRACT, 0, m, &cBinop_Id4eDgmg_sen
1097:source/Heavy_grillosychicharrasosc.cpp ****   cBinop_k_onMessage(_c, NULL, HV_BINOP_LESS_THAN_EQL, 0.0f, 0, m, &cBinop_8KP0bSZt_sendMessage);
1098:source/Heavy_grillosychicharrasosc.cpp **** }
1099:source/Heavy_grillosychicharrasosc.cpp **** 
1100:source/Heavy_grillosychicharrasosc.cpp **** void Heavy_grillosychicharrasosc::cSwitchcase_5y7LJokT_onMessage(HeavyContextInterface *_c, void *o
1101:source/Heavy_grillosychicharrasosc.cpp ****   switch (msg_getHash(m, 0)) {
1102:source/Heavy_grillosychicharrasosc.cpp ****     case 0x0: { // "0.0"
1103:source/Heavy_grillosychicharrasosc.cpp ****       cCast_onMessage(_c, HV_CAST_BANG, 0, m, &cCast_IALkIGZq_sendMessage);
1104:source/Heavy_grillosychicharrasosc.cpp ****       break;
1105:source/Heavy_grillosychicharrasosc.cpp ****     }
1106:source/Heavy_grillosychicharrasosc.cpp ****     case 0x3F800000: { // "1.0"
1107:source/Heavy_grillosychicharrasosc.cpp ****       cCast_onMessage(_c, HV_CAST_BANG, 0, m, &cCast_olTf5TCP_sendMessage);
1108:source/Heavy_grillosychicharrasosc.cpp ****       break;
1109:source/Heavy_grillosychicharrasosc.cpp ****     }
1110:source/Heavy_grillosychicharrasosc.cpp ****     default: {
1111:source/Heavy_grillosychicharrasosc.cpp ****       break;
1112:source/Heavy_grillosychicharrasosc.cpp ****     }
1113:source/Heavy_grillosychicharrasosc.cpp ****   }
1114:source/Heavy_grillosychicharrasosc.cpp **** }
1115:source/Heavy_grillosychicharrasosc.cpp **** 
1116:source/Heavy_grillosychicharrasosc.cpp **** void Heavy_grillosychicharrasosc::cCast_IALkIGZq_sendMessage(HeavyContextInterface *_c, int letIn, 
1117:source/Heavy_grillosychicharrasosc.cpp ****   cVar_onMessage(_c, &Context(_c)->cVar_68g9fpZP, 0, m, &cVar_68g9fpZP_sendMessage);
1118:source/Heavy_grillosychicharrasosc.cpp **** }
1119:source/Heavy_grillosychicharrasosc.cpp **** 
1120:source/Heavy_grillosychicharrasosc.cpp **** void Heavy_grillosychicharrasosc::cCast_olTf5TCP_sendMessage(HeavyContextInterface *_c, int letIn, 
1121:source/Heavy_grillosychicharrasosc.cpp ****   cCast_onMessage(_c, HV_CAST_BANG, 0, m, &cCast_eAvouhNx_sendMessage);
1122:source/Heavy_grillosychicharrasosc.cpp ****   cCast_onMessage(_c, HV_CAST_BANG, 0, m, &cCast_qO9ClLqz_sendMessage);
1123:source/Heavy_grillosychicharrasosc.cpp **** }
1124:source/Heavy_grillosychicharrasosc.cpp **** 
1125:source/Heavy_grillosychicharrasosc.cpp **** void Heavy_grillosychicharrasosc::cSwitchcase_ndDSPe0t_onMessage(HeavyContextInterface *_c, void *o
1126:source/Heavy_grillosychicharrasosc.cpp ****   switch (msg_getHash(m, 0)) {
1127:source/Heavy_grillosychicharrasosc.cpp ****     case 0x7A5B032D: { // "stop"
1128:source/Heavy_grillosychicharrasosc.cpp ****       cSlice_onMessage(_c, &Context(_c)->cSlice_b5EiwBH6, 0, m, &cSlice_b5EiwBH6_sendMessage);
1129:source/Heavy_grillosychicharrasosc.cpp ****       break;
1130:source/Heavy_grillosychicharrasosc.cpp ****     }
1131:source/Heavy_grillosychicharrasosc.cpp ****     case 0x3E004DAB: { // "set"
1132:source/Heavy_grillosychicharrasosc.cpp ****       cSlice_onMessage(_c, &Context(_c)->cSlice_JQV7rzsL, 0, m, &cSlice_JQV7rzsL_sendMessage);
1133:source/Heavy_grillosychicharrasosc.cpp ****       break;
1134:source/Heavy_grillosychicharrasosc.cpp ****     }
1135:source/Heavy_grillosychicharrasosc.cpp ****     default: {
1136:source/Heavy_grillosychicharrasosc.cpp ****       cCast_onMessage(_c, HV_CAST_BANG, 0, m, &cCast_2dLqX6Uz_sendMessage);
1137:source/Heavy_grillosychicharrasosc.cpp ****       cSlice_onMessage(_c, &Context(_c)->cSlice_9Rcv20sv, 0, m, &cSlice_9Rcv20sv_sendMessage);
1138:source/Heavy_grillosychicharrasosc.cpp ****       cSlice_onMessage(_c, &Context(_c)->cSlice_H5REGhA3, 0, m, &cSlice_H5REGhA3_sendMessage);
1139:source/Heavy_grillosychicharrasosc.cpp ****       cCast_onMessage(_c, HV_CAST_BANG, 0, m, &cCast_x9CLsONl_sendMessage);
1140:source/Heavy_grillosychicharrasosc.cpp ****       cCast_onMessage(_c, HV_CAST_BANG, 0, m, &cCast_lJd1a9G1_sendMessage);
1141:source/Heavy_grillosychicharrasosc.cpp ****       break;
1142:source/Heavy_grillosychicharrasosc.cpp ****     }
1143:source/Heavy_grillosychicharrasosc.cpp ****   }
1144:source/Heavy_grillosychicharrasosc.cpp **** }
1145:source/Heavy_grillosychicharrasosc.cpp **** 
1146:source/Heavy_grillosychicharrasosc.cpp **** void Heavy_grillosychicharrasosc::cSlice_b5EiwBH6_sendMessage(HeavyContextInterface *_c, int letIn,
1147:source/Heavy_grillosychicharrasosc.cpp ****   switch (letIn) {
1148:source/Heavy_grillosychicharrasosc.cpp ****     case 0: {
1149:source/Heavy_grillosychicharrasosc.cpp ****       cMsg_G2p8G4dJ_sendMessage(_c, 0, m);
1150:source/Heavy_grillosychicharrasosc.cpp ****       break;
1151:source/Heavy_grillosychicharrasosc.cpp ****     }
1152:source/Heavy_grillosychicharrasosc.cpp ****     case 1: {
ARM GAS  /var/folders/fb/yfxt3z4538j6z0vjt03w70vc0000gn/T//cc7XoObz.s 			page 30


1153:source/Heavy_grillosychicharrasosc.cpp ****       cMsg_G2p8G4dJ_sendMessage(_c, 0, m);
1154:source/Heavy_grillosychicharrasosc.cpp ****       break;
1155:source/Heavy_grillosychicharrasosc.cpp ****     }
1156:source/Heavy_grillosychicharrasosc.cpp ****     default: return;
1157:source/Heavy_grillosychicharrasosc.cpp ****   }
1158:source/Heavy_grillosychicharrasosc.cpp **** }
1159:source/Heavy_grillosychicharrasosc.cpp **** 
1160:source/Heavy_grillosychicharrasosc.cpp **** void Heavy_grillosychicharrasosc::cSlice_JQV7rzsL_sendMessage(HeavyContextInterface *_c, int letIn,
1161:source/Heavy_grillosychicharrasosc.cpp ****   switch (letIn) {
1162:source/Heavy_grillosychicharrasosc.cpp ****     case 0: {
1163:source/Heavy_grillosychicharrasosc.cpp ****       cCast_onMessage(_c, HV_CAST_BANG, 0, m, &cCast_EWKnOX91_sendMessage);
1164:source/Heavy_grillosychicharrasosc.cpp ****       cCast_onMessage(_c, HV_CAST_FLOAT, 0, m, &cCast_9Gc7fXz6_sendMessage);
1165:source/Heavy_grillosychicharrasosc.cpp ****       break;
1166:source/Heavy_grillosychicharrasosc.cpp ****     }
1167:source/Heavy_grillosychicharrasosc.cpp ****     case 1: {
1168:source/Heavy_grillosychicharrasosc.cpp ****       cCast_onMessage(_c, HV_CAST_BANG, 0, m, &cCast_EWKnOX91_sendMessage);
1169:source/Heavy_grillosychicharrasosc.cpp ****       cCast_onMessage(_c, HV_CAST_FLOAT, 0, m, &cCast_9Gc7fXz6_sendMessage);
1170:source/Heavy_grillosychicharrasosc.cpp ****       break;
1171:source/Heavy_grillosychicharrasosc.cpp ****     }
1172:source/Heavy_grillosychicharrasosc.cpp ****     default: return;
1173:source/Heavy_grillosychicharrasosc.cpp ****   }
1174:source/Heavy_grillosychicharrasosc.cpp **** }
1175:source/Heavy_grillosychicharrasosc.cpp **** 
1176:source/Heavy_grillosychicharrasosc.cpp **** void Heavy_grillosychicharrasosc::cVar_RNwsu7Qp_sendMessage(HeavyContextInterface *_c, int letIn, c
1177:source/Heavy_grillosychicharrasosc.cpp ****   cCast_onMessage(_c, HV_CAST_FLOAT, 0, m, &cCast_QeDD2wjJ_sendMessage);
1178:source/Heavy_grillosychicharrasosc.cpp ****   cCast_onMessage(_c, HV_CAST_FLOAT, 0, m, &cCast_SKzc1gku_sendMessage);
1179:source/Heavy_grillosychicharrasosc.cpp **** }
1180:source/Heavy_grillosychicharrasosc.cpp **** 
1181:source/Heavy_grillosychicharrasosc.cpp **** void Heavy_grillosychicharrasosc::cVar_TqsPRgvJ_sendMessage(HeavyContextInterface *_c, int letIn, c
1182:source/Heavy_grillosychicharrasosc.cpp ****   cSwitchcase_SOXreitf_onMessage(_c, NULL, 0, m, NULL);
1183:source/Heavy_grillosychicharrasosc.cpp **** }
1184:source/Heavy_grillosychicharrasosc.cpp **** 
1185:source/Heavy_grillosychicharrasosc.cpp **** void Heavy_grillosychicharrasosc::cSwitchcase_SOXreitf_onMessage(HeavyContextInterface *_c, void *o
1186:source/Heavy_grillosychicharrasosc.cpp ****   switch (msg_getHash(m, 0)) {
1187:source/Heavy_grillosychicharrasosc.cpp ****     case 0x0: { // "0.0"
1188:source/Heavy_grillosychicharrasosc.cpp ****       cCast_onMessage(_c, HV_CAST_BANG, 0, m, &cCast_OoKTuXfx_sendMessage);
1189:source/Heavy_grillosychicharrasosc.cpp ****       break;
1190:source/Heavy_grillosychicharrasosc.cpp ****     }
1191:source/Heavy_grillosychicharrasosc.cpp ****     default: {
1192:source/Heavy_grillosychicharrasosc.cpp ****       cBinop_onMessage(_c, &Context(_c)->cBinop_HkobI4YQ, HV_BINOP_MULTIPLY, 0, m, &cBinop_HkobI4YQ
1193:source/Heavy_grillosychicharrasosc.cpp ****       cBinop_onMessage(_c, &Context(_c)->cBinop_U8PTT4zA, HV_BINOP_DIVIDE, 1, m, &cBinop_U8PTT4zA_s
1194:source/Heavy_grillosychicharrasosc.cpp ****       cVar_onMessage(_c, &Context(_c)->cVar_cZOROno5, 0, m, &cVar_cZOROno5_sendMessage);
1195:source/Heavy_grillosychicharrasosc.cpp ****       break;
1196:source/Heavy_grillosychicharrasosc.cpp ****     }
1197:source/Heavy_grillosychicharrasosc.cpp ****   }
1198:source/Heavy_grillosychicharrasosc.cpp **** }
1199:source/Heavy_grillosychicharrasosc.cpp **** 
1200:source/Heavy_grillosychicharrasosc.cpp **** void Heavy_grillosychicharrasosc::cCast_OoKTuXfx_sendMessage(HeavyContextInterface *_c, int letIn, 
1201:source/Heavy_grillosychicharrasosc.cpp ****   cMsg_YrgDY46N_sendMessage(_c, 0, m);
1202:source/Heavy_grillosychicharrasosc.cpp **** }
1203:source/Heavy_grillosychicharrasosc.cpp **** 
1204:source/Heavy_grillosychicharrasosc.cpp **** void Heavy_grillosychicharrasosc::cVar_USNPbtPW_sendMessage(HeavyContextInterface *_c, int letIn, c
1205:source/Heavy_grillosychicharrasosc.cpp ****   cBinop_onMessage(_c, &Context(_c)->cBinop_Z3lEbYEy, HV_BINOP_SUBTRACT, 1, m, &cBinop_Z3lEbYEy_sen
1206:source/Heavy_grillosychicharrasosc.cpp **** }
1207:source/Heavy_grillosychicharrasosc.cpp **** 
1208:source/Heavy_grillosychicharrasosc.cpp **** void Heavy_grillosychicharrasosc::cVar_FA9HM06u_sendMessage(HeavyContextInterface *_c, int letIn, c
1209:source/Heavy_grillosychicharrasosc.cpp ****   cVar_onMessage(_c, &Context(_c)->cVar_68g9fpZP, 0, m, &cVar_68g9fpZP_sendMessage);
ARM GAS  /var/folders/fb/yfxt3z4538j6z0vjt03w70vc0000gn/T//cc7XoObz.s 			page 31


1210:source/Heavy_grillosychicharrasosc.cpp **** }
1211:source/Heavy_grillosychicharrasosc.cpp **** 
1212:source/Heavy_grillosychicharrasosc.cpp **** void Heavy_grillosychicharrasosc::cVar_68g9fpZP_sendMessage(HeavyContextInterface *_c, int letIn, c
1213:source/Heavy_grillosychicharrasosc.cpp ****   cBinop_onMessage(_c, &Context(_c)->cBinop_sYjQzHyd, HV_BINOP_ADD, 0, m, &cBinop_sYjQzHyd_sendMess
1214:source/Heavy_grillosychicharrasosc.cpp ****   cBinop_onMessage(_c, &Context(_c)->cBinop_aVLrzYKi, HV_BINOP_ADD, 0, m, &cBinop_aVLrzYKi_sendMess
1215:source/Heavy_grillosychicharrasosc.cpp ****   cVar_onMessage(_c, &Context(_c)->cVar_wYXJkuu3, 0, m, &cVar_wYXJkuu3_sendMessage);
1216:source/Heavy_grillosychicharrasosc.cpp **** }
1217:source/Heavy_grillosychicharrasosc.cpp **** 
1218:source/Heavy_grillosychicharrasosc.cpp **** void Heavy_grillosychicharrasosc::cSlice_9Rcv20sv_sendMessage(HeavyContextInterface *_c, int letIn,
1219:source/Heavy_grillosychicharrasosc.cpp ****   switch (letIn) {
1220:source/Heavy_grillosychicharrasosc.cpp ****     case 0: {
1221:source/Heavy_grillosychicharrasosc.cpp ****       cCast_onMessage(_c, HV_CAST_FLOAT, 0, m, &cCast_QeDD2wjJ_sendMessage);
1222:source/Heavy_grillosychicharrasosc.cpp ****       cCast_onMessage(_c, HV_CAST_FLOAT, 0, m, &cCast_SKzc1gku_sendMessage);
1223:source/Heavy_grillosychicharrasosc.cpp ****       break;
1224:source/Heavy_grillosychicharrasosc.cpp ****     }
1225:source/Heavy_grillosychicharrasosc.cpp ****     case 1: {
1226:source/Heavy_grillosychicharrasosc.cpp ****       break;
1227:source/Heavy_grillosychicharrasosc.cpp ****     }
1228:source/Heavy_grillosychicharrasosc.cpp ****     default: return;
1229:source/Heavy_grillosychicharrasosc.cpp ****   }
1230:source/Heavy_grillosychicharrasosc.cpp **** }
1231:source/Heavy_grillosychicharrasosc.cpp **** 
1232:source/Heavy_grillosychicharrasosc.cpp **** void Heavy_grillosychicharrasosc::cSlice_H5REGhA3_sendMessage(HeavyContextInterface *_c, int letIn,
1233:source/Heavy_grillosychicharrasosc.cpp ****   switch (letIn) {
1234:source/Heavy_grillosychicharrasosc.cpp ****     case 0: {
1235:source/Heavy_grillosychicharrasosc.cpp ****       cCast_onMessage(_c, HV_CAST_FLOAT, 0, m, &cCast_JqPRFbjn_sendMessage);
1236:source/Heavy_grillosychicharrasosc.cpp ****       cCast_onMessage(_c, HV_CAST_FLOAT, 0, m, &cCast_LoWJZoQf_sendMessage);
1237:source/Heavy_grillosychicharrasosc.cpp ****       break;
1238:source/Heavy_grillosychicharrasosc.cpp ****     }
1239:source/Heavy_grillosychicharrasosc.cpp ****     case 1: {
1240:source/Heavy_grillosychicharrasosc.cpp ****       break;
1241:source/Heavy_grillosychicharrasosc.cpp ****     }
1242:source/Heavy_grillosychicharrasosc.cpp ****     default: return;
1243:source/Heavy_grillosychicharrasosc.cpp ****   }
1244:source/Heavy_grillosychicharrasosc.cpp **** }
1245:source/Heavy_grillosychicharrasosc.cpp **** 
1246:source/Heavy_grillosychicharrasosc.cpp **** void Heavy_grillosychicharrasosc::cBinop_HOIkovc2_sendMessage(HeavyContextInterface *_c, int letIn,
1247:source/Heavy_grillosychicharrasosc.cpp ****   cVar_onMessage(_c, &Context(_c)->cVar_bfBrGQS9, 1, m, &cVar_bfBrGQS9_sendMessage);
1248:source/Heavy_grillosychicharrasosc.cpp **** }
1249:source/Heavy_grillosychicharrasosc.cpp **** 
1250:source/Heavy_grillosychicharrasosc.cpp **** void Heavy_grillosychicharrasosc::cBinop_NWGmmZbL_sendMessage(HeavyContextInterface *_c, int letIn,
1251:source/Heavy_grillosychicharrasosc.cpp ****   cBinop_k_onMessage(_c, NULL, HV_BINOP_DIVIDE, 1000.0f, 0, m, &cBinop_HOIkovc2_sendMessage);
1252:source/Heavy_grillosychicharrasosc.cpp **** }
1253:source/Heavy_grillosychicharrasosc.cpp **** 
1254:source/Heavy_grillosychicharrasosc.cpp **** void Heavy_grillosychicharrasosc::cBinop_HkobI4YQ_sendMessage(HeavyContextInterface *_c, int letIn,
1255:source/Heavy_grillosychicharrasosc.cpp ****   cBinop_k_onMessage(_c, NULL, HV_BINOP_DIVIDE, 1000.0f, 0, m, &cBinop_LgjHNIXb_sendMessage);
1256:source/Heavy_grillosychicharrasosc.cpp **** }
1257:source/Heavy_grillosychicharrasosc.cpp **** 
1258:source/Heavy_grillosychicharrasosc.cpp **** void Heavy_grillosychicharrasosc::cBinop_LgjHNIXb_sendMessage(HeavyContextInterface *_c, int letIn,
1259:source/Heavy_grillosychicharrasosc.cpp ****   cBinop_onMessage(_c, &Context(_c)->cBinop_Id4eDgmg, HV_BINOP_SUBTRACT, 1, m, &cBinop_Id4eDgmg_sen
1260:source/Heavy_grillosychicharrasosc.cpp **** }
1261:source/Heavy_grillosychicharrasosc.cpp **** 
1262:source/Heavy_grillosychicharrasosc.cpp **** void Heavy_grillosychicharrasosc::cBinop_Id4eDgmg_sendMessage(HeavyContextInterface *_c, int letIn,
1263:source/Heavy_grillosychicharrasosc.cpp ****   cVar_onMessage(_c, &Context(_c)->cVar_bfBrGQS9, 1, m, &cVar_bfBrGQS9_sendMessage);
1264:source/Heavy_grillosychicharrasosc.cpp **** }
1265:source/Heavy_grillosychicharrasosc.cpp **** 
1266:source/Heavy_grillosychicharrasosc.cpp **** void Heavy_grillosychicharrasosc::cMsg_g8b8l7i3_sendMessage(HeavyContextInterface *_c, int letIn, c
ARM GAS  /var/folders/fb/yfxt3z4538j6z0vjt03w70vc0000gn/T//cc7XoObz.s 			page 32


1267:source/Heavy_grillosychicharrasosc.cpp ****   HvMessage *m = nullptr;
1268:source/Heavy_grillosychicharrasosc.cpp ****   m = HV_MESSAGE_ON_STACK(1);
1269:source/Heavy_grillosychicharrasosc.cpp ****   msg_init(m, 1, msg_getTimestamp(n));
1270:source/Heavy_grillosychicharrasosc.cpp ****   msg_setFloat(m, 0, 1.0f);
1271:source/Heavy_grillosychicharrasosc.cpp ****   cSwitchcase_FXYnpodj_onMessage(_c, NULL, 0, m, NULL);
1272:source/Heavy_grillosychicharrasosc.cpp **** }
1273:source/Heavy_grillosychicharrasosc.cpp **** 
1274:source/Heavy_grillosychicharrasosc.cpp **** void Heavy_grillosychicharrasosc::cMsg_zKMxahOq_sendMessage(HeavyContextInterface *_c, int letIn, c
1275:source/Heavy_grillosychicharrasosc.cpp ****   HvMessage *m = nullptr;
1276:source/Heavy_grillosychicharrasosc.cpp ****   m = HV_MESSAGE_ON_STACK(1);
1277:source/Heavy_grillosychicharrasosc.cpp ****   msg_init(m, 1, msg_getTimestamp(n));
1278:source/Heavy_grillosychicharrasosc.cpp ****   msg_setFloat(m, 0, 0.0f);
1279:source/Heavy_grillosychicharrasosc.cpp ****   cSwitchcase_FXYnpodj_onMessage(_c, NULL, 0, m, NULL);
1280:source/Heavy_grillosychicharrasosc.cpp ****   cBinop_onMessage(_c, &Context(_c)->cBinop_aVLrzYKi, HV_BINOP_ADD, 1, m, &cBinop_aVLrzYKi_sendMess
1281:source/Heavy_grillosychicharrasosc.cpp ****   cBinop_onMessage(_c, &Context(_c)->cBinop_sYjQzHyd, HV_BINOP_ADD, 1, m, &cBinop_sYjQzHyd_sendMess
1282:source/Heavy_grillosychicharrasosc.cpp **** }
1283:source/Heavy_grillosychicharrasosc.cpp **** 
1284:source/Heavy_grillosychicharrasosc.cpp **** void Heavy_grillosychicharrasosc::cBinop_8KP0bSZt_sendMessage(HeavyContextInterface *_c, int letIn,
1285:source/Heavy_grillosychicharrasosc.cpp ****   cSwitchcase_5y7LJokT_onMessage(_c, NULL, 0, m, NULL);
1286:source/Heavy_grillosychicharrasosc.cpp **** }
1287:source/Heavy_grillosychicharrasosc.cpp **** 
1288:source/Heavy_grillosychicharrasosc.cpp **** void Heavy_grillosychicharrasosc::cBinop_sYjQzHyd_sendMessage(HeavyContextInterface *_c, int letIn,
1289:source/Heavy_grillosychicharrasosc.cpp ****   cVar_onMessage(_c, &Context(_c)->cVar_68g9fpZP, 1, m, &cVar_68g9fpZP_sendMessage);
1290:source/Heavy_grillosychicharrasosc.cpp **** }
1291:source/Heavy_grillosychicharrasosc.cpp **** 
1292:source/Heavy_grillosychicharrasosc.cpp **** void Heavy_grillosychicharrasosc::cBinop_U8PTT4zA_sendMessage(HeavyContextInterface *_c, int letIn,
1293:source/Heavy_grillosychicharrasosc.cpp ****   cBinop_onMessage(_c, &Context(_c)->cBinop_kHEXUx6A, HV_BINOP_DIVIDE, 1, m, &cBinop_kHEXUx6A_sendM
1294:source/Heavy_grillosychicharrasosc.cpp **** }
1295:source/Heavy_grillosychicharrasosc.cpp **** 
1296:source/Heavy_grillosychicharrasosc.cpp **** void Heavy_grillosychicharrasosc::cBinop_kHEXUx6A_sendMessage(HeavyContextInterface *_c, int letIn,
1297:source/Heavy_grillosychicharrasosc.cpp ****   cBinop_onMessage(_c, &Context(_c)->cBinop_aVLrzYKi, HV_BINOP_ADD, 1, m, &cBinop_aVLrzYKi_sendMess
1298:source/Heavy_grillosychicharrasosc.cpp ****   cBinop_onMessage(_c, &Context(_c)->cBinop_sYjQzHyd, HV_BINOP_ADD, 1, m, &cBinop_sYjQzHyd_sendMess
1299:source/Heavy_grillosychicharrasosc.cpp **** }
1300:source/Heavy_grillosychicharrasosc.cpp **** 
1301:source/Heavy_grillosychicharrasosc.cpp **** void Heavy_grillosychicharrasosc::cCast_SKzc1gku_sendMessage(HeavyContextInterface *_c, int letIn, 
1302:source/Heavy_grillosychicharrasosc.cpp ****   cBinop_onMessage(_c, &Context(_c)->cBinop_U8PTT4zA, HV_BINOP_DIVIDE, 0, m, &cBinop_U8PTT4zA_sendM
1303:source/Heavy_grillosychicharrasosc.cpp **** }
1304:source/Heavy_grillosychicharrasosc.cpp **** 
1305:source/Heavy_grillosychicharrasosc.cpp **** void Heavy_grillosychicharrasosc::cCast_QeDD2wjJ_sendMessage(HeavyContextInterface *_c, int letIn, 
1306:source/Heavy_grillosychicharrasosc.cpp ****   cBinop_onMessage(_c, &Context(_c)->cBinop_NWGmmZbL, HV_BINOP_MULTIPLY, 0, m, &cBinop_NWGmmZbL_sen
1307:source/Heavy_grillosychicharrasosc.cpp **** }
1308:source/Heavy_grillosychicharrasosc.cpp **** 
1309:source/Heavy_grillosychicharrasosc.cpp **** void Heavy_grillosychicharrasosc::cCast_LoWJZoQf_sendMessage(HeavyContextInterface *_c, int letIn, 
1310:source/Heavy_grillosychicharrasosc.cpp ****   cBinop_onMessage(_c, &Context(_c)->cBinop_Z3lEbYEy, HV_BINOP_SUBTRACT, 0, m, &cBinop_Z3lEbYEy_sen
1311:source/Heavy_grillosychicharrasosc.cpp **** }
1312:source/Heavy_grillosychicharrasosc.cpp **** 
1313:source/Heavy_grillosychicharrasosc.cpp **** void Heavy_grillosychicharrasosc::cCast_JqPRFbjn_sendMessage(HeavyContextInterface *_c, int letIn, 
1314:source/Heavy_grillosychicharrasosc.cpp ****   cVar_onMessage(_c, &Context(_c)->cVar_FA9HM06u, 1, m, &cVar_FA9HM06u_sendMessage);
1315:source/Heavy_grillosychicharrasosc.cpp **** }
1316:source/Heavy_grillosychicharrasosc.cpp **** 
1317:source/Heavy_grillosychicharrasosc.cpp **** void Heavy_grillosychicharrasosc::cCast_qO9ClLqz_sendMessage(HeavyContextInterface *_c, int letIn, 
1318:source/Heavy_grillosychicharrasosc.cpp ****   cVar_onMessage(_c, &Context(_c)->cVar_FA9HM06u, 0, m, &cVar_FA9HM06u_sendMessage);
1319:source/Heavy_grillosychicharrasosc.cpp **** }
1320:source/Heavy_grillosychicharrasosc.cpp **** 
1321:source/Heavy_grillosychicharrasosc.cpp **** void Heavy_grillosychicharrasosc::cCast_eAvouhNx_sendMessage(HeavyContextInterface *_c, int letIn, 
1322:source/Heavy_grillosychicharrasosc.cpp ****   cMsg_zKMxahOq_sendMessage(_c, 0, m);
1323:source/Heavy_grillosychicharrasosc.cpp **** }
ARM GAS  /var/folders/fb/yfxt3z4538j6z0vjt03w70vc0000gn/T//cc7XoObz.s 			page 33


1324:source/Heavy_grillosychicharrasosc.cpp **** 
1325:source/Heavy_grillosychicharrasosc.cpp **** void Heavy_grillosychicharrasosc::cBinop_aVLrzYKi_sendMessage(HeavyContextInterface *_c, int letIn,
1326:source/Heavy_grillosychicharrasosc.cpp ****   cVar_onMessage(_c, &Context(_c)->cVar_USNPbtPW, 0, m, &cVar_USNPbtPW_sendMessage);
1327:source/Heavy_grillosychicharrasosc.cpp **** }
1328:source/Heavy_grillosychicharrasosc.cpp **** 
1329:source/Heavy_grillosychicharrasosc.cpp **** void Heavy_grillosychicharrasosc::cMsg_G2p8G4dJ_sendMessage(HeavyContextInterface *_c, int letIn, c
1330:source/Heavy_grillosychicharrasosc.cpp ****   HvMessage *m = nullptr;
1331:source/Heavy_grillosychicharrasosc.cpp ****   m = HV_MESSAGE_ON_STACK(1);
1332:source/Heavy_grillosychicharrasosc.cpp ****   msg_init(m, 1, msg_getTimestamp(n));
1333:source/Heavy_grillosychicharrasosc.cpp ****   msg_setFloat(m, 0, 0.0f);
1334:source/Heavy_grillosychicharrasosc.cpp ****   cSwitchcase_FXYnpodj_onMessage(_c, NULL, 0, m, NULL);
1335:source/Heavy_grillosychicharrasosc.cpp **** }
1336:source/Heavy_grillosychicharrasosc.cpp **** 
1337:source/Heavy_grillosychicharrasosc.cpp **** void Heavy_grillosychicharrasosc::cMsg_QsbALApc_sendMessage(HeavyContextInterface *_c, int letIn, c
1338:source/Heavy_grillosychicharrasosc.cpp ****   HvMessage *m = nullptr;
1339:source/Heavy_grillosychicharrasosc.cpp ****   m = HV_MESSAGE_ON_STACK(1);
1340:source/Heavy_grillosychicharrasosc.cpp ****   msg_init(m, 1, msg_getTimestamp(n));
1341:source/Heavy_grillosychicharrasosc.cpp ****   msg_setFloat(m, 0, 0.0f);
1342:source/Heavy_grillosychicharrasosc.cpp ****   cVar_onMessage(_c, &Context(_c)->cVar_RNwsu7Qp, 1, m, &cVar_RNwsu7Qp_sendMessage);
1343:source/Heavy_grillosychicharrasosc.cpp **** }
1344:source/Heavy_grillosychicharrasosc.cpp **** 
1345:source/Heavy_grillosychicharrasosc.cpp **** void Heavy_grillosychicharrasosc::cMsg_YrgDY46N_sendMessage(HeavyContextInterface *_c, int letIn, c
1346:source/Heavy_grillosychicharrasosc.cpp ****   HvMessage *m = nullptr;
1347:source/Heavy_grillosychicharrasosc.cpp ****   m = HV_MESSAGE_ON_STACK(1);
1348:source/Heavy_grillosychicharrasosc.cpp ****   msg_init(m, 1, msg_getTimestamp(n));
1349:source/Heavy_grillosychicharrasosc.cpp ****   msg_setFloat(m, 0, 20.0f);
1350:source/Heavy_grillosychicharrasosc.cpp ****   cBinop_onMessage(_c, &Context(_c)->cBinop_HkobI4YQ, HV_BINOP_MULTIPLY, 0, m, &cBinop_HkobI4YQ_sen
1351:source/Heavy_grillosychicharrasosc.cpp ****   cBinop_onMessage(_c, &Context(_c)->cBinop_U8PTT4zA, HV_BINOP_DIVIDE, 1, m, &cBinop_U8PTT4zA_sendM
1352:source/Heavy_grillosychicharrasosc.cpp ****   cVar_onMessage(_c, &Context(_c)->cVar_cZOROno5, 0, m, &cVar_cZOROno5_sendMessage);
1353:source/Heavy_grillosychicharrasosc.cpp **** }
1354:source/Heavy_grillosychicharrasosc.cpp **** 
1355:source/Heavy_grillosychicharrasosc.cpp **** void Heavy_grillosychicharrasosc::cCast_EWKnOX91_sendMessage(HeavyContextInterface *_c, int letIn, 
1356:source/Heavy_grillosychicharrasosc.cpp ****   cMsg_G2p8G4dJ_sendMessage(_c, 0, m);
1357:source/Heavy_grillosychicharrasosc.cpp **** }
1358:source/Heavy_grillosychicharrasosc.cpp **** 
1359:source/Heavy_grillosychicharrasosc.cpp **** void Heavy_grillosychicharrasosc::cCast_9Gc7fXz6_sendMessage(HeavyContextInterface *_c, int letIn, 
1360:source/Heavy_grillosychicharrasosc.cpp ****   cCast_onMessage(_c, HV_CAST_BANG, 0, m, &cCast_hBWMRujS_sendMessage);
1361:source/Heavy_grillosychicharrasosc.cpp ****   cBinop_onMessage(_c, &Context(_c)->cBinop_aVLrzYKi, HV_BINOP_ADD, 0, m, &cBinop_aVLrzYKi_sendMess
1362:source/Heavy_grillosychicharrasosc.cpp ****   cVar_onMessage(_c, &Context(_c)->cVar_68g9fpZP, 1, m, &cVar_68g9fpZP_sendMessage);
1363:source/Heavy_grillosychicharrasosc.cpp **** }
1364:source/Heavy_grillosychicharrasosc.cpp **** 
1365:source/Heavy_grillosychicharrasosc.cpp **** void Heavy_grillosychicharrasosc::cBinop_Z3lEbYEy_sendMessage(HeavyContextInterface *_c, int letIn,
1366:source/Heavy_grillosychicharrasosc.cpp ****   cBinop_onMessage(_c, &Context(_c)->cBinop_kHEXUx6A, HV_BINOP_DIVIDE, 0, m, &cBinop_kHEXUx6A_sendM
1367:source/Heavy_grillosychicharrasosc.cpp **** }
1368:source/Heavy_grillosychicharrasosc.cpp **** 
1369:source/Heavy_grillosychicharrasosc.cpp **** void Heavy_grillosychicharrasosc::cCast_hBWMRujS_sendMessage(HeavyContextInterface *_c, int letIn, 
1370:source/Heavy_grillosychicharrasosc.cpp ****   cMsg_zKMxahOq_sendMessage(_c, 0, m);
1371:source/Heavy_grillosychicharrasosc.cpp **** }
1372:source/Heavy_grillosychicharrasosc.cpp **** 
1373:source/Heavy_grillosychicharrasosc.cpp **** void Heavy_grillosychicharrasosc::cCast_x9CLsONl_sendMessage(HeavyContextInterface *_c, int letIn, 
1374:source/Heavy_grillosychicharrasosc.cpp ****   cMsg_g8b8l7i3_sendMessage(_c, 0, m);
1375:source/Heavy_grillosychicharrasosc.cpp **** }
1376:source/Heavy_grillosychicharrasosc.cpp **** 
1377:source/Heavy_grillosychicharrasosc.cpp **** void Heavy_grillosychicharrasosc::cCast_2dLqX6Uz_sendMessage(HeavyContextInterface *_c, int letIn, 
1378:source/Heavy_grillosychicharrasosc.cpp ****   cVar_onMessage(_c, &Context(_c)->cVar_RNwsu7Qp, 0, m, &cVar_RNwsu7Qp_sendMessage);
1379:source/Heavy_grillosychicharrasosc.cpp **** }
1380:source/Heavy_grillosychicharrasosc.cpp **** 
ARM GAS  /var/folders/fb/yfxt3z4538j6z0vjt03w70vc0000gn/T//cc7XoObz.s 			page 34


1381:source/Heavy_grillosychicharrasosc.cpp **** void Heavy_grillosychicharrasosc::cCast_lJd1a9G1_sendMessage(HeavyContextInterface *_c, int letIn, 
1382:source/Heavy_grillosychicharrasosc.cpp ****   cMsg_QsbALApc_sendMessage(_c, 0, m);
1383:source/Heavy_grillosychicharrasosc.cpp **** }
1384:source/Heavy_grillosychicharrasosc.cpp **** 
1385:source/Heavy_grillosychicharrasosc.cpp **** void Heavy_grillosychicharrasosc::cVar_wYXJkuu3_sendMessage(HeavyContextInterface *_c, int letIn, c
1386:source/Heavy_grillosychicharrasosc.cpp ****   cVar_onMessage(_c, &Context(_c)->cVar_9qp5BItd, 0, m, &cVar_9qp5BItd_sendMessage);
1387:source/Heavy_grillosychicharrasosc.cpp **** }
1388:source/Heavy_grillosychicharrasosc.cpp **** 
1389:source/Heavy_grillosychicharrasosc.cpp **** void Heavy_grillosychicharrasosc::cVar_7XMFG1Jx_sendMessage(HeavyContextInterface *_c, int letIn, c
1390:source/Heavy_grillosychicharrasosc.cpp ****   cVar_onMessage(_c, &Context(_c)->cVar_R45Qg3wP, 0, m, &cVar_R45Qg3wP_sendMessage);
1391:source/Heavy_grillosychicharrasosc.cpp ****   cCast_onMessage(_c, HV_CAST_BANG, 0, m, &cCast_YvzUZ60u_sendMessage);
1392:source/Heavy_grillosychicharrasosc.cpp **** }
1393:source/Heavy_grillosychicharrasosc.cpp **** 
1394:source/Heavy_grillosychicharrasosc.cpp **** void Heavy_grillosychicharrasosc::cVar_4SrcHYHo_sendMessage(HeavyContextInterface *_c, int letIn, c
1395:source/Heavy_grillosychicharrasosc.cpp ****   sVarf_onMessage(_c, &Context(_c)->sVarf_OQxdukrC, m);
1396:source/Heavy_grillosychicharrasosc.cpp **** }
1397:source/Heavy_grillosychicharrasosc.cpp **** 
1398:source/Heavy_grillosychicharrasosc.cpp **** void Heavy_grillosychicharrasosc::cSwitchcase_ndzgTe5o_onMessage(HeavyContextInterface *_c, void *o
1399:source/Heavy_grillosychicharrasosc.cpp ****   switch (msg_getHash(m, 0)) {
1400:source/Heavy_grillosychicharrasosc.cpp ****     case 0x0: { // "0.0"
1401:source/Heavy_grillosychicharrasosc.cpp ****       cCast_onMessage(_c, HV_CAST_BANG, 0, m, &cCast_PFXxURNb_sendMessage);
1402:source/Heavy_grillosychicharrasosc.cpp ****       break;
1403:source/Heavy_grillosychicharrasosc.cpp ****     }
1404:source/Heavy_grillosychicharrasosc.cpp ****     case 0x3F800000: { // "1.0"
1405:source/Heavy_grillosychicharrasosc.cpp ****       cCast_onMessage(_c, HV_CAST_BANG, 0, m, &cCast_ywPAqYuv_sendMessage);
1406:source/Heavy_grillosychicharrasosc.cpp ****       break;
1407:source/Heavy_grillosychicharrasosc.cpp ****     }
1408:source/Heavy_grillosychicharrasosc.cpp ****     default: {
1409:source/Heavy_grillosychicharrasosc.cpp ****       break;
1410:source/Heavy_grillosychicharrasosc.cpp ****     }
1411:source/Heavy_grillosychicharrasosc.cpp ****   }
1412:source/Heavy_grillosychicharrasosc.cpp **** }
1413:source/Heavy_grillosychicharrasosc.cpp **** 
1414:source/Heavy_grillosychicharrasosc.cpp **** void Heavy_grillosychicharrasosc::cCast_PFXxURNb_sendMessage(HeavyContextInterface *_c, int letIn, 
1415:source/Heavy_grillosychicharrasosc.cpp ****   cMsg_4KVE2N4f_sendMessage(_c, 0, m);
1416:source/Heavy_grillosychicharrasosc.cpp **** }
1417:source/Heavy_grillosychicharrasosc.cpp **** 
1418:source/Heavy_grillosychicharrasosc.cpp **** void Heavy_grillosychicharrasosc::cCast_ywPAqYuv_sendMessage(HeavyContextInterface *_c, int letIn, 
1419:source/Heavy_grillosychicharrasosc.cpp ****   cMsg_cyVnN6TE_sendMessage(_c, 0, m);
1420:source/Heavy_grillosychicharrasosc.cpp **** }
1421:source/Heavy_grillosychicharrasosc.cpp **** 
1422:source/Heavy_grillosychicharrasosc.cpp **** void Heavy_grillosychicharrasosc::cSwitchcase_PCO0VYX9_onMessage(HeavyContextInterface *_c, void *o
1423:source/Heavy_grillosychicharrasosc.cpp ****   switch (msg_getHash(m, 0)) {
1424:source/Heavy_grillosychicharrasosc.cpp ****     case 0x7E64BD01: { // "seed"
1425:source/Heavy_grillosychicharrasosc.cpp ****       cSlice_onMessage(_c, &Context(_c)->cSlice_77b0Z3qh, 0, m, &cSlice_77b0Z3qh_sendMessage);
1426:source/Heavy_grillosychicharrasosc.cpp ****       break;
1427:source/Heavy_grillosychicharrasosc.cpp ****     }
1428:source/Heavy_grillosychicharrasosc.cpp ****     default: {
1429:source/Heavy_grillosychicharrasosc.cpp ****       cRandom_onMessage(_c, &Context(_c)->cRandom_JF0BuKA0, 0, m, &cRandom_JF0BuKA0_sendMessage);
1430:source/Heavy_grillosychicharrasosc.cpp ****       break;
1431:source/Heavy_grillosychicharrasosc.cpp ****     }
1432:source/Heavy_grillosychicharrasosc.cpp ****   }
1433:source/Heavy_grillosychicharrasosc.cpp **** }
1434:source/Heavy_grillosychicharrasosc.cpp **** 
1435:source/Heavy_grillosychicharrasosc.cpp **** void Heavy_grillosychicharrasosc::cBinop_LZtWDIcT_sendMessage(HeavyContextInterface *_c, int letIn,
1436:source/Heavy_grillosychicharrasosc.cpp ****   cUnop_onMessage(_c, HV_UNOP_FLOOR, m, &cUnop_dSh8jpV1_sendMessage);
1437:source/Heavy_grillosychicharrasosc.cpp **** }
ARM GAS  /var/folders/fb/yfxt3z4538j6z0vjt03w70vc0000gn/T//cc7XoObz.s 			page 35


1438:source/Heavy_grillosychicharrasosc.cpp **** 
1439:source/Heavy_grillosychicharrasosc.cpp **** void Heavy_grillosychicharrasosc::cUnop_dSh8jpV1_sendMessage(HeavyContextInterface *_c, int letIn, 
1440:source/Heavy_grillosychicharrasosc.cpp ****   cSwitchcase_ndzgTe5o_onMessage(_c, NULL, 0, m, NULL);
1441:source/Heavy_grillosychicharrasosc.cpp **** }
1442:source/Heavy_grillosychicharrasosc.cpp **** 
1443:source/Heavy_grillosychicharrasosc.cpp **** void Heavy_grillosychicharrasosc::cRandom_JF0BuKA0_sendMessage(HeavyContextInterface *_c, int letIn
1444:source/Heavy_grillosychicharrasosc.cpp ****   cBinop_k_onMessage(_c, NULL, HV_BINOP_MULTIPLY, 1.0f, 0, m, &cBinop_LZtWDIcT_sendMessage);
1445:source/Heavy_grillosychicharrasosc.cpp **** }
1446:source/Heavy_grillosychicharrasosc.cpp **** 
1447:source/Heavy_grillosychicharrasosc.cpp **** void Heavy_grillosychicharrasosc::cSlice_77b0Z3qh_sendMessage(HeavyContextInterface *_c, int letIn,
1448:source/Heavy_grillosychicharrasosc.cpp ****   switch (letIn) {
1449:source/Heavy_grillosychicharrasosc.cpp ****     case 0: {
1450:source/Heavy_grillosychicharrasosc.cpp ****       cRandom_onMessage(_c, &Context(_c)->cRandom_JF0BuKA0, 1, m, &cRandom_JF0BuKA0_sendMessage);
1451:source/Heavy_grillosychicharrasosc.cpp ****       break;
1452:source/Heavy_grillosychicharrasosc.cpp ****     }
1453:source/Heavy_grillosychicharrasosc.cpp ****     case 1: {
1454:source/Heavy_grillosychicharrasosc.cpp ****       break;
1455:source/Heavy_grillosychicharrasosc.cpp ****     }
1456:source/Heavy_grillosychicharrasosc.cpp ****     default: return;
1457:source/Heavy_grillosychicharrasosc.cpp ****   }
1458:source/Heavy_grillosychicharrasosc.cpp **** }
1459:source/Heavy_grillosychicharrasosc.cpp **** 
1460:source/Heavy_grillosychicharrasosc.cpp **** void Heavy_grillosychicharrasosc::cSwitchcase_AZjTkGDB_onMessage(HeavyContextInterface *_c, void *o
1461:source/Heavy_grillosychicharrasosc.cpp ****   switch (msg_getHash(m, 0)) {
1462:source/Heavy_grillosychicharrasosc.cpp ****     case 0x7E64BD01: { // "seed"
1463:source/Heavy_grillosychicharrasosc.cpp ****       cSlice_onMessage(_c, &Context(_c)->cSlice_khUFGaEr, 0, m, &cSlice_khUFGaEr_sendMessage);
1464:source/Heavy_grillosychicharrasosc.cpp ****       break;
1465:source/Heavy_grillosychicharrasosc.cpp ****     }
1466:source/Heavy_grillosychicharrasosc.cpp ****     default: {
1467:source/Heavy_grillosychicharrasosc.cpp ****       cRandom_onMessage(_c, &Context(_c)->cRandom_i9t3pPrX, 0, m, &cRandom_i9t3pPrX_sendMessage);
1468:source/Heavy_grillosychicharrasosc.cpp ****       break;
1469:source/Heavy_grillosychicharrasosc.cpp ****     }
1470:source/Heavy_grillosychicharrasosc.cpp ****   }
1471:source/Heavy_grillosychicharrasosc.cpp **** }
1472:source/Heavy_grillosychicharrasosc.cpp **** 
1473:source/Heavy_grillosychicharrasosc.cpp **** void Heavy_grillosychicharrasosc::cBinop_idOZvx7g_sendMessage(HeavyContextInterface *_c, int letIn,
1474:source/Heavy_grillosychicharrasosc.cpp ****   cUnop_onMessage(_c, HV_UNOP_FLOOR, m, &cUnop_0SiIPBmq_sendMessage);
1475:source/Heavy_grillosychicharrasosc.cpp **** }
1476:source/Heavy_grillosychicharrasosc.cpp **** 
1477:source/Heavy_grillosychicharrasosc.cpp **** void Heavy_grillosychicharrasosc::cUnop_0SiIPBmq_sendMessage(HeavyContextInterface *_c, int letIn, 
1478:source/Heavy_grillosychicharrasosc.cpp ****   cBinop_k_onMessage(_c, NULL, HV_BINOP_ADD, 4000.0f, 0, m, &cBinop_nTtKqV7w_sendMessage);
1479:source/Heavy_grillosychicharrasosc.cpp **** }
1480:source/Heavy_grillosychicharrasosc.cpp **** 
1481:source/Heavy_grillosychicharrasosc.cpp **** void Heavy_grillosychicharrasosc::cRandom_i9t3pPrX_sendMessage(HeavyContextInterface *_c, int letIn
1482:source/Heavy_grillosychicharrasosc.cpp ****   cBinop_k_onMessage(_c, NULL, HV_BINOP_MULTIPLY, 2000.0f, 0, m, &cBinop_idOZvx7g_sendMessage);
1483:source/Heavy_grillosychicharrasosc.cpp **** }
1484:source/Heavy_grillosychicharrasosc.cpp **** 
1485:source/Heavy_grillosychicharrasosc.cpp **** void Heavy_grillosychicharrasosc::cSlice_khUFGaEr_sendMessage(HeavyContextInterface *_c, int letIn,
1486:source/Heavy_grillosychicharrasosc.cpp ****   switch (letIn) {
1487:source/Heavy_grillosychicharrasosc.cpp ****     case 0: {
1488:source/Heavy_grillosychicharrasosc.cpp ****       cRandom_onMessage(_c, &Context(_c)->cRandom_i9t3pPrX, 1, m, &cRandom_i9t3pPrX_sendMessage);
1489:source/Heavy_grillosychicharrasosc.cpp ****       break;
1490:source/Heavy_grillosychicharrasosc.cpp ****     }
1491:source/Heavy_grillosychicharrasosc.cpp ****     case 1: {
1492:source/Heavy_grillosychicharrasosc.cpp ****       break;
1493:source/Heavy_grillosychicharrasosc.cpp ****     }
1494:source/Heavy_grillosychicharrasosc.cpp ****     default: return;
ARM GAS  /var/folders/fb/yfxt3z4538j6z0vjt03w70vc0000gn/T//cc7XoObz.s 			page 36


1495:source/Heavy_grillosychicharrasosc.cpp ****   }
1496:source/Heavy_grillosychicharrasosc.cpp **** }
1497:source/Heavy_grillosychicharrasosc.cpp **** 
1498:source/Heavy_grillosychicharrasosc.cpp **** void Heavy_grillosychicharrasosc::cVar_lJiJqIrv_sendMessage(HeavyContextInterface *_c, int letIn, c
1499:source/Heavy_grillosychicharrasosc.cpp ****   cBinop_k_onMessage(_c, NULL, HV_BINOP_EQ, 0.0f, 0, m, &cBinop_uqRlI22G_sendMessage);
1500:source/Heavy_grillosychicharrasosc.cpp ****   cSwitchcase_M9qFHYXJ_onMessage(_c, NULL, 0, m, NULL);
1501:source/Heavy_grillosychicharrasosc.cpp **** }
1502:source/Heavy_grillosychicharrasosc.cpp **** 
1503:source/Heavy_grillosychicharrasosc.cpp **** void Heavy_grillosychicharrasosc::cBinop_uqRlI22G_sendMessage(HeavyContextInterface *_c, int letIn,
1504:source/Heavy_grillosychicharrasosc.cpp ****   cVar_onMessage(_c, &Context(_c)->cVar_lJiJqIrv, 1, m, &cVar_lJiJqIrv_sendMessage);
1505:source/Heavy_grillosychicharrasosc.cpp **** }
1506:source/Heavy_grillosychicharrasosc.cpp **** 
1507:source/Heavy_grillosychicharrasosc.cpp **** void Heavy_grillosychicharrasosc::cSwitchcase_M9qFHYXJ_onMessage(HeavyContextInterface *_c, void *o
1508:source/Heavy_grillosychicharrasosc.cpp ****   switch (msg_getHash(m, 0)) {
1509:source/Heavy_grillosychicharrasosc.cpp ****     case 0x0: { // "0.0"
1510:source/Heavy_grillosychicharrasosc.cpp ****       cMsg_262Ji6rS_sendMessage(_c, 0, m);
1511:source/Heavy_grillosychicharrasosc.cpp ****       break;
1512:source/Heavy_grillosychicharrasosc.cpp ****     }
1513:source/Heavy_grillosychicharrasosc.cpp ****     case 0x7A5B032D: { // "stop"
1514:source/Heavy_grillosychicharrasosc.cpp ****       cMsg_262Ji6rS_sendMessage(_c, 0, m);
1515:source/Heavy_grillosychicharrasosc.cpp ****       break;
1516:source/Heavy_grillosychicharrasosc.cpp ****     }
1517:source/Heavy_grillosychicharrasosc.cpp ****     default: {
1518:source/Heavy_grillosychicharrasosc.cpp ****       cCast_onMessage(_c, HV_CAST_BANG, 0, m, &cCast_lkhoEbFH_sendMessage);
1519:source/Heavy_grillosychicharrasosc.cpp ****       break;
1520:source/Heavy_grillosychicharrasosc.cpp ****     }
1521:source/Heavy_grillosychicharrasosc.cpp ****   }
1522:source/Heavy_grillosychicharrasosc.cpp **** }
1523:source/Heavy_grillosychicharrasosc.cpp **** 
1524:source/Heavy_grillosychicharrasosc.cpp **** void Heavy_grillosychicharrasosc::cDelay_p7OdiHgQ_sendMessage(HeavyContextInterface *_c, int letIn,
1525:source/Heavy_grillosychicharrasosc.cpp ****   cDelay_clearExecutingMessage(&Context(_c)->cDelay_p7OdiHgQ, m);
1526:source/Heavy_grillosychicharrasosc.cpp ****   cDelay_onMessage(_c, &Context(_c)->cDelay_p7OdiHgQ, 0, m, &cDelay_p7OdiHgQ_sendMessage);
1527:source/Heavy_grillosychicharrasosc.cpp ****   cSwitchcase_0E56Ry9P_onMessage(_c, NULL, 0, m, NULL);
1528:source/Heavy_grillosychicharrasosc.cpp ****   cSwitchcase_AZjTkGDB_onMessage(_c, NULL, 0, m, NULL);
1529:source/Heavy_grillosychicharrasosc.cpp ****   cSwitchcase_pQzBDdyv_onMessage(_c, NULL, 0, m, NULL);
1530:source/Heavy_grillosychicharrasosc.cpp **** }
1531:source/Heavy_grillosychicharrasosc.cpp **** 
1532:source/Heavy_grillosychicharrasosc.cpp **** void Heavy_grillosychicharrasosc::cCast_lkhoEbFH_sendMessage(HeavyContextInterface *_c, int letIn, 
1533:source/Heavy_grillosychicharrasosc.cpp ****   cMsg_262Ji6rS_sendMessage(_c, 0, m);
1534:source/Heavy_grillosychicharrasosc.cpp ****   cDelay_onMessage(_c, &Context(_c)->cDelay_p7OdiHgQ, 0, m, &cDelay_p7OdiHgQ_sendMessage);
1535:source/Heavy_grillosychicharrasosc.cpp ****   cSwitchcase_0E56Ry9P_onMessage(_c, NULL, 0, m, NULL);
1536:source/Heavy_grillosychicharrasosc.cpp ****   cSwitchcase_AZjTkGDB_onMessage(_c, NULL, 0, m, NULL);
1537:source/Heavy_grillosychicharrasosc.cpp ****   cSwitchcase_pQzBDdyv_onMessage(_c, NULL, 0, m, NULL);
1538:source/Heavy_grillosychicharrasosc.cpp **** }
1539:source/Heavy_grillosychicharrasosc.cpp **** 
1540:source/Heavy_grillosychicharrasosc.cpp **** void Heavy_grillosychicharrasosc::cMsg_L94Uxz5Q_sendMessage(HeavyContextInterface *_c, int letIn, c
1541:source/Heavy_grillosychicharrasosc.cpp ****   HvMessage *m = nullptr;
1542:source/Heavy_grillosychicharrasosc.cpp ****   m = HV_MESSAGE_ON_STACK(1);
1543:source/Heavy_grillosychicharrasosc.cpp ****   msg_init(m, 1, msg_getTimestamp(n));
1544:source/Heavy_grillosychicharrasosc.cpp ****   msg_setSymbol(m, 0, "samplerate");
1545:source/Heavy_grillosychicharrasosc.cpp ****   cSystem_onMessage(_c, NULL, 0, m, &cSystem_mMKWm5bv_sendMessage);
1546:source/Heavy_grillosychicharrasosc.cpp **** }
1547:source/Heavy_grillosychicharrasosc.cpp **** 
1548:source/Heavy_grillosychicharrasosc.cpp **** void Heavy_grillosychicharrasosc::cSystem_mMKWm5bv_sendMessage(HeavyContextInterface *_c, int letIn
1549:source/Heavy_grillosychicharrasosc.cpp ****   cBinop_k_onMessage(_c, NULL, HV_BINOP_DIVIDE, 1000.0f, 0, m, &cBinop_UoyEAKfN_sendMessage);
1550:source/Heavy_grillosychicharrasosc.cpp **** }
1551:source/Heavy_grillosychicharrasosc.cpp **** 
ARM GAS  /var/folders/fb/yfxt3z4538j6z0vjt03w70vc0000gn/T//cc7XoObz.s 			page 37


1552:source/Heavy_grillosychicharrasosc.cpp **** void Heavy_grillosychicharrasosc::cVar_MBFODPm4_sendMessage(HeavyContextInterface *_c, int letIn, c
1553:source/Heavy_grillosychicharrasosc.cpp ****   cBinop_onMessage(_c, &Context(_c)->cBinop_0QS5SfF7, HV_BINOP_MULTIPLY, 0, m, &cBinop_0QS5SfF7_sen
1554:source/Heavy_grillosychicharrasosc.cpp **** }
1555:source/Heavy_grillosychicharrasosc.cpp **** 
1556:source/Heavy_grillosychicharrasosc.cpp **** void Heavy_grillosychicharrasosc::cMsg_262Ji6rS_sendMessage(HeavyContextInterface *_c, int letIn, c
1557:source/Heavy_grillosychicharrasosc.cpp ****   HvMessage *m = nullptr;
1558:source/Heavy_grillosychicharrasosc.cpp ****   m = HV_MESSAGE_ON_STACK(1);
1559:source/Heavy_grillosychicharrasosc.cpp ****   msg_init(m, 1, msg_getTimestamp(n));
1560:source/Heavy_grillosychicharrasosc.cpp ****   msg_setSymbol(m, 0, "clear");
1561:source/Heavy_grillosychicharrasosc.cpp ****   cDelay_onMessage(_c, &Context(_c)->cDelay_p7OdiHgQ, 0, m, &cDelay_p7OdiHgQ_sendMessage);
1562:source/Heavy_grillosychicharrasosc.cpp **** }
1563:source/Heavy_grillosychicharrasosc.cpp **** 
1564:source/Heavy_grillosychicharrasosc.cpp **** void Heavy_grillosychicharrasosc::cBinop_9vXMw8jJ_sendMessage(HeavyContextInterface *_c, int letIn,
1565:source/Heavy_grillosychicharrasosc.cpp ****   cDelay_onMessage(_c, &Context(_c)->cDelay_p7OdiHgQ, 2, m, &cDelay_p7OdiHgQ_sendMessage);
1566:source/Heavy_grillosychicharrasosc.cpp **** }
1567:source/Heavy_grillosychicharrasosc.cpp **** 
1568:source/Heavy_grillosychicharrasosc.cpp **** void Heavy_grillosychicharrasosc::cBinop_UoyEAKfN_sendMessage(HeavyContextInterface *_c, int letIn,
1569:source/Heavy_grillosychicharrasosc.cpp ****   cBinop_onMessage(_c, &Context(_c)->cBinop_0QS5SfF7, HV_BINOP_MULTIPLY, 1, m, &cBinop_0QS5SfF7_sen
1570:source/Heavy_grillosychicharrasosc.cpp **** }
1571:source/Heavy_grillosychicharrasosc.cpp **** 
1572:source/Heavy_grillosychicharrasosc.cpp **** void Heavy_grillosychicharrasosc::cBinop_0QS5SfF7_sendMessage(HeavyContextInterface *_c, int letIn,
1573:source/Heavy_grillosychicharrasosc.cpp ****   cBinop_k_onMessage(_c, NULL, HV_BINOP_MAX, 1.0f, 0, m, &cBinop_9vXMw8jJ_sendMessage);
1574:source/Heavy_grillosychicharrasosc.cpp **** }
1575:source/Heavy_grillosychicharrasosc.cpp **** 
1576:source/Heavy_grillosychicharrasosc.cpp **** void Heavy_grillosychicharrasosc::cSwitchcase_pQzBDdyv_onMessage(HeavyContextInterface *_c, void *o
1577:source/Heavy_grillosychicharrasosc.cpp ****   switch (msg_getHash(m, 0)) {
1578:source/Heavy_grillosychicharrasosc.cpp ****     case 0x7E64BD01: { // "seed"
1579:source/Heavy_grillosychicharrasosc.cpp ****       cSlice_onMessage(_c, &Context(_c)->cSlice_0bPF1CDO, 0, m, &cSlice_0bPF1CDO_sendMessage);
1580:source/Heavy_grillosychicharrasosc.cpp ****       break;
1581:source/Heavy_grillosychicharrasosc.cpp ****     }
1582:source/Heavy_grillosychicharrasosc.cpp ****     default: {
1583:source/Heavy_grillosychicharrasosc.cpp ****       cRandom_onMessage(_c, &Context(_c)->cRandom_2so6wfvk, 0, m, &cRandom_2so6wfvk_sendMessage);
1584:source/Heavy_grillosychicharrasosc.cpp ****       break;
1585:source/Heavy_grillosychicharrasosc.cpp ****     }
1586:source/Heavy_grillosychicharrasosc.cpp ****   }
1587:source/Heavy_grillosychicharrasosc.cpp **** }
1588:source/Heavy_grillosychicharrasosc.cpp **** 
1589:source/Heavy_grillosychicharrasosc.cpp **** void Heavy_grillosychicharrasosc::cBinop_tLBIwWgs_sendMessage(HeavyContextInterface *_c, int letIn,
1590:source/Heavy_grillosychicharrasosc.cpp ****   cUnop_onMessage(_c, HV_UNOP_FLOOR, m, &cUnop_pKlIlXfO_sendMessage);
1591:source/Heavy_grillosychicharrasosc.cpp **** }
1592:source/Heavy_grillosychicharrasosc.cpp **** 
1593:source/Heavy_grillosychicharrasosc.cpp **** void Heavy_grillosychicharrasosc::cUnop_pKlIlXfO_sendMessage(HeavyContextInterface *_c, int letIn, 
1594:source/Heavy_grillosychicharrasosc.cpp ****   cBinop_k_onMessage(_c, NULL, HV_BINOP_ADD, 10000.0f, 0, m, &cBinop_zBVCIRI5_sendMessage);
1595:source/Heavy_grillosychicharrasosc.cpp **** }
1596:source/Heavy_grillosychicharrasosc.cpp **** 
1597:source/Heavy_grillosychicharrasosc.cpp **** void Heavy_grillosychicharrasosc::cRandom_2so6wfvk_sendMessage(HeavyContextInterface *_c, int letIn
1598:source/Heavy_grillosychicharrasosc.cpp ****   cBinop_k_onMessage(_c, NULL, HV_BINOP_MULTIPLY, 2000.0f, 0, m, &cBinop_tLBIwWgs_sendMessage);
1599:source/Heavy_grillosychicharrasosc.cpp **** }
1600:source/Heavy_grillosychicharrasosc.cpp **** 
1601:source/Heavy_grillosychicharrasosc.cpp **** void Heavy_grillosychicharrasosc::cSlice_0bPF1CDO_sendMessage(HeavyContextInterface *_c, int letIn,
1602:source/Heavy_grillosychicharrasosc.cpp ****   switch (letIn) {
1603:source/Heavy_grillosychicharrasosc.cpp ****     case 0: {
1604:source/Heavy_grillosychicharrasosc.cpp ****       cRandom_onMessage(_c, &Context(_c)->cRandom_2so6wfvk, 1, m, &cRandom_2so6wfvk_sendMessage);
1605:source/Heavy_grillosychicharrasosc.cpp ****       break;
1606:source/Heavy_grillosychicharrasosc.cpp ****     }
1607:source/Heavy_grillosychicharrasosc.cpp ****     case 1: {
1608:source/Heavy_grillosychicharrasosc.cpp ****       break;
ARM GAS  /var/folders/fb/yfxt3z4538j6z0vjt03w70vc0000gn/T//cc7XoObz.s 			page 38


1609:source/Heavy_grillosychicharrasosc.cpp ****     }
1610:source/Heavy_grillosychicharrasosc.cpp ****     default: return;
1611:source/Heavy_grillosychicharrasosc.cpp ****   }
1612:source/Heavy_grillosychicharrasosc.cpp **** }
1613:source/Heavy_grillosychicharrasosc.cpp **** 
1614:source/Heavy_grillosychicharrasosc.cpp **** void Heavy_grillosychicharrasosc::cSwitchcase_7XYtZaPr_onMessage(HeavyContextInterface *_c, void *o
1615:source/Heavy_grillosychicharrasosc.cpp ****   switch (msg_getHash(m, 0)) {
1616:source/Heavy_grillosychicharrasosc.cpp ****     case 0x0: { // "0.0"
1617:source/Heavy_grillosychicharrasosc.cpp ****       cMsg_YHMVHhtc_sendMessage(_c, 0, m);
1618:source/Heavy_grillosychicharrasosc.cpp ****       break;
1619:source/Heavy_grillosychicharrasosc.cpp ****     }
1620:source/Heavy_grillosychicharrasosc.cpp ****     case 0x7A5B032D: { // "stop"
1621:source/Heavy_grillosychicharrasosc.cpp ****       cMsg_YHMVHhtc_sendMessage(_c, 0, m);
1622:source/Heavy_grillosychicharrasosc.cpp ****       break;
1623:source/Heavy_grillosychicharrasosc.cpp ****     }
1624:source/Heavy_grillosychicharrasosc.cpp ****     default: {
1625:source/Heavy_grillosychicharrasosc.cpp ****       cCast_onMessage(_c, HV_CAST_BANG, 0, m, &cCast_7wQgkZA8_sendMessage);
1626:source/Heavy_grillosychicharrasosc.cpp ****       break;
1627:source/Heavy_grillosychicharrasosc.cpp ****     }
1628:source/Heavy_grillosychicharrasosc.cpp ****   }
1629:source/Heavy_grillosychicharrasosc.cpp **** }
1630:source/Heavy_grillosychicharrasosc.cpp **** 
1631:source/Heavy_grillosychicharrasosc.cpp **** void Heavy_grillosychicharrasosc::cDelay_Cyt5ljfN_sendMessage(HeavyContextInterface *_c, int letIn,
1632:source/Heavy_grillosychicharrasosc.cpp ****   cDelay_clearExecutingMessage(&Context(_c)->cDelay_Cyt5ljfN, m);
1633:source/Heavy_grillosychicharrasosc.cpp ****   cDelay_onMessage(_c, &Context(_c)->cDelay_Cyt5ljfN, 0, m, &cDelay_Cyt5ljfN_sendMessage);
1634:source/Heavy_grillosychicharrasosc.cpp ****   cSwitchcase_NYogtbpd_onMessage(_c, NULL, 0, m, NULL);
1635:source/Heavy_grillosychicharrasosc.cpp ****   cSwitchcase_bPVGaSha_onMessage(_c, NULL, 0, m, NULL);
1636:source/Heavy_grillosychicharrasosc.cpp **** }
1637:source/Heavy_grillosychicharrasosc.cpp **** 
1638:source/Heavy_grillosychicharrasosc.cpp **** void Heavy_grillosychicharrasosc::cCast_7wQgkZA8_sendMessage(HeavyContextInterface *_c, int letIn, 
1639:source/Heavy_grillosychicharrasosc.cpp ****   cMsg_YHMVHhtc_sendMessage(_c, 0, m);
1640:source/Heavy_grillosychicharrasosc.cpp ****   cDelay_onMessage(_c, &Context(_c)->cDelay_Cyt5ljfN, 0, m, &cDelay_Cyt5ljfN_sendMessage);
1641:source/Heavy_grillosychicharrasosc.cpp ****   cSwitchcase_NYogtbpd_onMessage(_c, NULL, 0, m, NULL);
1642:source/Heavy_grillosychicharrasosc.cpp ****   cSwitchcase_bPVGaSha_onMessage(_c, NULL, 0, m, NULL);
1643:source/Heavy_grillosychicharrasosc.cpp **** }
1644:source/Heavy_grillosychicharrasosc.cpp **** 
1645:source/Heavy_grillosychicharrasosc.cpp **** void Heavy_grillosychicharrasosc::cMsg_mq9mNoep_sendMessage(HeavyContextInterface *_c, int letIn, c
1646:source/Heavy_grillosychicharrasosc.cpp ****   HvMessage *m = nullptr;
1647:source/Heavy_grillosychicharrasosc.cpp ****   m = HV_MESSAGE_ON_STACK(1);
1648:source/Heavy_grillosychicharrasosc.cpp ****   msg_init(m, 1, msg_getTimestamp(n));
1649:source/Heavy_grillosychicharrasosc.cpp ****   msg_setSymbol(m, 0, "samplerate");
1650:source/Heavy_grillosychicharrasosc.cpp ****   cSystem_onMessage(_c, NULL, 0, m, &cSystem_aqddLF7P_sendMessage);
1651:source/Heavy_grillosychicharrasosc.cpp **** }
1652:source/Heavy_grillosychicharrasosc.cpp **** 
1653:source/Heavy_grillosychicharrasosc.cpp **** void Heavy_grillosychicharrasosc::cSystem_aqddLF7P_sendMessage(HeavyContextInterface *_c, int letIn
1654:source/Heavy_grillosychicharrasosc.cpp ****   cBinop_k_onMessage(_c, NULL, HV_BINOP_DIVIDE, 1000.0f, 0, m, &cBinop_vfQSCO7E_sendMessage);
1655:source/Heavy_grillosychicharrasosc.cpp **** }
1656:source/Heavy_grillosychicharrasosc.cpp **** 
1657:source/Heavy_grillosychicharrasosc.cpp **** void Heavy_grillosychicharrasosc::cVar_KZzpRZHu_sendMessage(HeavyContextInterface *_c, int letIn, c
1658:source/Heavy_grillosychicharrasosc.cpp ****   cBinop_onMessage(_c, &Context(_c)->cBinop_EaLgdUhr, HV_BINOP_MULTIPLY, 0, m, &cBinop_EaLgdUhr_sen
1659:source/Heavy_grillosychicharrasosc.cpp **** }
1660:source/Heavy_grillosychicharrasosc.cpp **** 
1661:source/Heavy_grillosychicharrasosc.cpp **** void Heavy_grillosychicharrasosc::cMsg_YHMVHhtc_sendMessage(HeavyContextInterface *_c, int letIn, c
1662:source/Heavy_grillosychicharrasosc.cpp ****   HvMessage *m = nullptr;
1663:source/Heavy_grillosychicharrasosc.cpp ****   m = HV_MESSAGE_ON_STACK(1);
1664:source/Heavy_grillosychicharrasosc.cpp ****   msg_init(m, 1, msg_getTimestamp(n));
1665:source/Heavy_grillosychicharrasosc.cpp ****   msg_setSymbol(m, 0, "clear");
ARM GAS  /var/folders/fb/yfxt3z4538j6z0vjt03w70vc0000gn/T//cc7XoObz.s 			page 39


1666:source/Heavy_grillosychicharrasosc.cpp ****   cDelay_onMessage(_c, &Context(_c)->cDelay_Cyt5ljfN, 0, m, &cDelay_Cyt5ljfN_sendMessage);
1667:source/Heavy_grillosychicharrasosc.cpp **** }
1668:source/Heavy_grillosychicharrasosc.cpp **** 
1669:source/Heavy_grillosychicharrasosc.cpp **** void Heavy_grillosychicharrasosc::cBinop_ax2bMkL6_sendMessage(HeavyContextInterface *_c, int letIn,
1670:source/Heavy_grillosychicharrasosc.cpp ****   cDelay_onMessage(_c, &Context(_c)->cDelay_Cyt5ljfN, 2, m, &cDelay_Cyt5ljfN_sendMessage);
1671:source/Heavy_grillosychicharrasosc.cpp **** }
1672:source/Heavy_grillosychicharrasosc.cpp **** 
1673:source/Heavy_grillosychicharrasosc.cpp **** void Heavy_grillosychicharrasosc::cBinop_vfQSCO7E_sendMessage(HeavyContextInterface *_c, int letIn,
1674:source/Heavy_grillosychicharrasosc.cpp ****   cBinop_onMessage(_c, &Context(_c)->cBinop_EaLgdUhr, HV_BINOP_MULTIPLY, 1, m, &cBinop_EaLgdUhr_sen
1675:source/Heavy_grillosychicharrasosc.cpp **** }
1676:source/Heavy_grillosychicharrasosc.cpp **** 
1677:source/Heavy_grillosychicharrasosc.cpp **** void Heavy_grillosychicharrasosc::cBinop_EaLgdUhr_sendMessage(HeavyContextInterface *_c, int letIn,
1678:source/Heavy_grillosychicharrasosc.cpp ****   cBinop_k_onMessage(_c, NULL, HV_BINOP_MAX, 1.0f, 0, m, &cBinop_ax2bMkL6_sendMessage);
1679:source/Heavy_grillosychicharrasosc.cpp **** }
1680:source/Heavy_grillosychicharrasosc.cpp **** 
1681:source/Heavy_grillosychicharrasosc.cpp **** void Heavy_grillosychicharrasosc::cSwitchcase_NYogtbpd_onMessage(HeavyContextInterface *_c, void *o
1682:source/Heavy_grillosychicharrasosc.cpp ****   switch (msg_getHash(m, 0)) {
1683:source/Heavy_grillosychicharrasosc.cpp ****     case 0x7E64BD01: { // "seed"
1684:source/Heavy_grillosychicharrasosc.cpp ****       cSlice_onMessage(_c, &Context(_c)->cSlice_H8WLX0Iq, 0, m, &cSlice_H8WLX0Iq_sendMessage);
1685:source/Heavy_grillosychicharrasosc.cpp ****       break;
1686:source/Heavy_grillosychicharrasosc.cpp ****     }
1687:source/Heavy_grillosychicharrasosc.cpp ****     default: {
1688:source/Heavy_grillosychicharrasosc.cpp ****       cRandom_onMessage(_c, &Context(_c)->cRandom_YHJH6zTc, 0, m, &cRandom_YHJH6zTc_sendMessage);
1689:source/Heavy_grillosychicharrasosc.cpp ****       break;
1690:source/Heavy_grillosychicharrasosc.cpp ****     }
1691:source/Heavy_grillosychicharrasosc.cpp ****   }
1692:source/Heavy_grillosychicharrasosc.cpp **** }
1693:source/Heavy_grillosychicharrasosc.cpp **** 
1694:source/Heavy_grillosychicharrasosc.cpp **** void Heavy_grillosychicharrasosc::cBinop_VSHSmeue_sendMessage(HeavyContextInterface *_c, int letIn,
1695:source/Heavy_grillosychicharrasosc.cpp ****   cUnop_onMessage(_c, HV_UNOP_FLOOR, m, &cUnop_GwbmXk9G_sendMessage);
1696:source/Heavy_grillosychicharrasosc.cpp **** }
1697:source/Heavy_grillosychicharrasosc.cpp **** 
1698:source/Heavy_grillosychicharrasosc.cpp **** void Heavy_grillosychicharrasosc::cUnop_GwbmXk9G_sendMessage(HeavyContextInterface *_c, int letIn, 
1699:source/Heavy_grillosychicharrasosc.cpp ****   cSwitchcase_XTbeg9bg_onMessage(_c, NULL, 0, m, NULL);
1700:source/Heavy_grillosychicharrasosc.cpp **** }
1701:source/Heavy_grillosychicharrasosc.cpp **** 
1702:source/Heavy_grillosychicharrasosc.cpp **** void Heavy_grillosychicharrasosc::cRandom_YHJH6zTc_sendMessage(HeavyContextInterface *_c, int letIn
1703:source/Heavy_grillosychicharrasosc.cpp ****   cBinop_k_onMessage(_c, NULL, HV_BINOP_MULTIPLY, 100.0f, 0, m, &cBinop_VSHSmeue_sendMessage);
1704:source/Heavy_grillosychicharrasosc.cpp **** }
1705:source/Heavy_grillosychicharrasosc.cpp **** 
1706:source/Heavy_grillosychicharrasosc.cpp **** void Heavy_grillosychicharrasosc::cSlice_H8WLX0Iq_sendMessage(HeavyContextInterface *_c, int letIn,
1707:source/Heavy_grillosychicharrasosc.cpp ****   switch (letIn) {
1708:source/Heavy_grillosychicharrasosc.cpp ****     case 0: {
1709:source/Heavy_grillosychicharrasosc.cpp ****       cRandom_onMessage(_c, &Context(_c)->cRandom_YHJH6zTc, 1, m, &cRandom_YHJH6zTc_sendMessage);
1710:source/Heavy_grillosychicharrasosc.cpp ****       break;
1711:source/Heavy_grillosychicharrasosc.cpp ****     }
1712:source/Heavy_grillosychicharrasosc.cpp ****     case 1: {
1713:source/Heavy_grillosychicharrasosc.cpp ****       break;
1714:source/Heavy_grillosychicharrasosc.cpp ****     }
1715:source/Heavy_grillosychicharrasosc.cpp ****     default: return;
1716:source/Heavy_grillosychicharrasosc.cpp ****   }
1717:source/Heavy_grillosychicharrasosc.cpp **** }
1718:source/Heavy_grillosychicharrasosc.cpp **** 
1719:source/Heavy_grillosychicharrasosc.cpp **** void Heavy_grillosychicharrasosc::cSwitchcase_bPVGaSha_onMessage(HeavyContextInterface *_c, void *o
1720:source/Heavy_grillosychicharrasosc.cpp ****   switch (msg_getHash(m, 0)) {
1721:source/Heavy_grillosychicharrasosc.cpp ****     case 0x7E64BD01: { // "seed"
1722:source/Heavy_grillosychicharrasosc.cpp ****       cSlice_onMessage(_c, &Context(_c)->cSlice_jIX7xxc7, 0, m, &cSlice_jIX7xxc7_sendMessage);
ARM GAS  /var/folders/fb/yfxt3z4538j6z0vjt03w70vc0000gn/T//cc7XoObz.s 			page 40


1723:source/Heavy_grillosychicharrasosc.cpp ****       break;
1724:source/Heavy_grillosychicharrasosc.cpp ****     }
1725:source/Heavy_grillosychicharrasosc.cpp ****     default: {
1726:source/Heavy_grillosychicharrasosc.cpp ****       cRandom_onMessage(_c, &Context(_c)->cRandom_PiQsvku9, 0, m, &cRandom_PiQsvku9_sendMessage);
1727:source/Heavy_grillosychicharrasosc.cpp ****       break;
1728:source/Heavy_grillosychicharrasosc.cpp ****     }
1729:source/Heavy_grillosychicharrasosc.cpp ****   }
1730:source/Heavy_grillosychicharrasosc.cpp **** }
1731:source/Heavy_grillosychicharrasosc.cpp **** 
1732:source/Heavy_grillosychicharrasosc.cpp **** void Heavy_grillosychicharrasosc::cBinop_K87lg2Hy_sendMessage(HeavyContextInterface *_c, int letIn,
1733:source/Heavy_grillosychicharrasosc.cpp ****   cUnop_onMessage(_c, HV_UNOP_FLOOR, m, &cUnop_tvmSOMPn_sendMessage);
1734:source/Heavy_grillosychicharrasosc.cpp **** }
1735:source/Heavy_grillosychicharrasosc.cpp **** 
1736:source/Heavy_grillosychicharrasosc.cpp **** void Heavy_grillosychicharrasosc::cUnop_tvmSOMPn_sendMessage(HeavyContextInterface *_c, int letIn, 
1737:source/Heavy_grillosychicharrasosc.cpp ****   cBinop_k_onMessage(_c, NULL, HV_BINOP_ADD, 5000.0f, 0, m, &cBinop_5x7W9Etc_sendMessage);
1738:source/Heavy_grillosychicharrasosc.cpp **** }
1739:source/Heavy_grillosychicharrasosc.cpp **** 
1740:source/Heavy_grillosychicharrasosc.cpp **** void Heavy_grillosychicharrasosc::cRandom_PiQsvku9_sendMessage(HeavyContextInterface *_c, int letIn
1741:source/Heavy_grillosychicharrasosc.cpp ****   cBinop_k_onMessage(_c, NULL, HV_BINOP_MULTIPLY, 5000.0f, 0, m, &cBinop_K87lg2Hy_sendMessage);
1742:source/Heavy_grillosychicharrasosc.cpp **** }
1743:source/Heavy_grillosychicharrasosc.cpp **** 
1744:source/Heavy_grillosychicharrasosc.cpp **** void Heavy_grillosychicharrasosc::cSlice_jIX7xxc7_sendMessage(HeavyContextInterface *_c, int letIn,
1745:source/Heavy_grillosychicharrasosc.cpp ****   switch (letIn) {
1746:source/Heavy_grillosychicharrasosc.cpp ****     case 0: {
1747:source/Heavy_grillosychicharrasosc.cpp ****       cRandom_onMessage(_c, &Context(_c)->cRandom_PiQsvku9, 1, m, &cRandom_PiQsvku9_sendMessage);
1748:source/Heavy_grillosychicharrasosc.cpp ****       break;
1749:source/Heavy_grillosychicharrasosc.cpp ****     }
1750:source/Heavy_grillosychicharrasosc.cpp ****     case 1: {
1751:source/Heavy_grillosychicharrasosc.cpp ****       break;
1752:source/Heavy_grillosychicharrasosc.cpp ****     }
1753:source/Heavy_grillosychicharrasosc.cpp ****     default: return;
1754:source/Heavy_grillosychicharrasosc.cpp ****   }
1755:source/Heavy_grillosychicharrasosc.cpp **** }
1756:source/Heavy_grillosychicharrasosc.cpp **** 
1757:source/Heavy_grillosychicharrasosc.cpp **** void Heavy_grillosychicharrasosc::cMsg_p6ysPqau_sendMessage(HeavyContextInterface *_c, int letIn, c
1758:source/Heavy_grillosychicharrasosc.cpp ****   HvMessage *m = nullptr;
1759:source/Heavy_grillosychicharrasosc.cpp ****   m = HV_MESSAGE_ON_STACK(1);
1760:source/Heavy_grillosychicharrasosc.cpp ****   msg_init(m, 1, msg_getTimestamp(n));
1761:source/Heavy_grillosychicharrasosc.cpp ****   msg_setSymbol(m, 0, "samplerate");
1762:source/Heavy_grillosychicharrasosc.cpp ****   cSystem_onMessage(_c, NULL, 0, m, &cSystem_fNoxrzOT_sendMessage);
1763:source/Heavy_grillosychicharrasosc.cpp **** }
1764:source/Heavy_grillosychicharrasosc.cpp **** 
1765:source/Heavy_grillosychicharrasosc.cpp **** void Heavy_grillosychicharrasosc::cSystem_fNoxrzOT_sendMessage(HeavyContextInterface *_c, int letIn
1766:source/Heavy_grillosychicharrasosc.cpp ****   cBinop_onMessage(_c, &Context(_c)->cBinop_quEGVJ1U, HV_BINOP_MULTIPLY, 1, m, &cBinop_quEGVJ1U_sen
1767:source/Heavy_grillosychicharrasosc.cpp ****   cBinop_onMessage(_c, &Context(_c)->cBinop_96fhtK7S, HV_BINOP_MULTIPLY, 1, m, &cBinop_96fhtK7S_sen
1768:source/Heavy_grillosychicharrasosc.cpp **** }
1769:source/Heavy_grillosychicharrasosc.cpp **** 
1770:source/Heavy_grillosychicharrasosc.cpp **** void Heavy_grillosychicharrasosc::cSwitchcase_yIKEkqJb_onMessage(HeavyContextInterface *_c, void *o
1771:source/Heavy_grillosychicharrasosc.cpp ****   switch (msg_getHash(m, 0)) {
1772:source/Heavy_grillosychicharrasosc.cpp ****     case 0x0: { // "0.0"
1773:source/Heavy_grillosychicharrasosc.cpp ****       cMsg_mcNBLSnI_sendMessage(_c, 0, m);
1774:source/Heavy_grillosychicharrasosc.cpp ****       break;
1775:source/Heavy_grillosychicharrasosc.cpp ****     }
1776:source/Heavy_grillosychicharrasosc.cpp ****     case 0x7A5B032D: { // "stop"
1777:source/Heavy_grillosychicharrasosc.cpp ****       cMsg_mcNBLSnI_sendMessage(_c, 0, m);
1778:source/Heavy_grillosychicharrasosc.cpp ****       break;
1779:source/Heavy_grillosychicharrasosc.cpp ****     }
ARM GAS  /var/folders/fb/yfxt3z4538j6z0vjt03w70vc0000gn/T//cc7XoObz.s 			page 41


1780:source/Heavy_grillosychicharrasosc.cpp ****     default: {
1781:source/Heavy_grillosychicharrasosc.cpp ****       cCast_onMessage(_c, HV_CAST_BANG, 0, m, &cCast_2sSdeL2o_sendMessage);
1782:source/Heavy_grillosychicharrasosc.cpp ****       break;
1783:source/Heavy_grillosychicharrasosc.cpp ****     }
1784:source/Heavy_grillosychicharrasosc.cpp ****   }
1785:source/Heavy_grillosychicharrasosc.cpp **** }
1786:source/Heavy_grillosychicharrasosc.cpp **** 
1787:source/Heavy_grillosychicharrasosc.cpp **** void Heavy_grillosychicharrasosc::cDelay_PqaUaY8t_sendMessage(HeavyContextInterface *_c, int letIn,
1788:source/Heavy_grillosychicharrasosc.cpp ****   cDelay_clearExecutingMessage(&Context(_c)->cDelay_PqaUaY8t, m);
1789:source/Heavy_grillosychicharrasosc.cpp ****   cDelay_onMessage(_c, &Context(_c)->cDelay_PqaUaY8t, 0, m, &cDelay_PqaUaY8t_sendMessage);
1790:source/Heavy_grillosychicharrasosc.cpp ****   cVar_onMessage(_c, &Context(_c)->cVar_OIqXkG1F, 0, m, &cVar_OIqXkG1F_sendMessage);
1791:source/Heavy_grillosychicharrasosc.cpp **** }
1792:source/Heavy_grillosychicharrasosc.cpp **** 
1793:source/Heavy_grillosychicharrasosc.cpp **** void Heavy_grillosychicharrasosc::cCast_2sSdeL2o_sendMessage(HeavyContextInterface *_c, int letIn, 
1794:source/Heavy_grillosychicharrasosc.cpp ****   cMsg_mcNBLSnI_sendMessage(_c, 0, m);
1795:source/Heavy_grillosychicharrasosc.cpp ****   cDelay_onMessage(_c, &Context(_c)->cDelay_PqaUaY8t, 0, m, &cDelay_PqaUaY8t_sendMessage);
1796:source/Heavy_grillosychicharrasosc.cpp ****   cVar_onMessage(_c, &Context(_c)->cVar_OIqXkG1F, 0, m, &cVar_OIqXkG1F_sendMessage);
1797:source/Heavy_grillosychicharrasosc.cpp **** }
1798:source/Heavy_grillosychicharrasosc.cpp **** 
1799:source/Heavy_grillosychicharrasosc.cpp **** void Heavy_grillosychicharrasosc::cMsg_LhmEaKsR_sendMessage(HeavyContextInterface *_c, int letIn, c
1800:source/Heavy_grillosychicharrasosc.cpp ****   HvMessage *m = nullptr;
1801:source/Heavy_grillosychicharrasosc.cpp ****   m = HV_MESSAGE_ON_STACK(1);
1802:source/Heavy_grillosychicharrasosc.cpp ****   msg_init(m, 1, msg_getTimestamp(n));
1803:source/Heavy_grillosychicharrasosc.cpp ****   msg_setSymbol(m, 0, "samplerate");
1804:source/Heavy_grillosychicharrasosc.cpp ****   cSystem_onMessage(_c, NULL, 0, m, &cSystem_x30WhkBe_sendMessage);
1805:source/Heavy_grillosychicharrasosc.cpp **** }
1806:source/Heavy_grillosychicharrasosc.cpp **** 
1807:source/Heavy_grillosychicharrasosc.cpp **** void Heavy_grillosychicharrasosc::cSystem_x30WhkBe_sendMessage(HeavyContextInterface *_c, int letIn
1808:source/Heavy_grillosychicharrasosc.cpp ****   cBinop_k_onMessage(_c, NULL, HV_BINOP_DIVIDE, 1000.0f, 0, m, &cBinop_SivKmNdC_sendMessage);
1809:source/Heavy_grillosychicharrasosc.cpp **** }
1810:source/Heavy_grillosychicharrasosc.cpp **** 
1811:source/Heavy_grillosychicharrasosc.cpp **** void Heavy_grillosychicharrasosc::cVar_QQ3c7mjd_sendMessage(HeavyContextInterface *_c, int letIn, c
1812:source/Heavy_grillosychicharrasosc.cpp ****   cBinop_onMessage(_c, &Context(_c)->cBinop_0EEBEXb9, HV_BINOP_MULTIPLY, 0, m, &cBinop_0EEBEXb9_sen
1813:source/Heavy_grillosychicharrasosc.cpp **** }
1814:source/Heavy_grillosychicharrasosc.cpp **** 
1815:source/Heavy_grillosychicharrasosc.cpp **** void Heavy_grillosychicharrasosc::cMsg_mcNBLSnI_sendMessage(HeavyContextInterface *_c, int letIn, c
1816:source/Heavy_grillosychicharrasosc.cpp ****   HvMessage *m = nullptr;
1817:source/Heavy_grillosychicharrasosc.cpp ****   m = HV_MESSAGE_ON_STACK(1);
1818:source/Heavy_grillosychicharrasosc.cpp ****   msg_init(m, 1, msg_getTimestamp(n));
1819:source/Heavy_grillosychicharrasosc.cpp ****   msg_setSymbol(m, 0, "clear");
1820:source/Heavy_grillosychicharrasosc.cpp ****   cDelay_onMessage(_c, &Context(_c)->cDelay_PqaUaY8t, 0, m, &cDelay_PqaUaY8t_sendMessage);
1821:source/Heavy_grillosychicharrasosc.cpp **** }
1822:source/Heavy_grillosychicharrasosc.cpp **** 
1823:source/Heavy_grillosychicharrasosc.cpp **** void Heavy_grillosychicharrasosc::cBinop_LnBVPhpy_sendMessage(HeavyContextInterface *_c, int letIn,
1824:source/Heavy_grillosychicharrasosc.cpp ****   cDelay_onMessage(_c, &Context(_c)->cDelay_PqaUaY8t, 2, m, &cDelay_PqaUaY8t_sendMessage);
1825:source/Heavy_grillosychicharrasosc.cpp **** }
1826:source/Heavy_grillosychicharrasosc.cpp **** 
1827:source/Heavy_grillosychicharrasosc.cpp **** void Heavy_grillosychicharrasosc::cBinop_SivKmNdC_sendMessage(HeavyContextInterface *_c, int letIn,
1828:source/Heavy_grillosychicharrasosc.cpp ****   cBinop_onMessage(_c, &Context(_c)->cBinop_0EEBEXb9, HV_BINOP_MULTIPLY, 1, m, &cBinop_0EEBEXb9_sen
1829:source/Heavy_grillosychicharrasosc.cpp **** }
1830:source/Heavy_grillosychicharrasosc.cpp **** 
1831:source/Heavy_grillosychicharrasosc.cpp **** void Heavy_grillosychicharrasosc::cBinop_0EEBEXb9_sendMessage(HeavyContextInterface *_c, int letIn,
1832:source/Heavy_grillosychicharrasosc.cpp ****   cBinop_k_onMessage(_c, NULL, HV_BINOP_MAX, 1.0f, 0, m, &cBinop_LnBVPhpy_sendMessage);
1833:source/Heavy_grillosychicharrasosc.cpp **** }
1834:source/Heavy_grillosychicharrasosc.cpp **** 
1835:source/Heavy_grillosychicharrasosc.cpp **** void Heavy_grillosychicharrasosc::cVar_OIqXkG1F_sendMessage(HeavyContextInterface *_c, int letIn, c
1836:source/Heavy_grillosychicharrasosc.cpp ****   cBinop_onMessage(_c, &Context(_c)->cBinop_Y9zFco5H, HV_BINOP_SUBTRACT, 0, m, &cBinop_Y9zFco5H_sen
ARM GAS  /var/folders/fb/yfxt3z4538j6z0vjt03w70vc0000gn/T//cc7XoObz.s 			page 42


1837:source/Heavy_grillosychicharrasosc.cpp ****   cBinop_k_onMessage(_c, NULL, HV_BINOP_LESS_THAN_EQL, 0.0f, 0, m, &cBinop_f28B4zty_sendMessage);
1838:source/Heavy_grillosychicharrasosc.cpp **** }
1839:source/Heavy_grillosychicharrasosc.cpp **** 
1840:source/Heavy_grillosychicharrasosc.cpp **** void Heavy_grillosychicharrasosc::cSwitchcase_dzAK6N91_onMessage(HeavyContextInterface *_c, void *o
1841:source/Heavy_grillosychicharrasosc.cpp ****   switch (msg_getHash(m, 0)) {
1842:source/Heavy_grillosychicharrasosc.cpp ****     case 0x0: { // "0.0"
1843:source/Heavy_grillosychicharrasosc.cpp ****       cCast_onMessage(_c, HV_CAST_BANG, 0, m, &cCast_XnLeU43m_sendMessage);
1844:source/Heavy_grillosychicharrasosc.cpp ****       break;
1845:source/Heavy_grillosychicharrasosc.cpp ****     }
1846:source/Heavy_grillosychicharrasosc.cpp ****     case 0x3F800000: { // "1.0"
1847:source/Heavy_grillosychicharrasosc.cpp ****       cCast_onMessage(_c, HV_CAST_BANG, 0, m, &cCast_2idDL7H2_sendMessage);
1848:source/Heavy_grillosychicharrasosc.cpp ****       break;
1849:source/Heavy_grillosychicharrasosc.cpp ****     }
1850:source/Heavy_grillosychicharrasosc.cpp ****     default: {
1851:source/Heavy_grillosychicharrasosc.cpp ****       break;
1852:source/Heavy_grillosychicharrasosc.cpp ****     }
1853:source/Heavy_grillosychicharrasosc.cpp ****   }
1854:source/Heavy_grillosychicharrasosc.cpp **** }
1855:source/Heavy_grillosychicharrasosc.cpp **** 
1856:source/Heavy_grillosychicharrasosc.cpp **** void Heavy_grillosychicharrasosc::cCast_XnLeU43m_sendMessage(HeavyContextInterface *_c, int letIn, 
1857:source/Heavy_grillosychicharrasosc.cpp ****   cVar_onMessage(_c, &Context(_c)->cVar_BGG0hetm, 0, m, &cVar_BGG0hetm_sendMessage);
1858:source/Heavy_grillosychicharrasosc.cpp **** }
1859:source/Heavy_grillosychicharrasosc.cpp **** 
1860:source/Heavy_grillosychicharrasosc.cpp **** void Heavy_grillosychicharrasosc::cCast_2idDL7H2_sendMessage(HeavyContextInterface *_c, int letIn, 
1861:source/Heavy_grillosychicharrasosc.cpp ****   cCast_onMessage(_c, HV_CAST_BANG, 0, m, &cCast_HVzaY7BS_sendMessage);
1862:source/Heavy_grillosychicharrasosc.cpp ****   cCast_onMessage(_c, HV_CAST_BANG, 0, m, &cCast_jVJK1QaI_sendMessage);
1863:source/Heavy_grillosychicharrasosc.cpp **** }
1864:source/Heavy_grillosychicharrasosc.cpp **** 
1865:source/Heavy_grillosychicharrasosc.cpp **** void Heavy_grillosychicharrasosc::cSwitchcase_XTbeg9bg_onMessage(HeavyContextInterface *_c, void *o
1866:source/Heavy_grillosychicharrasosc.cpp ****   switch (msg_getHash(m, 0)) {
1867:source/Heavy_grillosychicharrasosc.cpp ****     case 0x7A5B032D: { // "stop"
1868:source/Heavy_grillosychicharrasosc.cpp ****       cSlice_onMessage(_c, &Context(_c)->cSlice_5Qo8DRgA, 0, m, &cSlice_5Qo8DRgA_sendMessage);
1869:source/Heavy_grillosychicharrasosc.cpp ****       break;
1870:source/Heavy_grillosychicharrasosc.cpp ****     }
1871:source/Heavy_grillosychicharrasosc.cpp ****     case 0x3E004DAB: { // "set"
1872:source/Heavy_grillosychicharrasosc.cpp ****       cSlice_onMessage(_c, &Context(_c)->cSlice_8dT8qj1B, 0, m, &cSlice_8dT8qj1B_sendMessage);
1873:source/Heavy_grillosychicharrasosc.cpp ****       break;
1874:source/Heavy_grillosychicharrasosc.cpp ****     }
1875:source/Heavy_grillosychicharrasosc.cpp ****     default: {
1876:source/Heavy_grillosychicharrasosc.cpp ****       cCast_onMessage(_c, HV_CAST_BANG, 0, m, &cCast_L9XikDLN_sendMessage);
1877:source/Heavy_grillosychicharrasosc.cpp ****       cSlice_onMessage(_c, &Context(_c)->cSlice_y08LbGNS, 0, m, &cSlice_y08LbGNS_sendMessage);
1878:source/Heavy_grillosychicharrasosc.cpp ****       cSlice_onMessage(_c, &Context(_c)->cSlice_ov2A0O1C, 0, m, &cSlice_ov2A0O1C_sendMessage);
1879:source/Heavy_grillosychicharrasosc.cpp ****       cCast_onMessage(_c, HV_CAST_BANG, 0, m, &cCast_71qBrZnH_sendMessage);
1880:source/Heavy_grillosychicharrasosc.cpp ****       cCast_onMessage(_c, HV_CAST_BANG, 0, m, &cCast_XOJVBFJe_sendMessage);
1881:source/Heavy_grillosychicharrasosc.cpp ****       break;
1882:source/Heavy_grillosychicharrasosc.cpp ****     }
1883:source/Heavy_grillosychicharrasosc.cpp ****   }
1884:source/Heavy_grillosychicharrasosc.cpp **** }
1885:source/Heavy_grillosychicharrasosc.cpp **** 
1886:source/Heavy_grillosychicharrasosc.cpp **** void Heavy_grillosychicharrasosc::cSlice_5Qo8DRgA_sendMessage(HeavyContextInterface *_c, int letIn,
1887:source/Heavy_grillosychicharrasosc.cpp ****   switch (letIn) {
1888:source/Heavy_grillosychicharrasosc.cpp ****     case 0: {
1889:source/Heavy_grillosychicharrasosc.cpp ****       cMsg_tCM7NJzz_sendMessage(_c, 0, m);
1890:source/Heavy_grillosychicharrasosc.cpp ****       break;
1891:source/Heavy_grillosychicharrasosc.cpp ****     }
1892:source/Heavy_grillosychicharrasosc.cpp ****     case 1: {
1893:source/Heavy_grillosychicharrasosc.cpp ****       cMsg_tCM7NJzz_sendMessage(_c, 0, m);
ARM GAS  /var/folders/fb/yfxt3z4538j6z0vjt03w70vc0000gn/T//cc7XoObz.s 			page 43


1894:source/Heavy_grillosychicharrasosc.cpp ****       break;
1895:source/Heavy_grillosychicharrasosc.cpp ****     }
1896:source/Heavy_grillosychicharrasosc.cpp ****     default: return;
1897:source/Heavy_grillosychicharrasosc.cpp ****   }
1898:source/Heavy_grillosychicharrasosc.cpp **** }
1899:source/Heavy_grillosychicharrasosc.cpp **** 
1900:source/Heavy_grillosychicharrasosc.cpp **** void Heavy_grillosychicharrasosc::cSlice_8dT8qj1B_sendMessage(HeavyContextInterface *_c, int letIn,
1901:source/Heavy_grillosychicharrasosc.cpp ****   switch (letIn) {
1902:source/Heavy_grillosychicharrasosc.cpp ****     case 0: {
1903:source/Heavy_grillosychicharrasosc.cpp ****       cCast_onMessage(_c, HV_CAST_BANG, 0, m, &cCast_gZMON85b_sendMessage);
1904:source/Heavy_grillosychicharrasosc.cpp ****       cCast_onMessage(_c, HV_CAST_FLOAT, 0, m, &cCast_fx59ifmX_sendMessage);
1905:source/Heavy_grillosychicharrasosc.cpp ****       break;
1906:source/Heavy_grillosychicharrasosc.cpp ****     }
1907:source/Heavy_grillosychicharrasosc.cpp ****     case 1: {
1908:source/Heavy_grillosychicharrasosc.cpp ****       cCast_onMessage(_c, HV_CAST_BANG, 0, m, &cCast_gZMON85b_sendMessage);
1909:source/Heavy_grillosychicharrasosc.cpp ****       cCast_onMessage(_c, HV_CAST_FLOAT, 0, m, &cCast_fx59ifmX_sendMessage);
1910:source/Heavy_grillosychicharrasosc.cpp ****       break;
1911:source/Heavy_grillosychicharrasosc.cpp ****     }
1912:source/Heavy_grillosychicharrasosc.cpp ****     default: return;
1913:source/Heavy_grillosychicharrasosc.cpp ****   }
1914:source/Heavy_grillosychicharrasosc.cpp **** }
1915:source/Heavy_grillosychicharrasosc.cpp **** 
1916:source/Heavy_grillosychicharrasosc.cpp **** void Heavy_grillosychicharrasosc::cVar_L86GS0rj_sendMessage(HeavyContextInterface *_c, int letIn, c
1917:source/Heavy_grillosychicharrasosc.cpp ****   cCast_onMessage(_c, HV_CAST_FLOAT, 0, m, &cCast_5TUORvyu_sendMessage);
1918:source/Heavy_grillosychicharrasosc.cpp ****   cCast_onMessage(_c, HV_CAST_FLOAT, 0, m, &cCast_0Zhcg7Yj_sendMessage);
1919:source/Heavy_grillosychicharrasosc.cpp **** }
1920:source/Heavy_grillosychicharrasosc.cpp **** 
1921:source/Heavy_grillosychicharrasosc.cpp **** void Heavy_grillosychicharrasosc::cVar_pOgk2fvX_sendMessage(HeavyContextInterface *_c, int letIn, c
1922:source/Heavy_grillosychicharrasosc.cpp ****   cSwitchcase_1xin6sLZ_onMessage(_c, NULL, 0, m, NULL);
1923:source/Heavy_grillosychicharrasosc.cpp **** }
1924:source/Heavy_grillosychicharrasosc.cpp **** 
1925:source/Heavy_grillosychicharrasosc.cpp **** void Heavy_grillosychicharrasosc::cSwitchcase_1xin6sLZ_onMessage(HeavyContextInterface *_c, void *o
1926:source/Heavy_grillosychicharrasosc.cpp ****   switch (msg_getHash(m, 0)) {
1927:source/Heavy_grillosychicharrasosc.cpp ****     case 0x0: { // "0.0"
1928:source/Heavy_grillosychicharrasosc.cpp ****       cCast_onMessage(_c, HV_CAST_BANG, 0, m, &cCast_O8Hz0Abw_sendMessage);
1929:source/Heavy_grillosychicharrasosc.cpp ****       break;
1930:source/Heavy_grillosychicharrasosc.cpp ****     }
1931:source/Heavy_grillosychicharrasosc.cpp ****     default: {
1932:source/Heavy_grillosychicharrasosc.cpp ****       cBinop_onMessage(_c, &Context(_c)->cBinop_quEGVJ1U, HV_BINOP_MULTIPLY, 0, m, &cBinop_quEGVJ1U
1933:source/Heavy_grillosychicharrasosc.cpp ****       cBinop_onMessage(_c, &Context(_c)->cBinop_zeg3ioTW, HV_BINOP_DIVIDE, 1, m, &cBinop_zeg3ioTW_s
1934:source/Heavy_grillosychicharrasosc.cpp ****       cVar_onMessage(_c, &Context(_c)->cVar_QQ3c7mjd, 0, m, &cVar_QQ3c7mjd_sendMessage);
1935:source/Heavy_grillosychicharrasosc.cpp ****       break;
1936:source/Heavy_grillosychicharrasosc.cpp ****     }
1937:source/Heavy_grillosychicharrasosc.cpp ****   }
1938:source/Heavy_grillosychicharrasosc.cpp **** }
1939:source/Heavy_grillosychicharrasosc.cpp **** 
1940:source/Heavy_grillosychicharrasosc.cpp **** void Heavy_grillosychicharrasosc::cCast_O8Hz0Abw_sendMessage(HeavyContextInterface *_c, int letIn, 
1941:source/Heavy_grillosychicharrasosc.cpp ****   cMsg_NQ2cqRZG_sendMessage(_c, 0, m);
1942:source/Heavy_grillosychicharrasosc.cpp **** }
1943:source/Heavy_grillosychicharrasosc.cpp **** 
1944:source/Heavy_grillosychicharrasosc.cpp **** void Heavy_grillosychicharrasosc::cVar_rRmXwkhu_sendMessage(HeavyContextInterface *_c, int letIn, c
1945:source/Heavy_grillosychicharrasosc.cpp ****   cBinop_onMessage(_c, &Context(_c)->cBinop_Gqj0ryco, HV_BINOP_SUBTRACT, 1, m, &cBinop_Gqj0ryco_sen
1946:source/Heavy_grillosychicharrasosc.cpp **** }
1947:source/Heavy_grillosychicharrasosc.cpp **** 
1948:source/Heavy_grillosychicharrasosc.cpp **** void Heavy_grillosychicharrasosc::cVar_hdQhtWbh_sendMessage(HeavyContextInterface *_c, int letIn, c
1949:source/Heavy_grillosychicharrasosc.cpp ****   cVar_onMessage(_c, &Context(_c)->cVar_BGG0hetm, 0, m, &cVar_BGG0hetm_sendMessage);
1950:source/Heavy_grillosychicharrasosc.cpp **** }
ARM GAS  /var/folders/fb/yfxt3z4538j6z0vjt03w70vc0000gn/T//cc7XoObz.s 			page 44


1951:source/Heavy_grillosychicharrasosc.cpp **** 
1952:source/Heavy_grillosychicharrasosc.cpp **** void Heavy_grillosychicharrasosc::cVar_BGG0hetm_sendMessage(HeavyContextInterface *_c, int letIn, c
1953:source/Heavy_grillosychicharrasosc.cpp ****   cBinop_onMessage(_c, &Context(_c)->cBinop_ea3HLll1, HV_BINOP_ADD, 0, m, &cBinop_ea3HLll1_sendMess
1954:source/Heavy_grillosychicharrasosc.cpp ****   cBinop_onMessage(_c, &Context(_c)->cBinop_5P1Hb7z4, HV_BINOP_ADD, 0, m, &cBinop_5P1Hb7z4_sendMess
1955:source/Heavy_grillosychicharrasosc.cpp ****   cVar_onMessage(_c, &Context(_c)->cVar_OwvzQoYk, 0, m, &cVar_OwvzQoYk_sendMessage);
1956:source/Heavy_grillosychicharrasosc.cpp ****   cBinop_k_onMessage(_c, NULL, HV_BINOP_DIVIDE, 100.0f, 0, m, &cBinop_2gK7CJpd_sendMessage);
1957:source/Heavy_grillosychicharrasosc.cpp **** }
1958:source/Heavy_grillosychicharrasosc.cpp **** 
1959:source/Heavy_grillosychicharrasosc.cpp **** void Heavy_grillosychicharrasosc::cSlice_y08LbGNS_sendMessage(HeavyContextInterface *_c, int letIn,
1960:source/Heavy_grillosychicharrasosc.cpp ****   switch (letIn) {
1961:source/Heavy_grillosychicharrasosc.cpp ****     case 0: {
1962:source/Heavy_grillosychicharrasosc.cpp ****       cCast_onMessage(_c, HV_CAST_FLOAT, 0, m, &cCast_5TUORvyu_sendMessage);
1963:source/Heavy_grillosychicharrasosc.cpp ****       cCast_onMessage(_c, HV_CAST_FLOAT, 0, m, &cCast_0Zhcg7Yj_sendMessage);
1964:source/Heavy_grillosychicharrasosc.cpp ****       break;
1965:source/Heavy_grillosychicharrasosc.cpp ****     }
1966:source/Heavy_grillosychicharrasosc.cpp ****     case 1: {
1967:source/Heavy_grillosychicharrasosc.cpp ****       break;
1968:source/Heavy_grillosychicharrasosc.cpp ****     }
1969:source/Heavy_grillosychicharrasosc.cpp ****     default: return;
1970:source/Heavy_grillosychicharrasosc.cpp ****   }
1971:source/Heavy_grillosychicharrasosc.cpp **** }
1972:source/Heavy_grillosychicharrasosc.cpp **** 
1973:source/Heavy_grillosychicharrasosc.cpp **** void Heavy_grillosychicharrasosc::cSlice_ov2A0O1C_sendMessage(HeavyContextInterface *_c, int letIn,
1974:source/Heavy_grillosychicharrasosc.cpp ****   switch (letIn) {
1975:source/Heavy_grillosychicharrasosc.cpp ****     case 0: {
1976:source/Heavy_grillosychicharrasosc.cpp ****       cCast_onMessage(_c, HV_CAST_FLOAT, 0, m, &cCast_QwN4hcs7_sendMessage);
1977:source/Heavy_grillosychicharrasosc.cpp ****       cCast_onMessage(_c, HV_CAST_FLOAT, 0, m, &cCast_fz4B2R0F_sendMessage);
1978:source/Heavy_grillosychicharrasosc.cpp ****       break;
1979:source/Heavy_grillosychicharrasosc.cpp ****     }
1980:source/Heavy_grillosychicharrasosc.cpp ****     case 1: {
1981:source/Heavy_grillosychicharrasosc.cpp ****       break;
1982:source/Heavy_grillosychicharrasosc.cpp ****     }
1983:source/Heavy_grillosychicharrasosc.cpp ****     default: return;
1984:source/Heavy_grillosychicharrasosc.cpp ****   }
1985:source/Heavy_grillosychicharrasosc.cpp **** }
1986:source/Heavy_grillosychicharrasosc.cpp **** 
1987:source/Heavy_grillosychicharrasosc.cpp **** void Heavy_grillosychicharrasosc::cBinop_Zkut63Cf_sendMessage(HeavyContextInterface *_c, int letIn,
1988:source/Heavy_grillosychicharrasosc.cpp ****   cVar_onMessage(_c, &Context(_c)->cVar_OIqXkG1F, 1, m, &cVar_OIqXkG1F_sendMessage);
1989:source/Heavy_grillosychicharrasosc.cpp **** }
1990:source/Heavy_grillosychicharrasosc.cpp **** 
1991:source/Heavy_grillosychicharrasosc.cpp **** void Heavy_grillosychicharrasosc::cBinop_96fhtK7S_sendMessage(HeavyContextInterface *_c, int letIn,
1992:source/Heavy_grillosychicharrasosc.cpp ****   cBinop_k_onMessage(_c, NULL, HV_BINOP_DIVIDE, 1000.0f, 0, m, &cBinop_Zkut63Cf_sendMessage);
1993:source/Heavy_grillosychicharrasosc.cpp **** }
1994:source/Heavy_grillosychicharrasosc.cpp **** 
1995:source/Heavy_grillosychicharrasosc.cpp **** void Heavy_grillosychicharrasosc::cBinop_quEGVJ1U_sendMessage(HeavyContextInterface *_c, int letIn,
1996:source/Heavy_grillosychicharrasosc.cpp ****   cBinop_k_onMessage(_c, NULL, HV_BINOP_DIVIDE, 1000.0f, 0, m, &cBinop_QoV1xBwp_sendMessage);
1997:source/Heavy_grillosychicharrasosc.cpp **** }
1998:source/Heavy_grillosychicharrasosc.cpp **** 
1999:source/Heavy_grillosychicharrasosc.cpp **** void Heavy_grillosychicharrasosc::cBinop_QoV1xBwp_sendMessage(HeavyContextInterface *_c, int letIn,
2000:source/Heavy_grillosychicharrasosc.cpp ****   cBinop_onMessage(_c, &Context(_c)->cBinop_Y9zFco5H, HV_BINOP_SUBTRACT, 1, m, &cBinop_Y9zFco5H_sen
2001:source/Heavy_grillosychicharrasosc.cpp **** }
2002:source/Heavy_grillosychicharrasosc.cpp **** 
2003:source/Heavy_grillosychicharrasosc.cpp **** void Heavy_grillosychicharrasosc::cBinop_Y9zFco5H_sendMessage(HeavyContextInterface *_c, int letIn,
2004:source/Heavy_grillosychicharrasosc.cpp ****   cVar_onMessage(_c, &Context(_c)->cVar_OIqXkG1F, 1, m, &cVar_OIqXkG1F_sendMessage);
2005:source/Heavy_grillosychicharrasosc.cpp **** }
2006:source/Heavy_grillosychicharrasosc.cpp **** 
2007:source/Heavy_grillosychicharrasosc.cpp **** void Heavy_grillosychicharrasosc::cMsg_ObZXda0t_sendMessage(HeavyContextInterface *_c, int letIn, c
ARM GAS  /var/folders/fb/yfxt3z4538j6z0vjt03w70vc0000gn/T//cc7XoObz.s 			page 45


2008:source/Heavy_grillosychicharrasosc.cpp ****   HvMessage *m = nullptr;
2009:source/Heavy_grillosychicharrasosc.cpp ****   m = HV_MESSAGE_ON_STACK(1);
2010:source/Heavy_grillosychicharrasosc.cpp ****   msg_init(m, 1, msg_getTimestamp(n));
2011:source/Heavy_grillosychicharrasosc.cpp ****   msg_setFloat(m, 0, 1.0f);
2012:source/Heavy_grillosychicharrasosc.cpp ****   cSwitchcase_yIKEkqJb_onMessage(_c, NULL, 0, m, NULL);
2013:source/Heavy_grillosychicharrasosc.cpp **** }
2014:source/Heavy_grillosychicharrasosc.cpp **** 
2015:source/Heavy_grillosychicharrasosc.cpp **** void Heavy_grillosychicharrasosc::cMsg_d0ISqZnl_sendMessage(HeavyContextInterface *_c, int letIn, c
2016:source/Heavy_grillosychicharrasosc.cpp ****   HvMessage *m = nullptr;
2017:source/Heavy_grillosychicharrasosc.cpp ****   m = HV_MESSAGE_ON_STACK(1);
2018:source/Heavy_grillosychicharrasosc.cpp ****   msg_init(m, 1, msg_getTimestamp(n));
2019:source/Heavy_grillosychicharrasosc.cpp ****   msg_setFloat(m, 0, 0.0f);
2020:source/Heavy_grillosychicharrasosc.cpp ****   cSwitchcase_yIKEkqJb_onMessage(_c, NULL, 0, m, NULL);
2021:source/Heavy_grillosychicharrasosc.cpp ****   cBinop_onMessage(_c, &Context(_c)->cBinop_5P1Hb7z4, HV_BINOP_ADD, 1, m, &cBinop_5P1Hb7z4_sendMess
2022:source/Heavy_grillosychicharrasosc.cpp ****   cBinop_onMessage(_c, &Context(_c)->cBinop_ea3HLll1, HV_BINOP_ADD, 1, m, &cBinop_ea3HLll1_sendMess
2023:source/Heavy_grillosychicharrasosc.cpp **** }
2024:source/Heavy_grillosychicharrasosc.cpp **** 
2025:source/Heavy_grillosychicharrasosc.cpp **** void Heavy_grillosychicharrasosc::cBinop_f28B4zty_sendMessage(HeavyContextInterface *_c, int letIn,
2026:source/Heavy_grillosychicharrasosc.cpp ****   cSwitchcase_dzAK6N91_onMessage(_c, NULL, 0, m, NULL);
2027:source/Heavy_grillosychicharrasosc.cpp **** }
2028:source/Heavy_grillosychicharrasosc.cpp **** 
2029:source/Heavy_grillosychicharrasosc.cpp **** void Heavy_grillosychicharrasosc::cBinop_ea3HLll1_sendMessage(HeavyContextInterface *_c, int letIn,
2030:source/Heavy_grillosychicharrasosc.cpp ****   cVar_onMessage(_c, &Context(_c)->cVar_BGG0hetm, 1, m, &cVar_BGG0hetm_sendMessage);
2031:source/Heavy_grillosychicharrasosc.cpp **** }
2032:source/Heavy_grillosychicharrasosc.cpp **** 
2033:source/Heavy_grillosychicharrasosc.cpp **** void Heavy_grillosychicharrasosc::cBinop_zeg3ioTW_sendMessage(HeavyContextInterface *_c, int letIn,
2034:source/Heavy_grillosychicharrasosc.cpp ****   cBinop_onMessage(_c, &Context(_c)->cBinop_khxlaUhk, HV_BINOP_DIVIDE, 1, m, &cBinop_khxlaUhk_sendM
2035:source/Heavy_grillosychicharrasosc.cpp **** }
2036:source/Heavy_grillosychicharrasosc.cpp **** 
2037:source/Heavy_grillosychicharrasosc.cpp **** void Heavy_grillosychicharrasosc::cBinop_khxlaUhk_sendMessage(HeavyContextInterface *_c, int letIn,
2038:source/Heavy_grillosychicharrasosc.cpp ****   cBinop_onMessage(_c, &Context(_c)->cBinop_5P1Hb7z4, HV_BINOP_ADD, 1, m, &cBinop_5P1Hb7z4_sendMess
2039:source/Heavy_grillosychicharrasosc.cpp ****   cBinop_onMessage(_c, &Context(_c)->cBinop_ea3HLll1, HV_BINOP_ADD, 1, m, &cBinop_ea3HLll1_sendMess
2040:source/Heavy_grillosychicharrasosc.cpp **** }
2041:source/Heavy_grillosychicharrasosc.cpp **** 
2042:source/Heavy_grillosychicharrasosc.cpp **** void Heavy_grillosychicharrasosc::cCast_0Zhcg7Yj_sendMessage(HeavyContextInterface *_c, int letIn, 
2043:source/Heavy_grillosychicharrasosc.cpp ****   cBinop_onMessage(_c, &Context(_c)->cBinop_zeg3ioTW, HV_BINOP_DIVIDE, 0, m, &cBinop_zeg3ioTW_sendM
2044:source/Heavy_grillosychicharrasosc.cpp **** }
2045:source/Heavy_grillosychicharrasosc.cpp **** 
2046:source/Heavy_grillosychicharrasosc.cpp **** void Heavy_grillosychicharrasosc::cCast_5TUORvyu_sendMessage(HeavyContextInterface *_c, int letIn, 
2047:source/Heavy_grillosychicharrasosc.cpp ****   cBinop_onMessage(_c, &Context(_c)->cBinop_96fhtK7S, HV_BINOP_MULTIPLY, 0, m, &cBinop_96fhtK7S_sen
2048:source/Heavy_grillosychicharrasosc.cpp **** }
2049:source/Heavy_grillosychicharrasosc.cpp **** 
2050:source/Heavy_grillosychicharrasosc.cpp **** void Heavy_grillosychicharrasosc::cCast_QwN4hcs7_sendMessage(HeavyContextInterface *_c, int letIn, 
2051:source/Heavy_grillosychicharrasosc.cpp ****   cVar_onMessage(_c, &Context(_c)->cVar_hdQhtWbh, 1, m, &cVar_hdQhtWbh_sendMessage);
2052:source/Heavy_grillosychicharrasosc.cpp **** }
2053:source/Heavy_grillosychicharrasosc.cpp **** 
2054:source/Heavy_grillosychicharrasosc.cpp **** void Heavy_grillosychicharrasosc::cCast_fz4B2R0F_sendMessage(HeavyContextInterface *_c, int letIn, 
2055:source/Heavy_grillosychicharrasosc.cpp ****   cBinop_onMessage(_c, &Context(_c)->cBinop_Gqj0ryco, HV_BINOP_SUBTRACT, 0, m, &cBinop_Gqj0ryco_sen
2056:source/Heavy_grillosychicharrasosc.cpp **** }
2057:source/Heavy_grillosychicharrasosc.cpp **** 
2058:source/Heavy_grillosychicharrasosc.cpp **** void Heavy_grillosychicharrasosc::cCast_jVJK1QaI_sendMessage(HeavyContextInterface *_c, int letIn, 
2059:source/Heavy_grillosychicharrasosc.cpp ****   cVar_onMessage(_c, &Context(_c)->cVar_hdQhtWbh, 0, m, &cVar_hdQhtWbh_sendMessage);
2060:source/Heavy_grillosychicharrasosc.cpp **** }
2061:source/Heavy_grillosychicharrasosc.cpp **** 
2062:source/Heavy_grillosychicharrasosc.cpp **** void Heavy_grillosychicharrasosc::cCast_HVzaY7BS_sendMessage(HeavyContextInterface *_c, int letIn, 
2063:source/Heavy_grillosychicharrasosc.cpp ****   cMsg_d0ISqZnl_sendMessage(_c, 0, m);
2064:source/Heavy_grillosychicharrasosc.cpp **** }
ARM GAS  /var/folders/fb/yfxt3z4538j6z0vjt03w70vc0000gn/T//cc7XoObz.s 			page 46


2065:source/Heavy_grillosychicharrasosc.cpp **** 
2066:source/Heavy_grillosychicharrasosc.cpp **** void Heavy_grillosychicharrasosc::cBinop_5P1Hb7z4_sendMessage(HeavyContextInterface *_c, int letIn,
2067:source/Heavy_grillosychicharrasosc.cpp ****   cVar_onMessage(_c, &Context(_c)->cVar_rRmXwkhu, 0, m, &cVar_rRmXwkhu_sendMessage);
2068:source/Heavy_grillosychicharrasosc.cpp **** }
2069:source/Heavy_grillosychicharrasosc.cpp **** 
2070:source/Heavy_grillosychicharrasosc.cpp **** void Heavy_grillosychicharrasosc::cMsg_tCM7NJzz_sendMessage(HeavyContextInterface *_c, int letIn, c
2071:source/Heavy_grillosychicharrasosc.cpp ****   HvMessage *m = nullptr;
2072:source/Heavy_grillosychicharrasosc.cpp ****   m = HV_MESSAGE_ON_STACK(1);
2073:source/Heavy_grillosychicharrasosc.cpp ****   msg_init(m, 1, msg_getTimestamp(n));
2074:source/Heavy_grillosychicharrasosc.cpp ****   msg_setFloat(m, 0, 0.0f);
2075:source/Heavy_grillosychicharrasosc.cpp ****   cSwitchcase_yIKEkqJb_onMessage(_c, NULL, 0, m, NULL);
2076:source/Heavy_grillosychicharrasosc.cpp **** }
2077:source/Heavy_grillosychicharrasosc.cpp **** 
2078:source/Heavy_grillosychicharrasosc.cpp **** void Heavy_grillosychicharrasosc::cMsg_zYn8oOMA_sendMessage(HeavyContextInterface *_c, int letIn, c
2079:source/Heavy_grillosychicharrasosc.cpp ****   HvMessage *m = nullptr;
2080:source/Heavy_grillosychicharrasosc.cpp ****   m = HV_MESSAGE_ON_STACK(1);
2081:source/Heavy_grillosychicharrasosc.cpp ****   msg_init(m, 1, msg_getTimestamp(n));
2082:source/Heavy_grillosychicharrasosc.cpp ****   msg_setFloat(m, 0, 0.0f);
2083:source/Heavy_grillosychicharrasosc.cpp ****   cVar_onMessage(_c, &Context(_c)->cVar_L86GS0rj, 1, m, &cVar_L86GS0rj_sendMessage);
2084:source/Heavy_grillosychicharrasosc.cpp **** }
2085:source/Heavy_grillosychicharrasosc.cpp **** 
2086:source/Heavy_grillosychicharrasosc.cpp **** void Heavy_grillosychicharrasosc::cMsg_NQ2cqRZG_sendMessage(HeavyContextInterface *_c, int letIn, c
2087:source/Heavy_grillosychicharrasosc.cpp ****   HvMessage *m = nullptr;
2088:source/Heavy_grillosychicharrasosc.cpp ****   m = HV_MESSAGE_ON_STACK(1);
2089:source/Heavy_grillosychicharrasosc.cpp ****   msg_init(m, 1, msg_getTimestamp(n));
2090:source/Heavy_grillosychicharrasosc.cpp ****   msg_setFloat(m, 0, 20.0f);
2091:source/Heavy_grillosychicharrasosc.cpp ****   cBinop_onMessage(_c, &Context(_c)->cBinop_quEGVJ1U, HV_BINOP_MULTIPLY, 0, m, &cBinop_quEGVJ1U_sen
2092:source/Heavy_grillosychicharrasosc.cpp ****   cBinop_onMessage(_c, &Context(_c)->cBinop_zeg3ioTW, HV_BINOP_DIVIDE, 1, m, &cBinop_zeg3ioTW_sendM
2093:source/Heavy_grillosychicharrasosc.cpp ****   cVar_onMessage(_c, &Context(_c)->cVar_QQ3c7mjd, 0, m, &cVar_QQ3c7mjd_sendMessage);
2094:source/Heavy_grillosychicharrasosc.cpp **** }
2095:source/Heavy_grillosychicharrasosc.cpp **** 
2096:source/Heavy_grillosychicharrasosc.cpp **** void Heavy_grillosychicharrasosc::cCast_fx59ifmX_sendMessage(HeavyContextInterface *_c, int letIn, 
2097:source/Heavy_grillosychicharrasosc.cpp ****   cCast_onMessage(_c, HV_CAST_BANG, 0, m, &cCast_MuUhe7YQ_sendMessage);
2098:source/Heavy_grillosychicharrasosc.cpp ****   cBinop_onMessage(_c, &Context(_c)->cBinop_5P1Hb7z4, HV_BINOP_ADD, 0, m, &cBinop_5P1Hb7z4_sendMess
2099:source/Heavy_grillosychicharrasosc.cpp ****   cVar_onMessage(_c, &Context(_c)->cVar_BGG0hetm, 1, m, &cVar_BGG0hetm_sendMessage);
2100:source/Heavy_grillosychicharrasosc.cpp **** }
2101:source/Heavy_grillosychicharrasosc.cpp **** 
2102:source/Heavy_grillosychicharrasosc.cpp **** void Heavy_grillosychicharrasosc::cCast_gZMON85b_sendMessage(HeavyContextInterface *_c, int letIn, 
2103:source/Heavy_grillosychicharrasosc.cpp ****   cMsg_tCM7NJzz_sendMessage(_c, 0, m);
2104:source/Heavy_grillosychicharrasosc.cpp **** }
2105:source/Heavy_grillosychicharrasosc.cpp **** 
2106:source/Heavy_grillosychicharrasosc.cpp **** void Heavy_grillosychicharrasosc::cBinop_Gqj0ryco_sendMessage(HeavyContextInterface *_c, int letIn,
2107:source/Heavy_grillosychicharrasosc.cpp ****   cBinop_onMessage(_c, &Context(_c)->cBinop_khxlaUhk, HV_BINOP_DIVIDE, 0, m, &cBinop_khxlaUhk_sendM
2108:source/Heavy_grillosychicharrasosc.cpp **** }
2109:source/Heavy_grillosychicharrasosc.cpp **** 
2110:source/Heavy_grillosychicharrasosc.cpp **** void Heavy_grillosychicharrasosc::cCast_MuUhe7YQ_sendMessage(HeavyContextInterface *_c, int letIn, 
2111:source/Heavy_grillosychicharrasosc.cpp ****   cMsg_d0ISqZnl_sendMessage(_c, 0, m);
2112:source/Heavy_grillosychicharrasosc.cpp **** }
2113:source/Heavy_grillosychicharrasosc.cpp **** 
2114:source/Heavy_grillosychicharrasosc.cpp **** void Heavy_grillosychicharrasosc::cCast_71qBrZnH_sendMessage(HeavyContextInterface *_c, int letIn, 
2115:source/Heavy_grillosychicharrasosc.cpp ****   cMsg_ObZXda0t_sendMessage(_c, 0, m);
2116:source/Heavy_grillosychicharrasosc.cpp **** }
2117:source/Heavy_grillosychicharrasosc.cpp **** 
2118:source/Heavy_grillosychicharrasosc.cpp **** void Heavy_grillosychicharrasosc::cCast_L9XikDLN_sendMessage(HeavyContextInterface *_c, int letIn, 
2119:source/Heavy_grillosychicharrasosc.cpp ****   cVar_onMessage(_c, &Context(_c)->cVar_L86GS0rj, 0, m, &cVar_L86GS0rj_sendMessage);
2120:source/Heavy_grillosychicharrasosc.cpp **** }
2121:source/Heavy_grillosychicharrasosc.cpp **** 
ARM GAS  /var/folders/fb/yfxt3z4538j6z0vjt03w70vc0000gn/T//cc7XoObz.s 			page 47


2122:source/Heavy_grillosychicharrasosc.cpp **** void Heavy_grillosychicharrasosc::cCast_XOJVBFJe_sendMessage(HeavyContextInterface *_c, int letIn, 
2123:source/Heavy_grillosychicharrasosc.cpp ****   cMsg_zYn8oOMA_sendMessage(_c, 0, m);
2124:source/Heavy_grillosychicharrasosc.cpp **** }
2125:source/Heavy_grillosychicharrasosc.cpp **** 
2126:source/Heavy_grillosychicharrasosc.cpp **** void Heavy_grillosychicharrasosc::cVar_NXTkXCSs_sendMessage(HeavyContextInterface *_c, int letIn, c
2127:source/Heavy_grillosychicharrasosc.cpp ****   cBinop_k_onMessage(_c, NULL, HV_BINOP_EQ, 0.0f, 0, m, &cBinop_MmUXlvgn_sendMessage);
2128:source/Heavy_grillosychicharrasosc.cpp ****   cSwitchcase_7XYtZaPr_onMessage(_c, NULL, 0, m, NULL);
2129:source/Heavy_grillosychicharrasosc.cpp **** }
2130:source/Heavy_grillosychicharrasosc.cpp **** 
2131:source/Heavy_grillosychicharrasosc.cpp **** void Heavy_grillosychicharrasosc::cBinop_MmUXlvgn_sendMessage(HeavyContextInterface *_c, int letIn,
2132:source/Heavy_grillosychicharrasosc.cpp ****   cVar_onMessage(_c, &Context(_c)->cVar_NXTkXCSs, 1, m, &cVar_NXTkXCSs_sendMessage);
2133:source/Heavy_grillosychicharrasosc.cpp **** }
2134:source/Heavy_grillosychicharrasosc.cpp **** 
2135:source/Heavy_grillosychicharrasosc.cpp **** void Heavy_grillosychicharrasosc::cVar_OwvzQoYk_sendMessage(HeavyContextInterface *_c, int letIn, c
2136:source/Heavy_grillosychicharrasosc.cpp **** }
2137:source/Heavy_grillosychicharrasosc.cpp **** 
2138:source/Heavy_grillosychicharrasosc.cpp **** void Heavy_grillosychicharrasosc::cVar_s8NSUgUT_sendMessage(HeavyContextInterface *_c, int letIn, c
2139:source/Heavy_grillosychicharrasosc.cpp **** }
2140:source/Heavy_grillosychicharrasosc.cpp **** 
2141:source/Heavy_grillosychicharrasosc.cpp **** void Heavy_grillosychicharrasosc::cCast_AJdW1FPq_sendMessage(HeavyContextInterface *_c, int letIn, 
2142:source/Heavy_grillosychicharrasosc.cpp ****   cMsg_DyMtiyRr_sendMessage(_c, 0, m);
2143:source/Heavy_grillosychicharrasosc.cpp ****   cSwitchcase_ZIJ4W7mW_onMessage(_c, NULL, 0, m, NULL);
2144:source/Heavy_grillosychicharrasosc.cpp **** }
2145:source/Heavy_grillosychicharrasosc.cpp **** 
2146:source/Heavy_grillosychicharrasosc.cpp **** void Heavy_grillosychicharrasosc::cCast_QubbZ0D8_sendMessage(HeavyContextInterface *_c, int letIn, 
2147:source/Heavy_grillosychicharrasosc.cpp ****   cMsg_IYPgHCrh_sendMessage(_c, 0, m);
2148:source/Heavy_grillosychicharrasosc.cpp ****   cSwitchcase_JRFly6Hw_onMessage(_c, NULL, 0, m, NULL);
2149:source/Heavy_grillosychicharrasosc.cpp **** }
2150:source/Heavy_grillosychicharrasosc.cpp **** 
2151:source/Heavy_grillosychicharrasosc.cpp **** void Heavy_grillosychicharrasosc::cCast_6UkvfsRs_sendMessage(HeavyContextInterface *_c, int letIn, 
2152:source/Heavy_grillosychicharrasosc.cpp ****   cMsg_RPMD2deY_sendMessage(_c, 0, m);
2153:source/Heavy_grillosychicharrasosc.cpp ****   cSwitchcase_DO95o62p_onMessage(_c, NULL, 0, m, NULL);
2154:source/Heavy_grillosychicharrasosc.cpp **** }
2155:source/Heavy_grillosychicharrasosc.cpp **** 
2156:source/Heavy_grillosychicharrasosc.cpp **** void Heavy_grillosychicharrasosc::cCast_xi3LmSMS_sendMessage(HeavyContextInterface *_c, int letIn, 
2157:source/Heavy_grillosychicharrasosc.cpp ****   cMsg_kAHAtOKN_sendMessage(_c, 0, m);
2158:source/Heavy_grillosychicharrasosc.cpp ****   cSwitchcase_nmH9dcXV_onMessage(_c, NULL, 0, m, NULL);
2159:source/Heavy_grillosychicharrasosc.cpp **** }
2160:source/Heavy_grillosychicharrasosc.cpp **** 
2161:source/Heavy_grillosychicharrasosc.cpp **** void Heavy_grillosychicharrasosc::cCast_BjPyovvN_sendMessage(HeavyContextInterface *_c, int letIn, 
2162:source/Heavy_grillosychicharrasosc.cpp ****   cMsg_NZ5bNGXY_sendMessage(_c, 0, m);
2163:source/Heavy_grillosychicharrasosc.cpp ****   cSwitchcase_RyT5ZXVQ_onMessage(_c, NULL, 0, m, NULL);
2164:source/Heavy_grillosychicharrasosc.cpp **** }
2165:source/Heavy_grillosychicharrasosc.cpp **** 
2166:source/Heavy_grillosychicharrasosc.cpp **** void Heavy_grillosychicharrasosc::cCast_j9PNCChJ_sendMessage(HeavyContextInterface *_c, int letIn, 
2167:source/Heavy_grillosychicharrasosc.cpp ****   cMsg_yzwGR7Nb_sendMessage(_c, 0, m);
2168:source/Heavy_grillosychicharrasosc.cpp ****   cSwitchcase_6ESnmxbt_onMessage(_c, NULL, 0, m, NULL);
2169:source/Heavy_grillosychicharrasosc.cpp **** }
2170:source/Heavy_grillosychicharrasosc.cpp **** 
2171:source/Heavy_grillosychicharrasosc.cpp **** void Heavy_grillosychicharrasosc::cCast_YKbiM2Yc_sendMessage(HeavyContextInterface *_c, int letIn, 
2172:source/Heavy_grillosychicharrasosc.cpp ****   cMsg_xPpl2QEo_sendMessage(_c, 0, m);
2173:source/Heavy_grillosychicharrasosc.cpp ****   cSwitchcase_7qmFv4m2_onMessage(_c, NULL, 0, m, NULL);
2174:source/Heavy_grillosychicharrasosc.cpp **** }
2175:source/Heavy_grillosychicharrasosc.cpp **** 
2176:source/Heavy_grillosychicharrasosc.cpp **** void Heavy_grillosychicharrasosc::cCast_ag7ixMZ3_sendMessage(HeavyContextInterface *_c, int letIn, 
2177:source/Heavy_grillosychicharrasosc.cpp ****   cMsg_eP6bEtJO_sendMessage(_c, 0, m);
2178:source/Heavy_grillosychicharrasosc.cpp **** }
ARM GAS  /var/folders/fb/yfxt3z4538j6z0vjt03w70vc0000gn/T//cc7XoObz.s 			page 48


2179:source/Heavy_grillosychicharrasosc.cpp **** 
2180:source/Heavy_grillosychicharrasosc.cpp **** void Heavy_grillosychicharrasosc::cSwitchcase_Kstu0Sqb_onMessage(HeavyContextInterface *_c, void *o
2181:source/Heavy_grillosychicharrasosc.cpp ****   switch (msg_getHash(m, 0)) {
2182:source/Heavy_grillosychicharrasosc.cpp ****     case 0x0: { // "0.0"
2183:source/Heavy_grillosychicharrasosc.cpp ****       cMsg_IeCZWF9q_sendMessage(_c, 0, m);
2184:source/Heavy_grillosychicharrasosc.cpp ****       break;
2185:source/Heavy_grillosychicharrasosc.cpp ****     }
2186:source/Heavy_grillosychicharrasosc.cpp ****     case 0x7A5B032D: { // "stop"
2187:source/Heavy_grillosychicharrasosc.cpp ****       cMsg_IeCZWF9q_sendMessage(_c, 0, m);
2188:source/Heavy_grillosychicharrasosc.cpp ****       break;
2189:source/Heavy_grillosychicharrasosc.cpp ****     }
2190:source/Heavy_grillosychicharrasosc.cpp ****     default: {
2191:source/Heavy_grillosychicharrasosc.cpp ****       cCast_onMessage(_c, HV_CAST_BANG, 0, m, &cCast_BFhDUGdS_sendMessage);
2192:source/Heavy_grillosychicharrasosc.cpp ****       break;
2193:source/Heavy_grillosychicharrasosc.cpp ****     }
2194:source/Heavy_grillosychicharrasosc.cpp ****   }
2195:source/Heavy_grillosychicharrasosc.cpp **** }
2196:source/Heavy_grillosychicharrasosc.cpp **** 
2197:source/Heavy_grillosychicharrasosc.cpp **** void Heavy_grillosychicharrasosc::cDelay_9cTclMV7_sendMessage(HeavyContextInterface *_c, int letIn,
2198:source/Heavy_grillosychicharrasosc.cpp ****   cDelay_clearExecutingMessage(&Context(_c)->cDelay_9cTclMV7, m);
2199:source/Heavy_grillosychicharrasosc.cpp ****   cDelay_onMessage(_c, &Context(_c)->cDelay_9cTclMV7, 0, m, &cDelay_9cTclMV7_sendMessage);
2200:source/Heavy_grillosychicharrasosc.cpp ****   cCast_onMessage(_c, HV_CAST_BANG, 0, m, &cCast_AJdW1FPq_sendMessage);
2201:source/Heavy_grillosychicharrasosc.cpp **** }
2202:source/Heavy_grillosychicharrasosc.cpp **** 
2203:source/Heavy_grillosychicharrasosc.cpp **** void Heavy_grillosychicharrasosc::cCast_BFhDUGdS_sendMessage(HeavyContextInterface *_c, int letIn, 
2204:source/Heavy_grillosychicharrasosc.cpp ****   cMsg_IeCZWF9q_sendMessage(_c, 0, m);
2205:source/Heavy_grillosychicharrasosc.cpp ****   cDelay_onMessage(_c, &Context(_c)->cDelay_9cTclMV7, 0, m, &cDelay_9cTclMV7_sendMessage);
2206:source/Heavy_grillosychicharrasosc.cpp ****   cCast_onMessage(_c, HV_CAST_BANG, 0, m, &cCast_AJdW1FPq_sendMessage);
2207:source/Heavy_grillosychicharrasosc.cpp **** }
2208:source/Heavy_grillosychicharrasosc.cpp **** 
2209:source/Heavy_grillosychicharrasosc.cpp **** void Heavy_grillosychicharrasosc::cMsg_RQtgzNmD_sendMessage(HeavyContextInterface *_c, int letIn, c
2210:source/Heavy_grillosychicharrasosc.cpp ****   HvMessage *m = nullptr;
2211:source/Heavy_grillosychicharrasosc.cpp ****   m = HV_MESSAGE_ON_STACK(1);
2212:source/Heavy_grillosychicharrasosc.cpp ****   msg_init(m, 1, msg_getTimestamp(n));
2213:source/Heavy_grillosychicharrasosc.cpp ****   msg_setSymbol(m, 0, "samplerate");
2214:source/Heavy_grillosychicharrasosc.cpp ****   cSystem_onMessage(_c, NULL, 0, m, &cSystem_LWwHKmvR_sendMessage);
2215:source/Heavy_grillosychicharrasosc.cpp **** }
2216:source/Heavy_grillosychicharrasosc.cpp **** 
2217:source/Heavy_grillosychicharrasosc.cpp **** void Heavy_grillosychicharrasosc::cSystem_LWwHKmvR_sendMessage(HeavyContextInterface *_c, int letIn
2218:source/Heavy_grillosychicharrasosc.cpp ****   cBinop_k_onMessage(_c, NULL, HV_BINOP_DIVIDE, 1000.0f, 0, m, &cBinop_ZYlNZIe7_sendMessage);
2219:source/Heavy_grillosychicharrasosc.cpp **** }
2220:source/Heavy_grillosychicharrasosc.cpp **** 
2221:source/Heavy_grillosychicharrasosc.cpp **** void Heavy_grillosychicharrasosc::cVar_AVMDlWey_sendMessage(HeavyContextInterface *_c, int letIn, c
2222:source/Heavy_grillosychicharrasosc.cpp ****   cBinop_onMessage(_c, &Context(_c)->cBinop_hkTMVp8Q, HV_BINOP_MULTIPLY, 0, m, &cBinop_hkTMVp8Q_sen
2223:source/Heavy_grillosychicharrasosc.cpp **** }
2224:source/Heavy_grillosychicharrasosc.cpp **** 
2225:source/Heavy_grillosychicharrasosc.cpp **** void Heavy_grillosychicharrasosc::cMsg_IeCZWF9q_sendMessage(HeavyContextInterface *_c, int letIn, c
2226:source/Heavy_grillosychicharrasosc.cpp ****   HvMessage *m = nullptr;
2227:source/Heavy_grillosychicharrasosc.cpp ****   m = HV_MESSAGE_ON_STACK(1);
2228:source/Heavy_grillosychicharrasosc.cpp ****   msg_init(m, 1, msg_getTimestamp(n));
2229:source/Heavy_grillosychicharrasosc.cpp ****   msg_setSymbol(m, 0, "clear");
2230:source/Heavy_grillosychicharrasosc.cpp ****   cDelay_onMessage(_c, &Context(_c)->cDelay_9cTclMV7, 0, m, &cDelay_9cTclMV7_sendMessage);
2231:source/Heavy_grillosychicharrasosc.cpp **** }
2232:source/Heavy_grillosychicharrasosc.cpp **** 
2233:source/Heavy_grillosychicharrasosc.cpp **** void Heavy_grillosychicharrasosc::cBinop_YHtR9sI5_sendMessage(HeavyContextInterface *_c, int letIn,
2234:source/Heavy_grillosychicharrasosc.cpp ****   cDelay_onMessage(_c, &Context(_c)->cDelay_9cTclMV7, 2, m, &cDelay_9cTclMV7_sendMessage);
2235:source/Heavy_grillosychicharrasosc.cpp **** }
ARM GAS  /var/folders/fb/yfxt3z4538j6z0vjt03w70vc0000gn/T//cc7XoObz.s 			page 49


2236:source/Heavy_grillosychicharrasosc.cpp **** 
2237:source/Heavy_grillosychicharrasosc.cpp **** void Heavy_grillosychicharrasosc::cBinop_ZYlNZIe7_sendMessage(HeavyContextInterface *_c, int letIn,
2238:source/Heavy_grillosychicharrasosc.cpp ****   cBinop_onMessage(_c, &Context(_c)->cBinop_hkTMVp8Q, HV_BINOP_MULTIPLY, 1, m, &cBinop_hkTMVp8Q_sen
2239:source/Heavy_grillosychicharrasosc.cpp **** }
2240:source/Heavy_grillosychicharrasosc.cpp **** 
2241:source/Heavy_grillosychicharrasosc.cpp **** void Heavy_grillosychicharrasosc::cBinop_hkTMVp8Q_sendMessage(HeavyContextInterface *_c, int letIn,
2242:source/Heavy_grillosychicharrasosc.cpp ****   cBinop_k_onMessage(_c, NULL, HV_BINOP_MAX, 1.0f, 0, m, &cBinop_YHtR9sI5_sendMessage);
2243:source/Heavy_grillosychicharrasosc.cpp **** }
2244:source/Heavy_grillosychicharrasosc.cpp **** 
2245:source/Heavy_grillosychicharrasosc.cpp **** void Heavy_grillosychicharrasosc::cVar_ottfoJXb_sendMessage(HeavyContextInterface *_c, int letIn, c
2246:source/Heavy_grillosychicharrasosc.cpp ****   cBinop_k_onMessage(_c, NULL, HV_BINOP_EQ, 0.0f, 0, m, &cBinop_BI6RTa4n_sendMessage);
2247:source/Heavy_grillosychicharrasosc.cpp ****   cSwitchcase_Kstu0Sqb_onMessage(_c, NULL, 0, m, NULL);
2248:source/Heavy_grillosychicharrasosc.cpp **** }
2249:source/Heavy_grillosychicharrasosc.cpp **** 
2250:source/Heavy_grillosychicharrasosc.cpp **** void Heavy_grillosychicharrasosc::cBinop_BI6RTa4n_sendMessage(HeavyContextInterface *_c, int letIn,
2251:source/Heavy_grillosychicharrasosc.cpp ****   cVar_onMessage(_c, &Context(_c)->cVar_ottfoJXb, 1, m, &cVar_ottfoJXb_sendMessage);
2252:source/Heavy_grillosychicharrasosc.cpp **** }
2253:source/Heavy_grillosychicharrasosc.cpp **** 
2254:source/Heavy_grillosychicharrasosc.cpp **** void Heavy_grillosychicharrasosc::cSwitchcase_JRFly6Hw_onMessage(HeavyContextInterface *_c, void *o
2255:source/Heavy_grillosychicharrasosc.cpp ****   switch (msg_getHash(m, 0)) {
2256:source/Heavy_grillosychicharrasosc.cpp ****     case 0x7A5B032D: { // "stop"
2257:source/Heavy_grillosychicharrasosc.cpp ****       cMsg_yCRKlYhO_sendMessage(_c, 0, m);
2258:source/Heavy_grillosychicharrasosc.cpp ****       break;
2259:source/Heavy_grillosychicharrasosc.cpp ****     }
2260:source/Heavy_grillosychicharrasosc.cpp ****     default: {
2261:source/Heavy_grillosychicharrasosc.cpp ****       cMsg_yCRKlYhO_sendMessage(_c, 0, m);
2262:source/Heavy_grillosychicharrasosc.cpp ****       cDelay_onMessage(_c, &Context(_c)->cDelay_gRRCpeNl, 1, m, &cDelay_gRRCpeNl_sendMessage);
2263:source/Heavy_grillosychicharrasosc.cpp ****       cCast_onMessage(_c, HV_CAST_BANG, 0, m, &cCast_kTkKM3lN_sendMessage);
2264:source/Heavy_grillosychicharrasosc.cpp ****       break;
2265:source/Heavy_grillosychicharrasosc.cpp ****     }
2266:source/Heavy_grillosychicharrasosc.cpp ****   }
2267:source/Heavy_grillosychicharrasosc.cpp **** }
2268:source/Heavy_grillosychicharrasosc.cpp **** 
2269:source/Heavy_grillosychicharrasosc.cpp **** void Heavy_grillosychicharrasosc::cDelay_gRRCpeNl_sendMessage(HeavyContextInterface *_c, int letIn,
2270:source/Heavy_grillosychicharrasosc.cpp ****   cDelay_clearExecutingMessage(&Context(_c)->cDelay_gRRCpeNl, m);
2271:source/Heavy_grillosychicharrasosc.cpp ****   cCast_onMessage(_c, HV_CAST_BANG, 0, m, &cCast_6UkvfsRs_sendMessage);
2272:source/Heavy_grillosychicharrasosc.cpp **** }
2273:source/Heavy_grillosychicharrasosc.cpp **** 
2274:source/Heavy_grillosychicharrasosc.cpp **** void Heavy_grillosychicharrasosc::cMsg_yCRKlYhO_sendMessage(HeavyContextInterface *_c, int letIn, c
2275:source/Heavy_grillosychicharrasosc.cpp ****   HvMessage *m = nullptr;
2276:source/Heavy_grillosychicharrasosc.cpp ****   m = HV_MESSAGE_ON_STACK(1);
2277:source/Heavy_grillosychicharrasosc.cpp ****   msg_init(m, 1, msg_getTimestamp(n));
2278:source/Heavy_grillosychicharrasosc.cpp ****   msg_setSymbol(m, 0, "clear");
2279:source/Heavy_grillosychicharrasosc.cpp ****   cDelay_onMessage(_c, &Context(_c)->cDelay_gRRCpeNl, 0, m, &cDelay_gRRCpeNl_sendMessage);
2280:source/Heavy_grillosychicharrasosc.cpp **** }
2281:source/Heavy_grillosychicharrasosc.cpp **** 
2282:source/Heavy_grillosychicharrasosc.cpp **** void Heavy_grillosychicharrasosc::cCast_kTkKM3lN_sendMessage(HeavyContextInterface *_c, int letIn, 
2283:source/Heavy_grillosychicharrasosc.cpp ****   cDelay_onMessage(_c, &Context(_c)->cDelay_gRRCpeNl, 0, m, &cDelay_gRRCpeNl_sendMessage);
2284:source/Heavy_grillosychicharrasosc.cpp **** }
2285:source/Heavy_grillosychicharrasosc.cpp **** 
2286:source/Heavy_grillosychicharrasosc.cpp **** void Heavy_grillosychicharrasosc::cSwitchcase_nmH9dcXV_onMessage(HeavyContextInterface *_c, void *o
2287:source/Heavy_grillosychicharrasosc.cpp ****   switch (msg_getHash(m, 0)) {
2288:source/Heavy_grillosychicharrasosc.cpp ****     case 0x7A5B032D: { // "stop"
2289:source/Heavy_grillosychicharrasosc.cpp ****       cMsg_UxxCBAm2_sendMessage(_c, 0, m);
2290:source/Heavy_grillosychicharrasosc.cpp ****       break;
2291:source/Heavy_grillosychicharrasosc.cpp ****     }
2292:source/Heavy_grillosychicharrasosc.cpp ****     default: {
ARM GAS  /var/folders/fb/yfxt3z4538j6z0vjt03w70vc0000gn/T//cc7XoObz.s 			page 50


2293:source/Heavy_grillosychicharrasosc.cpp ****       cMsg_UxxCBAm2_sendMessage(_c, 0, m);
2294:source/Heavy_grillosychicharrasosc.cpp ****       cDelay_onMessage(_c, &Context(_c)->cDelay_li9JZJAJ, 1, m, &cDelay_li9JZJAJ_sendMessage);
2295:source/Heavy_grillosychicharrasosc.cpp ****       cCast_onMessage(_c, HV_CAST_BANG, 0, m, &cCast_Jq4NC0G9_sendMessage);
2296:source/Heavy_grillosychicharrasosc.cpp ****       break;
2297:source/Heavy_grillosychicharrasosc.cpp ****     }
2298:source/Heavy_grillosychicharrasosc.cpp ****   }
2299:source/Heavy_grillosychicharrasosc.cpp **** }
2300:source/Heavy_grillosychicharrasosc.cpp **** 
2301:source/Heavy_grillosychicharrasosc.cpp **** void Heavy_grillosychicharrasosc::cDelay_li9JZJAJ_sendMessage(HeavyContextInterface *_c, int letIn,
2302:source/Heavy_grillosychicharrasosc.cpp ****   cDelay_clearExecutingMessage(&Context(_c)->cDelay_li9JZJAJ, m);
2303:source/Heavy_grillosychicharrasosc.cpp ****   cCast_onMessage(_c, HV_CAST_BANG, 0, m, &cCast_BjPyovvN_sendMessage);
2304:source/Heavy_grillosychicharrasosc.cpp **** }
2305:source/Heavy_grillosychicharrasosc.cpp **** 
2306:source/Heavy_grillosychicharrasosc.cpp **** void Heavy_grillosychicharrasosc::cMsg_UxxCBAm2_sendMessage(HeavyContextInterface *_c, int letIn, c
2307:source/Heavy_grillosychicharrasosc.cpp ****   HvMessage *m = nullptr;
2308:source/Heavy_grillosychicharrasosc.cpp ****   m = HV_MESSAGE_ON_STACK(1);
2309:source/Heavy_grillosychicharrasosc.cpp ****   msg_init(m, 1, msg_getTimestamp(n));
2310:source/Heavy_grillosychicharrasosc.cpp ****   msg_setSymbol(m, 0, "clear");
2311:source/Heavy_grillosychicharrasosc.cpp ****   cDelay_onMessage(_c, &Context(_c)->cDelay_li9JZJAJ, 0, m, &cDelay_li9JZJAJ_sendMessage);
2312:source/Heavy_grillosychicharrasosc.cpp **** }
2313:source/Heavy_grillosychicharrasosc.cpp **** 
2314:source/Heavy_grillosychicharrasosc.cpp **** void Heavy_grillosychicharrasosc::cCast_Jq4NC0G9_sendMessage(HeavyContextInterface *_c, int letIn, 
2315:source/Heavy_grillosychicharrasosc.cpp ****   cDelay_onMessage(_c, &Context(_c)->cDelay_li9JZJAJ, 0, m, &cDelay_li9JZJAJ_sendMessage);
2316:source/Heavy_grillosychicharrasosc.cpp **** }
2317:source/Heavy_grillosychicharrasosc.cpp **** 
2318:source/Heavy_grillosychicharrasosc.cpp **** void Heavy_grillosychicharrasosc::cSwitchcase_6ESnmxbt_onMessage(HeavyContextInterface *_c, void *o
2319:source/Heavy_grillosychicharrasosc.cpp ****   switch (msg_getHash(m, 0)) {
2320:source/Heavy_grillosychicharrasosc.cpp ****     case 0x7A5B032D: { // "stop"
2321:source/Heavy_grillosychicharrasosc.cpp ****       cMsg_t4IRbPTR_sendMessage(_c, 0, m);
2322:source/Heavy_grillosychicharrasosc.cpp ****       break;
2323:source/Heavy_grillosychicharrasosc.cpp ****     }
2324:source/Heavy_grillosychicharrasosc.cpp ****     default: {
2325:source/Heavy_grillosychicharrasosc.cpp ****       cMsg_t4IRbPTR_sendMessage(_c, 0, m);
2326:source/Heavy_grillosychicharrasosc.cpp ****       cDelay_onMessage(_c, &Context(_c)->cDelay_bDp0Em7l, 1, m, &cDelay_bDp0Em7l_sendMessage);
2327:source/Heavy_grillosychicharrasosc.cpp ****       cCast_onMessage(_c, HV_CAST_BANG, 0, m, &cCast_sFIJQhen_sendMessage);
2328:source/Heavy_grillosychicharrasosc.cpp ****       break;
2329:source/Heavy_grillosychicharrasosc.cpp ****     }
2330:source/Heavy_grillosychicharrasosc.cpp ****   }
2331:source/Heavy_grillosychicharrasosc.cpp **** }
2332:source/Heavy_grillosychicharrasosc.cpp **** 
2333:source/Heavy_grillosychicharrasosc.cpp **** void Heavy_grillosychicharrasosc::cDelay_bDp0Em7l_sendMessage(HeavyContextInterface *_c, int letIn,
2334:source/Heavy_grillosychicharrasosc.cpp ****   cDelay_clearExecutingMessage(&Context(_c)->cDelay_bDp0Em7l, m);
2335:source/Heavy_grillosychicharrasosc.cpp ****   cCast_onMessage(_c, HV_CAST_BANG, 0, m, &cCast_YKbiM2Yc_sendMessage);
2336:source/Heavy_grillosychicharrasosc.cpp **** }
2337:source/Heavy_grillosychicharrasosc.cpp **** 
2338:source/Heavy_grillosychicharrasosc.cpp **** void Heavy_grillosychicharrasosc::cMsg_t4IRbPTR_sendMessage(HeavyContextInterface *_c, int letIn, c
2339:source/Heavy_grillosychicharrasosc.cpp ****   HvMessage *m = nullptr;
2340:source/Heavy_grillosychicharrasosc.cpp ****   m = HV_MESSAGE_ON_STACK(1);
2341:source/Heavy_grillosychicharrasosc.cpp ****   msg_init(m, 1, msg_getTimestamp(n));
2342:source/Heavy_grillosychicharrasosc.cpp ****   msg_setSymbol(m, 0, "clear");
2343:source/Heavy_grillosychicharrasosc.cpp ****   cDelay_onMessage(_c, &Context(_c)->cDelay_bDp0Em7l, 0, m, &cDelay_bDp0Em7l_sendMessage);
2344:source/Heavy_grillosychicharrasosc.cpp **** }
2345:source/Heavy_grillosychicharrasosc.cpp **** 
2346:source/Heavy_grillosychicharrasosc.cpp **** void Heavy_grillosychicharrasosc::cCast_sFIJQhen_sendMessage(HeavyContextInterface *_c, int letIn, 
2347:source/Heavy_grillosychicharrasosc.cpp ****   cDelay_onMessage(_c, &Context(_c)->cDelay_bDp0Em7l, 0, m, &cDelay_bDp0Em7l_sendMessage);
2348:source/Heavy_grillosychicharrasosc.cpp **** }
2349:source/Heavy_grillosychicharrasosc.cpp **** 
ARM GAS  /var/folders/fb/yfxt3z4538j6z0vjt03w70vc0000gn/T//cc7XoObz.s 			page 51


2350:source/Heavy_grillosychicharrasosc.cpp **** void Heavy_grillosychicharrasosc::cSwitchcase_ZIJ4W7mW_onMessage(HeavyContextInterface *_c, void *o
2351:source/Heavy_grillosychicharrasosc.cpp ****   switch (msg_getHash(m, 0)) {
2352:source/Heavy_grillosychicharrasosc.cpp ****     case 0x7A5B032D: { // "stop"
2353:source/Heavy_grillosychicharrasosc.cpp ****       cMsg_JAF9aq0A_sendMessage(_c, 0, m);
2354:source/Heavy_grillosychicharrasosc.cpp ****       break;
2355:source/Heavy_grillosychicharrasosc.cpp ****     }
2356:source/Heavy_grillosychicharrasosc.cpp ****     default: {
2357:source/Heavy_grillosychicharrasosc.cpp ****       cMsg_JAF9aq0A_sendMessage(_c, 0, m);
2358:source/Heavy_grillosychicharrasosc.cpp ****       cDelay_onMessage(_c, &Context(_c)->cDelay_KYdtSpcr, 1, m, &cDelay_KYdtSpcr_sendMessage);
2359:source/Heavy_grillosychicharrasosc.cpp ****       cCast_onMessage(_c, HV_CAST_BANG, 0, m, &cCast_HCoUAokI_sendMessage);
2360:source/Heavy_grillosychicharrasosc.cpp ****       break;
2361:source/Heavy_grillosychicharrasosc.cpp ****     }
2362:source/Heavy_grillosychicharrasosc.cpp ****   }
2363:source/Heavy_grillosychicharrasosc.cpp **** }
2364:source/Heavy_grillosychicharrasosc.cpp **** 
2365:source/Heavy_grillosychicharrasosc.cpp **** void Heavy_grillosychicharrasosc::cDelay_KYdtSpcr_sendMessage(HeavyContextInterface *_c, int letIn,
2366:source/Heavy_grillosychicharrasosc.cpp ****   cDelay_clearExecutingMessage(&Context(_c)->cDelay_KYdtSpcr, m);
2367:source/Heavy_grillosychicharrasosc.cpp ****   cCast_onMessage(_c, HV_CAST_BANG, 0, m, &cCast_QubbZ0D8_sendMessage);
2368:source/Heavy_grillosychicharrasosc.cpp **** }
2369:source/Heavy_grillosychicharrasosc.cpp **** 
2370:source/Heavy_grillosychicharrasosc.cpp **** void Heavy_grillosychicharrasosc::cMsg_JAF9aq0A_sendMessage(HeavyContextInterface *_c, int letIn, c
2371:source/Heavy_grillosychicharrasosc.cpp ****   HvMessage *m = nullptr;
2372:source/Heavy_grillosychicharrasosc.cpp ****   m = HV_MESSAGE_ON_STACK(1);
2373:source/Heavy_grillosychicharrasosc.cpp ****   msg_init(m, 1, msg_getTimestamp(n));
2374:source/Heavy_grillosychicharrasosc.cpp ****   msg_setSymbol(m, 0, "clear");
2375:source/Heavy_grillosychicharrasosc.cpp ****   cDelay_onMessage(_c, &Context(_c)->cDelay_KYdtSpcr, 0, m, &cDelay_KYdtSpcr_sendMessage);
2376:source/Heavy_grillosychicharrasosc.cpp **** }
2377:source/Heavy_grillosychicharrasosc.cpp **** 
2378:source/Heavy_grillosychicharrasosc.cpp **** void Heavy_grillosychicharrasosc::cCast_HCoUAokI_sendMessage(HeavyContextInterface *_c, int letIn, 
2379:source/Heavy_grillosychicharrasosc.cpp ****   cDelay_onMessage(_c, &Context(_c)->cDelay_KYdtSpcr, 0, m, &cDelay_KYdtSpcr_sendMessage);
2380:source/Heavy_grillosychicharrasosc.cpp **** }
2381:source/Heavy_grillosychicharrasosc.cpp **** 
2382:source/Heavy_grillosychicharrasosc.cpp **** void Heavy_grillosychicharrasosc::cSwitchcase_DO95o62p_onMessage(HeavyContextInterface *_c, void *o
2383:source/Heavy_grillosychicharrasosc.cpp ****   switch (msg_getHash(m, 0)) {
2384:source/Heavy_grillosychicharrasosc.cpp ****     case 0x7A5B032D: { // "stop"
2385:source/Heavy_grillosychicharrasosc.cpp ****       cMsg_NOEJplFD_sendMessage(_c, 0, m);
2386:source/Heavy_grillosychicharrasosc.cpp ****       break;
2387:source/Heavy_grillosychicharrasosc.cpp ****     }
2388:source/Heavy_grillosychicharrasosc.cpp ****     default: {
2389:source/Heavy_grillosychicharrasosc.cpp ****       cMsg_NOEJplFD_sendMessage(_c, 0, m);
2390:source/Heavy_grillosychicharrasosc.cpp ****       cDelay_onMessage(_c, &Context(_c)->cDelay_QrGvT5Yt, 1, m, &cDelay_QrGvT5Yt_sendMessage);
2391:source/Heavy_grillosychicharrasosc.cpp ****       cCast_onMessage(_c, HV_CAST_BANG, 0, m, &cCast_x8Nl8tQI_sendMessage);
2392:source/Heavy_grillosychicharrasosc.cpp ****       break;
2393:source/Heavy_grillosychicharrasosc.cpp ****     }
2394:source/Heavy_grillosychicharrasosc.cpp ****   }
2395:source/Heavy_grillosychicharrasosc.cpp **** }
2396:source/Heavy_grillosychicharrasosc.cpp **** 
2397:source/Heavy_grillosychicharrasosc.cpp **** void Heavy_grillosychicharrasosc::cDelay_QrGvT5Yt_sendMessage(HeavyContextInterface *_c, int letIn,
2398:source/Heavy_grillosychicharrasosc.cpp ****   cDelay_clearExecutingMessage(&Context(_c)->cDelay_QrGvT5Yt, m);
2399:source/Heavy_grillosychicharrasosc.cpp ****   cCast_onMessage(_c, HV_CAST_BANG, 0, m, &cCast_xi3LmSMS_sendMessage);
2400:source/Heavy_grillosychicharrasosc.cpp **** }
2401:source/Heavy_grillosychicharrasosc.cpp **** 
2402:source/Heavy_grillosychicharrasosc.cpp **** void Heavy_grillosychicharrasosc::cMsg_NOEJplFD_sendMessage(HeavyContextInterface *_c, int letIn, c
2403:source/Heavy_grillosychicharrasosc.cpp ****   HvMessage *m = nullptr;
2404:source/Heavy_grillosychicharrasosc.cpp ****   m = HV_MESSAGE_ON_STACK(1);
2405:source/Heavy_grillosychicharrasosc.cpp ****   msg_init(m, 1, msg_getTimestamp(n));
2406:source/Heavy_grillosychicharrasosc.cpp ****   msg_setSymbol(m, 0, "clear");
ARM GAS  /var/folders/fb/yfxt3z4538j6z0vjt03w70vc0000gn/T//cc7XoObz.s 			page 52


2407:source/Heavy_grillosychicharrasosc.cpp ****   cDelay_onMessage(_c, &Context(_c)->cDelay_QrGvT5Yt, 0, m, &cDelay_QrGvT5Yt_sendMessage);
2408:source/Heavy_grillosychicharrasosc.cpp **** }
2409:source/Heavy_grillosychicharrasosc.cpp **** 
2410:source/Heavy_grillosychicharrasosc.cpp **** void Heavy_grillosychicharrasosc::cCast_x8Nl8tQI_sendMessage(HeavyContextInterface *_c, int letIn, 
2411:source/Heavy_grillosychicharrasosc.cpp ****   cDelay_onMessage(_c, &Context(_c)->cDelay_QrGvT5Yt, 0, m, &cDelay_QrGvT5Yt_sendMessage);
2412:source/Heavy_grillosychicharrasosc.cpp **** }
2413:source/Heavy_grillosychicharrasosc.cpp **** 
2414:source/Heavy_grillosychicharrasosc.cpp **** void Heavy_grillosychicharrasosc::cSwitchcase_RyT5ZXVQ_onMessage(HeavyContextInterface *_c, void *o
2415:source/Heavy_grillosychicharrasosc.cpp ****   switch (msg_getHash(m, 0)) {
2416:source/Heavy_grillosychicharrasosc.cpp ****     case 0x7A5B032D: { // "stop"
2417:source/Heavy_grillosychicharrasosc.cpp ****       cMsg_WGhcCpSe_sendMessage(_c, 0, m);
2418:source/Heavy_grillosychicharrasosc.cpp ****       break;
2419:source/Heavy_grillosychicharrasosc.cpp ****     }
2420:source/Heavy_grillosychicharrasosc.cpp ****     default: {
2421:source/Heavy_grillosychicharrasosc.cpp ****       cMsg_WGhcCpSe_sendMessage(_c, 0, m);
2422:source/Heavy_grillosychicharrasosc.cpp ****       cDelay_onMessage(_c, &Context(_c)->cDelay_nvxwvLIr, 1, m, &cDelay_nvxwvLIr_sendMessage);
2423:source/Heavy_grillosychicharrasosc.cpp ****       cCast_onMessage(_c, HV_CAST_BANG, 0, m, &cCast_oPDXrTDJ_sendMessage);
2424:source/Heavy_grillosychicharrasosc.cpp ****       break;
2425:source/Heavy_grillosychicharrasosc.cpp ****     }
2426:source/Heavy_grillosychicharrasosc.cpp ****   }
2427:source/Heavy_grillosychicharrasosc.cpp **** }
