ARM GAS  /var/folders/fb/yfxt3z4538j6z0vjt03w70vc0000gn/T//ccrD3Rdr.s 			page 1


   1              		.cpu cortex-m7
   2              		.arch armv7e-m
   3              		.fpu fpv5-d16
   4              		.eabi_attribute 28, 1
   5              		.eabi_attribute 20, 1
   6              		.eabi_attribute 21, 1
   7              		.eabi_attribute 23, 3
   8              		.eabi_attribute 24, 1
   9              		.eabi_attribute 25, 1
  10              		.eabi_attribute 26, 1
  11              		.eabi_attribute 30, 2
  12              		.eabi_attribute 34, 1
  13              		.eabi_attribute 18, 4
  14              		.file	"HeavyDaisy_grillosychicharrasosc.cpp"
  15              		.text
  16              	.Ltext0:
  17              		.cfi_sections	.debug_frame
  18              		.section	.text._ZL8sendHookP21HeavyContextInterfacePKcmPK9HvMessage,"ax",%progbits
  19              		.align	1
  20              		.p2align 2,,3
  21              		.syntax unified
  22              		.thumb
  23              		.thumb_func
  25              	_ZL8sendHookP21HeavyContextInterfacePKcmPK9HvMessage:
  26              	.LVL0:
  27              	.LFB3005:
  28              		.file 1 "HeavyDaisy_grillosychicharrasosc.cpp"
   1:HeavyDaisy_grillosychicharrasosc.cpp **** /**
   2:HeavyDaisy_grillosychicharrasosc.cpp ****  * Copyright (c) 2023 Enzien Audio, Ltd.
   3:HeavyDaisy_grillosychicharrasosc.cpp ****  * 
   4:HeavyDaisy_grillosychicharrasosc.cpp ****  * Redistribution and use in source and binary forms, with or without modification,
   5:HeavyDaisy_grillosychicharrasosc.cpp ****  * are permitted provided that the following conditions are met:
   6:HeavyDaisy_grillosychicharrasosc.cpp ****  * 
   7:HeavyDaisy_grillosychicharrasosc.cpp ****  * 1. Redistributions of source code must retain the above copyright notice,
   8:HeavyDaisy_grillosychicharrasosc.cpp ****  *    this list of conditions, and the following disclaimer.
   9:HeavyDaisy_grillosychicharrasosc.cpp ****  * 
  10:HeavyDaisy_grillosychicharrasosc.cpp ****  * 2. Redistributions in binary form must reproduce the phrase "powered by heavy",
  11:HeavyDaisy_grillosychicharrasosc.cpp ****  *    the heavy logo, and a hyperlink to https://enzienaudio.com, all in a visible
  12:HeavyDaisy_grillosychicharrasosc.cpp ****  *    form.
  13:HeavyDaisy_grillosychicharrasosc.cpp ****  * 
  14:HeavyDaisy_grillosychicharrasosc.cpp ****  *   2.1 If the Application is distributed in a store system (for example,
  15:HeavyDaisy_grillosychicharrasosc.cpp ****  *       the Apple "App Store" or "Google Play"), the phrase "powered by heavy"
  16:HeavyDaisy_grillosychicharrasosc.cpp ****  *       shall be included in the app description or the copyright text as well as
  17:HeavyDaisy_grillosychicharrasosc.cpp ****  *       the in the app itself. The heavy logo will shall be visible in the app
  18:HeavyDaisy_grillosychicharrasosc.cpp ****  *       itself as well.
  19:HeavyDaisy_grillosychicharrasosc.cpp ****  * 
  20:HeavyDaisy_grillosychicharrasosc.cpp ****  * THIS SOFTWARE IS PROVIDED BY THE COPYRIGHT HOLDERS AND CONTRIBUTORS "AS IS"
  21:HeavyDaisy_grillosychicharrasosc.cpp ****  * AND ANY EXPRESS OR IMPLIED WARRANTIES, INCLUDING, BUT NOT LIMITED TO,
  22:HeavyDaisy_grillosychicharrasosc.cpp ****  * THE IMPLIED WARRANTIES OF MERCHANTABILITY AND FITNESS FOR A PARTICULAR PURPOSE
  23:HeavyDaisy_grillosychicharrasosc.cpp ****  * ARE DISCLAIMED. IN NO EVENT SHALL THE COPYRIGHT HOLDER OR CONTRIBUTORS BE LIABLE
  24:HeavyDaisy_grillosychicharrasosc.cpp ****  * FOR ANY DIRECT, INDIRECT, INCIDENTAL, SPECIAL, EXEMPLARY, OR CONSEQUENTIAL
  25:HeavyDaisy_grillosychicharrasosc.cpp ****  * DAMAGES (INCLUDING, BUT NOT LIMITED TO, PROCUREMENT OF SUBSTITUTE GOODS OR
  26:HeavyDaisy_grillosychicharrasosc.cpp ****  * SERVICES; LOSS OF USE, DATA, OR PROFITS; OR BUSINESS INTERRUPTION) HOWEVER
  27:HeavyDaisy_grillosychicharrasosc.cpp ****  * CAUSED AND ON ANY THEORY OF LIABILITY, WHETHER IN CONTRACT, STRICT LIABILITY,
  28:HeavyDaisy_grillosychicharrasosc.cpp ****  * OR TORT (INCLUDING NEGLIGENCE OR OTHERWISE) ARISING IN ANY WAY OUT OF THE USE OF
  29:HeavyDaisy_grillosychicharrasosc.cpp ****  * THIS SOFTWARE, EVEN IF ADVISED OF THE POSSIBILITY OF SUCH DAMAGE.
  30:HeavyDaisy_grillosychicharrasosc.cpp ****  * 
ARM GAS  /var/folders/fb/yfxt3z4538j6z0vjt03w70vc0000gn/T//ccrD3Rdr.s 			page 2


  31:HeavyDaisy_grillosychicharrasosc.cpp ****  */
  32:HeavyDaisy_grillosychicharrasosc.cpp **** 
  33:HeavyDaisy_grillosychicharrasosc.cpp **** #include "Heavy_grillosychicharrasosc.h"
  34:HeavyDaisy_grillosychicharrasosc.cpp **** #include "Heavy_grillosychicharrasosc.hpp" 
  35:HeavyDaisy_grillosychicharrasosc.cpp **** #include "HeavyDaisy_grillosychicharrasosc.hpp"                                                    
  36:HeavyDaisy_grillosychicharrasosc.cpp **** 
  37:HeavyDaisy_grillosychicharrasosc.cpp **** #define SAMPLE_RATE 48000.f
  38:HeavyDaisy_grillosychicharrasosc.cpp **** 
  39:HeavyDaisy_grillosychicharrasosc.cpp **** using namespace daisy;
  40:HeavyDaisy_grillosychicharrasosc.cpp **** 
  41:HeavyDaisy_grillosychicharrasosc.cpp **** json2daisy::DaisyPod hardware;
  42:HeavyDaisy_grillosychicharrasosc.cpp **** 
  43:HeavyDaisy_grillosychicharrasosc.cpp **** Heavy_grillosychicharrasosc hv(SAMPLE_RATE);
  44:HeavyDaisy_grillosychicharrasosc.cpp **** 
  45:HeavyDaisy_grillosychicharrasosc.cpp **** void audiocallback(daisy::AudioHandle::InputBuffer in, daisy::AudioHandle::OutputBuffer out, size_t
  46:HeavyDaisy_grillosychicharrasosc.cpp **** static void sendHook(HeavyContextInterface *c, const char *receiverName, uint32_t receiverHash, con
  47:HeavyDaisy_grillosychicharrasosc.cpp **** void CallbackWriteIn(Heavy_grillosychicharrasosc& hv);
  48:HeavyDaisy_grillosychicharrasosc.cpp **** void LoopWriteIn(Heavy_grillosychicharrasosc& hv);
  49:HeavyDaisy_grillosychicharrasosc.cpp **** void CallbackWriteOut();
  50:HeavyDaisy_grillosychicharrasosc.cpp **** void LoopWriteOut();
  51:HeavyDaisy_grillosychicharrasosc.cpp **** void PostProcess();
  52:HeavyDaisy_grillosychicharrasosc.cpp **** void Display();
  53:HeavyDaisy_grillosychicharrasosc.cpp **** 
  54:HeavyDaisy_grillosychicharrasosc.cpp **** 
  55:HeavyDaisy_grillosychicharrasosc.cpp **** int main(void)
  56:HeavyDaisy_grillosychicharrasosc.cpp **** {
  57:HeavyDaisy_grillosychicharrasosc.cpp ****   hardware.Init(true);
  58:HeavyDaisy_grillosychicharrasosc.cpp ****   hardware.StartAudio(audiocallback);
  59:HeavyDaisy_grillosychicharrasosc.cpp **** 
  60:HeavyDaisy_grillosychicharrasosc.cpp ****   hv.setSendHook(sendHook);
  61:HeavyDaisy_grillosychicharrasosc.cpp **** 
  62:HeavyDaisy_grillosychicharrasosc.cpp ****   for(;;)
  63:HeavyDaisy_grillosychicharrasosc.cpp ****   {
  64:HeavyDaisy_grillosychicharrasosc.cpp ****     hardware.LoopProcess();
  65:HeavyDaisy_grillosychicharrasosc.cpp ****     Display();
  66:HeavyDaisy_grillosychicharrasosc.cpp ****   }
  67:HeavyDaisy_grillosychicharrasosc.cpp **** }
  68:HeavyDaisy_grillosychicharrasosc.cpp **** 
  69:HeavyDaisy_grillosychicharrasosc.cpp **** /** The audio processing function. At the standard 48KHz sample rate and a block
  70:HeavyDaisy_grillosychicharrasosc.cpp ****  *  size of 48, this will fire every millisecond.
  71:HeavyDaisy_grillosychicharrasosc.cpp ****  */
  72:HeavyDaisy_grillosychicharrasosc.cpp **** void audiocallback(daisy::AudioHandle::InputBuffer in, daisy::AudioHandle::OutputBuffer out, size_t
  73:HeavyDaisy_grillosychicharrasosc.cpp **** {
  74:HeavyDaisy_grillosychicharrasosc.cpp ****   hardware.ProcessAllControls();
  75:HeavyDaisy_grillosychicharrasosc.cpp ****   CallbackWriteIn(hv);
  76:HeavyDaisy_grillosychicharrasosc.cpp ****   hv.process((float**)in, (float**)out, size);
  77:HeavyDaisy_grillosychicharrasosc.cpp ****   hardware.PostProcess();
  78:HeavyDaisy_grillosychicharrasosc.cpp **** }
  79:HeavyDaisy_grillosychicharrasosc.cpp **** 
  80:HeavyDaisy_grillosychicharrasosc.cpp **** /** Receives messages from PD and writes them to the appropriate 
  81:HeavyDaisy_grillosychicharrasosc.cpp ****  *  index in the `output_data` array, to be written later.
  82:HeavyDaisy_grillosychicharrasosc.cpp ****  */
  83:HeavyDaisy_grillosychicharrasosc.cpp **** static void sendHook(HeavyContextInterface *c, const char *receiverName, uint32_t receiverHash, con
  84:HeavyDaisy_grillosychicharrasosc.cpp **** {
  29              		.loc 1 84 1 view -0
  30              		.cfi_startproc
  31              		@ args = 0, pretend = 0, frame = 0
ARM GAS  /var/folders/fb/yfxt3z4538j6z0vjt03w70vc0000gn/T//ccrD3Rdr.s 			page 3


  32              		@ frame_needed = 0, uses_anonymous_args = 0
  33              		@ link register save eliminated.
  85:HeavyDaisy_grillosychicharrasosc.cpp **** }
  34              		.loc 1 85 1 is_stmt 0 view .LVU1
  35 0000 7047     		bx	lr
  36              		.cfi_endproc
  37              	.LFE3005:
  39 0002 00BF     		.section	.text._ZN5daisy11OledDisplayINS_13SSD130xDriverILj128ELj64ENS_24SSD130x4WireSpiTransportE
  40              		.align	1
  41              		.p2align 2,,3
  42              		.weak	_ZN5daisy11OledDisplayINS_13SSD130xDriverILj128ELj64ENS_24SSD130x4WireSpiTransportEEEE4FillE
  43              		.syntax unified
  44              		.thumb
  45              		.thumb_func
  47              	_ZN5daisy11OledDisplayINS_13SSD130xDriverILj128ELj64ENS_24SSD130x4WireSpiTransportEEEE4FillEb:
  48              	.LVL1:
  49              	.LFB3039:
  50              		.file 2 "../../../lib/pd2dsy/libdaisy/src/hid/disp/oled_display.h"
   1:../../../lib/pd2dsy/libdaisy/src/hid/disp/oled_display.h **** #pragma once
   2:../../../lib/pd2dsy/libdaisy/src/hid/disp/oled_display.h **** #ifndef DSY_OLED_DISPLAY_H
   3:../../../lib/pd2dsy/libdaisy/src/hid/disp/oled_display.h **** #define DSY_OLED_DISPLAY_H /**< Macro */
   4:../../../lib/pd2dsy/libdaisy/src/hid/disp/oled_display.h **** 
   5:../../../lib/pd2dsy/libdaisy/src/hid/disp/oled_display.h **** #include "display.h"
   6:../../../lib/pd2dsy/libdaisy/src/hid/disp/oled_display.h **** 
   7:../../../lib/pd2dsy/libdaisy/src/hid/disp/oled_display.h **** namespace daisy
   8:../../../lib/pd2dsy/libdaisy/src/hid/disp/oled_display.h **** {
   9:../../../lib/pd2dsy/libdaisy/src/hid/disp/oled_display.h **** /** 
  10:../../../lib/pd2dsy/libdaisy/src/hid/disp/oled_display.h ****  * This class is for drawing to a monochrome OLED display. 
  11:../../../lib/pd2dsy/libdaisy/src/hid/disp/oled_display.h ****  * @ingroup device
  12:../../../lib/pd2dsy/libdaisy/src/hid/disp/oled_display.h **** */
  13:../../../lib/pd2dsy/libdaisy/src/hid/disp/oled_display.h **** template <typename DisplayDriver>
  14:../../../lib/pd2dsy/libdaisy/src/hid/disp/oled_display.h **** class OledDisplay : public OneBitGraphicsDisplayImpl<OledDisplay<DisplayDriver>>
  15:../../../lib/pd2dsy/libdaisy/src/hid/disp/oled_display.h **** {
  16:../../../lib/pd2dsy/libdaisy/src/hid/disp/oled_display.h ****   public:
  17:../../../lib/pd2dsy/libdaisy/src/hid/disp/oled_display.h ****     OledDisplay() {}
  18:../../../lib/pd2dsy/libdaisy/src/hid/disp/oled_display.h ****     virtual ~OledDisplay() {}
  19:../../../lib/pd2dsy/libdaisy/src/hid/disp/oled_display.h **** 
  20:../../../lib/pd2dsy/libdaisy/src/hid/disp/oled_display.h ****     struct Config
  21:../../../lib/pd2dsy/libdaisy/src/hid/disp/oled_display.h ****     {
  22:../../../lib/pd2dsy/libdaisy/src/hid/disp/oled_display.h ****         typename DisplayDriver::Config driver_config;
  23:../../../lib/pd2dsy/libdaisy/src/hid/disp/oled_display.h ****     };
  24:../../../lib/pd2dsy/libdaisy/src/hid/disp/oled_display.h **** 
  25:../../../lib/pd2dsy/libdaisy/src/hid/disp/oled_display.h ****     void Init(Config config) { driver_.Init(config.driver_config); }
  26:../../../lib/pd2dsy/libdaisy/src/hid/disp/oled_display.h **** 
  27:../../../lib/pd2dsy/libdaisy/src/hid/disp/oled_display.h ****     uint16_t Height() const override { return driver_.Height(); }
  28:../../../lib/pd2dsy/libdaisy/src/hid/disp/oled_display.h ****     uint16_t Width() const override { return driver_.Width(); }
  29:../../../lib/pd2dsy/libdaisy/src/hid/disp/oled_display.h **** 
  30:../../../lib/pd2dsy/libdaisy/src/hid/disp/oled_display.h ****     /** 
  31:../../../lib/pd2dsy/libdaisy/src/hid/disp/oled_display.h ****     Fills the entire display with either on/off.
  32:../../../lib/pd2dsy/libdaisy/src/hid/disp/oled_display.h ****     \param on Sets on or off.
  33:../../../lib/pd2dsy/libdaisy/src/hid/disp/oled_display.h ****     */
  34:../../../lib/pd2dsy/libdaisy/src/hid/disp/oled_display.h ****     void Fill(bool on) override { driver_.Fill(on); }
  51              		.loc 2 34 10 is_stmt 1 view -0
  52              		.cfi_startproc
  53              		@ args = 0, pretend = 0, frame = 0
  54              		@ frame_needed = 0, uses_anonymous_args = 0
  55              		@ link register save eliminated.
ARM GAS  /var/folders/fb/yfxt3z4538j6z0vjt03w70vc0000gn/T//ccrD3Rdr.s 			page 4


  56              	.LBB449:
  57              	.LBI449:
  58              		.file 3 "../../../lib/pd2dsy/libdaisy/src/dev/oled_ssd130x.h"
   1:../../../lib/pd2dsy/libdaisy/src/dev/oled_ssd130x.h **** #pragma once
   2:../../../lib/pd2dsy/libdaisy/src/dev/oled_ssd130x.h **** #ifndef SA_OLED_SSD130X_H
   3:../../../lib/pd2dsy/libdaisy/src/dev/oled_ssd130x.h **** #define SA_OLED_SSD130X_H /**< & */
   4:../../../lib/pd2dsy/libdaisy/src/dev/oled_ssd130x.h **** 
   5:../../../lib/pd2dsy/libdaisy/src/dev/oled_ssd130x.h **** #include "per/i2c.h"
   6:../../../lib/pd2dsy/libdaisy/src/dev/oled_ssd130x.h **** #include "per/spi.h"
   7:../../../lib/pd2dsy/libdaisy/src/dev/oled_ssd130x.h **** #include "per/gpio.h"
   8:../../../lib/pd2dsy/libdaisy/src/dev/oled_ssd130x.h **** #include "sys/system.h"
   9:../../../lib/pd2dsy/libdaisy/src/dev/oled_ssd130x.h **** 
  10:../../../lib/pd2dsy/libdaisy/src/dev/oled_ssd130x.h **** namespace daisy
  11:../../../lib/pd2dsy/libdaisy/src/dev/oled_ssd130x.h **** {
  12:../../../lib/pd2dsy/libdaisy/src/dev/oled_ssd130x.h **** /**
  13:../../../lib/pd2dsy/libdaisy/src/dev/oled_ssd130x.h ****  * I2C Transport for SSD1306 / SSD1309 OLED display devices
  14:../../../lib/pd2dsy/libdaisy/src/dev/oled_ssd130x.h ****  */
  15:../../../lib/pd2dsy/libdaisy/src/dev/oled_ssd130x.h **** class SSD130xI2CTransport
  16:../../../lib/pd2dsy/libdaisy/src/dev/oled_ssd130x.h **** {
  17:../../../lib/pd2dsy/libdaisy/src/dev/oled_ssd130x.h ****   public:
  18:../../../lib/pd2dsy/libdaisy/src/dev/oled_ssd130x.h ****     struct Config
  19:../../../lib/pd2dsy/libdaisy/src/dev/oled_ssd130x.h ****     {
  20:../../../lib/pd2dsy/libdaisy/src/dev/oled_ssd130x.h ****         Config()
  21:../../../lib/pd2dsy/libdaisy/src/dev/oled_ssd130x.h ****         {
  22:../../../lib/pd2dsy/libdaisy/src/dev/oled_ssd130x.h ****             // Intialize using defaults
  23:../../../lib/pd2dsy/libdaisy/src/dev/oled_ssd130x.h ****             Defaults();
  24:../../../lib/pd2dsy/libdaisy/src/dev/oled_ssd130x.h ****         }
  25:../../../lib/pd2dsy/libdaisy/src/dev/oled_ssd130x.h ****         I2CHandle::Config i2c_config;
  26:../../../lib/pd2dsy/libdaisy/src/dev/oled_ssd130x.h ****         uint8_t           i2c_address;
  27:../../../lib/pd2dsy/libdaisy/src/dev/oled_ssd130x.h ****         void              Defaults()
  28:../../../lib/pd2dsy/libdaisy/src/dev/oled_ssd130x.h ****         {
  29:../../../lib/pd2dsy/libdaisy/src/dev/oled_ssd130x.h ****             i2c_config.periph         = I2CHandle::Config::Peripheral::I2C_1;
  30:../../../lib/pd2dsy/libdaisy/src/dev/oled_ssd130x.h ****             i2c_config.speed          = I2CHandle::Config::Speed::I2C_1MHZ;
  31:../../../lib/pd2dsy/libdaisy/src/dev/oled_ssd130x.h ****             i2c_config.mode           = I2CHandle::Config::Mode::I2C_MASTER;
  32:../../../lib/pd2dsy/libdaisy/src/dev/oled_ssd130x.h ****             i2c_config.pin_config.scl = {DSY_GPIOB, 8};
  33:../../../lib/pd2dsy/libdaisy/src/dev/oled_ssd130x.h ****             i2c_config.pin_config.sda = {DSY_GPIOB, 9};
  34:../../../lib/pd2dsy/libdaisy/src/dev/oled_ssd130x.h ****             i2c_address               = 0x3C;
  35:../../../lib/pd2dsy/libdaisy/src/dev/oled_ssd130x.h ****         }
  36:../../../lib/pd2dsy/libdaisy/src/dev/oled_ssd130x.h ****     };
  37:../../../lib/pd2dsy/libdaisy/src/dev/oled_ssd130x.h ****     void Init(const Config& config)
  38:../../../lib/pd2dsy/libdaisy/src/dev/oled_ssd130x.h ****     {
  39:../../../lib/pd2dsy/libdaisy/src/dev/oled_ssd130x.h ****         i2c_address_ = config.i2c_address;
  40:../../../lib/pd2dsy/libdaisy/src/dev/oled_ssd130x.h ****         i2c_.Init(config.i2c_config);
  41:../../../lib/pd2dsy/libdaisy/src/dev/oled_ssd130x.h ****     };
  42:../../../lib/pd2dsy/libdaisy/src/dev/oled_ssd130x.h ****     void SendCommand(uint8_t cmd)
  43:../../../lib/pd2dsy/libdaisy/src/dev/oled_ssd130x.h ****     {
  44:../../../lib/pd2dsy/libdaisy/src/dev/oled_ssd130x.h ****         uint8_t buf[2] = {0X00, cmd};
  45:../../../lib/pd2dsy/libdaisy/src/dev/oled_ssd130x.h ****         i2c_.TransmitBlocking(i2c_address_, buf, 2, 1000);
  46:../../../lib/pd2dsy/libdaisy/src/dev/oled_ssd130x.h ****     };
  47:../../../lib/pd2dsy/libdaisy/src/dev/oled_ssd130x.h **** 
  48:../../../lib/pd2dsy/libdaisy/src/dev/oled_ssd130x.h ****     void SendData(uint8_t* buff, size_t size)
  49:../../../lib/pd2dsy/libdaisy/src/dev/oled_ssd130x.h ****     {
  50:../../../lib/pd2dsy/libdaisy/src/dev/oled_ssd130x.h ****         for(size_t i = 0; i < size; i++)
  51:../../../lib/pd2dsy/libdaisy/src/dev/oled_ssd130x.h ****         {
  52:../../../lib/pd2dsy/libdaisy/src/dev/oled_ssd130x.h ****             uint8_t buf[2] = {0X40, buff[i]};
  53:../../../lib/pd2dsy/libdaisy/src/dev/oled_ssd130x.h ****             i2c_.TransmitBlocking(i2c_address_, buf, 2, 1000);
  54:../../../lib/pd2dsy/libdaisy/src/dev/oled_ssd130x.h ****         }
ARM GAS  /var/folders/fb/yfxt3z4538j6z0vjt03w70vc0000gn/T//ccrD3Rdr.s 			page 5


  55:../../../lib/pd2dsy/libdaisy/src/dev/oled_ssd130x.h ****     };
  56:../../../lib/pd2dsy/libdaisy/src/dev/oled_ssd130x.h **** 
  57:../../../lib/pd2dsy/libdaisy/src/dev/oled_ssd130x.h ****   private:
  58:../../../lib/pd2dsy/libdaisy/src/dev/oled_ssd130x.h ****     daisy::I2CHandle i2c_;
  59:../../../lib/pd2dsy/libdaisy/src/dev/oled_ssd130x.h ****     uint8_t          i2c_address_;
  60:../../../lib/pd2dsy/libdaisy/src/dev/oled_ssd130x.h **** };
  61:../../../lib/pd2dsy/libdaisy/src/dev/oled_ssd130x.h **** 
  62:../../../lib/pd2dsy/libdaisy/src/dev/oled_ssd130x.h **** /**
  63:../../../lib/pd2dsy/libdaisy/src/dev/oled_ssd130x.h ****  * 4 Wire SPI Transport for SSD1306 / SSD1309 OLED display devices
  64:../../../lib/pd2dsy/libdaisy/src/dev/oled_ssd130x.h ****  */
  65:../../../lib/pd2dsy/libdaisy/src/dev/oled_ssd130x.h **** class SSD130x4WireSpiTransport
  66:../../../lib/pd2dsy/libdaisy/src/dev/oled_ssd130x.h **** {
  67:../../../lib/pd2dsy/libdaisy/src/dev/oled_ssd130x.h ****   public:
  68:../../../lib/pd2dsy/libdaisy/src/dev/oled_ssd130x.h ****     struct Config
  69:../../../lib/pd2dsy/libdaisy/src/dev/oled_ssd130x.h ****     {
  70:../../../lib/pd2dsy/libdaisy/src/dev/oled_ssd130x.h ****         Config()
  71:../../../lib/pd2dsy/libdaisy/src/dev/oled_ssd130x.h ****         {
  72:../../../lib/pd2dsy/libdaisy/src/dev/oled_ssd130x.h ****             // Initialize using defaults
  73:../../../lib/pd2dsy/libdaisy/src/dev/oled_ssd130x.h ****             Defaults();
  74:../../../lib/pd2dsy/libdaisy/src/dev/oled_ssd130x.h ****         }
  75:../../../lib/pd2dsy/libdaisy/src/dev/oled_ssd130x.h ****         SpiHandle::Config spi_config;
  76:../../../lib/pd2dsy/libdaisy/src/dev/oled_ssd130x.h ****         struct
  77:../../../lib/pd2dsy/libdaisy/src/dev/oled_ssd130x.h ****         {
  78:../../../lib/pd2dsy/libdaisy/src/dev/oled_ssd130x.h ****             dsy_gpio_pin dc;    /**< & */
  79:../../../lib/pd2dsy/libdaisy/src/dev/oled_ssd130x.h ****             dsy_gpio_pin reset; /**< & */
  80:../../../lib/pd2dsy/libdaisy/src/dev/oled_ssd130x.h ****         } pin_config;
  81:../../../lib/pd2dsy/libdaisy/src/dev/oled_ssd130x.h ****         void Defaults()
  82:../../../lib/pd2dsy/libdaisy/src/dev/oled_ssd130x.h ****         {
  83:../../../lib/pd2dsy/libdaisy/src/dev/oled_ssd130x.h ****             // SPI peripheral config
  84:../../../lib/pd2dsy/libdaisy/src/dev/oled_ssd130x.h ****             spi_config.periph = SpiHandle::Config::Peripheral::SPI_1;
  85:../../../lib/pd2dsy/libdaisy/src/dev/oled_ssd130x.h ****             spi_config.mode   = SpiHandle::Config::Mode::MASTER;
  86:../../../lib/pd2dsy/libdaisy/src/dev/oled_ssd130x.h ****             spi_config.direction
  87:../../../lib/pd2dsy/libdaisy/src/dev/oled_ssd130x.h ****                 = SpiHandle::Config::Direction::TWO_LINES_TX_ONLY;
  88:../../../lib/pd2dsy/libdaisy/src/dev/oled_ssd130x.h ****             spi_config.datasize       = 8;
  89:../../../lib/pd2dsy/libdaisy/src/dev/oled_ssd130x.h ****             spi_config.clock_polarity = SpiHandle::Config::ClockPolarity::LOW;
  90:../../../lib/pd2dsy/libdaisy/src/dev/oled_ssd130x.h ****             spi_config.clock_phase    = SpiHandle::Config::ClockPhase::ONE_EDGE;
  91:../../../lib/pd2dsy/libdaisy/src/dev/oled_ssd130x.h ****             spi_config.nss            = SpiHandle::Config::NSS::HARD_OUTPUT;
  92:../../../lib/pd2dsy/libdaisy/src/dev/oled_ssd130x.h ****             spi_config.baud_prescaler = SpiHandle::Config::BaudPrescaler::PS_8;
  93:../../../lib/pd2dsy/libdaisy/src/dev/oled_ssd130x.h ****             // SPI pin config
  94:../../../lib/pd2dsy/libdaisy/src/dev/oled_ssd130x.h ****             spi_config.pin_config.sclk = {DSY_GPIOG, 11};
  95:../../../lib/pd2dsy/libdaisy/src/dev/oled_ssd130x.h ****             spi_config.pin_config.miso = {DSY_GPIOX, 0};
  96:../../../lib/pd2dsy/libdaisy/src/dev/oled_ssd130x.h ****             spi_config.pin_config.mosi = {DSY_GPIOB, 5};
  97:../../../lib/pd2dsy/libdaisy/src/dev/oled_ssd130x.h ****             spi_config.pin_config.nss  = {DSY_GPIOG, 10};
  98:../../../lib/pd2dsy/libdaisy/src/dev/oled_ssd130x.h ****             // SSD130x control pin config
  99:../../../lib/pd2dsy/libdaisy/src/dev/oled_ssd130x.h ****             pin_config.dc    = {DSY_GPIOB, 4};
 100:../../../lib/pd2dsy/libdaisy/src/dev/oled_ssd130x.h ****             pin_config.reset = {DSY_GPIOB, 15};
 101:../../../lib/pd2dsy/libdaisy/src/dev/oled_ssd130x.h ****         }
 102:../../../lib/pd2dsy/libdaisy/src/dev/oled_ssd130x.h ****     };
 103:../../../lib/pd2dsy/libdaisy/src/dev/oled_ssd130x.h ****     void Init(const Config& config)
 104:../../../lib/pd2dsy/libdaisy/src/dev/oled_ssd130x.h ****     {
 105:../../../lib/pd2dsy/libdaisy/src/dev/oled_ssd130x.h ****         // Initialize both GPIO
 106:../../../lib/pd2dsy/libdaisy/src/dev/oled_ssd130x.h ****         pin_dc_.mode = DSY_GPIO_MODE_OUTPUT_PP;
 107:../../../lib/pd2dsy/libdaisy/src/dev/oled_ssd130x.h ****         pin_dc_.pin  = config.pin_config.dc;
 108:../../../lib/pd2dsy/libdaisy/src/dev/oled_ssd130x.h ****         dsy_gpio_init(&pin_dc_);
 109:../../../lib/pd2dsy/libdaisy/src/dev/oled_ssd130x.h ****         pin_reset_.mode = DSY_GPIO_MODE_OUTPUT_PP;
 110:../../../lib/pd2dsy/libdaisy/src/dev/oled_ssd130x.h ****         pin_reset_.pin  = config.pin_config.reset;
 111:../../../lib/pd2dsy/libdaisy/src/dev/oled_ssd130x.h ****         dsy_gpio_init(&pin_reset_);
ARM GAS  /var/folders/fb/yfxt3z4538j6z0vjt03w70vc0000gn/T//ccrD3Rdr.s 			page 6


 112:../../../lib/pd2dsy/libdaisy/src/dev/oled_ssd130x.h **** 
 113:../../../lib/pd2dsy/libdaisy/src/dev/oled_ssd130x.h ****         // Initialize SPI
 114:../../../lib/pd2dsy/libdaisy/src/dev/oled_ssd130x.h ****         spi_.Init(config.spi_config);
 115:../../../lib/pd2dsy/libdaisy/src/dev/oled_ssd130x.h **** 
 116:../../../lib/pd2dsy/libdaisy/src/dev/oled_ssd130x.h ****         // Reset and Configure OLED.
 117:../../../lib/pd2dsy/libdaisy/src/dev/oled_ssd130x.h ****         dsy_gpio_write(&pin_reset_, 0);
 118:../../../lib/pd2dsy/libdaisy/src/dev/oled_ssd130x.h ****         System::Delay(10);
 119:../../../lib/pd2dsy/libdaisy/src/dev/oled_ssd130x.h ****         dsy_gpio_write(&pin_reset_, 1);
 120:../../../lib/pd2dsy/libdaisy/src/dev/oled_ssd130x.h ****         System::Delay(10);
 121:../../../lib/pd2dsy/libdaisy/src/dev/oled_ssd130x.h ****     };
 122:../../../lib/pd2dsy/libdaisy/src/dev/oled_ssd130x.h ****     void SendCommand(uint8_t cmd)
 123:../../../lib/pd2dsy/libdaisy/src/dev/oled_ssd130x.h ****     {
 124:../../../lib/pd2dsy/libdaisy/src/dev/oled_ssd130x.h ****         dsy_gpio_write(&pin_dc_, 0);
 125:../../../lib/pd2dsy/libdaisy/src/dev/oled_ssd130x.h ****         spi_.BlockingTransmit(&cmd, 1);
 126:../../../lib/pd2dsy/libdaisy/src/dev/oled_ssd130x.h ****     };
 127:../../../lib/pd2dsy/libdaisy/src/dev/oled_ssd130x.h **** 
 128:../../../lib/pd2dsy/libdaisy/src/dev/oled_ssd130x.h ****     void SendData(uint8_t* buff, size_t size)
 129:../../../lib/pd2dsy/libdaisy/src/dev/oled_ssd130x.h ****     {
 130:../../../lib/pd2dsy/libdaisy/src/dev/oled_ssd130x.h ****         dsy_gpio_write(&pin_dc_, 1);
 131:../../../lib/pd2dsy/libdaisy/src/dev/oled_ssd130x.h ****         spi_.BlockingTransmit(buff, size);
 132:../../../lib/pd2dsy/libdaisy/src/dev/oled_ssd130x.h ****     };
 133:../../../lib/pd2dsy/libdaisy/src/dev/oled_ssd130x.h **** 
 134:../../../lib/pd2dsy/libdaisy/src/dev/oled_ssd130x.h ****   private:
 135:../../../lib/pd2dsy/libdaisy/src/dev/oled_ssd130x.h ****     SpiHandle spi_;
 136:../../../lib/pd2dsy/libdaisy/src/dev/oled_ssd130x.h ****     dsy_gpio  pin_reset_;
 137:../../../lib/pd2dsy/libdaisy/src/dev/oled_ssd130x.h ****     dsy_gpio  pin_dc_;
 138:../../../lib/pd2dsy/libdaisy/src/dev/oled_ssd130x.h **** };
 139:../../../lib/pd2dsy/libdaisy/src/dev/oled_ssd130x.h **** 
 140:../../../lib/pd2dsy/libdaisy/src/dev/oled_ssd130x.h **** 
 141:../../../lib/pd2dsy/libdaisy/src/dev/oled_ssd130x.h **** /**
 142:../../../lib/pd2dsy/libdaisy/src/dev/oled_ssd130x.h ****  * A driver implementation for the SSD1306/SSD1309
 143:../../../lib/pd2dsy/libdaisy/src/dev/oled_ssd130x.h ****  */
 144:../../../lib/pd2dsy/libdaisy/src/dev/oled_ssd130x.h **** template <size_t width, size_t height, typename Transport>
 145:../../../lib/pd2dsy/libdaisy/src/dev/oled_ssd130x.h **** class SSD130xDriver
 146:../../../lib/pd2dsy/libdaisy/src/dev/oled_ssd130x.h **** {
 147:../../../lib/pd2dsy/libdaisy/src/dev/oled_ssd130x.h ****   public:
 148:../../../lib/pd2dsy/libdaisy/src/dev/oled_ssd130x.h ****     struct Config
 149:../../../lib/pd2dsy/libdaisy/src/dev/oled_ssd130x.h ****     {
 150:../../../lib/pd2dsy/libdaisy/src/dev/oled_ssd130x.h ****         typename Transport::Config transport_config;
 151:../../../lib/pd2dsy/libdaisy/src/dev/oled_ssd130x.h ****     };
 152:../../../lib/pd2dsy/libdaisy/src/dev/oled_ssd130x.h **** 
 153:../../../lib/pd2dsy/libdaisy/src/dev/oled_ssd130x.h ****     void Init(Config config)
 154:../../../lib/pd2dsy/libdaisy/src/dev/oled_ssd130x.h ****     {
 155:../../../lib/pd2dsy/libdaisy/src/dev/oled_ssd130x.h ****         transport_.Init(config.transport_config);
 156:../../../lib/pd2dsy/libdaisy/src/dev/oled_ssd130x.h **** 
 157:../../../lib/pd2dsy/libdaisy/src/dev/oled_ssd130x.h ****         // Init routine...
 158:../../../lib/pd2dsy/libdaisy/src/dev/oled_ssd130x.h **** 
 159:../../../lib/pd2dsy/libdaisy/src/dev/oled_ssd130x.h ****         // Display Off
 160:../../../lib/pd2dsy/libdaisy/src/dev/oled_ssd130x.h ****         transport_.SendCommand(0xaE);
 161:../../../lib/pd2dsy/libdaisy/src/dev/oled_ssd130x.h ****         // Dimension dependent commands...
 162:../../../lib/pd2dsy/libdaisy/src/dev/oled_ssd130x.h ****         switch(height)
 163:../../../lib/pd2dsy/libdaisy/src/dev/oled_ssd130x.h ****         {
 164:../../../lib/pd2dsy/libdaisy/src/dev/oled_ssd130x.h ****             case 16:
 165:../../../lib/pd2dsy/libdaisy/src/dev/oled_ssd130x.h ****                 // Display Clock Divide Ratio
 166:../../../lib/pd2dsy/libdaisy/src/dev/oled_ssd130x.h ****                 transport_.SendCommand(0xD5);
 167:../../../lib/pd2dsy/libdaisy/src/dev/oled_ssd130x.h ****                 transport_.SendCommand(0x60);
 168:../../../lib/pd2dsy/libdaisy/src/dev/oled_ssd130x.h ****                 // Multiplex Ratio
ARM GAS  /var/folders/fb/yfxt3z4538j6z0vjt03w70vc0000gn/T//ccrD3Rdr.s 			page 7


 169:../../../lib/pd2dsy/libdaisy/src/dev/oled_ssd130x.h ****                 transport_.SendCommand(0xA8);
 170:../../../lib/pd2dsy/libdaisy/src/dev/oled_ssd130x.h ****                 transport_.SendCommand(0x0F);
 171:../../../lib/pd2dsy/libdaisy/src/dev/oled_ssd130x.h ****                 // COM Pins
 172:../../../lib/pd2dsy/libdaisy/src/dev/oled_ssd130x.h ****                 transport_.SendCommand(0xDA);
 173:../../../lib/pd2dsy/libdaisy/src/dev/oled_ssd130x.h ****                 transport_.SendCommand(0x02);
 174:../../../lib/pd2dsy/libdaisy/src/dev/oled_ssd130x.h ****                 break;
 175:../../../lib/pd2dsy/libdaisy/src/dev/oled_ssd130x.h ****             case 32:
 176:../../../lib/pd2dsy/libdaisy/src/dev/oled_ssd130x.h ****                 // Display Clock Divide Ratio
 177:../../../lib/pd2dsy/libdaisy/src/dev/oled_ssd130x.h ****                 transport_.SendCommand(0xD5);
 178:../../../lib/pd2dsy/libdaisy/src/dev/oled_ssd130x.h ****                 transport_.SendCommand(0x80);
 179:../../../lib/pd2dsy/libdaisy/src/dev/oled_ssd130x.h ****                 // Multiplex Ratio
 180:../../../lib/pd2dsy/libdaisy/src/dev/oled_ssd130x.h ****                 transport_.SendCommand(0xA8);
 181:../../../lib/pd2dsy/libdaisy/src/dev/oled_ssd130x.h ****                 transport_.SendCommand(0x1F);
 182:../../../lib/pd2dsy/libdaisy/src/dev/oled_ssd130x.h ****                 // COM Pins
 183:../../../lib/pd2dsy/libdaisy/src/dev/oled_ssd130x.h ****                 transport_.SendCommand(0xDA);
 184:../../../lib/pd2dsy/libdaisy/src/dev/oled_ssd130x.h ****                 if(width == 64)
 185:../../../lib/pd2dsy/libdaisy/src/dev/oled_ssd130x.h ****                 {
 186:../../../lib/pd2dsy/libdaisy/src/dev/oled_ssd130x.h ****                     transport_.SendCommand(0x12);
 187:../../../lib/pd2dsy/libdaisy/src/dev/oled_ssd130x.h ****                 }
 188:../../../lib/pd2dsy/libdaisy/src/dev/oled_ssd130x.h ****                 else
 189:../../../lib/pd2dsy/libdaisy/src/dev/oled_ssd130x.h ****                 {
 190:../../../lib/pd2dsy/libdaisy/src/dev/oled_ssd130x.h ****                     transport_.SendCommand(0x02);
 191:../../../lib/pd2dsy/libdaisy/src/dev/oled_ssd130x.h ****                 }
 192:../../../lib/pd2dsy/libdaisy/src/dev/oled_ssd130x.h **** 
 193:../../../lib/pd2dsy/libdaisy/src/dev/oled_ssd130x.h ****                 break;
 194:../../../lib/pd2dsy/libdaisy/src/dev/oled_ssd130x.h ****             case 48:
 195:../../../lib/pd2dsy/libdaisy/src/dev/oled_ssd130x.h ****                 // Display Clock Divide Ratio
 196:../../../lib/pd2dsy/libdaisy/src/dev/oled_ssd130x.h ****                 transport_.SendCommand(0xD5);
 197:../../../lib/pd2dsy/libdaisy/src/dev/oled_ssd130x.h ****                 transport_.SendCommand(0x80);
 198:../../../lib/pd2dsy/libdaisy/src/dev/oled_ssd130x.h ****                 // Multiplex Ratio
 199:../../../lib/pd2dsy/libdaisy/src/dev/oled_ssd130x.h ****                 transport_.SendCommand(0xA8);
 200:../../../lib/pd2dsy/libdaisy/src/dev/oled_ssd130x.h ****                 transport_.SendCommand(0x2F);
 201:../../../lib/pd2dsy/libdaisy/src/dev/oled_ssd130x.h ****                 // COM Pins
 202:../../../lib/pd2dsy/libdaisy/src/dev/oled_ssd130x.h ****                 transport_.SendCommand(0xDA);
 203:../../../lib/pd2dsy/libdaisy/src/dev/oled_ssd130x.h ****                 transport_.SendCommand(0x12);
 204:../../../lib/pd2dsy/libdaisy/src/dev/oled_ssd130x.h ****                 break;
 205:../../../lib/pd2dsy/libdaisy/src/dev/oled_ssd130x.h ****             default: // 128
 206:../../../lib/pd2dsy/libdaisy/src/dev/oled_ssd130x.h ****                 // Display Clock Divide Ratio
 207:../../../lib/pd2dsy/libdaisy/src/dev/oled_ssd130x.h ****                 transport_.SendCommand(0xD5);
 208:../../../lib/pd2dsy/libdaisy/src/dev/oled_ssd130x.h ****                 transport_.SendCommand(0x80);
 209:../../../lib/pd2dsy/libdaisy/src/dev/oled_ssd130x.h ****                 // Multiplex Ratio
 210:../../../lib/pd2dsy/libdaisy/src/dev/oled_ssd130x.h ****                 transport_.SendCommand(0xA8);
 211:../../../lib/pd2dsy/libdaisy/src/dev/oled_ssd130x.h ****                 transport_.SendCommand(0x3F);
 212:../../../lib/pd2dsy/libdaisy/src/dev/oled_ssd130x.h ****                 // COM Pins
 213:../../../lib/pd2dsy/libdaisy/src/dev/oled_ssd130x.h ****                 transport_.SendCommand(0xDA);
 214:../../../lib/pd2dsy/libdaisy/src/dev/oled_ssd130x.h ****                 transport_.SendCommand(0x12);
 215:../../../lib/pd2dsy/libdaisy/src/dev/oled_ssd130x.h ****                 break;
 216:../../../lib/pd2dsy/libdaisy/src/dev/oled_ssd130x.h ****         }
 217:../../../lib/pd2dsy/libdaisy/src/dev/oled_ssd130x.h **** 
 218:../../../lib/pd2dsy/libdaisy/src/dev/oled_ssd130x.h ****         // Display Offset
 219:../../../lib/pd2dsy/libdaisy/src/dev/oled_ssd130x.h ****         transport_.SendCommand(0xD3);
 220:../../../lib/pd2dsy/libdaisy/src/dev/oled_ssd130x.h ****         transport_.SendCommand(0x00);
 221:../../../lib/pd2dsy/libdaisy/src/dev/oled_ssd130x.h ****         // Start Line Address
 222:../../../lib/pd2dsy/libdaisy/src/dev/oled_ssd130x.h ****         transport_.SendCommand(0x40);
 223:../../../lib/pd2dsy/libdaisy/src/dev/oled_ssd130x.h ****         // Normal Display
 224:../../../lib/pd2dsy/libdaisy/src/dev/oled_ssd130x.h ****         transport_.SendCommand(0xA6);
 225:../../../lib/pd2dsy/libdaisy/src/dev/oled_ssd130x.h ****         // All On Resume
ARM GAS  /var/folders/fb/yfxt3z4538j6z0vjt03w70vc0000gn/T//ccrD3Rdr.s 			page 8


 226:../../../lib/pd2dsy/libdaisy/src/dev/oled_ssd130x.h ****         transport_.SendCommand(0xA4);
 227:../../../lib/pd2dsy/libdaisy/src/dev/oled_ssd130x.h ****         // Charge Pump
 228:../../../lib/pd2dsy/libdaisy/src/dev/oled_ssd130x.h ****         transport_.SendCommand(0x8D);
 229:../../../lib/pd2dsy/libdaisy/src/dev/oled_ssd130x.h ****         transport_.SendCommand(0x14);
 230:../../../lib/pd2dsy/libdaisy/src/dev/oled_ssd130x.h ****         // Set Segment Remap
 231:../../../lib/pd2dsy/libdaisy/src/dev/oled_ssd130x.h ****         transport_.SendCommand(0xA1);
 232:../../../lib/pd2dsy/libdaisy/src/dev/oled_ssd130x.h ****         // COM Output Scan Direction
 233:../../../lib/pd2dsy/libdaisy/src/dev/oled_ssd130x.h ****         transport_.SendCommand(0xC8);
 234:../../../lib/pd2dsy/libdaisy/src/dev/oled_ssd130x.h ****         // Contrast Control
 235:../../../lib/pd2dsy/libdaisy/src/dev/oled_ssd130x.h ****         transport_.SendCommand(0x81);
 236:../../../lib/pd2dsy/libdaisy/src/dev/oled_ssd130x.h ****         transport_.SendCommand(0x8F);
 237:../../../lib/pd2dsy/libdaisy/src/dev/oled_ssd130x.h ****         // Pre Charge
 238:../../../lib/pd2dsy/libdaisy/src/dev/oled_ssd130x.h ****         transport_.SendCommand(0xD9);
 239:../../../lib/pd2dsy/libdaisy/src/dev/oled_ssd130x.h ****         transport_.SendCommand(0x25);
 240:../../../lib/pd2dsy/libdaisy/src/dev/oled_ssd130x.h ****         // VCOM Detect
 241:../../../lib/pd2dsy/libdaisy/src/dev/oled_ssd130x.h ****         transport_.SendCommand(0xDB);
 242:../../../lib/pd2dsy/libdaisy/src/dev/oled_ssd130x.h ****         transport_.SendCommand(0x34);
 243:../../../lib/pd2dsy/libdaisy/src/dev/oled_ssd130x.h **** 
 244:../../../lib/pd2dsy/libdaisy/src/dev/oled_ssd130x.h **** 
 245:../../../lib/pd2dsy/libdaisy/src/dev/oled_ssd130x.h ****         // Display On
 246:../../../lib/pd2dsy/libdaisy/src/dev/oled_ssd130x.h ****         transport_.SendCommand(0xAF); //--turn on oled panel
 247:../../../lib/pd2dsy/libdaisy/src/dev/oled_ssd130x.h ****     };
 248:../../../lib/pd2dsy/libdaisy/src/dev/oled_ssd130x.h **** 
 249:../../../lib/pd2dsy/libdaisy/src/dev/oled_ssd130x.h ****     size_t Width() const { return width; };
 250:../../../lib/pd2dsy/libdaisy/src/dev/oled_ssd130x.h ****     size_t Height() const { return height; };
 251:../../../lib/pd2dsy/libdaisy/src/dev/oled_ssd130x.h **** 
 252:../../../lib/pd2dsy/libdaisy/src/dev/oled_ssd130x.h ****     void DrawPixel(uint_fast8_t x, uint_fast8_t y, bool on)
 253:../../../lib/pd2dsy/libdaisy/src/dev/oled_ssd130x.h ****     {
 254:../../../lib/pd2dsy/libdaisy/src/dev/oled_ssd130x.h ****         if(x >= width || y >= height)
 255:../../../lib/pd2dsy/libdaisy/src/dev/oled_ssd130x.h ****             return;
 256:../../../lib/pd2dsy/libdaisy/src/dev/oled_ssd130x.h ****         if(on)
 257:../../../lib/pd2dsy/libdaisy/src/dev/oled_ssd130x.h ****             buffer_[x + (y / 8) * width] |= (1 << (y % 8));
 258:../../../lib/pd2dsy/libdaisy/src/dev/oled_ssd130x.h ****         else
 259:../../../lib/pd2dsy/libdaisy/src/dev/oled_ssd130x.h ****             buffer_[x + (y / 8) * width] &= ~(1 << (y % 8));
 260:../../../lib/pd2dsy/libdaisy/src/dev/oled_ssd130x.h ****     }
 261:../../../lib/pd2dsy/libdaisy/src/dev/oled_ssd130x.h **** 
 262:../../../lib/pd2dsy/libdaisy/src/dev/oled_ssd130x.h ****     void Fill(bool on)
  59              		.loc 3 262 10 view .LVU3
  60              	.LBB450:
 263:../../../lib/pd2dsy/libdaisy/src/dev/oled_ssd130x.h ****     {
 264:../../../lib/pd2dsy/libdaisy/src/dev/oled_ssd130x.h ****         for(size_t i = 0; i < sizeof(buffer_); i++)
  61              		.loc 3 264 29 view .LVU4
 265:../../../lib/pd2dsy/libdaisy/src/dev/oled_ssd130x.h ****         {
 266:../../../lib/pd2dsy/libdaisy/src/dev/oled_ssd130x.h ****             buffer_[i] = on ? 0xff : 0x00;
  62              		.loc 3 266 24 is_stmt 0 view .LVU5
  63 0000 4942     		rsbs	r1, r1, #0
  64              	.LVL2:
  65              		.loc 3 266 24 view .LVU6
  66 0002 4FF48062 		mov	r2, #1024
  67 0006 1430     		adds	r0, r0, #20
  68              	.LVL3:
  69              		.loc 3 266 24 view .LVU7
  70 0008 C9B2     		uxtb	r1, r1
  71 000a FFF7FEBF 		b	memset
  72              	.LVL4:
  73              		.loc 3 266 24 view .LVU8
  74              	.LBE450:
ARM GAS  /var/folders/fb/yfxt3z4538j6z0vjt03w70vc0000gn/T//ccrD3Rdr.s 			page 9


  75              	.LBE449:
  76              		.cfi_endproc
  77              	.LFE3039:
  79 000e 00BF     		.section	.text._ZN5daisy11OledDisplayINS_13SSD130xDriverILj128ELj64ENS_24SSD130x4WireSpiTransportE
  80              		.align	1
  81              		.p2align 2,,3
  82              		.weak	_ZN5daisy11OledDisplayINS_13SSD130xDriverILj128ELj64ENS_24SSD130x4WireSpiTransportEEEED2Ev
  83              		.syntax unified
  84              		.thumb
  85              		.thumb_func
  87              	_ZN5daisy11OledDisplayINS_13SSD130xDriverILj128ELj64ENS_24SSD130x4WireSpiTransportEEEED2Ev:
  88              	.LVL5:
  89              	.LFB3051:
  18:../../../lib/pd2dsy/libdaisy/src/hid/disp/oled_display.h **** 
  90              		.loc 2 18 13 is_stmt 1 view -0
  91              		.cfi_startproc
  92              		@ args = 0, pretend = 0, frame = 0
  93              		@ frame_needed = 0, uses_anonymous_args = 0
  94              		@ link register save eliminated.
  95              	.LBB451:
  96              	.LBI451:
  97              		.file 4 "../../../lib/pd2dsy/libdaisy/src/hid/disp/display.h"
   1:../../../lib/pd2dsy/libdaisy/src/hid/disp/display.h **** #pragma once
   2:../../../lib/pd2dsy/libdaisy/src/hid/disp/display.h **** #ifndef DSY_DISPLAY_H
   3:../../../lib/pd2dsy/libdaisy/src/hid/disp/display.h **** #define DSY_DISPLAY_H /**< Macro */
   4:../../../lib/pd2dsy/libdaisy/src/hid/disp/display.h **** #include <cmath>
   5:../../../lib/pd2dsy/libdaisy/src/hid/disp/display.h **** #include "util/oled_fonts.h"
   6:../../../lib/pd2dsy/libdaisy/src/hid/disp/display.h **** #include "daisy_core.h"
   7:../../../lib/pd2dsy/libdaisy/src/hid/disp/display.h **** #include "graphics_common.h"
   8:../../../lib/pd2dsy/libdaisy/src/hid/disp/display.h **** 
   9:../../../lib/pd2dsy/libdaisy/src/hid/disp/display.h **** #ifndef deg2rad
  10:../../../lib/pd2dsy/libdaisy/src/hid/disp/display.h **** #define deg2rad(deg) ((deg)*3.141592 / 180.0)
  11:../../../lib/pd2dsy/libdaisy/src/hid/disp/display.h **** #endif
  12:../../../lib/pd2dsy/libdaisy/src/hid/disp/display.h **** 
  13:../../../lib/pd2dsy/libdaisy/src/hid/disp/display.h **** namespace daisy
  14:../../../lib/pd2dsy/libdaisy/src/hid/disp/display.h **** {
  15:../../../lib/pd2dsy/libdaisy/src/hid/disp/display.h **** /** 
  16:../../../lib/pd2dsy/libdaisy/src/hid/disp/display.h ****  * This interface is used as a base class for all types of 1bit-per-pixel
  17:../../../lib/pd2dsy/libdaisy/src/hid/disp/display.h ****  * graphics displays.
  18:../../../lib/pd2dsy/libdaisy/src/hid/disp/display.h **** */
  19:../../../lib/pd2dsy/libdaisy/src/hid/disp/display.h **** class OneBitGraphicsDisplay
  20:../../../lib/pd2dsy/libdaisy/src/hid/disp/display.h **** {
  21:../../../lib/pd2dsy/libdaisy/src/hid/disp/display.h ****   public:
  22:../../../lib/pd2dsy/libdaisy/src/hid/disp/display.h ****     OneBitGraphicsDisplay() {}
  23:../../../lib/pd2dsy/libdaisy/src/hid/disp/display.h ****     virtual ~OneBitGraphicsDisplay() {}
  24:../../../lib/pd2dsy/libdaisy/src/hid/disp/display.h **** 
  25:../../../lib/pd2dsy/libdaisy/src/hid/disp/display.h ****     virtual uint16_t Height() const = 0;
  26:../../../lib/pd2dsy/libdaisy/src/hid/disp/display.h ****     virtual uint16_t Width() const  = 0;
  27:../../../lib/pd2dsy/libdaisy/src/hid/disp/display.h **** 
  28:../../../lib/pd2dsy/libdaisy/src/hid/disp/display.h ****     Rectangle GetBounds() const
  29:../../../lib/pd2dsy/libdaisy/src/hid/disp/display.h ****     {
  30:../../../lib/pd2dsy/libdaisy/src/hid/disp/display.h ****         return Rectangle(int16_t(Width()), int16_t(Height()));
  31:../../../lib/pd2dsy/libdaisy/src/hid/disp/display.h ****     }
  32:../../../lib/pd2dsy/libdaisy/src/hid/disp/display.h **** 
  33:../../../lib/pd2dsy/libdaisy/src/hid/disp/display.h **** 
  34:../../../lib/pd2dsy/libdaisy/src/hid/disp/display.h ****     size_t CurrentX() { return currentX_; };
  35:../../../lib/pd2dsy/libdaisy/src/hid/disp/display.h ****     size_t CurrentY() { return currentY_; };
ARM GAS  /var/folders/fb/yfxt3z4538j6z0vjt03w70vc0000gn/T//ccrD3Rdr.s 			page 10


  36:../../../lib/pd2dsy/libdaisy/src/hid/disp/display.h **** 
  37:../../../lib/pd2dsy/libdaisy/src/hid/disp/display.h ****     /** 
  38:../../../lib/pd2dsy/libdaisy/src/hid/disp/display.h ****     Fills the entire display with either on/off.
  39:../../../lib/pd2dsy/libdaisy/src/hid/disp/display.h ****     \param on Sets on or off.
  40:../../../lib/pd2dsy/libdaisy/src/hid/disp/display.h ****     */
  41:../../../lib/pd2dsy/libdaisy/src/hid/disp/display.h ****     virtual void Fill(bool on) = 0;
  42:../../../lib/pd2dsy/libdaisy/src/hid/disp/display.h **** 
  43:../../../lib/pd2dsy/libdaisy/src/hid/disp/display.h ****     /**
  44:../../../lib/pd2dsy/libdaisy/src/hid/disp/display.h ****     Sets the pixel at the specified coordinate to be on/off.
  45:../../../lib/pd2dsy/libdaisy/src/hid/disp/display.h ****     \param x   x Coordinate
  46:../../../lib/pd2dsy/libdaisy/src/hid/disp/display.h ****     \param y   y coordinate
  47:../../../lib/pd2dsy/libdaisy/src/hid/disp/display.h ****     \param on  on or off
  48:../../../lib/pd2dsy/libdaisy/src/hid/disp/display.h ****     */
  49:../../../lib/pd2dsy/libdaisy/src/hid/disp/display.h ****     virtual void DrawPixel(uint_fast8_t x, uint_fast8_t y, bool on) = 0;
  50:../../../lib/pd2dsy/libdaisy/src/hid/disp/display.h **** 
  51:../../../lib/pd2dsy/libdaisy/src/hid/disp/display.h ****     /**
  52:../../../lib/pd2dsy/libdaisy/src/hid/disp/display.h ****     Draws a line from (x1, y1) to (y1, y2)
  53:../../../lib/pd2dsy/libdaisy/src/hid/disp/display.h ****     \param x1  x Coordinate of the starting point
  54:../../../lib/pd2dsy/libdaisy/src/hid/disp/display.h ****     \param y1  y Coordinate of the starting point
  55:../../../lib/pd2dsy/libdaisy/src/hid/disp/display.h ****     \param x2  x Coordinate of the ending point
  56:../../../lib/pd2dsy/libdaisy/src/hid/disp/display.h ****     \param y2  y Coordinate of the ending point
  57:../../../lib/pd2dsy/libdaisy/src/hid/disp/display.h ****     \param on  on or off
  58:../../../lib/pd2dsy/libdaisy/src/hid/disp/display.h ****     */
  59:../../../lib/pd2dsy/libdaisy/src/hid/disp/display.h ****     virtual void DrawLine(uint_fast8_t x1,
  60:../../../lib/pd2dsy/libdaisy/src/hid/disp/display.h ****                           uint_fast8_t y1,
  61:../../../lib/pd2dsy/libdaisy/src/hid/disp/display.h ****                           uint_fast8_t x2,
  62:../../../lib/pd2dsy/libdaisy/src/hid/disp/display.h ****                           uint_fast8_t y2,
  63:../../../lib/pd2dsy/libdaisy/src/hid/disp/display.h ****                           bool         on)
  64:../../../lib/pd2dsy/libdaisy/src/hid/disp/display.h ****         = 0;
  65:../../../lib/pd2dsy/libdaisy/src/hid/disp/display.h **** 
  66:../../../lib/pd2dsy/libdaisy/src/hid/disp/display.h ****     /**
  67:../../../lib/pd2dsy/libdaisy/src/hid/disp/display.h ****     Draws a rectangle based on two coordinates.
  68:../../../lib/pd2dsy/libdaisy/src/hid/disp/display.h ****     \param x1 x Coordinate of the first point
  69:../../../lib/pd2dsy/libdaisy/src/hid/disp/display.h ****     \param y1 y Coordinate of the first point
  70:../../../lib/pd2dsy/libdaisy/src/hid/disp/display.h ****     \param x2 x Coordinate of the second point
  71:../../../lib/pd2dsy/libdaisy/src/hid/disp/display.h ****     \param y2 y Coordinate of the second point
  72:../../../lib/pd2dsy/libdaisy/src/hid/disp/display.h ****     \param on on or off
  73:../../../lib/pd2dsy/libdaisy/src/hid/disp/display.h ****     \param fill fill the rectangle or draw only the outline
  74:../../../lib/pd2dsy/libdaisy/src/hid/disp/display.h ****     */
  75:../../../lib/pd2dsy/libdaisy/src/hid/disp/display.h ****     virtual void DrawRect(uint_fast8_t x1,
  76:../../../lib/pd2dsy/libdaisy/src/hid/disp/display.h ****                           uint_fast8_t y1,
  77:../../../lib/pd2dsy/libdaisy/src/hid/disp/display.h ****                           uint_fast8_t x2,
  78:../../../lib/pd2dsy/libdaisy/src/hid/disp/display.h ****                           uint_fast8_t y2,
  79:../../../lib/pd2dsy/libdaisy/src/hid/disp/display.h ****                           bool         on,
  80:../../../lib/pd2dsy/libdaisy/src/hid/disp/display.h ****                           bool         fill = false)
  81:../../../lib/pd2dsy/libdaisy/src/hid/disp/display.h ****         = 0;
  82:../../../lib/pd2dsy/libdaisy/src/hid/disp/display.h **** 
  83:../../../lib/pd2dsy/libdaisy/src/hid/disp/display.h ****     /**
  84:../../../lib/pd2dsy/libdaisy/src/hid/disp/display.h ****     Draws a rectangle.
  85:../../../lib/pd2dsy/libdaisy/src/hid/disp/display.h ****     \param rect the rectangle
  86:../../../lib/pd2dsy/libdaisy/src/hid/disp/display.h ****     \param on   on or off
  87:../../../lib/pd2dsy/libdaisy/src/hid/disp/display.h ****     \param fill fill the rectangle or draw only the outline
  88:../../../lib/pd2dsy/libdaisy/src/hid/disp/display.h ****     */
  89:../../../lib/pd2dsy/libdaisy/src/hid/disp/display.h ****     void DrawRect(const Rectangle& rect, bool on, bool fill = false)
  90:../../../lib/pd2dsy/libdaisy/src/hid/disp/display.h ****     {
  91:../../../lib/pd2dsy/libdaisy/src/hid/disp/display.h ****         DrawRect(rect.GetX(),
  92:../../../lib/pd2dsy/libdaisy/src/hid/disp/display.h ****                  rect.GetY(),
ARM GAS  /var/folders/fb/yfxt3z4538j6z0vjt03w70vc0000gn/T//ccrD3Rdr.s 			page 11


  93:../../../lib/pd2dsy/libdaisy/src/hid/disp/display.h ****                  rect.GetRight(),
  94:../../../lib/pd2dsy/libdaisy/src/hid/disp/display.h ****                  rect.GetBottom(),
  95:../../../lib/pd2dsy/libdaisy/src/hid/disp/display.h ****                  on,
  96:../../../lib/pd2dsy/libdaisy/src/hid/disp/display.h ****                  fill);
  97:../../../lib/pd2dsy/libdaisy/src/hid/disp/display.h ****     }
  98:../../../lib/pd2dsy/libdaisy/src/hid/disp/display.h **** 
  99:../../../lib/pd2dsy/libdaisy/src/hid/disp/display.h ****     /**
 100:../../../lib/pd2dsy/libdaisy/src/hid/disp/display.h ****     Draws an arc around the specified coordinate
 101:../../../lib/pd2dsy/libdaisy/src/hid/disp/display.h ****     \param x           x Coordinate of the center of the arc
 102:../../../lib/pd2dsy/libdaisy/src/hid/disp/display.h ****     \param y           y Coordinate of the center of the arc
 103:../../../lib/pd2dsy/libdaisy/src/hid/disp/display.h ****     \param radius      radius of the arc
 104:../../../lib/pd2dsy/libdaisy/src/hid/disp/display.h ****     \param start_angle angle where to start the arc
 105:../../../lib/pd2dsy/libdaisy/src/hid/disp/display.h ****     \param sweep       total angle of the arc
 106:../../../lib/pd2dsy/libdaisy/src/hid/disp/display.h ****     \param on  on or off
 107:../../../lib/pd2dsy/libdaisy/src/hid/disp/display.h ****     */
 108:../../../lib/pd2dsy/libdaisy/src/hid/disp/display.h ****     virtual void DrawArc(uint_fast8_t x,
 109:../../../lib/pd2dsy/libdaisy/src/hid/disp/display.h ****                          uint_fast8_t y,
 110:../../../lib/pd2dsy/libdaisy/src/hid/disp/display.h ****                          uint_fast8_t radius,
 111:../../../lib/pd2dsy/libdaisy/src/hid/disp/display.h ****                          int_fast16_t start_angle,
 112:../../../lib/pd2dsy/libdaisy/src/hid/disp/display.h ****                          int_fast16_t sweep,
 113:../../../lib/pd2dsy/libdaisy/src/hid/disp/display.h ****                          bool         on)
 114:../../../lib/pd2dsy/libdaisy/src/hid/disp/display.h ****         = 0;
 115:../../../lib/pd2dsy/libdaisy/src/hid/disp/display.h **** 
 116:../../../lib/pd2dsy/libdaisy/src/hid/disp/display.h ****     /**
 117:../../../lib/pd2dsy/libdaisy/src/hid/disp/display.h ****     Draws a circle around the specified coordinate
 118:../../../lib/pd2dsy/libdaisy/src/hid/disp/display.h ****     \param x           x Coordinate of the center of the circle
 119:../../../lib/pd2dsy/libdaisy/src/hid/disp/display.h ****     \param y           y Coordinate of the center of the circle
 120:../../../lib/pd2dsy/libdaisy/src/hid/disp/display.h ****     \param radius      radius of the circle
 121:../../../lib/pd2dsy/libdaisy/src/hid/disp/display.h ****     \param on  on or off
 122:../../../lib/pd2dsy/libdaisy/src/hid/disp/display.h ****     */
 123:../../../lib/pd2dsy/libdaisy/src/hid/disp/display.h ****     void
 124:../../../lib/pd2dsy/libdaisy/src/hid/disp/display.h ****     DrawCircle(uint_fast8_t x, uint_fast8_t y, uint_fast8_t radius, bool on)
 125:../../../lib/pd2dsy/libdaisy/src/hid/disp/display.h ****     {
 126:../../../lib/pd2dsy/libdaisy/src/hid/disp/display.h ****         DrawArc(x, y, radius, 0, 360, on);
 127:../../../lib/pd2dsy/libdaisy/src/hid/disp/display.h ****     };
 128:../../../lib/pd2dsy/libdaisy/src/hid/disp/display.h **** 
 129:../../../lib/pd2dsy/libdaisy/src/hid/disp/display.h ****     /** 
 130:../../../lib/pd2dsy/libdaisy/src/hid/disp/display.h ****     Writes the character with the specific FontDef
 131:../../../lib/pd2dsy/libdaisy/src/hid/disp/display.h ****     to the display buffer at the current Cursor position.
 132:../../../lib/pd2dsy/libdaisy/src/hid/disp/display.h ****     \param ch character to be written
 133:../../../lib/pd2dsy/libdaisy/src/hid/disp/display.h ****     \param font font to be written in
 134:../../../lib/pd2dsy/libdaisy/src/hid/disp/display.h ****     \param on    on or off
 135:../../../lib/pd2dsy/libdaisy/src/hid/disp/display.h ****     \return &
 136:../../../lib/pd2dsy/libdaisy/src/hid/disp/display.h ****     */
 137:../../../lib/pd2dsy/libdaisy/src/hid/disp/display.h ****     virtual char WriteChar(char ch, FontDef font, bool on) = 0;
 138:../../../lib/pd2dsy/libdaisy/src/hid/disp/display.h **** 
 139:../../../lib/pd2dsy/libdaisy/src/hid/disp/display.h ****     /** 
 140:../../../lib/pd2dsy/libdaisy/src/hid/disp/display.h ****     Similar to WriteChar, except it will handle an entire String.
 141:../../../lib/pd2dsy/libdaisy/src/hid/disp/display.h ****     Wrapping does not happen automatically, so the width
 142:../../../lib/pd2dsy/libdaisy/src/hid/disp/display.h ****     of the string must be kept within the dimensions of the screen.
 143:../../../lib/pd2dsy/libdaisy/src/hid/disp/display.h ****     \param str string to be written
 144:../../../lib/pd2dsy/libdaisy/src/hid/disp/display.h ****     \param font font to use
 145:../../../lib/pd2dsy/libdaisy/src/hid/disp/display.h ****     \param on  on or off
 146:../../../lib/pd2dsy/libdaisy/src/hid/disp/display.h ****     \return &
 147:../../../lib/pd2dsy/libdaisy/src/hid/disp/display.h ****     */
 148:../../../lib/pd2dsy/libdaisy/src/hid/disp/display.h ****     virtual char WriteString(const char* str, FontDef font, bool on) = 0;
 149:../../../lib/pd2dsy/libdaisy/src/hid/disp/display.h **** 
ARM GAS  /var/folders/fb/yfxt3z4538j6z0vjt03w70vc0000gn/T//ccrD3Rdr.s 			page 12


 150:../../../lib/pd2dsy/libdaisy/src/hid/disp/display.h ****     /** 
 151:../../../lib/pd2dsy/libdaisy/src/hid/disp/display.h ****     Similar to WriteString but justified within a bounding box.
 152:../../../lib/pd2dsy/libdaisy/src/hid/disp/display.h ****     \param str          string to be written
 153:../../../lib/pd2dsy/libdaisy/src/hid/disp/display.h ****     \param font         font to use
 154:../../../lib/pd2dsy/libdaisy/src/hid/disp/display.h ****     \param boundingBox  the bounding box to draw the text in
 155:../../../lib/pd2dsy/libdaisy/src/hid/disp/display.h ****     \param alignment    the alignment to use
 156:../../../lib/pd2dsy/libdaisy/src/hid/disp/display.h ****     \param on           on or off
 157:../../../lib/pd2dsy/libdaisy/src/hid/disp/display.h ****     \return The rectangle that was drawn to
 158:../../../lib/pd2dsy/libdaisy/src/hid/disp/display.h ****     */
 159:../../../lib/pd2dsy/libdaisy/src/hid/disp/display.h ****     virtual Rectangle WriteStringAligned(const char*    str,
 160:../../../lib/pd2dsy/libdaisy/src/hid/disp/display.h ****                                          const FontDef& font,
 161:../../../lib/pd2dsy/libdaisy/src/hid/disp/display.h ****                                          Rectangle      boundingBox,
 162:../../../lib/pd2dsy/libdaisy/src/hid/disp/display.h ****                                          Alignment      alignment,
 163:../../../lib/pd2dsy/libdaisy/src/hid/disp/display.h ****                                          bool           on)
 164:../../../lib/pd2dsy/libdaisy/src/hid/disp/display.h ****         = 0;
 165:../../../lib/pd2dsy/libdaisy/src/hid/disp/display.h **** 
 166:../../../lib/pd2dsy/libdaisy/src/hid/disp/display.h ****     /** 
 167:../../../lib/pd2dsy/libdaisy/src/hid/disp/display.h ****     Moves the 'Cursor' position used for WriteChar, and WriteStr to the specified coordinate.
 168:../../../lib/pd2dsy/libdaisy/src/hid/disp/display.h ****     \param x x pos
 169:../../../lib/pd2dsy/libdaisy/src/hid/disp/display.h ****     \param y y pos
 170:../../../lib/pd2dsy/libdaisy/src/hid/disp/display.h ****     */
 171:../../../lib/pd2dsy/libdaisy/src/hid/disp/display.h ****     void SetCursor(uint16_t x, uint16_t y)
 172:../../../lib/pd2dsy/libdaisy/src/hid/disp/display.h ****     {
 173:../../../lib/pd2dsy/libdaisy/src/hid/disp/display.h ****         currentX_ = (x >= Width()) ? Width() - 1 : x;
 174:../../../lib/pd2dsy/libdaisy/src/hid/disp/display.h ****         currentY_ = (y >= Height()) ? Height() - 1 : y;
 175:../../../lib/pd2dsy/libdaisy/src/hid/disp/display.h ****     }
 176:../../../lib/pd2dsy/libdaisy/src/hid/disp/display.h **** 
 177:../../../lib/pd2dsy/libdaisy/src/hid/disp/display.h ****     /** 
 178:../../../lib/pd2dsy/libdaisy/src/hid/disp/display.h ****     Writes the current display buffer to the OLED device using SPI or I2C depending on 
 179:../../../lib/pd2dsy/libdaisy/src/hid/disp/display.h ****     how the object was initialized.
 180:../../../lib/pd2dsy/libdaisy/src/hid/disp/display.h ****     */
 181:../../../lib/pd2dsy/libdaisy/src/hid/disp/display.h ****     virtual void Update() = 0;
 182:../../../lib/pd2dsy/libdaisy/src/hid/disp/display.h **** 
 183:../../../lib/pd2dsy/libdaisy/src/hid/disp/display.h ****   protected:
 184:../../../lib/pd2dsy/libdaisy/src/hid/disp/display.h ****     uint16_t currentX_;
 185:../../../lib/pd2dsy/libdaisy/src/hid/disp/display.h ****     uint16_t currentY_;
 186:../../../lib/pd2dsy/libdaisy/src/hid/disp/display.h **** };
 187:../../../lib/pd2dsy/libdaisy/src/hid/disp/display.h **** 
 188:../../../lib/pd2dsy/libdaisy/src/hid/disp/display.h **** /** This class is intended as a intermediary class for your actual implementation of the OneBitGrap
 189:../../../lib/pd2dsy/libdaisy/src/hid/disp/display.h ****  *  interface. It uses the CRTP design pattern where the template argument is the child class. It p
 190:../../../lib/pd2dsy/libdaisy/src/hid/disp/display.h ****  *  implementations for most of the functions, except DrawPixel(), Update() and Fill(), which you'l
 191:../../../lib/pd2dsy/libdaisy/src/hid/disp/display.h ****  *  to provide in your child class.
 192:../../../lib/pd2dsy/libdaisy/src/hid/disp/display.h ****  *  The main goal of this class is to provide common drawing functions without relying on massive a
 193:../../../lib/pd2dsy/libdaisy/src/hid/disp/display.h ****  *  virtual function calls that would result in a performance loss. To achieve this, any drawing fu
 194:../../../lib/pd2dsy/libdaisy/src/hid/disp/display.h ****  *  is implemented here and internally calls other drawing functions (e.g. DrawRect() which interna
 195:../../../lib/pd2dsy/libdaisy/src/hid/disp/display.h ****  *  DrawPixel() and DrawLine()) makes these calls via the qualified name of these functions to expl
 196:../../../lib/pd2dsy/libdaisy/src/hid/disp/display.h ****  *  suppress the virtual dispatch mechanism like this:
 197:../../../lib/pd2dsy/libdaisy/src/hid/disp/display.h ****  * 
 198:../../../lib/pd2dsy/libdaisy/src/hid/disp/display.h ****  *      ChildType::DrawPixel(...); // no virtual function call; direct call into the child class fu
 199:../../../lib/pd2dsy/libdaisy/src/hid/disp/display.h ****  *  
 200:../../../lib/pd2dsy/libdaisy/src/hid/disp/display.h ****  *  To create a custom OneBitGraphicsDisplay implementation, you can 
 201:../../../lib/pd2dsy/libdaisy/src/hid/disp/display.h ****  *  A) inherit from OneBitGraphicsDisplay directly and provide all the drawing functions yourself
 202:../../../lib/pd2dsy/libdaisy/src/hid/disp/display.h ****  *  B) Inherit from OneBitGraphicsDisplayImpl and only provide DrawPixel(), Fill() and Update()
 203:../../../lib/pd2dsy/libdaisy/src/hid/disp/display.h ****  *     like this:
 204:../../../lib/pd2dsy/libdaisy/src/hid/disp/display.h ****  *  
 205:../../../lib/pd2dsy/libdaisy/src/hid/disp/display.h ****  *      class MyDisplayClass : public OneBitGraphicsDisplayImpl<MyDisplayClass> 
 206:../../../lib/pd2dsy/libdaisy/src/hid/disp/display.h ****  *      {
ARM GAS  /var/folders/fb/yfxt3z4538j6z0vjt03w70vc0000gn/T//ccrD3Rdr.s 			page 13


 207:../../../lib/pd2dsy/libdaisy/src/hid/disp/display.h ****  *      public:
 208:../../../lib/pd2dsy/libdaisy/src/hid/disp/display.h ****  *          void Fill() override { ... };
 209:../../../lib/pd2dsy/libdaisy/src/hid/disp/display.h ****  *          void DrawPixel(uint_fast8_t x, uint_fast8_t y, bool on) override { ... };
 210:../../../lib/pd2dsy/libdaisy/src/hid/disp/display.h ****  *          void Update() override { ... }
 211:../../../lib/pd2dsy/libdaisy/src/hid/disp/display.h ****  *      };
 212:../../../lib/pd2dsy/libdaisy/src/hid/disp/display.h ****  *  
 213:../../../lib/pd2dsy/libdaisy/src/hid/disp/display.h ****  */
 214:../../../lib/pd2dsy/libdaisy/src/hid/disp/display.h **** template <class ChildType>
 215:../../../lib/pd2dsy/libdaisy/src/hid/disp/display.h **** class OneBitGraphicsDisplayImpl : public OneBitGraphicsDisplay
 216:../../../lib/pd2dsy/libdaisy/src/hid/disp/display.h **** {
 217:../../../lib/pd2dsy/libdaisy/src/hid/disp/display.h ****   public:
 218:../../../lib/pd2dsy/libdaisy/src/hid/disp/display.h ****     OneBitGraphicsDisplayImpl() {}
 219:../../../lib/pd2dsy/libdaisy/src/hid/disp/display.h ****     virtual ~OneBitGraphicsDisplayImpl() {}
  98              		.loc 4 219 13 view .LVU10
  99              	.LBB452:
 100              	.LBI452:
  23:../../../lib/pd2dsy/libdaisy/src/hid/disp/display.h **** 
 101              		.loc 4 23 13 view .LVU11
  23:../../../lib/pd2dsy/libdaisy/src/hid/disp/display.h **** 
 102              		.loc 4 23 13 is_stmt 0 view .LVU12
 103              	.LBE452:
 104              	.LBE451:
  18:../../../lib/pd2dsy/libdaisy/src/hid/disp/oled_display.h **** 
 105              		.loc 2 18 29 view .LVU13
 106 0000 7047     		bx	lr
 107              		.cfi_endproc
 108              	.LFE3051:
 110              		.weak	_ZN5daisy11OledDisplayINS_13SSD130xDriverILj128ELj64ENS_24SSD130x4WireSpiTransportEEEED1Ev
 111              		.thumb_set _ZN5daisy11OledDisplayINS_13SSD130xDriverILj128ELj64ENS_24SSD130x4WireSpiTransportEEEED
 112 0002 00BF     		.section	.text._ZN10json2daisy8DaisyPodD2Ev,"axG",%progbits,_ZN10json2daisy8DaisyPodD5Ev,comdat
 113              		.align	1
 114              		.p2align 2,,3
 115              		.weak	_ZN10json2daisy8DaisyPodD2Ev
 116              		.syntax unified
 117              		.thumb
 118              		.thumb_func
 120              	_ZN10json2daisy8DaisyPodD2Ev:
 121              	.LVL6:
 122              	.LFB3071:
 123              		.file 5 "source/HeavyDaisy_grillosychicharrasosc.hpp"
   1:source/HeavyDaisy_grillosychicharrasosc.hpp **** /*
   2:source/HeavyDaisy_grillosychicharrasosc.hpp ****  * MIT License
   3:source/HeavyDaisy_grillosychicharrasosc.hpp ****  * 
   4:source/HeavyDaisy_grillosychicharrasosc.hpp ****  * Copyright (c) 2021 Electrosmith
   5:source/HeavyDaisy_grillosychicharrasosc.hpp ****  * 
   6:source/HeavyDaisy_grillosychicharrasosc.hpp ****  * Permission is hereby granted, free of charge, to any person obtaining a copy
   7:source/HeavyDaisy_grillosychicharrasosc.hpp ****  * of this software and associated documentation files (the "Software"), to deal
   8:source/HeavyDaisy_grillosychicharrasosc.hpp ****  * in the Software without restriction, including without limitation the rights
   9:source/HeavyDaisy_grillosychicharrasosc.hpp ****  * to use, copy, modify, merge, publish, distribute, sublicense, and/or sell
  10:source/HeavyDaisy_grillosychicharrasosc.hpp ****  * copies of the Software, and to permit persons to whom the Software is
  11:source/HeavyDaisy_grillosychicharrasosc.hpp ****  * furnished to do so, subject to the following conditions:
  12:source/HeavyDaisy_grillosychicharrasosc.hpp ****  * 
  13:source/HeavyDaisy_grillosychicharrasosc.hpp ****  * The above copyright notice and this permission notice shall be included in all
  14:source/HeavyDaisy_grillosychicharrasosc.hpp ****  * copies or substantial portions of the Software.
  15:source/HeavyDaisy_grillosychicharrasosc.hpp ****  * 
  16:source/HeavyDaisy_grillosychicharrasosc.hpp ****  * THE SOFTWARE IS PROVIDED "AS IS", WITHOUT WARRANTY OF ANY KIND, EXPRESS OR
  17:source/HeavyDaisy_grillosychicharrasosc.hpp ****  * IMPLIED, INCLUDING BUT NOT LIMITED TO THE WARRANTIES OF MERCHANTABILITY,
ARM GAS  /var/folders/fb/yfxt3z4538j6z0vjt03w70vc0000gn/T//ccrD3Rdr.s 			page 14


  18:source/HeavyDaisy_grillosychicharrasosc.hpp ****  * FITNESS FOR A PARTICULAR PURPOSE AND NONINFRINGEMENT. IN NO EVENT SHALL THE
  19:source/HeavyDaisy_grillosychicharrasosc.hpp ****  * AUTHORS OR COPYRIGHT HOLDERS BE LIABLE FOR ANY CLAIM, DAMAGES OR OTHER
  20:source/HeavyDaisy_grillosychicharrasosc.hpp ****  * LIABILITY, WHETHER IN AN ACTION OF CONTRACT, TORT OR OTHERWISE, ARISING FROM,
  21:source/HeavyDaisy_grillosychicharrasosc.hpp ****  * OUT OF OR IN CONNECTION WITH THE SOFTWARE OR THE USE OR OTHER DEALINGS IN THE
  22:source/HeavyDaisy_grillosychicharrasosc.hpp ****  * SOFTWARE.
  23:source/HeavyDaisy_grillosychicharrasosc.hpp ****  * 
  24:source/HeavyDaisy_grillosychicharrasosc.hpp ****  */
  25:source/HeavyDaisy_grillosychicharrasosc.hpp **** 
  26:source/HeavyDaisy_grillosychicharrasosc.hpp **** #ifndef __JSON2DAISY_POD_H__
  27:source/HeavyDaisy_grillosychicharrasosc.hpp **** #define __JSON2DAISY_POD_H__
  28:source/HeavyDaisy_grillosychicharrasosc.hpp **** 
  29:source/HeavyDaisy_grillosychicharrasosc.hpp **** #include "daisy_seed.h"
  30:source/HeavyDaisy_grillosychicharrasosc.hpp **** #include "dev/codec_ak4556.h"
  31:source/HeavyDaisy_grillosychicharrasosc.hpp **** #include "dev/oled_ssd130x.h"
  32:source/HeavyDaisy_grillosychicharrasosc.hpp **** 
  33:source/HeavyDaisy_grillosychicharrasosc.hpp **** #define ANALOG_COUNT 1
  34:source/HeavyDaisy_grillosychicharrasosc.hpp **** 
  35:source/HeavyDaisy_grillosychicharrasosc.hpp **** namespace json2daisy {
  36:source/HeavyDaisy_grillosychicharrasosc.hpp **** 
  37:source/HeavyDaisy_grillosychicharrasosc.hpp **** 
  38:source/HeavyDaisy_grillosychicharrasosc.hpp **** 
  39:source/HeavyDaisy_grillosychicharrasosc.hpp **** struct DaisyPod {
 124              		.loc 5 39 8 is_stmt 1 view -0
 125              		.cfi_startproc
 126              		@ args = 0, pretend = 0, frame = 0
 127              		@ frame_needed = 0, uses_anonymous_args = 0
 128              		@ link register save eliminated.
 129              	.LBB453:
 130              	.LBI453:
  18:../../../lib/pd2dsy/libdaisy/src/hid/disp/oled_display.h **** 
 131              		.loc 2 18 13 view .LVU15
 132              	.LBB454:
 133              	.LBI454:
 134              		.loc 4 219 13 view .LVU16
 135              	.LBB455:
 136              	.LBI455:
  23:../../../lib/pd2dsy/libdaisy/src/hid/disp/display.h **** 
 137              		.loc 4 23 13 view .LVU17
  23:../../../lib/pd2dsy/libdaisy/src/hid/disp/display.h **** 
 138              		.loc 4 23 13 is_stmt 0 view .LVU18
 139              	.LBE455:
 140              	.LBE454:
 141              	.LBE453:
 142              	.LBB456:
 143              	.LBI456:
 144              		.file 6 "../../../lib/pd2dsy/libdaisy/src/hid/switch.h"
   1:../../../lib/pd2dsy/libdaisy/src/hid/switch.h **** #pragma once
   2:../../../lib/pd2dsy/libdaisy/src/hid/switch.h **** #ifndef DSY_SWITCH_H
   3:../../../lib/pd2dsy/libdaisy/src/hid/switch.h **** #define DSY_SWITCH_H
   4:../../../lib/pd2dsy/libdaisy/src/hid/switch.h **** #include "daisy_core.h"
   5:../../../lib/pd2dsy/libdaisy/src/hid/switch.h **** #include "per/gpio.h"
   6:../../../lib/pd2dsy/libdaisy/src/hid/switch.h **** #include "sys/system.h"
   7:../../../lib/pd2dsy/libdaisy/src/hid/switch.h **** 
   8:../../../lib/pd2dsy/libdaisy/src/hid/switch.h **** namespace daisy
   9:../../../lib/pd2dsy/libdaisy/src/hid/switch.h **** {
  10:../../../lib/pd2dsy/libdaisy/src/hid/switch.h **** /** 
  11:../../../lib/pd2dsy/libdaisy/src/hid/switch.h ****     Generic Class for handling momentary/latching switches \n 
ARM GAS  /var/folders/fb/yfxt3z4538j6z0vjt03w70vc0000gn/T//ccrD3Rdr.s 			page 15


  12:../../../lib/pd2dsy/libdaisy/src/hid/switch.h ****     Inspired/influenced by Mutable Instruments (pichenettes) Switch classes
  13:../../../lib/pd2dsy/libdaisy/src/hid/switch.h ****     @author Stephen Hensley
  14:../../../lib/pd2dsy/libdaisy/src/hid/switch.h ****     @date December 2019
  15:../../../lib/pd2dsy/libdaisy/src/hid/switch.h ****     @ingroup controls
  16:../../../lib/pd2dsy/libdaisy/src/hid/switch.h **** */
  17:../../../lib/pd2dsy/libdaisy/src/hid/switch.h **** class Switch
  18:../../../lib/pd2dsy/libdaisy/src/hid/switch.h **** {
  19:../../../lib/pd2dsy/libdaisy/src/hid/switch.h ****   public:
  20:../../../lib/pd2dsy/libdaisy/src/hid/switch.h ****     /** Specifies the expected behavior of the switch */
  21:../../../lib/pd2dsy/libdaisy/src/hid/switch.h ****     enum Type
  22:../../../lib/pd2dsy/libdaisy/src/hid/switch.h ****     {
  23:../../../lib/pd2dsy/libdaisy/src/hid/switch.h ****         TYPE_TOGGLE,    /**< & */
  24:../../../lib/pd2dsy/libdaisy/src/hid/switch.h ****         TYPE_MOMENTARY, /**< & */
  25:../../../lib/pd2dsy/libdaisy/src/hid/switch.h ****     };
  26:../../../lib/pd2dsy/libdaisy/src/hid/switch.h ****     /** Specifies whether the pressed is HIGH or LOW. */
  27:../../../lib/pd2dsy/libdaisy/src/hid/switch.h ****     enum Polarity
  28:../../../lib/pd2dsy/libdaisy/src/hid/switch.h ****     {
  29:../../../lib/pd2dsy/libdaisy/src/hid/switch.h ****         POLARITY_NORMAL,   /**< & */
  30:../../../lib/pd2dsy/libdaisy/src/hid/switch.h ****         POLARITY_INVERTED, /**< & */
  31:../../../lib/pd2dsy/libdaisy/src/hid/switch.h ****     };
  32:../../../lib/pd2dsy/libdaisy/src/hid/switch.h **** 
  33:../../../lib/pd2dsy/libdaisy/src/hid/switch.h ****     /** Specifies whether to use built-in Pull Up/Down resistors to hold button at a given state wh
  34:../../../lib/pd2dsy/libdaisy/src/hid/switch.h ****     enum Pull
  35:../../../lib/pd2dsy/libdaisy/src/hid/switch.h ****     {
  36:../../../lib/pd2dsy/libdaisy/src/hid/switch.h ****         PULL_UP,   /**< & */
  37:../../../lib/pd2dsy/libdaisy/src/hid/switch.h ****         PULL_DOWN, /**< & */
  38:../../../lib/pd2dsy/libdaisy/src/hid/switch.h ****         PULL_NONE, /**< & */
  39:../../../lib/pd2dsy/libdaisy/src/hid/switch.h ****     };
  40:../../../lib/pd2dsy/libdaisy/src/hid/switch.h **** 
  41:../../../lib/pd2dsy/libdaisy/src/hid/switch.h ****     Switch() {}
  42:../../../lib/pd2dsy/libdaisy/src/hid/switch.h ****     ~Switch() {}
 145              		.loc 6 42 5 is_stmt 1 view .LVU19
 146              		.loc 6 42 5 is_stmt 0 view .LVU20
 147              	.LBE456:
 148              	.LBB457:
 149              	.LBI457:
 150              		.file 7 "../../../lib/pd2dsy/libdaisy/src/hid/rgb_led.h"
   1:../../../lib/pd2dsy/libdaisy/src/hid/rgb_led.h **** #pragma once
   2:../../../lib/pd2dsy/libdaisy/src/hid/rgb_led.h **** #ifndef DSY_RGB_LED_H
   3:../../../lib/pd2dsy/libdaisy/src/hid/rgb_led.h **** #define DSY_RGB_LED_H
   4:../../../lib/pd2dsy/libdaisy/src/hid/rgb_led.h **** #include "hid/led.h"
   5:../../../lib/pd2dsy/libdaisy/src/hid/rgb_led.h **** #include "util/color.h"
   6:../../../lib/pd2dsy/libdaisy/src/hid/rgb_led.h **** 
   7:../../../lib/pd2dsy/libdaisy/src/hid/rgb_led.h **** namespace daisy
   8:../../../lib/pd2dsy/libdaisy/src/hid/rgb_led.h **** {
   9:../../../lib/pd2dsy/libdaisy/src/hid/rgb_led.h **** /** @addtogroup feedback
  10:../../../lib/pd2dsy/libdaisy/src/hid/rgb_led.h ****     @{
  11:../../../lib/pd2dsy/libdaisy/src/hid/rgb_led.h **** */
  12:../../../lib/pd2dsy/libdaisy/src/hid/rgb_led.h **** 
  13:../../../lib/pd2dsy/libdaisy/src/hid/rgb_led.h **** /** 3x LEDs configured as an RGB for ease of use. */
  14:../../../lib/pd2dsy/libdaisy/src/hid/rgb_led.h **** class RgbLed
  15:../../../lib/pd2dsy/libdaisy/src/hid/rgb_led.h **** {
  16:../../../lib/pd2dsy/libdaisy/src/hid/rgb_led.h ****   public:
  17:../../../lib/pd2dsy/libdaisy/src/hid/rgb_led.h ****     RgbLed() {}
  18:../../../lib/pd2dsy/libdaisy/src/hid/rgb_led.h ****     ~RgbLed() {}
 151              		.loc 7 18 5 is_stmt 1 view .LVU21
 152              	.LBB458:
ARM GAS  /var/folders/fb/yfxt3z4538j6z0vjt03w70vc0000gn/T//ccrD3Rdr.s 			page 16


 153              	.LBI458:
 154              		.file 8 "../../../lib/pd2dsy/libdaisy/src/hid/led.h"
   1:../../../lib/pd2dsy/libdaisy/src/hid/led.h **** 
   2:../../../lib/pd2dsy/libdaisy/src/hid/led.h **** #pragma once
   3:../../../lib/pd2dsy/libdaisy/src/hid/led.h **** #ifndef DSY_LED_H
   4:../../../lib/pd2dsy/libdaisy/src/hid/led.h **** #define DSY_LED_H
   5:../../../lib/pd2dsy/libdaisy/src/hid/led.h **** #include "daisy_core.h"
   6:../../../lib/pd2dsy/libdaisy/src/hid/led.h **** #include "per/gpio.h"
   7:../../../lib/pd2dsy/libdaisy/src/hid/led.h **** 
   8:../../../lib/pd2dsy/libdaisy/src/hid/led.h **** /* TODO - Get this set up to work with the dev_leddriver stuff as well
   9:../../../lib/pd2dsy/libdaisy/src/hid/led.h **** - Setup Hardware PWM for pins that have it
  10:../../../lib/pd2dsy/libdaisy/src/hid/led.h **** */
  11:../../../lib/pd2dsy/libdaisy/src/hid/led.h **** 
  12:../../../lib/pd2dsy/libdaisy/src/hid/led.h **** namespace daisy
  13:../../../lib/pd2dsy/libdaisy/src/hid/led.h **** {
  14:../../../lib/pd2dsy/libdaisy/src/hid/led.h **** /**
  15:../../../lib/pd2dsy/libdaisy/src/hid/led.h ****     @brief LED Class providing simple Software PWM ability, etc \n 
  16:../../../lib/pd2dsy/libdaisy/src/hid/led.h ****     Eventually this will work with hardware PWM, and external LED Driver devices as well.
  17:../../../lib/pd2dsy/libdaisy/src/hid/led.h ****     @author shensley
  18:../../../lib/pd2dsy/libdaisy/src/hid/led.h ****     @date March 2020
  19:../../../lib/pd2dsy/libdaisy/src/hid/led.h ****     @ingroup feedback
  20:../../../lib/pd2dsy/libdaisy/src/hid/led.h **** */
  21:../../../lib/pd2dsy/libdaisy/src/hid/led.h **** class Led
  22:../../../lib/pd2dsy/libdaisy/src/hid/led.h **** {
  23:../../../lib/pd2dsy/libdaisy/src/hid/led.h ****   public:
  24:../../../lib/pd2dsy/libdaisy/src/hid/led.h ****     Led() {}
  25:../../../lib/pd2dsy/libdaisy/src/hid/led.h ****     ~Led() {}
 155              		.loc 8 25 5 view .LVU22
 156              		.loc 8 25 5 is_stmt 0 view .LVU23
 157              	.LBE458:
 158              	.LBB459:
 159              	.LBI459:
 160              		.loc 8 25 5 is_stmt 1 view .LVU24
 161              		.loc 8 25 5 is_stmt 0 view .LVU25
 162              	.LBE459:
 163              	.LBB460:
 164              	.LBI460:
 165              		.loc 8 25 5 is_stmt 1 view .LVU26
 166              		.loc 8 25 5 is_stmt 0 view .LVU27
 167              	.LBE460:
 168              	.LBE457:
 169              	.LBB461:
 170              	.LBI461:
 171              		.file 9 "../../../lib/pd2dsy/libdaisy/src/hid/ctrl.h"
   1:../../../lib/pd2dsy/libdaisy/src/hid/ctrl.h **** #pragma once
   2:../../../lib/pd2dsy/libdaisy/src/hid/ctrl.h **** #ifndef DSY_KNOB_H
   3:../../../lib/pd2dsy/libdaisy/src/hid/ctrl.h **** #define DSY_KNOB_H /**< & */
   4:../../../lib/pd2dsy/libdaisy/src/hid/ctrl.h **** #include <stdint.h>
   5:../../../lib/pd2dsy/libdaisy/src/hid/ctrl.h **** 
   6:../../../lib/pd2dsy/libdaisy/src/hid/ctrl.h **** #ifdef __cplusplus
   7:../../../lib/pd2dsy/libdaisy/src/hid/ctrl.h **** namespace daisy
   8:../../../lib/pd2dsy/libdaisy/src/hid/ctrl.h **** {
   9:../../../lib/pd2dsy/libdaisy/src/hid/ctrl.h **** /**
  10:../../../lib/pd2dsy/libdaisy/src/hid/ctrl.h ****     @brief Hardware Interface for control inputs \n 
  11:../../../lib/pd2dsy/libdaisy/src/hid/ctrl.h ****     Primarily designed for ADC input controls such as \n 
  12:../../../lib/pd2dsy/libdaisy/src/hid/ctrl.h ****     potentiometers, and control voltage. \n 
  13:../../../lib/pd2dsy/libdaisy/src/hid/ctrl.h ****     @author Stephen Hensley
ARM GAS  /var/folders/fb/yfxt3z4538j6z0vjt03w70vc0000gn/T//ccrD3Rdr.s 			page 17


  14:../../../lib/pd2dsy/libdaisy/src/hid/ctrl.h ****     @date November 2019
  15:../../../lib/pd2dsy/libdaisy/src/hid/ctrl.h ****     @ingroup controls
  16:../../../lib/pd2dsy/libdaisy/src/hid/ctrl.h **** */
  17:../../../lib/pd2dsy/libdaisy/src/hid/ctrl.h **** class AnalogControl
  18:../../../lib/pd2dsy/libdaisy/src/hid/ctrl.h **** {
  19:../../../lib/pd2dsy/libdaisy/src/hid/ctrl.h ****   public:
  20:../../../lib/pd2dsy/libdaisy/src/hid/ctrl.h ****     /** Constructor */
  21:../../../lib/pd2dsy/libdaisy/src/hid/ctrl.h ****     AnalogControl() {}
  22:../../../lib/pd2dsy/libdaisy/src/hid/ctrl.h ****     /** destructor */
  23:../../../lib/pd2dsy/libdaisy/src/hid/ctrl.h ****     ~AnalogControl() {}
 172              		.loc 9 23 5 is_stmt 1 view .LVU28
 173              		.loc 9 23 5 is_stmt 0 view .LVU29
 174              	.LBE461:
 175              	.LBB462:
 176              	.LBI462:
 177              		.file 10 "../../../lib/pd2dsy/libdaisy/src/daisy_seed.h"
   1:../../../lib/pd2dsy/libdaisy/src/daisy_seed.h **** #pragma once
   2:../../../lib/pd2dsy/libdaisy/src/daisy_seed.h **** #ifndef DSY_SEED_H
   3:../../../lib/pd2dsy/libdaisy/src/daisy_seed.h **** #define DSY_SEED_H
   4:../../../lib/pd2dsy/libdaisy/src/daisy_seed.h **** 
   5:../../../lib/pd2dsy/libdaisy/src/daisy_seed.h **** #include "daisy.h"
   6:../../../lib/pd2dsy/libdaisy/src/daisy_seed.h **** 
   7:../../../lib/pd2dsy/libdaisy/src/daisy_seed.h **** //Uncomment this out if you're still using the rev2 hardware
   8:../../../lib/pd2dsy/libdaisy/src/daisy_seed.h **** //#define SEED_REV2
   9:../../../lib/pd2dsy/libdaisy/src/daisy_seed.h **** 
  10:../../../lib/pd2dsy/libdaisy/src/daisy_seed.h **** namespace daisy
  11:../../../lib/pd2dsy/libdaisy/src/daisy_seed.h **** {
  12:../../../lib/pd2dsy/libdaisy/src/daisy_seed.h **** /**
  13:../../../lib/pd2dsy/libdaisy/src/daisy_seed.h ****    @brief This is the higher-level interface for the Daisy board. \n 
  14:../../../lib/pd2dsy/libdaisy/src/daisy_seed.h ****     All basic peripheral configuration/initialization is setup here. \n
  15:../../../lib/pd2dsy/libdaisy/src/daisy_seed.h **** 
  16:../../../lib/pd2dsy/libdaisy/src/daisy_seed.h ****    @ingroup boards
  17:../../../lib/pd2dsy/libdaisy/src/daisy_seed.h **** */
  18:../../../lib/pd2dsy/libdaisy/src/daisy_seed.h **** class DaisySeed
  19:../../../lib/pd2dsy/libdaisy/src/daisy_seed.h **** {
  20:../../../lib/pd2dsy/libdaisy/src/daisy_seed.h ****   public:
  21:../../../lib/pd2dsy/libdaisy/src/daisy_seed.h ****     DaisySeed() {}
  22:../../../lib/pd2dsy/libdaisy/src/daisy_seed.h ****     ~DaisySeed() {}
 178              		.loc 10 22 5 is_stmt 1 view .LVU30
 179              	.LBB463:
 180              	.LBI463:
 181              		.file 11 "../../../lib/pd2dsy/libdaisy/src/sys/system.h"
   1:../../../lib/pd2dsy/libdaisy/src/sys/system.h **** #ifndef DSY_SYSTEM_H
   2:../../../lib/pd2dsy/libdaisy/src/sys/system.h **** #define DSY_SYSTEM_H
   3:../../../lib/pd2dsy/libdaisy/src/sys/system.h **** 
   4:../../../lib/pd2dsy/libdaisy/src/sys/system.h **** #ifndef UNIT_TEST // for unit tests, a dummy implementation is provided below
   5:../../../lib/pd2dsy/libdaisy/src/sys/system.h **** 
   6:../../../lib/pd2dsy/libdaisy/src/sys/system.h **** #include <cstdint>
   7:../../../lib/pd2dsy/libdaisy/src/sys/system.h **** #include "per/tim.h"
   8:../../../lib/pd2dsy/libdaisy/src/sys/system.h **** 
   9:../../../lib/pd2dsy/libdaisy/src/sys/system.h **** namespace daisy
  10:../../../lib/pd2dsy/libdaisy/src/sys/system.h **** {
  11:../../../lib/pd2dsy/libdaisy/src/sys/system.h **** /** A handle for interacting with the Core System. 
  12:../../../lib/pd2dsy/libdaisy/src/sys/system.h ****  ** This includes the Clock tree, MPU, global DMA initialization,
  13:../../../lib/pd2dsy/libdaisy/src/sys/system.h ****  ** cache handling, and any other necessary global initiailzation
  14:../../../lib/pd2dsy/libdaisy/src/sys/system.h ****  **
  15:../../../lib/pd2dsy/libdaisy/src/sys/system.h ****  ** @author shensley
ARM GAS  /var/folders/fb/yfxt3z4538j6z0vjt03w70vc0000gn/T//ccrD3Rdr.s 			page 18


  16:../../../lib/pd2dsy/libdaisy/src/sys/system.h ****  ** @ingroup system
  17:../../../lib/pd2dsy/libdaisy/src/sys/system.h ****  */
  18:../../../lib/pd2dsy/libdaisy/src/sys/system.h **** class System
  19:../../../lib/pd2dsy/libdaisy/src/sys/system.h **** {
  20:../../../lib/pd2dsy/libdaisy/src/sys/system.h ****   public:
  21:../../../lib/pd2dsy/libdaisy/src/sys/system.h ****     /** Contains settings for initializing the System */
  22:../../../lib/pd2dsy/libdaisy/src/sys/system.h ****     struct Config
  23:../../../lib/pd2dsy/libdaisy/src/sys/system.h ****     {
  24:../../../lib/pd2dsy/libdaisy/src/sys/system.h ****         /** Specifies the system clock frequency that feeds APB/AHB clocks, etc. */
  25:../../../lib/pd2dsy/libdaisy/src/sys/system.h ****         enum class SysClkFreq
  26:../../../lib/pd2dsy/libdaisy/src/sys/system.h ****         {
  27:../../../lib/pd2dsy/libdaisy/src/sys/system.h ****             FREQ_400MHZ,
  28:../../../lib/pd2dsy/libdaisy/src/sys/system.h ****             FREQ_480MHZ,
  29:../../../lib/pd2dsy/libdaisy/src/sys/system.h ****         };
  30:../../../lib/pd2dsy/libdaisy/src/sys/system.h **** 
  31:../../../lib/pd2dsy/libdaisy/src/sys/system.h ****         /** Method to call on the struct to set to defaults
  32:../../../lib/pd2dsy/libdaisy/src/sys/system.h ****          ** CPU Freq set to 400MHz
  33:../../../lib/pd2dsy/libdaisy/src/sys/system.h ****          ** Cache Enabled 
  34:../../../lib/pd2dsy/libdaisy/src/sys/system.h ****          ** */
  35:../../../lib/pd2dsy/libdaisy/src/sys/system.h ****         void Defaults()
  36:../../../lib/pd2dsy/libdaisy/src/sys/system.h ****         {
  37:../../../lib/pd2dsy/libdaisy/src/sys/system.h ****             cpu_freq    = SysClkFreq::FREQ_400MHZ;
  38:../../../lib/pd2dsy/libdaisy/src/sys/system.h ****             use_dcache  = true;
  39:../../../lib/pd2dsy/libdaisy/src/sys/system.h ****             use_icache  = true;
  40:../../../lib/pd2dsy/libdaisy/src/sys/system.h ****             skip_clocks = false;
  41:../../../lib/pd2dsy/libdaisy/src/sys/system.h ****         }
  42:../../../lib/pd2dsy/libdaisy/src/sys/system.h **** 
  43:../../../lib/pd2dsy/libdaisy/src/sys/system.h ****         /** Method to call on the struct to set to boost mode:
  44:../../../lib/pd2dsy/libdaisy/src/sys/system.h ****          ** CPU Freq set to 480MHz
  45:../../../lib/pd2dsy/libdaisy/src/sys/system.h ****          ** Cache Enabled 
  46:../../../lib/pd2dsy/libdaisy/src/sys/system.h ****          ** */
  47:../../../lib/pd2dsy/libdaisy/src/sys/system.h ****         void Boost()
  48:../../../lib/pd2dsy/libdaisy/src/sys/system.h ****         {
  49:../../../lib/pd2dsy/libdaisy/src/sys/system.h ****             cpu_freq    = SysClkFreq::FREQ_480MHZ;
  50:../../../lib/pd2dsy/libdaisy/src/sys/system.h ****             use_dcache  = true;
  51:../../../lib/pd2dsy/libdaisy/src/sys/system.h ****             use_icache  = true;
  52:../../../lib/pd2dsy/libdaisy/src/sys/system.h ****             skip_clocks = false;
  53:../../../lib/pd2dsy/libdaisy/src/sys/system.h ****         }
  54:../../../lib/pd2dsy/libdaisy/src/sys/system.h **** 
  55:../../../lib/pd2dsy/libdaisy/src/sys/system.h ****         SysClkFreq cpu_freq;
  56:../../../lib/pd2dsy/libdaisy/src/sys/system.h ****         bool       use_dcache;
  57:../../../lib/pd2dsy/libdaisy/src/sys/system.h ****         bool       use_icache;
  58:../../../lib/pd2dsy/libdaisy/src/sys/system.h ****         bool       skip_clocks;
  59:../../../lib/pd2dsy/libdaisy/src/sys/system.h ****     };
  60:../../../lib/pd2dsy/libdaisy/src/sys/system.h **** 
  61:../../../lib/pd2dsy/libdaisy/src/sys/system.h ****     /** Describes the different regions of memory available to the Daisy
  62:../../../lib/pd2dsy/libdaisy/src/sys/system.h ****      * 
  63:../../../lib/pd2dsy/libdaisy/src/sys/system.h ****      */
  64:../../../lib/pd2dsy/libdaisy/src/sys/system.h ****     enum MemoryRegion
  65:../../../lib/pd2dsy/libdaisy/src/sys/system.h ****     {
  66:../../../lib/pd2dsy/libdaisy/src/sys/system.h ****         INTERNAL_FLASH = 0,
  67:../../../lib/pd2dsy/libdaisy/src/sys/system.h ****         ITCMRAM,
  68:../../../lib/pd2dsy/libdaisy/src/sys/system.h ****         DTCMRAM,
  69:../../../lib/pd2dsy/libdaisy/src/sys/system.h ****         SRAM_D1,
  70:../../../lib/pd2dsy/libdaisy/src/sys/system.h ****         SRAM_D2,
  71:../../../lib/pd2dsy/libdaisy/src/sys/system.h ****         SRAM_D3,
  72:../../../lib/pd2dsy/libdaisy/src/sys/system.h ****         SDRAM,
ARM GAS  /var/folders/fb/yfxt3z4538j6z0vjt03w70vc0000gn/T//ccrD3Rdr.s 			page 19


  73:../../../lib/pd2dsy/libdaisy/src/sys/system.h ****         QSPI,
  74:../../../lib/pd2dsy/libdaisy/src/sys/system.h ****         INVALID_ADDRESS,
  75:../../../lib/pd2dsy/libdaisy/src/sys/system.h ****     };
  76:../../../lib/pd2dsy/libdaisy/src/sys/system.h **** 
  77:../../../lib/pd2dsy/libdaisy/src/sys/system.h ****     System() {}
  78:../../../lib/pd2dsy/libdaisy/src/sys/system.h ****     ~System() {}
 182              		.loc 11 78 5 view .LVU31
 183              		.loc 11 78 5 is_stmt 0 view .LVU32
 184              	.LBE463:
 185              	.LBB464:
 186              	.LBI464:
 187              		.file 12 "../../../lib/pd2dsy/libdaisy/src/hid/usb.h"
   1:../../../lib/pd2dsy/libdaisy/src/hid/usb.h **** #pragma once
   2:../../../lib/pd2dsy/libdaisy/src/hid/usb.h **** #ifndef DSY_HID_USB_H
   3:../../../lib/pd2dsy/libdaisy/src/hid/usb.h **** #define DSY_HID_USB_H
   4:../../../lib/pd2dsy/libdaisy/src/hid/usb.h **** #include <stdint.h>
   5:../../../lib/pd2dsy/libdaisy/src/hid/usb.h **** #include <stdlib.h>
   6:../../../lib/pd2dsy/libdaisy/src/hid/usb.h **** 
   7:../../../lib/pd2dsy/libdaisy/src/hid/usb.h **** namespace daisy
   8:../../../lib/pd2dsy/libdaisy/src/hid/usb.h **** /** @addtogroup human_interface
   9:../../../lib/pd2dsy/libdaisy/src/hid/usb.h ****     @{
  10:../../../lib/pd2dsy/libdaisy/src/hid/usb.h **** */
  11:../../../lib/pd2dsy/libdaisy/src/hid/usb.h **** 
  12:../../../lib/pd2dsy/libdaisy/src/hid/usb.h **** {
  13:../../../lib/pd2dsy/libdaisy/src/hid/usb.h **** /** 
  14:../../../lib/pd2dsy/libdaisy/src/hid/usb.h ****     @brief Interface for initializing and using the USB Peripherals on the daisy
  15:../../../lib/pd2dsy/libdaisy/src/hid/usb.h ****     @author Stephen Hensley
  16:../../../lib/pd2dsy/libdaisy/src/hid/usb.h ****     @date December 2019
  17:../../../lib/pd2dsy/libdaisy/src/hid/usb.h **** */
  18:../../../lib/pd2dsy/libdaisy/src/hid/usb.h **** class UsbHandle
  19:../../../lib/pd2dsy/libdaisy/src/hid/usb.h **** {
  20:../../../lib/pd2dsy/libdaisy/src/hid/usb.h ****   public:
  21:../../../lib/pd2dsy/libdaisy/src/hid/usb.h ****     /** Return values for USBHandle Functions */
  22:../../../lib/pd2dsy/libdaisy/src/hid/usb.h ****     enum class Result
  23:../../../lib/pd2dsy/libdaisy/src/hid/usb.h ****     {
  24:../../../lib/pd2dsy/libdaisy/src/hid/usb.h ****         OK,
  25:../../../lib/pd2dsy/libdaisy/src/hid/usb.h ****         ERR,
  26:../../../lib/pd2dsy/libdaisy/src/hid/usb.h ****     };
  27:../../../lib/pd2dsy/libdaisy/src/hid/usb.h **** 
  28:../../../lib/pd2dsy/libdaisy/src/hid/usb.h ****     /** Specified which of the two USB Peripherals to initialize. */
  29:../../../lib/pd2dsy/libdaisy/src/hid/usb.h ****     enum UsbPeriph
  30:../../../lib/pd2dsy/libdaisy/src/hid/usb.h ****     {
  31:../../../lib/pd2dsy/libdaisy/src/hid/usb.h ****         FS_INTERNAL, /**< Internal pin */
  32:../../../lib/pd2dsy/libdaisy/src/hid/usb.h ****         FS_EXTERNAL, /**< FS External D+ pin is Pin 38 (GPIO32). FS External D- pin is Pin 37 (GPIO
  33:../../../lib/pd2dsy/libdaisy/src/hid/usb.h ****         FS_BOTH,     /**< Both */
  34:../../../lib/pd2dsy/libdaisy/src/hid/usb.h ****     };
  35:../../../lib/pd2dsy/libdaisy/src/hid/usb.h **** 
  36:../../../lib/pd2dsy/libdaisy/src/hid/usb.h **** 
  37:../../../lib/pd2dsy/libdaisy/src/hid/usb.h ****     /** Function called upon reception of a buffer */
  38:../../../lib/pd2dsy/libdaisy/src/hid/usb.h ****     typedef void (*ReceiveCallback)(uint8_t* buff, uint32_t* len);
  39:../../../lib/pd2dsy/libdaisy/src/hid/usb.h **** 
  40:../../../lib/pd2dsy/libdaisy/src/hid/usb.h ****     UsbHandle() {}
  41:../../../lib/pd2dsy/libdaisy/src/hid/usb.h **** 
  42:../../../lib/pd2dsy/libdaisy/src/hid/usb.h ****     ~UsbHandle() {}
 188              		.loc 12 42 5 is_stmt 1 view .LVU33
 189              		.loc 12 42 5 is_stmt 0 view .LVU34
 190              	.LBE464:
ARM GAS  /var/folders/fb/yfxt3z4538j6z0vjt03w70vc0000gn/T//ccrD3Rdr.s 			page 20


 191              	.LBB465:
 192              	.LBI465:
 193              		.file 13 "../../../lib/pd2dsy/libdaisy/src/per/adc.h"
   1:../../../lib/pd2dsy/libdaisy/src/per/adc.h **** #pragma once
   2:../../../lib/pd2dsy/libdaisy/src/per/adc.h **** #ifndef DSY_ADC_H
   3:../../../lib/pd2dsy/libdaisy/src/per/adc.h **** #define DSY_ADC_H /**< Macro */
   4:../../../lib/pd2dsy/libdaisy/src/per/adc.h **** #include <stdint.h>
   5:../../../lib/pd2dsy/libdaisy/src/per/adc.h **** #include <stdlib.h>
   6:../../../lib/pd2dsy/libdaisy/src/per/adc.h **** #include "daisy_core.h"
   7:../../../lib/pd2dsy/libdaisy/src/per/adc.h **** #include "per/gpio.h"
   8:../../../lib/pd2dsy/libdaisy/src/per/adc.h **** 
   9:../../../lib/pd2dsy/libdaisy/src/per/adc.h **** #define DSY_ADC_MAX_CHANNELS 16 /**< Maximum number of ADC channels */
  10:../../../lib/pd2dsy/libdaisy/src/per/adc.h **** 
  11:../../../lib/pd2dsy/libdaisy/src/per/adc.h **** namespace daisy
  12:../../../lib/pd2dsy/libdaisy/src/per/adc.h **** {
  13:../../../lib/pd2dsy/libdaisy/src/per/adc.h **** /** @addtogroup per_analog
  14:../../../lib/pd2dsy/libdaisy/src/per/adc.h ****     @{
  15:../../../lib/pd2dsy/libdaisy/src/per/adc.h **** */
  16:../../../lib/pd2dsy/libdaisy/src/per/adc.h **** 
  17:../../../lib/pd2dsy/libdaisy/src/per/adc.h **** /* While there may not be many configuration options here,
  18:../../../lib/pd2dsy/libdaisy/src/per/adc.h **** using a struct like this allows us to add more configuration
  19:../../../lib/pd2dsy/libdaisy/src/per/adc.h **** later without breaking existing functionality.
  20:../../../lib/pd2dsy/libdaisy/src/per/adc.h **** */
  21:../../../lib/pd2dsy/libdaisy/src/per/adc.h **** 
  22:../../../lib/pd2dsy/libdaisy/src/per/adc.h **** /** @brief   Configuration Structure for an ADC Channel 
  23:../../../lib/pd2dsy/libdaisy/src/per/adc.h ****  *  @details This can be used to configure a a single input, 
  24:../../../lib/pd2dsy/libdaisy/src/per/adc.h ****  *           or a multiplexed input, allowing up to 8 inputs on 
  25:../../../lib/pd2dsy/libdaisy/src/per/adc.h ****  *           one channel.
  26:../../../lib/pd2dsy/libdaisy/src/per/adc.h ****  *  @note    Sharing data lines to multiple muxes _is_ possible, but
  27:../../../lib/pd2dsy/libdaisy/src/per/adc.h ****  *           each channel sharing data lines must be set to the maximum
  28:../../../lib/pd2dsy/libdaisy/src/per/adc.h ****  *           number of channels, even if some multiplexers have fewer
  29:../../../lib/pd2dsy/libdaisy/src/per/adc.h ****  *           inputs connected.
  30:../../../lib/pd2dsy/libdaisy/src/per/adc.h **** */
  31:../../../lib/pd2dsy/libdaisy/src/per/adc.h **** struct AdcChannelConfig
  32:../../../lib/pd2dsy/libdaisy/src/per/adc.h **** {
  33:../../../lib/pd2dsy/libdaisy/src/per/adc.h ****     /** Which pin to use for multiplexing */
  34:../../../lib/pd2dsy/libdaisy/src/per/adc.h ****     enum MuxPin
  35:../../../lib/pd2dsy/libdaisy/src/per/adc.h ****     {
  36:../../../lib/pd2dsy/libdaisy/src/per/adc.h ****         MUX_SEL_0,    /**< & */
  37:../../../lib/pd2dsy/libdaisy/src/per/adc.h ****         MUX_SEL_1,    /**< & */
  38:../../../lib/pd2dsy/libdaisy/src/per/adc.h ****         MUX_SEL_2,    /**< & */
  39:../../../lib/pd2dsy/libdaisy/src/per/adc.h ****         MUX_SEL_LAST, /**< & */
  40:../../../lib/pd2dsy/libdaisy/src/per/adc.h ****     };
  41:../../../lib/pd2dsy/libdaisy/src/per/adc.h **** 
  42:../../../lib/pd2dsy/libdaisy/src/per/adc.h ****     /** Initializes a single ADC pin as an ADC. 
  43:../../../lib/pd2dsy/libdaisy/src/per/adc.h ****     \param pin Pin to init.
  44:../../../lib/pd2dsy/libdaisy/src/per/adc.h ****      */
  45:../../../lib/pd2dsy/libdaisy/src/per/adc.h ****     void InitSingle(dsy_gpio_pin pin);
  46:../../../lib/pd2dsy/libdaisy/src/per/adc.h **** 
  47:../../../lib/pd2dsy/libdaisy/src/per/adc.h ****     /** 
  48:../../../lib/pd2dsy/libdaisy/src/per/adc.h ****     Initializes a single ADC pin as a Multiplexed ADC.
  49:../../../lib/pd2dsy/libdaisy/src/per/adc.h ****     Requires a CD405X Multiplexer connected to the pin.
  50:../../../lib/pd2dsy/libdaisy/src/per/adc.h ****     You only need to supply the mux pins that are required,
  51:../../../lib/pd2dsy/libdaisy/src/per/adc.h ****     e.g. a 4052 mux would only require mux_0 and mux_1.
  52:../../../lib/pd2dsy/libdaisy/src/per/adc.h ****     Internal Callbacks handle the pin addressing.
  53:../../../lib/pd2dsy/libdaisy/src/per/adc.h ****     \param mux_channels must be 1-8
  54:../../../lib/pd2dsy/libdaisy/src/per/adc.h ****     \param mux_0 First mux pin
ARM GAS  /var/folders/fb/yfxt3z4538j6z0vjt03w70vc0000gn/T//ccrD3Rdr.s 			page 21


  55:../../../lib/pd2dsy/libdaisy/src/per/adc.h ****     \param mux_1 Second mux pin
  56:../../../lib/pd2dsy/libdaisy/src/per/adc.h ****     \param mux_2 Third mux pin
  57:../../../lib/pd2dsy/libdaisy/src/per/adc.h ****     \param adc_pin &
  58:../../../lib/pd2dsy/libdaisy/src/per/adc.h ****     */
  59:../../../lib/pd2dsy/libdaisy/src/per/adc.h ****     void InitMux(dsy_gpio_pin adc_pin,
  60:../../../lib/pd2dsy/libdaisy/src/per/adc.h ****                  size_t       mux_channels,
  61:../../../lib/pd2dsy/libdaisy/src/per/adc.h ****                  dsy_gpio_pin mux_0,
  62:../../../lib/pd2dsy/libdaisy/src/per/adc.h ****                  dsy_gpio_pin mux_1 = {DSY_GPIOX, 0},
  63:../../../lib/pd2dsy/libdaisy/src/per/adc.h ****                  dsy_gpio_pin mux_2 = {DSY_GPIOX, 0});
  64:../../../lib/pd2dsy/libdaisy/src/per/adc.h **** 
  65:../../../lib/pd2dsy/libdaisy/src/per/adc.h ****     dsy_gpio pin_;                   /**< & */
  66:../../../lib/pd2dsy/libdaisy/src/per/adc.h ****     dsy_gpio mux_pin_[MUX_SEL_LAST]; /**< & */
  67:../../../lib/pd2dsy/libdaisy/src/per/adc.h ****     uint8_t  mux_channels_;          /**< & */
  68:../../../lib/pd2dsy/libdaisy/src/per/adc.h **** };
  69:../../../lib/pd2dsy/libdaisy/src/per/adc.h **** 
  70:../../../lib/pd2dsy/libdaisy/src/per/adc.h **** /**
  71:../../../lib/pd2dsy/libdaisy/src/per/adc.h ****    @brief Handler for analog to digital conversion
  72:../../../lib/pd2dsy/libdaisy/src/per/adc.h **** */
  73:../../../lib/pd2dsy/libdaisy/src/per/adc.h **** class AdcHandle
  74:../../../lib/pd2dsy/libdaisy/src/per/adc.h **** {
  75:../../../lib/pd2dsy/libdaisy/src/per/adc.h ****   public:
  76:../../../lib/pd2dsy/libdaisy/src/per/adc.h ****     /** Supported oversampling amounts */
  77:../../../lib/pd2dsy/libdaisy/src/per/adc.h ****     enum OverSampling
  78:../../../lib/pd2dsy/libdaisy/src/per/adc.h ****     {
  79:../../../lib/pd2dsy/libdaisy/src/per/adc.h ****         OVS_NONE, /**< & */
  80:../../../lib/pd2dsy/libdaisy/src/per/adc.h ****         OVS_4,    /**< & */
  81:../../../lib/pd2dsy/libdaisy/src/per/adc.h ****         OVS_8,    /**< & */
  82:../../../lib/pd2dsy/libdaisy/src/per/adc.h ****         OVS_16,   /**< & */
  83:../../../lib/pd2dsy/libdaisy/src/per/adc.h ****         OVS_32,   /**< & */
  84:../../../lib/pd2dsy/libdaisy/src/per/adc.h ****         OVS_64,   /**< & */
  85:../../../lib/pd2dsy/libdaisy/src/per/adc.h ****         OVS_128,  /**< & */
  86:../../../lib/pd2dsy/libdaisy/src/per/adc.h ****         OVS_256,  /**< & */
  87:../../../lib/pd2dsy/libdaisy/src/per/adc.h ****         OVS_512,  /**< & */
  88:../../../lib/pd2dsy/libdaisy/src/per/adc.h ****         OVS_1024, /**< & */
  89:../../../lib/pd2dsy/libdaisy/src/per/adc.h ****         OVS_LAST, /**< & */
  90:../../../lib/pd2dsy/libdaisy/src/per/adc.h ****     };
  91:../../../lib/pd2dsy/libdaisy/src/per/adc.h **** 
  92:../../../lib/pd2dsy/libdaisy/src/per/adc.h ****     AdcHandle() {}
  93:../../../lib/pd2dsy/libdaisy/src/per/adc.h ****     ~AdcHandle() {}
 194              		.loc 13 93 5 is_stmt 1 view .LVU35
 195              		.loc 13 93 5 is_stmt 0 view .LVU36
 196              	.LBE465:
 197              	.LBB466:
 198              	.LBI466:
 199              		.file 14 "../../../lib/pd2dsy/libdaisy/src/hid/audio.h"
   1:../../../lib/pd2dsy/libdaisy/src/hid/audio.h **** #ifndef DSY_AUDIO_H
   2:../../../lib/pd2dsy/libdaisy/src/hid/audio.h **** #define DSY_AUDIO_H /**< & */
   3:../../../lib/pd2dsy/libdaisy/src/hid/audio.h **** 
   4:../../../lib/pd2dsy/libdaisy/src/hid/audio.h **** #include "per/sai.h"
   5:../../../lib/pd2dsy/libdaisy/src/hid/audio.h **** 
   6:../../../lib/pd2dsy/libdaisy/src/hid/audio.h **** namespace daisy
   7:../../../lib/pd2dsy/libdaisy/src/hid/audio.h **** {
   8:../../../lib/pd2dsy/libdaisy/src/hid/audio.h **** /** @brief Audio Engine Handle
   9:../../../lib/pd2dsy/libdaisy/src/hid/audio.h ****  *  @ingroup audio 
  10:../../../lib/pd2dsy/libdaisy/src/hid/audio.h ****  *  @details This class allows for higher level access to an audio engine.
  11:../../../lib/pd2dsy/libdaisy/src/hid/audio.h ****  *           If you're using a SOM like the DaisySeed or DaisyPatchSM (or any 
  12:../../../lib/pd2dsy/libdaisy/src/hid/audio.h ****  *            board that includes one of those objects) then the intialization
ARM GAS  /var/folders/fb/yfxt3z4538j6z0vjt03w70vc0000gn/T//ccrD3Rdr.s 			page 22


  13:../../../lib/pd2dsy/libdaisy/src/hid/audio.h ****  *            is already taken  care of.
  14:../../../lib/pd2dsy/libdaisy/src/hid/audio.h ****  *           If you're setting up your own custom hardware, or need to make changes
  15:../../../lib/pd2dsy/libdaisy/src/hid/audio.h ****  *           you will have to take the following steps:
  16:../../../lib/pd2dsy/libdaisy/src/hid/audio.h ****  *             1. Create and Initialize an SaiHandle or two depending on your requirements
  17:../../../lib/pd2dsy/libdaisy/src/hid/audio.h ****  *             2. Initialize the Audio Handle with the desired settings and the Initialized SaiHand
  18:../../../lib/pd2dsy/libdaisy/src/hid/audio.h ****  *             3. If the connected codec requires special configuration or initialization, do so
  19:../../../lib/pd2dsy/libdaisy/src/hid/audio.h ****  *             4. Write a callback method using either the AudioCallback or the InterleavingAudioCa
  20:../../../lib/pd2dsy/libdaisy/src/hid/audio.h ****  *             5. Start the Audio using one of the StartAudio function
  21:../../../lib/pd2dsy/libdaisy/src/hid/audio.h ****  */
  22:../../../lib/pd2dsy/libdaisy/src/hid/audio.h **** class AudioHandle
  23:../../../lib/pd2dsy/libdaisy/src/hid/audio.h **** {
  24:../../../lib/pd2dsy/libdaisy/src/hid/audio.h ****   public:
  25:../../../lib/pd2dsy/libdaisy/src/hid/audio.h ****     /** Manually configurable details about the Audio Engine */
  26:../../../lib/pd2dsy/libdaisy/src/hid/audio.h ****     /** TODO: Figure out how to get samplerate in here. */
  27:../../../lib/pd2dsy/libdaisy/src/hid/audio.h ****     struct Config
  28:../../../lib/pd2dsy/libdaisy/src/hid/audio.h ****     {
  29:../../../lib/pd2dsy/libdaisy/src/hid/audio.h ****         /** number of samples to process per callback */
  30:../../../lib/pd2dsy/libdaisy/src/hid/audio.h ****         size_t blocksize;
  31:../../../lib/pd2dsy/libdaisy/src/hid/audio.h **** 
  32:../../../lib/pd2dsy/libdaisy/src/hid/audio.h ****         /**< Sample rate of audio */
  33:../../../lib/pd2dsy/libdaisy/src/hid/audio.h ****         SaiHandle::Config::SampleRate samplerate;
  34:../../../lib/pd2dsy/libdaisy/src/hid/audio.h **** 
  35:../../../lib/pd2dsy/libdaisy/src/hid/audio.h ****         /** factor for adjustment before and after callback for hardware that may have extra headro
  36:../../../lib/pd2dsy/libdaisy/src/hid/audio.h ****         float postgain;
  37:../../../lib/pd2dsy/libdaisy/src/hid/audio.h **** 
  38:../../../lib/pd2dsy/libdaisy/src/hid/audio.h ****         /** factor for additional one-sided compensation to audio path for hardware that may
  39:../../../lib/pd2dsy/libdaisy/src/hid/audio.h ****          *  have unequal input/output ranges
  40:../../../lib/pd2dsy/libdaisy/src/hid/audio.h ****          */
  41:../../../lib/pd2dsy/libdaisy/src/hid/audio.h ****         float output_compensation;
  42:../../../lib/pd2dsy/libdaisy/src/hid/audio.h **** 
  43:../../../lib/pd2dsy/libdaisy/src/hid/audio.h ****         /** Sets default values for config struct */
  44:../../../lib/pd2dsy/libdaisy/src/hid/audio.h ****         Config()
  45:../../../lib/pd2dsy/libdaisy/src/hid/audio.h ****         : blocksize(48),
  46:../../../lib/pd2dsy/libdaisy/src/hid/audio.h ****           samplerate(SaiHandle::Config::SampleRate::SAI_48KHZ),
  47:../../../lib/pd2dsy/libdaisy/src/hid/audio.h ****           postgain(1.f),
  48:../../../lib/pd2dsy/libdaisy/src/hid/audio.h ****           output_compensation(1.f)
  49:../../../lib/pd2dsy/libdaisy/src/hid/audio.h ****         {
  50:../../../lib/pd2dsy/libdaisy/src/hid/audio.h ****         }
  51:../../../lib/pd2dsy/libdaisy/src/hid/audio.h ****     };
  52:../../../lib/pd2dsy/libdaisy/src/hid/audio.h **** 
  53:../../../lib/pd2dsy/libdaisy/src/hid/audio.h ****     enum class Result
  54:../../../lib/pd2dsy/libdaisy/src/hid/audio.h ****     {
  55:../../../lib/pd2dsy/libdaisy/src/hid/audio.h ****         OK,
  56:../../../lib/pd2dsy/libdaisy/src/hid/audio.h ****         ERR,
  57:../../../lib/pd2dsy/libdaisy/src/hid/audio.h ****     };
  58:../../../lib/pd2dsy/libdaisy/src/hid/audio.h **** 
  59:../../../lib/pd2dsy/libdaisy/src/hid/audio.h ****     /** Non-Interleaving input buffer
  60:../../../lib/pd2dsy/libdaisy/src/hid/audio.h ****      * Buffer arranged by float[chn][sample] 
  61:../../../lib/pd2dsy/libdaisy/src/hid/audio.h ****      * const so that the user can't modify the input
  62:../../../lib/pd2dsy/libdaisy/src/hid/audio.h ****      */
  63:../../../lib/pd2dsy/libdaisy/src/hid/audio.h ****     typedef const float* const* InputBuffer;
  64:../../../lib/pd2dsy/libdaisy/src/hid/audio.h **** 
  65:../../../lib/pd2dsy/libdaisy/src/hid/audio.h ****     /** Non-Interleaving output buffer
  66:../../../lib/pd2dsy/libdaisy/src/hid/audio.h ****      * Arranged by float[chn][sample] 
  67:../../../lib/pd2dsy/libdaisy/src/hid/audio.h ****      */
  68:../../../lib/pd2dsy/libdaisy/src/hid/audio.h ****     typedef float** OutputBuffer;
  69:../../../lib/pd2dsy/libdaisy/src/hid/audio.h **** 
ARM GAS  /var/folders/fb/yfxt3z4538j6z0vjt03w70vc0000gn/T//ccrD3Rdr.s 			page 23


  70:../../../lib/pd2dsy/libdaisy/src/hid/audio.h ****     /** Type for a Non-Interleaving audio callback 
  71:../../../lib/pd2dsy/libdaisy/src/hid/audio.h ****      * Non-Interleaving audio callbacks in daisy will be of this type
  72:../../../lib/pd2dsy/libdaisy/src/hid/audio.h ****      */
  73:../../../lib/pd2dsy/libdaisy/src/hid/audio.h ****     typedef void (*AudioCallback)(InputBuffer  in,
  74:../../../lib/pd2dsy/libdaisy/src/hid/audio.h ****                                   OutputBuffer out,
  75:../../../lib/pd2dsy/libdaisy/src/hid/audio.h ****                                   size_t       size);
  76:../../../lib/pd2dsy/libdaisy/src/hid/audio.h **** 
  77:../../../lib/pd2dsy/libdaisy/src/hid/audio.h ****     /** Interleaving Input buffer
  78:../../../lib/pd2dsy/libdaisy/src/hid/audio.h ****      ** audio is prepared as { L0, R0, L1, R1, . . . LN, RN }]
  79:../../../lib/pd2dsy/libdaisy/src/hid/audio.h ****      ** this is const, as the user shouldn't modify it
  80:../../../lib/pd2dsy/libdaisy/src/hid/audio.h ****     */
  81:../../../lib/pd2dsy/libdaisy/src/hid/audio.h ****     typedef const float* InterleavingInputBuffer;
  82:../../../lib/pd2dsy/libdaisy/src/hid/audio.h **** 
  83:../../../lib/pd2dsy/libdaisy/src/hid/audio.h ****     /** Interleaving Output buffer 
  84:../../../lib/pd2dsy/libdaisy/src/hid/audio.h ****      ** audio is prepared as { L0, R0, L1, R1, . . . LN, RN }
  85:../../../lib/pd2dsy/libdaisy/src/hid/audio.h ****     */
  86:../../../lib/pd2dsy/libdaisy/src/hid/audio.h ****     typedef float* InterleavingOutputBuffer;
  87:../../../lib/pd2dsy/libdaisy/src/hid/audio.h **** 
  88:../../../lib/pd2dsy/libdaisy/src/hid/audio.h ****     /** Interleaving Audio Callback 
  89:../../../lib/pd2dsy/libdaisy/src/hid/audio.h ****      * Interleaving audio callbacks in daisy must be of this type
  90:../../../lib/pd2dsy/libdaisy/src/hid/audio.h ****      */
  91:../../../lib/pd2dsy/libdaisy/src/hid/audio.h ****     typedef void (*InterleavingAudioCallback)(InterleavingInputBuffer  in,
  92:../../../lib/pd2dsy/libdaisy/src/hid/audio.h ****                                               InterleavingOutputBuffer out,
  93:../../../lib/pd2dsy/libdaisy/src/hid/audio.h ****                                               size_t                   size);
  94:../../../lib/pd2dsy/libdaisy/src/hid/audio.h **** 
  95:../../../lib/pd2dsy/libdaisy/src/hid/audio.h ****     AudioHandle() : pimpl_(nullptr) {}
  96:../../../lib/pd2dsy/libdaisy/src/hid/audio.h ****     ~AudioHandle() {}
 200              		.loc 14 96 5 is_stmt 1 view .LVU37
 201              		.loc 14 96 5 is_stmt 0 view .LVU38
 202              	.LBE466:
 203              	.LBE462:
 204              		.loc 5 39 8 view .LVU39
 205 0000 7047     		bx	lr
 206              		.cfi_endproc
 207              	.LFE3071:
 209              		.weak	_ZN10json2daisy8DaisyPodD1Ev
 210              		.thumb_set _ZN10json2daisy8DaisyPodD1Ev,_ZN10json2daisy8DaisyPodD2Ev
 211 0002 00BF     		.section	.text._ZNK5daisy11OledDisplayINS_13SSD130xDriverILj128ELj64ENS_24SSD130x4WireSpiTransport
 212              		.align	1
 213              		.p2align 2,,3
 214              		.weak	_ZNK5daisy11OledDisplayINS_13SSD130xDriverILj128ELj64ENS_24SSD130x4WireSpiTransportEEEE6Heig
 215              		.syntax unified
 216              		.thumb
 217              		.thumb_func
 219              	_ZNK5daisy11OledDisplayINS_13SSD130xDriverILj128ELj64ENS_24SSD130x4WireSpiTransportEEEE6HeightEv:
 220              	.LVL7:
 221              	.LFB3073:
  27:../../../lib/pd2dsy/libdaisy/src/hid/disp/oled_display.h ****     uint16_t Width() const override { return driver_.Width(); }
 222              		.loc 2 27 14 is_stmt 1 view -0
 223              		.cfi_startproc
 224              		@ args = 0, pretend = 0, frame = 0
 225              		@ frame_needed = 0, uses_anonymous_args = 0
 226              		@ link register save eliminated.
  27:../../../lib/pd2dsy/libdaisy/src/hid/disp/oled_display.h ****     uint16_t Width() const override { return driver_.Width(); }
 227              		.loc 2 27 65 is_stmt 0 view .LVU41
 228 0000 4020     		movs	r0, #64
 229              	.LVL8:
ARM GAS  /var/folders/fb/yfxt3z4538j6z0vjt03w70vc0000gn/T//ccrD3Rdr.s 			page 24


  27:../../../lib/pd2dsy/libdaisy/src/hid/disp/oled_display.h ****     uint16_t Width() const override { return driver_.Width(); }
 230              		.loc 2 27 65 view .LVU42
 231 0002 7047     		bx	lr
 232              		.cfi_endproc
 233              	.LFE3073:
 235              		.section	.text._ZNK5daisy11OledDisplayINS_13SSD130xDriverILj128ELj64ENS_24SSD130x4WireSpiTransport
 236              		.align	1
 237              		.p2align 2,,3
 238              		.weak	_ZNK5daisy11OledDisplayINS_13SSD130xDriverILj128ELj64ENS_24SSD130x4WireSpiTransportEEEE5Widt
 239              		.syntax unified
 240              		.thumb
 241              		.thumb_func
 243              	_ZNK5daisy11OledDisplayINS_13SSD130xDriverILj128ELj64ENS_24SSD130x4WireSpiTransportEEEE5WidthEv:
 244              	.LVL9:
 245              	.LFB3074:
  28:../../../lib/pd2dsy/libdaisy/src/hid/disp/oled_display.h **** 
 246              		.loc 2 28 14 is_stmt 1 view -0
 247              		.cfi_startproc
 248              		@ args = 0, pretend = 0, frame = 0
 249              		@ frame_needed = 0, uses_anonymous_args = 0
 250              		@ link register save eliminated.
  28:../../../lib/pd2dsy/libdaisy/src/hid/disp/oled_display.h **** 
 251              		.loc 2 28 63 is_stmt 0 view .LVU44
 252 0000 8020     		movs	r0, #128
 253              	.LVL10:
  28:../../../lib/pd2dsy/libdaisy/src/hid/disp/oled_display.h **** 
 254              		.loc 2 28 63 view .LVU45
 255 0002 7047     		bx	lr
 256              		.cfi_endproc
 257              	.LFE3074:
 259              		.section	.text._ZN5daisy11OledDisplayINS_13SSD130xDriverILj128ELj64ENS_24SSD130x4WireSpiTransportE
 260              		.align	1
 261              		.p2align 2,,3
 262              		.weak	_ZN5daisy11OledDisplayINS_13SSD130xDriverILj128ELj64ENS_24SSD130x4WireSpiTransportEEEED0Ev
 263              		.syntax unified
 264              		.thumb
 265              		.thumb_func
 267              	_ZN5daisy11OledDisplayINS_13SSD130xDriverILj128ELj64ENS_24SSD130x4WireSpiTransportEEEED0Ev:
 268              	.LVL11:
 269              	.LFB3053:
  18:../../../lib/pd2dsy/libdaisy/src/hid/disp/oled_display.h **** 
 270              		.loc 2 18 13 is_stmt 1 view -0
 271              		.cfi_startproc
 272              		@ args = 0, pretend = 0, frame = 0
 273              		@ frame_needed = 0, uses_anonymous_args = 0
  18:../../../lib/pd2dsy/libdaisy/src/hid/disp/oled_display.h **** 
 274              		.loc 2 18 13 is_stmt 0 view .LVU47
 275 0000 10B5     		push	{r4, lr}
 276              		.cfi_def_cfa_offset 8
 277              		.cfi_offset 4, -8
 278              		.cfi_offset 14, -4
  18:../../../lib/pd2dsy/libdaisy/src/hid/disp/oled_display.h **** 
 279              		.loc 2 18 13 view .LVU48
 280 0002 0446     		mov	r4, r0
 281              	.LVL12:
 282              	.LBB467:
 283              	.LBI467:
ARM GAS  /var/folders/fb/yfxt3z4538j6z0vjt03w70vc0000gn/T//ccrD3Rdr.s 			page 25


  18:../../../lib/pd2dsy/libdaisy/src/hid/disp/oled_display.h **** 
 284              		.loc 2 18 13 is_stmt 1 view .LVU49
 285              	.LBB468:
 286              	.LBI468:
 287              		.loc 4 219 13 view .LVU50
 288              	.LBB469:
 289              	.LBI469:
  23:../../../lib/pd2dsy/libdaisy/src/hid/disp/display.h **** 
 290              		.loc 4 23 13 view .LVU51
  23:../../../lib/pd2dsy/libdaisy/src/hid/disp/display.h **** 
 291              		.loc 4 23 13 is_stmt 0 view .LVU52
 292              	.LBE469:
 293              	.LBE468:
 294              	.LBE467:
  18:../../../lib/pd2dsy/libdaisy/src/hid/disp/oled_display.h **** 
 295              		.loc 2 18 29 view .LVU53
 296 0004 40F21441 		movw	r1, #1044
 297 0008 FFF7FEFF 		bl	_ZdlPvj
 298              	.LVL13:
  18:../../../lib/pd2dsy/libdaisy/src/hid/disp/oled_display.h **** 
 299              		.loc 2 18 29 view .LVU54
 300 000c 2046     		mov	r0, r4
 301 000e 10BD     		pop	{r4, pc}
  18:../../../lib/pd2dsy/libdaisy/src/hid/disp/oled_display.h **** 
 302              		.loc 2 18 29 view .LVU55
 303              		.cfi_endproc
 304              	.LFE3053:
 306              		.section	.text._ZN5daisy11OledDisplayINS_13SSD130xDriverILj128ELj64ENS_24SSD130x4WireSpiTransportE
 307              		.align	1
 308              		.p2align 2,,3
 309              		.weak	_ZN5daisy11OledDisplayINS_13SSD130xDriverILj128ELj64ENS_24SSD130x4WireSpiTransportEEEE6Updat
 310              		.syntax unified
 311              		.thumb
 312              		.thumb_func
 314              	_ZN5daisy11OledDisplayINS_13SSD130xDriverILj128ELj64ENS_24SSD130x4WireSpiTransportEEEE6UpdateEv:
 315              	.LVL14:
 316              	.LFB3040:
  35:../../../lib/pd2dsy/libdaisy/src/hid/disp/oled_display.h **** 
  36:../../../lib/pd2dsy/libdaisy/src/hid/disp/oled_display.h ****     /**
  37:../../../lib/pd2dsy/libdaisy/src/hid/disp/oled_display.h ****     Sets the pixel at the specified coordinate to be on/off.
  38:../../../lib/pd2dsy/libdaisy/src/hid/disp/oled_display.h ****     \param x   x Coordinate
  39:../../../lib/pd2dsy/libdaisy/src/hid/disp/oled_display.h ****     \param y   y coordinate
  40:../../../lib/pd2dsy/libdaisy/src/hid/disp/oled_display.h ****     \param on  on or off
  41:../../../lib/pd2dsy/libdaisy/src/hid/disp/oled_display.h ****     */
  42:../../../lib/pd2dsy/libdaisy/src/hid/disp/oled_display.h ****     void DrawPixel(uint_fast8_t x, uint_fast8_t y, bool on) override
  43:../../../lib/pd2dsy/libdaisy/src/hid/disp/oled_display.h ****     {
  44:../../../lib/pd2dsy/libdaisy/src/hid/disp/oled_display.h ****         driver_.DrawPixel(x, y, on);
  45:../../../lib/pd2dsy/libdaisy/src/hid/disp/oled_display.h ****     }
  46:../../../lib/pd2dsy/libdaisy/src/hid/disp/oled_display.h **** 
  47:../../../lib/pd2dsy/libdaisy/src/hid/disp/oled_display.h ****     /** 
  48:../../../lib/pd2dsy/libdaisy/src/hid/disp/oled_display.h ****     Writes the current display buffer to the OLED device using SPI or I2C depending on 
  49:../../../lib/pd2dsy/libdaisy/src/hid/disp/oled_display.h ****     how the object was initialized.
  50:../../../lib/pd2dsy/libdaisy/src/hid/disp/oled_display.h ****     */
  51:../../../lib/pd2dsy/libdaisy/src/hid/disp/oled_display.h ****     void Update() override { driver_.Update(); }
 317              		.loc 2 51 10 is_stmt 1 view -0
 318              		.cfi_startproc
 319              		@ args = 0, pretend = 0, frame = 8
ARM GAS  /var/folders/fb/yfxt3z4538j6z0vjt03w70vc0000gn/T//ccrD3Rdr.s 			page 26


 320              		@ frame_needed = 0, uses_anonymous_args = 0
 321              	.LBB480:
 322              	.LBI480:
 267:../../../lib/pd2dsy/libdaisy/src/dev/oled_ssd130x.h ****         }
 268:../../../lib/pd2dsy/libdaisy/src/dev/oled_ssd130x.h ****     };
 269:../../../lib/pd2dsy/libdaisy/src/dev/oled_ssd130x.h **** 
 270:../../../lib/pd2dsy/libdaisy/src/dev/oled_ssd130x.h ****     /**
 271:../../../lib/pd2dsy/libdaisy/src/dev/oled_ssd130x.h ****      * Update the display 
 272:../../../lib/pd2dsy/libdaisy/src/dev/oled_ssd130x.h ****     */
 273:../../../lib/pd2dsy/libdaisy/src/dev/oled_ssd130x.h ****     void Update()
 323              		.loc 3 273 10 view .LVU57
 324              	.LBB481:
 274:../../../lib/pd2dsy/libdaisy/src/dev/oled_ssd130x.h ****     {
 275:../../../lib/pd2dsy/libdaisy/src/dev/oled_ssd130x.h ****         uint8_t i;
 276:../../../lib/pd2dsy/libdaisy/src/dev/oled_ssd130x.h ****         uint8_t high_column_addr;
 277:../../../lib/pd2dsy/libdaisy/src/dev/oled_ssd130x.h ****         switch(height)
 278:../../../lib/pd2dsy/libdaisy/src/dev/oled_ssd130x.h ****         {
 279:../../../lib/pd2dsy/libdaisy/src/dev/oled_ssd130x.h ****             case 32: high_column_addr = 0x12; break;
 280:../../../lib/pd2dsy/libdaisy/src/dev/oled_ssd130x.h **** 
 281:../../../lib/pd2dsy/libdaisy/src/dev/oled_ssd130x.h ****             default: high_column_addr = 0x10; break;
 282:../../../lib/pd2dsy/libdaisy/src/dev/oled_ssd130x.h ****         }
 283:../../../lib/pd2dsy/libdaisy/src/dev/oled_ssd130x.h ****         for(i = 0; i < (height / 8); i++)
 325              		.loc 3 283 22 view .LVU58
 326              	.LBE481:
 327              	.LBE480:
 328              		.loc 2 51 10 is_stmt 0 view .LVU59
 329 0000 2DE9F041 		push	{r4, r5, r6, r7, r8, lr}
 330              		.cfi_def_cfa_offset 24
 331              		.cfi_offset 4, -24
 332              		.cfi_offset 5, -20
 333              		.cfi_offset 6, -16
 334              		.cfi_offset 7, -12
 335              		.cfi_offset 8, -8
 336              		.cfi_offset 14, -4
 337              	.LBB503:
 338              	.LBB501:
 339              	.LBB482:
 340              	.LBB483:
 125:../../../lib/pd2dsy/libdaisy/src/dev/oled_ssd130x.h ****     };
 341              		.loc 3 125 30 view .LVU60
 342 0004 B024     		movs	r4, #176
 343              	.LBE483:
 344              	.LBE482:
 345              	.LBE501:
 346              	.LBE503:
 347              		.loc 2 51 10 view .LVU61
 348 0006 82B0     		sub	sp, sp, #8
 349              		.cfi_def_cfa_offset 32
 350              	.LBB504:
 351              	.LBB502:
 352              	.LBB488:
 353              	.LBB484:
 124:../../../lib/pd2dsy/libdaisy/src/dev/oled_ssd130x.h ****         spi_.BlockingTransmit(&cmd, 1);
 354              		.loc 3 124 24 view .LVU62
 355 0008 00F10806 		add	r6, r0, #8
 356 000c 00F11005 		add	r5, r0, #16
 357 0010 00F11408 		add	r8, r0, #20
ARM GAS  /var/folders/fb/yfxt3z4538j6z0vjt03w70vc0000gn/T//ccrD3Rdr.s 			page 27


 358              	.LVL15:
 359              	.L11:
 124:../../../lib/pd2dsy/libdaisy/src/dev/oled_ssd130x.h ****         spi_.BlockingTransmit(&cmd, 1);
 360              		.loc 3 124 24 view .LVU63
 361 0014 0027     		movs	r7, #0
 124:../../../lib/pd2dsy/libdaisy/src/dev/oled_ssd130x.h ****         spi_.BlockingTransmit(&cmd, 1);
 362              		.loc 3 124 23 view .LVU64
 363 0016 2846     		mov	r0, r5
 364 0018 8DF80740 		strb	r4, [sp, #7]
 365              	.LVL16:
 124:../../../lib/pd2dsy/libdaisy/src/dev/oled_ssd130x.h ****         spi_.BlockingTransmit(&cmd, 1);
 366              		.loc 3 124 23 view .LVU65
 367              	.LBE484:
 368              	.LBI482:
 122:../../../lib/pd2dsy/libdaisy/src/dev/oled_ssd130x.h ****     {
 369              		.loc 3 122 10 is_stmt 1 view .LVU66
 370              	.LBB485:
 124:../../../lib/pd2dsy/libdaisy/src/dev/oled_ssd130x.h ****         spi_.BlockingTransmit(&cmd, 1);
 371              		.loc 3 124 9 view .LVU67
 372              	.LBE485:
 373              	.LBE488:
 374              		.loc 3 283 22 is_stmt 0 view .LVU68
 375 001c 0134     		adds	r4, r4, #1
 376              	.LVL17:
 377              	.LBB489:
 378              	.LBB486:
 124:../../../lib/pd2dsy/libdaisy/src/dev/oled_ssd130x.h ****         spi_.BlockingTransmit(&cmd, 1);
 379              		.loc 3 124 23 view .LVU69
 380 001e 3946     		mov	r1, r7
 381 0020 FFF7FEFF 		bl	dsy_gpio_write
 382              	.LVL18:
 125:../../../lib/pd2dsy/libdaisy/src/dev/oled_ssd130x.h ****     };
 383              		.loc 3 125 9 is_stmt 1 view .LVU70
 125:../../../lib/pd2dsy/libdaisy/src/dev/oled_ssd130x.h ****     };
 384              		.loc 3 125 30 is_stmt 0 view .LVU71
 385 0024 6423     		movs	r3, #100
 386 0026 0122     		movs	r2, #1
 387 0028 0DF10701 		add	r1, sp, #7
 388 002c 3046     		mov	r0, r6
 389              	.LBE486:
 390              	.LBE489:
 391              		.loc 3 283 22 view .LVU72
 392 002e E4B2     		uxtb	r4, r4
 393              	.LBB490:
 394              	.LBB487:
 125:../../../lib/pd2dsy/libdaisy/src/dev/oled_ssd130x.h ****     };
 395              		.loc 3 125 30 view .LVU73
 396 0030 FFF7FEFF 		bl	_ZN5daisy9SpiHandle16BlockingTransmitEPhjm
 397              	.LVL19:
 125:../../../lib/pd2dsy/libdaisy/src/dev/oled_ssd130x.h ****     };
 398              		.loc 3 125 30 view .LVU74
 399              	.LBE487:
 400              	.LBE490:
 401              	.LBB491:
 402              	.LBB492:
 124:../../../lib/pd2dsy/libdaisy/src/dev/oled_ssd130x.h ****         spi_.BlockingTransmit(&cmd, 1);
 403              		.loc 3 124 23 view .LVU75
ARM GAS  /var/folders/fb/yfxt3z4538j6z0vjt03w70vc0000gn/T//ccrD3Rdr.s 			page 28


 404 0034 3946     		mov	r1, r7
 405 0036 2846     		mov	r0, r5
 406 0038 8DF80770 		strb	r7, [sp, #7]
 407              	.LVL20:
 124:../../../lib/pd2dsy/libdaisy/src/dev/oled_ssd130x.h ****         spi_.BlockingTransmit(&cmd, 1);
 408              		.loc 3 124 23 view .LVU76
 409              	.LBE492:
 410              	.LBI491:
 122:../../../lib/pd2dsy/libdaisy/src/dev/oled_ssd130x.h ****     {
 411              		.loc 3 122 10 is_stmt 1 view .LVU77
 412              	.LBB493:
 124:../../../lib/pd2dsy/libdaisy/src/dev/oled_ssd130x.h ****         spi_.BlockingTransmit(&cmd, 1);
 413              		.loc 3 124 9 view .LVU78
 124:../../../lib/pd2dsy/libdaisy/src/dev/oled_ssd130x.h ****         spi_.BlockingTransmit(&cmd, 1);
 414              		.loc 3 124 23 is_stmt 0 view .LVU79
 415 003c FFF7FEFF 		bl	dsy_gpio_write
 416              	.LVL21:
 125:../../../lib/pd2dsy/libdaisy/src/dev/oled_ssd130x.h ****     };
 417              		.loc 3 125 9 is_stmt 1 view .LVU80
 125:../../../lib/pd2dsy/libdaisy/src/dev/oled_ssd130x.h ****     };
 418              		.loc 3 125 30 is_stmt 0 view .LVU81
 419 0040 0122     		movs	r2, #1
 420 0042 6423     		movs	r3, #100
 421 0044 0DF10701 		add	r1, sp, #7
 422 0048 3046     		mov	r0, r6
 423 004a FFF7FEFF 		bl	_ZN5daisy9SpiHandle16BlockingTransmitEPhjm
 424              	.LVL22:
 125:../../../lib/pd2dsy/libdaisy/src/dev/oled_ssd130x.h ****     };
 425              		.loc 3 125 30 view .LVU82
 426 004e 1023     		movs	r3, #16
 427              	.LBE493:
 428              	.LBE491:
 429              	.LBB494:
 430              	.LBB495:
 124:../../../lib/pd2dsy/libdaisy/src/dev/oled_ssd130x.h ****         spi_.BlockingTransmit(&cmd, 1);
 431              		.loc 3 124 23 view .LVU83
 432 0050 3946     		mov	r1, r7
 433 0052 2846     		mov	r0, r5
 434 0054 8DF80730 		strb	r3, [sp, #7]
 435              	.LVL23:
 124:../../../lib/pd2dsy/libdaisy/src/dev/oled_ssd130x.h ****         spi_.BlockingTransmit(&cmd, 1);
 436              		.loc 3 124 23 view .LVU84
 437              	.LBE495:
 438              	.LBI494:
 122:../../../lib/pd2dsy/libdaisy/src/dev/oled_ssd130x.h ****     {
 439              		.loc 3 122 10 is_stmt 1 view .LVU85
 440              	.LBB496:
 124:../../../lib/pd2dsy/libdaisy/src/dev/oled_ssd130x.h ****         spi_.BlockingTransmit(&cmd, 1);
 441              		.loc 3 124 9 view .LVU86
 124:../../../lib/pd2dsy/libdaisy/src/dev/oled_ssd130x.h ****         spi_.BlockingTransmit(&cmd, 1);
 442              		.loc 3 124 23 is_stmt 0 view .LVU87
 443 0058 FFF7FEFF 		bl	dsy_gpio_write
 444              	.LVL24:
 125:../../../lib/pd2dsy/libdaisy/src/dev/oled_ssd130x.h ****     };
 445              		.loc 3 125 9 is_stmt 1 view .LVU88
 125:../../../lib/pd2dsy/libdaisy/src/dev/oled_ssd130x.h ****     };
 446              		.loc 3 125 30 is_stmt 0 view .LVU89
ARM GAS  /var/folders/fb/yfxt3z4538j6z0vjt03w70vc0000gn/T//ccrD3Rdr.s 			page 29


 447 005c 6423     		movs	r3, #100
 448 005e 0122     		movs	r2, #1
 449 0060 0DF10701 		add	r1, sp, #7
 450 0064 3046     		mov	r0, r6
 451 0066 FFF7FEFF 		bl	_ZN5daisy9SpiHandle16BlockingTransmitEPhjm
 452              	.LVL25:
 125:../../../lib/pd2dsy/libdaisy/src/dev/oled_ssd130x.h ****     };
 453              		.loc 3 125 30 view .LVU90
 454              	.LBE496:
 455              	.LBE494:
 456              	.LBB497:
 457              	.LBI497:
 128:../../../lib/pd2dsy/libdaisy/src/dev/oled_ssd130x.h ****     {
 458              		.loc 3 128 10 is_stmt 1 view .LVU91
 459              	.LBB498:
 130:../../../lib/pd2dsy/libdaisy/src/dev/oled_ssd130x.h ****         spi_.BlockingTransmit(buff, size);
 460              		.loc 3 130 9 view .LVU92
 130:../../../lib/pd2dsy/libdaisy/src/dev/oled_ssd130x.h ****         spi_.BlockingTransmit(buff, size);
 461              		.loc 3 130 23 is_stmt 0 view .LVU93
 462 006a 0121     		movs	r1, #1
 463 006c 2846     		mov	r0, r5
 464 006e FFF7FEFF 		bl	dsy_gpio_write
 465              	.LVL26:
 131:../../../lib/pd2dsy/libdaisy/src/dev/oled_ssd130x.h ****     };
 466              		.loc 3 131 9 is_stmt 1 view .LVU94
 131:../../../lib/pd2dsy/libdaisy/src/dev/oled_ssd130x.h ****     };
 467              		.loc 3 131 30 is_stmt 0 view .LVU95
 468 0072 8022     		movs	r2, #128
 469 0074 4146     		mov	r1, r8
 470 0076 6423     		movs	r3, #100
 471 0078 3046     		mov	r0, r6
 472              	.LBE498:
 473              	.LBE497:
 474              		.loc 3 283 22 view .LVU96
 475 007a 9044     		add	r8, r8, r2
 476              	.LVL27:
 477              	.LBB500:
 478              	.LBB499:
 131:../../../lib/pd2dsy/libdaisy/src/dev/oled_ssd130x.h ****     };
 479              		.loc 3 131 30 view .LVU97
 480 007c FFF7FEFF 		bl	_ZN5daisy9SpiHandle16BlockingTransmitEPhjm
 481              	.LVL28:
 131:../../../lib/pd2dsy/libdaisy/src/dev/oled_ssd130x.h ****     };
 482              		.loc 3 131 30 view .LVU98
 483              	.LBE499:
 484              	.LBE500:
 485              		.loc 3 283 9 is_stmt 1 view .LVU99
 486              		.loc 3 283 22 view .LVU100
 487 0080 B82C     		cmp	r4, #184
 488 0082 C7D1     		bne	.L11
 489              	.LBE502:
 490              	.LBE504:
 491              		.loc 2 51 48 is_stmt 0 view .LVU101
 492 0084 02B0     		add	sp, sp, #8
 493              		.cfi_def_cfa_offset 24
 494              		@ sp needed
 495 0086 BDE8F081 		pop	{r4, r5, r6, r7, r8, pc}
ARM GAS  /var/folders/fb/yfxt3z4538j6z0vjt03w70vc0000gn/T//ccrD3Rdr.s 			page 30


 496              		.loc 2 51 48 view .LVU102
 497              		.cfi_endproc
 498              	.LFE3040:
 500 008a 00BF     		.section	.text._ZN5daisy25OneBitGraphicsDisplayImplINS_11OledDisplayINS_13SSD130xDriverILj128ELj64
 501              		.align	1
 502              		.p2align 2,,3
 503              		.weak	_ZN5daisy25OneBitGraphicsDisplayImplINS_11OledDisplayINS_13SSD130xDriverILj128ELj64ENS_24SSD
 504              		.syntax unified
 505              		.thumb
 506              		.thumb_func
 508              	_ZN5daisy25OneBitGraphicsDisplayImplINS_11OledDisplayINS_13SSD130xDriverILj128ELj64ENS_24SSD130x4Wi
 509              	.LVL29:
 510              	.LFB3080:
 220:../../../lib/pd2dsy/libdaisy/src/hid/disp/display.h **** 
 221:../../../lib/pd2dsy/libdaisy/src/hid/disp/display.h ****     void DrawLine(uint_fast8_t x1,
 222:../../../lib/pd2dsy/libdaisy/src/hid/disp/display.h ****                   uint_fast8_t y1,
 223:../../../lib/pd2dsy/libdaisy/src/hid/disp/display.h ****                   uint_fast8_t x2,
 224:../../../lib/pd2dsy/libdaisy/src/hid/disp/display.h ****                   uint_fast8_t y2,
 225:../../../lib/pd2dsy/libdaisy/src/hid/disp/display.h ****                   bool         on) override
 226:../../../lib/pd2dsy/libdaisy/src/hid/disp/display.h ****     {
 227:../../../lib/pd2dsy/libdaisy/src/hid/disp/display.h ****         int_fast16_t deltaX = abs((int_fast16_t)x2 - (int_fast16_t)x1);
 228:../../../lib/pd2dsy/libdaisy/src/hid/disp/display.h ****         int_fast16_t deltaY = abs((int_fast16_t)y2 - (int_fast16_t)y1);
 229:../../../lib/pd2dsy/libdaisy/src/hid/disp/display.h ****         int_fast16_t signX  = ((x1 < x2) ? 1 : -1);
 230:../../../lib/pd2dsy/libdaisy/src/hid/disp/display.h ****         int_fast16_t signY  = ((y1 < y2) ? 1 : -1);
 231:../../../lib/pd2dsy/libdaisy/src/hid/disp/display.h ****         int_fast16_t error  = deltaX - deltaY;
 232:../../../lib/pd2dsy/libdaisy/src/hid/disp/display.h ****         int_fast16_t error2;
 233:../../../lib/pd2dsy/libdaisy/src/hid/disp/display.h **** 
 234:../../../lib/pd2dsy/libdaisy/src/hid/disp/display.h ****         // If we write "ChildType::DrawPixel(x2, y2, on);", we end up with
 235:../../../lib/pd2dsy/libdaisy/src/hid/disp/display.h ****         // all sorts of weird compiler errors when the Child class is a template
 236:../../../lib/pd2dsy/libdaisy/src/hid/disp/display.h ****         // class. The only way around this is to use this very verbose syntax:
 237:../../../lib/pd2dsy/libdaisy/src/hid/disp/display.h ****         ((ChildType*)(this))->ChildType::DrawPixel(x2, y2, on);
 238:../../../lib/pd2dsy/libdaisy/src/hid/disp/display.h **** 
 239:../../../lib/pd2dsy/libdaisy/src/hid/disp/display.h ****         while((x1 != x2) || (y1 != y2))
 240:../../../lib/pd2dsy/libdaisy/src/hid/disp/display.h ****         {
 241:../../../lib/pd2dsy/libdaisy/src/hid/disp/display.h ****             ((ChildType*)(this))->ChildType::DrawPixel(x1, y1, on);
 242:../../../lib/pd2dsy/libdaisy/src/hid/disp/display.h ****             error2 = error * 2;
 243:../../../lib/pd2dsy/libdaisy/src/hid/disp/display.h ****             if(error2 > -deltaY)
 244:../../../lib/pd2dsy/libdaisy/src/hid/disp/display.h ****             {
 245:../../../lib/pd2dsy/libdaisy/src/hid/disp/display.h ****                 error -= deltaY;
 246:../../../lib/pd2dsy/libdaisy/src/hid/disp/display.h ****                 x1 += signX;
 247:../../../lib/pd2dsy/libdaisy/src/hid/disp/display.h ****             }
 248:../../../lib/pd2dsy/libdaisy/src/hid/disp/display.h **** 
 249:../../../lib/pd2dsy/libdaisy/src/hid/disp/display.h ****             if(error2 < deltaX)
 250:../../../lib/pd2dsy/libdaisy/src/hid/disp/display.h ****             {
 251:../../../lib/pd2dsy/libdaisy/src/hid/disp/display.h ****                 error += deltaX;
 252:../../../lib/pd2dsy/libdaisy/src/hid/disp/display.h ****                 y1 += signY;
 253:../../../lib/pd2dsy/libdaisy/src/hid/disp/display.h ****             }
 254:../../../lib/pd2dsy/libdaisy/src/hid/disp/display.h ****         }
 255:../../../lib/pd2dsy/libdaisy/src/hid/disp/display.h ****     }
 256:../../../lib/pd2dsy/libdaisy/src/hid/disp/display.h **** 
 257:../../../lib/pd2dsy/libdaisy/src/hid/disp/display.h ****     void DrawRect(uint_fast8_t x1,
 258:../../../lib/pd2dsy/libdaisy/src/hid/disp/display.h ****                   uint_fast8_t y1,
 259:../../../lib/pd2dsy/libdaisy/src/hid/disp/display.h ****                   uint_fast8_t x2,
 260:../../../lib/pd2dsy/libdaisy/src/hid/disp/display.h ****                   uint_fast8_t y2,
 261:../../../lib/pd2dsy/libdaisy/src/hid/disp/display.h ****                   bool         on,
 262:../../../lib/pd2dsy/libdaisy/src/hid/disp/display.h ****                   bool         fill = false) override
 263:../../../lib/pd2dsy/libdaisy/src/hid/disp/display.h ****     {
ARM GAS  /var/folders/fb/yfxt3z4538j6z0vjt03w70vc0000gn/T//ccrD3Rdr.s 			page 31


 264:../../../lib/pd2dsy/libdaisy/src/hid/disp/display.h ****         if(fill)
 265:../../../lib/pd2dsy/libdaisy/src/hid/disp/display.h ****         {
 266:../../../lib/pd2dsy/libdaisy/src/hid/disp/display.h ****             for(uint_fast8_t x = x1; x <= x2; x++)
 267:../../../lib/pd2dsy/libdaisy/src/hid/disp/display.h ****             {
 268:../../../lib/pd2dsy/libdaisy/src/hid/disp/display.h ****                 for(uint_fast8_t y = y1; y <= y2; y++)
 269:../../../lib/pd2dsy/libdaisy/src/hid/disp/display.h ****                 {
 270:../../../lib/pd2dsy/libdaisy/src/hid/disp/display.h ****                     ((ChildType*)(this))->ChildType::DrawPixel(x, y, on);
 271:../../../lib/pd2dsy/libdaisy/src/hid/disp/display.h ****                 }
 272:../../../lib/pd2dsy/libdaisy/src/hid/disp/display.h ****             }
 273:../../../lib/pd2dsy/libdaisy/src/hid/disp/display.h ****         }
 274:../../../lib/pd2dsy/libdaisy/src/hid/disp/display.h ****         else
 275:../../../lib/pd2dsy/libdaisy/src/hid/disp/display.h ****         {
 276:../../../lib/pd2dsy/libdaisy/src/hid/disp/display.h ****             ((ChildType*)(this))->ChildType::DrawLine(x1, y1, x2, y1, on);
 277:../../../lib/pd2dsy/libdaisy/src/hid/disp/display.h ****             ((ChildType*)(this))->ChildType::DrawLine(x2, y1, x2, y2, on);
 278:../../../lib/pd2dsy/libdaisy/src/hid/disp/display.h ****             ((ChildType*)(this))->ChildType::DrawLine(x2, y2, x1, y2, on);
 279:../../../lib/pd2dsy/libdaisy/src/hid/disp/display.h ****             ((ChildType*)(this))->ChildType::DrawLine(x1, y2, x1, y1, on);
 280:../../../lib/pd2dsy/libdaisy/src/hid/disp/display.h ****         }
 281:../../../lib/pd2dsy/libdaisy/src/hid/disp/display.h ****     }
 282:../../../lib/pd2dsy/libdaisy/src/hid/disp/display.h **** 
 283:../../../lib/pd2dsy/libdaisy/src/hid/disp/display.h ****     void DrawArc(uint_fast8_t x,
 284:../../../lib/pd2dsy/libdaisy/src/hid/disp/display.h ****                  uint_fast8_t y,
 285:../../../lib/pd2dsy/libdaisy/src/hid/disp/display.h ****                  uint_fast8_t radius,
 286:../../../lib/pd2dsy/libdaisy/src/hid/disp/display.h ****                  int_fast16_t start_angle,
 287:../../../lib/pd2dsy/libdaisy/src/hid/disp/display.h ****                  int_fast16_t sweep,
 288:../../../lib/pd2dsy/libdaisy/src/hid/disp/display.h ****                  bool         on) override
 289:../../../lib/pd2dsy/libdaisy/src/hid/disp/display.h ****     {
 290:../../../lib/pd2dsy/libdaisy/src/hid/disp/display.h ****         // Values to calculate the circle
 291:../../../lib/pd2dsy/libdaisy/src/hid/disp/display.h ****         int_fast16_t t_x, t_y, err, e2;
 292:../../../lib/pd2dsy/libdaisy/src/hid/disp/display.h **** 
 293:../../../lib/pd2dsy/libdaisy/src/hid/disp/display.h ****         // Temporary values to speed up comparisons
 294:../../../lib/pd2dsy/libdaisy/src/hid/disp/display.h ****         float t_sxy, t_syx, t_sxny, t_synx;
 295:../../../lib/pd2dsy/libdaisy/src/hid/disp/display.h ****         float t_exy, t_eyx, t_exny, t_eynx;
 296:../../../lib/pd2dsy/libdaisy/src/hid/disp/display.h **** 
 297:../../../lib/pd2dsy/libdaisy/src/hid/disp/display.h ****         float start_angle_rad, end_angle_rad;
 298:../../../lib/pd2dsy/libdaisy/src/hid/disp/display.h ****         float start_x, start_y, end_x, end_y;
 299:../../../lib/pd2dsy/libdaisy/src/hid/disp/display.h **** 
 300:../../../lib/pd2dsy/libdaisy/src/hid/disp/display.h ****         bool d1, d2, d3, d4;
 301:../../../lib/pd2dsy/libdaisy/src/hid/disp/display.h **** 
 302:../../../lib/pd2dsy/libdaisy/src/hid/disp/display.h ****         d1 = d2 = d3 = d4 = true;
 303:../../../lib/pd2dsy/libdaisy/src/hid/disp/display.h **** 
 304:../../../lib/pd2dsy/libdaisy/src/hid/disp/display.h ****         bool circle = false;
 305:../../../lib/pd2dsy/libdaisy/src/hid/disp/display.h **** 
 306:../../../lib/pd2dsy/libdaisy/src/hid/disp/display.h ****         if(sweep < 0)
 307:../../../lib/pd2dsy/libdaisy/src/hid/disp/display.h ****         {
 308:../../../lib/pd2dsy/libdaisy/src/hid/disp/display.h ****             start_angle += sweep;
 309:../../../lib/pd2dsy/libdaisy/src/hid/disp/display.h ****             sweep = -sweep;
 310:../../../lib/pd2dsy/libdaisy/src/hid/disp/display.h ****         }
 311:../../../lib/pd2dsy/libdaisy/src/hid/disp/display.h **** 
 312:../../../lib/pd2dsy/libdaisy/src/hid/disp/display.h ****         start_angle_rad = deg2rad(start_angle);
 313:../../../lib/pd2dsy/libdaisy/src/hid/disp/display.h ****         end_angle_rad   = deg2rad(start_angle + sweep);
 314:../../../lib/pd2dsy/libdaisy/src/hid/disp/display.h **** 
 315:../../../lib/pd2dsy/libdaisy/src/hid/disp/display.h ****         start_x = cos(start_angle_rad) * radius;
 316:../../../lib/pd2dsy/libdaisy/src/hid/disp/display.h ****         start_y = -sin(start_angle_rad) * radius;
 317:../../../lib/pd2dsy/libdaisy/src/hid/disp/display.h ****         end_x   = cos(end_angle_rad) * radius;
 318:../../../lib/pd2dsy/libdaisy/src/hid/disp/display.h ****         end_y   = -sin(end_angle_rad) * radius;
 319:../../../lib/pd2dsy/libdaisy/src/hid/disp/display.h **** 
 320:../../../lib/pd2dsy/libdaisy/src/hid/disp/display.h ****         // Check if start and endpoint are very near
ARM GAS  /var/folders/fb/yfxt3z4538j6z0vjt03w70vc0000gn/T//ccrD3Rdr.s 			page 32


 321:../../../lib/pd2dsy/libdaisy/src/hid/disp/display.h ****         if((end_x - start_x) * (end_x - start_x)
 322:../../../lib/pd2dsy/libdaisy/src/hid/disp/display.h ****                + (end_y - start_y) * (end_y - start_y)
 323:../../../lib/pd2dsy/libdaisy/src/hid/disp/display.h ****            < 2.0f)
 324:../../../lib/pd2dsy/libdaisy/src/hid/disp/display.h ****         {
 325:../../../lib/pd2dsy/libdaisy/src/hid/disp/display.h ****             if(sweep > 180)
 326:../../../lib/pd2dsy/libdaisy/src/hid/disp/display.h ****                 circle = true;
 327:../../../lib/pd2dsy/libdaisy/src/hid/disp/display.h ****             else
 328:../../../lib/pd2dsy/libdaisy/src/hid/disp/display.h ****                 // Nothing to draw
 329:../../../lib/pd2dsy/libdaisy/src/hid/disp/display.h ****                 return;
 330:../../../lib/pd2dsy/libdaisy/src/hid/disp/display.h ****         }
 331:../../../lib/pd2dsy/libdaisy/src/hid/disp/display.h **** 
 332:../../../lib/pd2dsy/libdaisy/src/hid/disp/display.h ****         t_x = -radius;
 333:../../../lib/pd2dsy/libdaisy/src/hid/disp/display.h ****         t_y = 0;
 334:../../../lib/pd2dsy/libdaisy/src/hid/disp/display.h ****         err = 2 - 2 * radius;
 335:../../../lib/pd2dsy/libdaisy/src/hid/disp/display.h **** 
 336:../../../lib/pd2dsy/libdaisy/src/hid/disp/display.h ****         do
 337:../../../lib/pd2dsy/libdaisy/src/hid/disp/display.h ****         {
 338:../../../lib/pd2dsy/libdaisy/src/hid/disp/display.h ****             if(!circle)
 339:../../../lib/pd2dsy/libdaisy/src/hid/disp/display.h ****             {
 340:../../../lib/pd2dsy/libdaisy/src/hid/disp/display.h ****                 t_sxy  = start_x * t_y;
 341:../../../lib/pd2dsy/libdaisy/src/hid/disp/display.h ****                 t_syx  = start_y * t_x;
 342:../../../lib/pd2dsy/libdaisy/src/hid/disp/display.h ****                 t_sxny = start_x * -t_y;
 343:../../../lib/pd2dsy/libdaisy/src/hid/disp/display.h ****                 t_synx = start_y * -t_x;
 344:../../../lib/pd2dsy/libdaisy/src/hid/disp/display.h ****                 t_exy  = end_x * t_y;
 345:../../../lib/pd2dsy/libdaisy/src/hid/disp/display.h ****                 t_eyx  = end_y * t_x;
 346:../../../lib/pd2dsy/libdaisy/src/hid/disp/display.h ****                 t_exny = end_x * -t_y;
 347:../../../lib/pd2dsy/libdaisy/src/hid/disp/display.h ****                 t_eynx = end_y * -t_x;
 348:../../../lib/pd2dsy/libdaisy/src/hid/disp/display.h **** 
 349:../../../lib/pd2dsy/libdaisy/src/hid/disp/display.h ****                 if(sweep > 180)
 350:../../../lib/pd2dsy/libdaisy/src/hid/disp/display.h ****                 {
 351:../../../lib/pd2dsy/libdaisy/src/hid/disp/display.h ****                     d1 = (t_sxy - t_synx < 0 || t_exy - t_eynx > 0);
 352:../../../lib/pd2dsy/libdaisy/src/hid/disp/display.h ****                     d2 = (t_sxy - t_syx < 0 || t_exy - t_eyx > 0);
 353:../../../lib/pd2dsy/libdaisy/src/hid/disp/display.h ****                     d3 = (t_sxny - t_syx < 0 || t_exny - t_eyx > 0);
 354:../../../lib/pd2dsy/libdaisy/src/hid/disp/display.h ****                     d4 = (t_sxny - t_synx < 0 || t_exny - t_eynx > 0);
 355:../../../lib/pd2dsy/libdaisy/src/hid/disp/display.h ****                 }
 356:../../../lib/pd2dsy/libdaisy/src/hid/disp/display.h ****                 else
 357:../../../lib/pd2dsy/libdaisy/src/hid/disp/display.h ****                 {
 358:../../../lib/pd2dsy/libdaisy/src/hid/disp/display.h ****                     d1 = (t_sxy - t_synx < 0 && t_exy - t_eynx > 0);
 359:../../../lib/pd2dsy/libdaisy/src/hid/disp/display.h ****                     d2 = (t_sxy - t_syx < 0 && t_exy - t_eyx > 0);
 360:../../../lib/pd2dsy/libdaisy/src/hid/disp/display.h ****                     d3 = (t_sxny - t_syx < 0 && t_exny - t_eyx > 0);
 361:../../../lib/pd2dsy/libdaisy/src/hid/disp/display.h ****                     d4 = (t_sxny - t_synx < 0 && t_exny - t_eynx > 0);
 362:../../../lib/pd2dsy/libdaisy/src/hid/disp/display.h ****                 }
 363:../../../lib/pd2dsy/libdaisy/src/hid/disp/display.h ****             }
 364:../../../lib/pd2dsy/libdaisy/src/hid/disp/display.h **** 
 365:../../../lib/pd2dsy/libdaisy/src/hid/disp/display.h ****             if(d1)
 366:../../../lib/pd2dsy/libdaisy/src/hid/disp/display.h ****                 ((ChildType*)(this))
 367:../../../lib/pd2dsy/libdaisy/src/hid/disp/display.h ****                     ->ChildType::DrawPixel(x - t_x, y + t_y, on);
 368:../../../lib/pd2dsy/libdaisy/src/hid/disp/display.h ****             if(d2)
 369:../../../lib/pd2dsy/libdaisy/src/hid/disp/display.h ****                 ((ChildType*)(this))
 370:../../../lib/pd2dsy/libdaisy/src/hid/disp/display.h ****                     ->ChildType::DrawPixel(x + t_x, y + t_y, on);
 371:../../../lib/pd2dsy/libdaisy/src/hid/disp/display.h ****             if(d3)
 372:../../../lib/pd2dsy/libdaisy/src/hid/disp/display.h ****                 ((ChildType*)(this))
 373:../../../lib/pd2dsy/libdaisy/src/hid/disp/display.h ****                     ->ChildType::DrawPixel(x + t_x, y - t_y, on);
 374:../../../lib/pd2dsy/libdaisy/src/hid/disp/display.h ****             if(d4)
 375:../../../lib/pd2dsy/libdaisy/src/hid/disp/display.h ****                 ((ChildType*)(this))
 376:../../../lib/pd2dsy/libdaisy/src/hid/disp/display.h ****                     ->ChildType::DrawPixel(x - t_x, y - t_y, on);
 377:../../../lib/pd2dsy/libdaisy/src/hid/disp/display.h **** 
ARM GAS  /var/folders/fb/yfxt3z4538j6z0vjt03w70vc0000gn/T//ccrD3Rdr.s 			page 33


 378:../../../lib/pd2dsy/libdaisy/src/hid/disp/display.h ****             e2 = err;
 379:../../../lib/pd2dsy/libdaisy/src/hid/disp/display.h ****             if(e2 <= t_y)
 380:../../../lib/pd2dsy/libdaisy/src/hid/disp/display.h ****             {
 381:../../../lib/pd2dsy/libdaisy/src/hid/disp/display.h ****                 t_y++;
 382:../../../lib/pd2dsy/libdaisy/src/hid/disp/display.h ****                 err = err + (t_y * 2 + 1);
 383:../../../lib/pd2dsy/libdaisy/src/hid/disp/display.h ****                 if(-t_x == t_y && e2 <= t_x)
 384:../../../lib/pd2dsy/libdaisy/src/hid/disp/display.h ****                 {
 385:../../../lib/pd2dsy/libdaisy/src/hid/disp/display.h ****                     e2 = 0;
 386:../../../lib/pd2dsy/libdaisy/src/hid/disp/display.h ****                 }
 387:../../../lib/pd2dsy/libdaisy/src/hid/disp/display.h ****             }
 388:../../../lib/pd2dsy/libdaisy/src/hid/disp/display.h ****             if(e2 > t_x)
 389:../../../lib/pd2dsy/libdaisy/src/hid/disp/display.h ****             {
 390:../../../lib/pd2dsy/libdaisy/src/hid/disp/display.h ****                 t_x++;
 391:../../../lib/pd2dsy/libdaisy/src/hid/disp/display.h ****                 err = err + (t_x * 2 + 1);
 392:../../../lib/pd2dsy/libdaisy/src/hid/disp/display.h ****             }
 393:../../../lib/pd2dsy/libdaisy/src/hid/disp/display.h ****         } while(t_x <= 0);
 394:../../../lib/pd2dsy/libdaisy/src/hid/disp/display.h ****     }
 395:../../../lib/pd2dsy/libdaisy/src/hid/disp/display.h **** 
 396:../../../lib/pd2dsy/libdaisy/src/hid/disp/display.h ****     char WriteChar(char ch, FontDef font, bool on) override
 397:../../../lib/pd2dsy/libdaisy/src/hid/disp/display.h ****     {
 398:../../../lib/pd2dsy/libdaisy/src/hid/disp/display.h ****         uint32_t i, b, j;
 399:../../../lib/pd2dsy/libdaisy/src/hid/disp/display.h **** 
 400:../../../lib/pd2dsy/libdaisy/src/hid/disp/display.h ****         // Check if character is valid
 401:../../../lib/pd2dsy/libdaisy/src/hid/disp/display.h ****         if(ch < 32 || ch > 126)
 402:../../../lib/pd2dsy/libdaisy/src/hid/disp/display.h ****             return 0;
 403:../../../lib/pd2dsy/libdaisy/src/hid/disp/display.h **** 
 404:../../../lib/pd2dsy/libdaisy/src/hid/disp/display.h ****         // Check remaining space on current line
 405:../../../lib/pd2dsy/libdaisy/src/hid/disp/display.h ****         if(Width() < (currentX_ + font.FontWidth)
 406:../../../lib/pd2dsy/libdaisy/src/hid/disp/display.h ****            || Height() < (currentY_ + font.FontHeight))
 407:../../../lib/pd2dsy/libdaisy/src/hid/disp/display.h ****         {
 408:../../../lib/pd2dsy/libdaisy/src/hid/disp/display.h ****             // Not enough space on current line
 409:../../../lib/pd2dsy/libdaisy/src/hid/disp/display.h ****             return 0;
 410:../../../lib/pd2dsy/libdaisy/src/hid/disp/display.h ****         }
 411:../../../lib/pd2dsy/libdaisy/src/hid/disp/display.h **** 
 412:../../../lib/pd2dsy/libdaisy/src/hid/disp/display.h ****         // Use the font to write
 413:../../../lib/pd2dsy/libdaisy/src/hid/disp/display.h ****         for(i = 0; i < font.FontHeight; i++)
 414:../../../lib/pd2dsy/libdaisy/src/hid/disp/display.h ****         {
 415:../../../lib/pd2dsy/libdaisy/src/hid/disp/display.h ****             b = font.data[(ch - 32) * font.FontHeight + i];
 416:../../../lib/pd2dsy/libdaisy/src/hid/disp/display.h ****             for(j = 0; j < font.FontWidth; j++)
 417:../../../lib/pd2dsy/libdaisy/src/hid/disp/display.h ****             {
 418:../../../lib/pd2dsy/libdaisy/src/hid/disp/display.h ****                 if((b << j) & 0x8000)
 419:../../../lib/pd2dsy/libdaisy/src/hid/disp/display.h ****                 {
 420:../../../lib/pd2dsy/libdaisy/src/hid/disp/display.h ****                     ((ChildType*)(this))
 421:../../../lib/pd2dsy/libdaisy/src/hid/disp/display.h ****                         ->ChildType::DrawPixel(
 422:../../../lib/pd2dsy/libdaisy/src/hid/disp/display.h ****                             currentX_ + j, (currentY_ + i), on);
 423:../../../lib/pd2dsy/libdaisy/src/hid/disp/display.h ****                 }
 424:../../../lib/pd2dsy/libdaisy/src/hid/disp/display.h ****                 else
 425:../../../lib/pd2dsy/libdaisy/src/hid/disp/display.h ****                 {
 426:../../../lib/pd2dsy/libdaisy/src/hid/disp/display.h ****                     ((ChildType*)(this))
 427:../../../lib/pd2dsy/libdaisy/src/hid/disp/display.h ****                         ->ChildType::DrawPixel(
 428:../../../lib/pd2dsy/libdaisy/src/hid/disp/display.h ****                             currentX_ + j, (currentY_ + i), !on);
 429:../../../lib/pd2dsy/libdaisy/src/hid/disp/display.h ****                 }
 430:../../../lib/pd2dsy/libdaisy/src/hid/disp/display.h ****             }
 431:../../../lib/pd2dsy/libdaisy/src/hid/disp/display.h ****         }
 432:../../../lib/pd2dsy/libdaisy/src/hid/disp/display.h **** 
 433:../../../lib/pd2dsy/libdaisy/src/hid/disp/display.h ****         // The current space is now taken
 434:../../../lib/pd2dsy/libdaisy/src/hid/disp/display.h ****         SetCursor(currentX_ + font.FontWidth, currentY_);
ARM GAS  /var/folders/fb/yfxt3z4538j6z0vjt03w70vc0000gn/T//ccrD3Rdr.s 			page 34


 435:../../../lib/pd2dsy/libdaisy/src/hid/disp/display.h **** 
 436:../../../lib/pd2dsy/libdaisy/src/hid/disp/display.h ****         // Return written char for validation
 437:../../../lib/pd2dsy/libdaisy/src/hid/disp/display.h ****         return ch;
 438:../../../lib/pd2dsy/libdaisy/src/hid/disp/display.h ****     }
 439:../../../lib/pd2dsy/libdaisy/src/hid/disp/display.h **** 
 440:../../../lib/pd2dsy/libdaisy/src/hid/disp/display.h ****     char WriteString(const char* str, FontDef font, bool on) override
 511              		.loc 4 440 10 is_stmt 1 view -0
 512              		.cfi_startproc
 513              		@ args = 4, pretend = 0, frame = 32
 514              		@ frame_needed = 0, uses_anonymous_args = 0
 515              		.loc 4 440 10 is_stmt 0 view .LVU104
 516 0000 2DE9F04F 		push	{r4, r5, r6, r7, r8, r9, r10, fp, lr}
 517              		.cfi_def_cfa_offset 36
 518              		.cfi_offset 4, -36
 519              		.cfi_offset 5, -32
 520              		.cfi_offset 6, -28
 521              		.cfi_offset 7, -24
 522              		.cfi_offset 8, -20
 523              		.cfi_offset 9, -16
 524              		.cfi_offset 10, -12
 525              		.cfi_offset 11, -8
 526              		.cfi_offset 14, -4
 527 0004 89B0     		sub	sp, sp, #36
 528              		.cfi_def_cfa_offset 72
 529              		.loc 4 440 10 view .LVU105
 530 0006 08AC     		add	r4, sp, #32
 531 0008 9DF84870 		ldrb	r7, [sp, #72]	@ zero_extendqisi2
 532 000c 0191     		str	r1, [sp, #4]
 533 000e 04E90C00 		stmdb	r4, {r2, r3}
 441:../../../lib/pd2dsy/libdaisy/src/hid/disp/display.h ****     {
 442:../../../lib/pd2dsy/libdaisy/src/hid/disp/display.h ****         // Write until null-byte
 443:../../../lib/pd2dsy/libdaisy/src/hid/disp/display.h ****         while(*str)
 534              		.loc 4 443 9 is_stmt 1 view .LVU106
 535 0012 0B78     		ldrb	r3, [r1]	@ zero_extendqisi2
 536 0014 002B     		cmp	r3, #0
 537 0016 00F0AB80 		beq	.L38
 538 001a 1A46     		mov	r2, r3
 539 001c 9DF81880 		ldrb	r8, [sp, #24]	@ zero_extendqisi2
 540 0020 9DF81930 		ldrb	r3, [sp, #25]	@ zero_extendqisi2
 541 0024 0646     		mov	r6, r0
 542 0026 4546     		mov	r5, r8
 543 0028 9046     		mov	r8, r2
 544 002a 0393     		str	r3, [sp, #12]
 545 002c 079B     		ldr	r3, [sp, #28]
 546 002e 0593     		str	r3, [sp, #20]
 547              	.LVL30:
 548              	.L39:
 549              	.LBB533:
 550              	.LBI533:
 396:../../../lib/pd2dsy/libdaisy/src/hid/disp/display.h ****     {
 551              		.loc 4 396 10 view .LVU107
 552              	.LBB534:
 401:../../../lib/pd2dsy/libdaisy/src/hid/disp/display.h ****             return 0;
 553              		.loc 4 401 20 is_stmt 0 view .LVU108
 554 0030 A8F12004 		sub	r4, r8, #32
 401:../../../lib/pd2dsy/libdaisy/src/hid/disp/display.h ****             return 0;
 555              		.loc 4 401 9 view .LVU109
ARM GAS  /var/folders/fb/yfxt3z4538j6z0vjt03w70vc0000gn/T//ccrD3Rdr.s 			page 35


 556 0034 E3B2     		uxtb	r3, r4
 557 0036 5E2B     		cmp	r3, #94
 558 0038 00F29E80 		bhi	.L20
 405:../../../lib/pd2dsy/libdaisy/src/hid/disp/display.h ****            || Height() < (currentY_ + font.FontHeight))
 559              		.loc 4 405 17 view .LVU110
 560 003c 3368     		ldr	r3, [r6]
 561 003e 5E4A     		ldr	r2, .L60
 562 0040 DB68     		ldr	r3, [r3, #12]
 563 0042 9342     		cmp	r3, r2
 564 0044 40F09B80 		bne	.L53
 565 0048 8020     		movs	r0, #128
 566              	.L19:
 405:../../../lib/pd2dsy/libdaisy/src/hid/disp/display.h ****            || Height() < (currentY_ + font.FontHeight))
 567              		.loc 4 405 23 view .LVU111
 568 004a B388     		ldrh	r3, [r6, #4]
 405:../../../lib/pd2dsy/libdaisy/src/hid/disp/display.h ****            || Height() < (currentY_ + font.FontHeight))
 569              		.loc 4 405 33 view .LVU112
 570 004c 2B44     		add	r3, r3, r5
 406:../../../lib/pd2dsy/libdaisy/src/hid/disp/display.h ****         {
 571              		.loc 4 406 12 view .LVU113
 572 004e 8342     		cmp	r3, r0
 573 0050 00F39280 		bgt	.L20
 406:../../../lib/pd2dsy/libdaisy/src/hid/disp/display.h ****         {
 574              		.loc 4 406 21 view .LVU114
 575 0054 3368     		ldr	r3, [r6]
 576 0056 594A     		ldr	r2, .L60+4
 577 0058 9B68     		ldr	r3, [r3, #8]
 578 005a 9342     		cmp	r3, r2
 579 005c 40F09280 		bne	.L54
 580 0060 4020     		movs	r0, #64
 581              	.L21:
 406:../../../lib/pd2dsy/libdaisy/src/hid/disp/display.h ****         {
 582              		.loc 4 406 27 view .LVU115
 583 0062 F188     		ldrh	r1, [r6, #6]
 406:../../../lib/pd2dsy/libdaisy/src/hid/disp/display.h ****         {
 584              		.loc 4 406 37 view .LVU116
 585 0064 039A     		ldr	r2, [sp, #12]
 406:../../../lib/pd2dsy/libdaisy/src/hid/disp/display.h ****         {
 586              		.loc 4 406 27 view .LVU117
 587 0066 0291     		str	r1, [sp, #8]
 406:../../../lib/pd2dsy/libdaisy/src/hid/disp/display.h ****         {
 588              		.loc 4 406 37 view .LVU118
 589 0068 8B18     		adds	r3, r1, r2
 406:../../../lib/pd2dsy/libdaisy/src/hid/disp/display.h ****         {
 590              		.loc 4 406 12 view .LVU119
 591 006a 8342     		cmp	r3, r0
 592 006c 00F38480 		bgt	.L20
 593              	.LVL31:
 413:../../../lib/pd2dsy/libdaisy/src/hid/disp/display.h ****         {
 594              		.loc 4 413 22 is_stmt 1 view .LVU120
 595 0070 002A     		cmp	r2, #0
 596 0072 00F09180 		beq	.L22
 415:../../../lib/pd2dsy/libdaisy/src/hid/disp/display.h ****             for(j = 0; j < font.FontWidth; j++)
 597              		.loc 4 415 37 is_stmt 0 view .LVU121
 598 0076 02FB04F4 		mul	r4, r2, r4
 599 007a 6FF00049 		mvn	r9, #-2147483648
 600 007e 059B     		ldr	r3, [sp, #20]
ARM GAS  /var/folders/fb/yfxt3z4538j6z0vjt03w70vc0000gn/T//ccrD3Rdr.s 			page 36


 601 0080 A144     		add	r9, r9, r4
 602 0082 1444     		add	r4, r4, r2
 434:../../../lib/pd2dsy/libdaisy/src/hid/disp/display.h **** 
 603              		.loc 4 434 19 view .LVU122
 604 0084 B6F804B0 		ldrh	fp, [r6, #4]
 605 0088 03EB4909 		add	r9, r3, r9, lsl #1
 606 008c 023B     		subs	r3, r3, #2
 607 008e CDF81080 		str	r8, [sp, #16]
 608 0092 03EB4403 		add	r3, r3, r4, lsl #1
 609 0096 0C46     		mov	r4, r1
 610 0098 9A46     		mov	r10, r3
 611              	.LVL32:
 612              	.L25:
 415:../../../lib/pd2dsy/libdaisy/src/hid/disp/display.h ****             for(j = 0; j < font.FontWidth; j++)
 613              		.loc 4 415 15 view .LVU123
 614 009a 39F802CF 		ldrh	ip, [r9, #2]!
 615              	.LVL33:
 416:../../../lib/pd2dsy/libdaisy/src/hid/disp/display.h ****             {
 616              		.loc 4 416 26 is_stmt 1 view .LVU124
 617 009e A5B3     		cbz	r5, .L30
 618              	.LBB535:
 619              	.LBB536:
 620              	.LBB537:
 621              	.LBB538:
 622              	.LBB539:
 259:../../../lib/pd2dsy/libdaisy/src/dev/oled_ssd130x.h ****     }
 623              		.loc 3 259 55 is_stmt 0 view .LVU125
 624 00a0 04F00703 		and	r3, r4, #7
 259:../../../lib/pd2dsy/libdaisy/src/dev/oled_ssd130x.h ****     }
 625              		.loc 3 259 49 view .LVU126
 626 00a4 4FF0010E 		mov	lr, #1
 259:../../../lib/pd2dsy/libdaisy/src/dev/oled_ssd130x.h ****     }
 627              		.loc 3 259 28 view .LVU127
 628 00a8 E208     		lsrs	r2, r4, #3
 629 00aa 5946     		mov	r1, fp
 259:../../../lib/pd2dsy/libdaisy/src/dev/oled_ssd130x.h ****     }
 630              		.loc 3 259 49 view .LVU128
 631 00ac 0EFA03FE 		lsl	lr, lr, r3
 632 00b0 0BF11403 		add	r3, fp, #20
 259:../../../lib/pd2dsy/libdaisy/src/dev/oled_ssd130x.h ****     }
 633              		.loc 3 259 42 view .LVU129
 634 00b4 4FFA8EFE 		sxtb	lr, lr
 635 00b8 03EBC212 		add	r2, r3, r2, lsl #7
 636              	.LBE539:
 637              	.LBE538:
 638              	.LBE537:
 639              	.LBE536:
 640              	.LBE535:
 416:../../../lib/pd2dsy/libdaisy/src/hid/disp/display.h ****             {
 641              		.loc 4 416 19 view .LVU130
 642 00bc 0023     		movs	r3, #0
 643              	.LBB557:
 644              	.LBB552:
 645              	.LBB547:
 646              	.LBB543:
 647              	.LBB540:
 259:../../../lib/pd2dsy/libdaisy/src/dev/oled_ssd130x.h ****     }
ARM GAS  /var/folders/fb/yfxt3z4538j6z0vjt03w70vc0000gn/T//ccrD3Rdr.s 			page 37


 648              		.loc 3 259 42 view .LVU131
 649 00be 6FEA0E08 		mvn	r8, lr
 650 00c2 3244     		add	r2, r2, r6
 651 00c4 0DE0     		b	.L31
 652              	.LVL34:
 653              	.L55:
 259:../../../lib/pd2dsy/libdaisy/src/dev/oled_ssd130x.h ****     }
 654              		.loc 3 259 42 view .LVU132
 655              	.LBE540:
 656              	.LBE543:
 657              	.LBE547:
 658              	.LBE552:
 659              	.LBE557:
 660              	.LBB558:
 661              	.LBI558:
  42:../../../lib/pd2dsy/libdaisy/src/hid/disp/oled_display.h ****     {
 662              		.loc 2 42 10 is_stmt 1 view .LVU133
 663              	.LBB559:
 664              	.LBI559:
 252:../../../lib/pd2dsy/libdaisy/src/dev/oled_ssd130x.h ****     {
 665              		.loc 3 252 10 view .LVU134
 666              	.LBB560:
 254:../../../lib/pd2dsy/libdaisy/src/dev/oled_ssd130x.h ****             return;
 667              		.loc 3 254 9 is_stmt 0 view .LVU135
 668 00c6 7F29     		cmp	r1, #127
 669 00c8 06D8     		bhi	.L27
 670 00ca 3F2C     		cmp	r4, #63
 671 00cc 04D8     		bhi	.L27
 257:../../../lib/pd2dsy/libdaisy/src/dev/oled_ssd130x.h ****         else
 672              		.loc 3 257 42 view .LVU136
 673 00ce 1078     		ldrb	r0, [r2]	@ zero_extendqisi2
 256:../../../lib/pd2dsy/libdaisy/src/dev/oled_ssd130x.h ****             buffer_[x + (y / 8) * width] |= (1 << (y % 8));
 674              		.loc 3 256 9 view .LVU137
 675 00d0 97B1     		cbz	r7, .L29
 676              	.L52:
 256:../../../lib/pd2dsy/libdaisy/src/dev/oled_ssd130x.h ****             buffer_[x + (y / 8) * width] |= (1 << (y % 8));
 677              		.loc 3 256 9 view .LVU138
 678              	.LBE560:
 679              	.LBE559:
 680              	.LBE558:
 681              	.LBB561:
 682              	.LBB553:
 683              	.LBB548:
 257:../../../lib/pd2dsy/libdaisy/src/dev/oled_ssd130x.h ****         else
 684              		.loc 3 257 42 view .LVU139
 685 00d2 4EEA0000 		orr	r0, lr, r0
 686 00d6 1070     		strb	r0, [r2]
 687              	.L27:
 688              	.LBE548:
 689              	.LBE553:
 690              	.LBE561:
 416:../../../lib/pd2dsy/libdaisy/src/hid/disp/display.h ****             {
 691              		.loc 4 416 13 is_stmt 1 view .LVU140
 692 00d8 0133     		adds	r3, r3, #1
 693              	.LVL35:
 416:../../../lib/pd2dsy/libdaisy/src/hid/disp/display.h ****             {
 694              		.loc 4 416 26 view .LVU141
ARM GAS  /var/folders/fb/yfxt3z4538j6z0vjt03w70vc0000gn/T//ccrD3Rdr.s 			page 38


 695 00da 0132     		adds	r2, r2, #1
 696 00dc 0131     		adds	r1, r1, #1
 697 00de AB42     		cmp	r3, r5
 698 00e0 13D0     		beq	.L30
 699              	.LVL36:
 700              	.L31:
 418:../../../lib/pd2dsy/libdaisy/src/hid/disp/display.h ****                 {
 701              		.loc 4 418 23 is_stmt 0 view .LVU142
 702 00e2 0CFA03F0 		lsl	r0, ip, r3
 418:../../../lib/pd2dsy/libdaisy/src/hid/disp/display.h ****                 {
 703              		.loc 4 418 17 view .LVU143
 704 00e6 0004     		lsls	r0, r0, #16
 705 00e8 EDD4     		bmi	.L55
 706              	.LVL37:
 707              	.LBB562:
 708              	.LBI535:
  42:../../../lib/pd2dsy/libdaisy/src/hid/disp/oled_display.h ****     {
 709              		.loc 2 42 10 is_stmt 1 view .LVU144
 710              	.LBB554:
 711              	.LBI536:
 252:../../../lib/pd2dsy/libdaisy/src/dev/oled_ssd130x.h ****     {
 712              		.loc 3 252 10 view .LVU145
 713              	.LBB549:
 254:../../../lib/pd2dsy/libdaisy/src/dev/oled_ssd130x.h ****             return;
 714              		.loc 3 254 9 is_stmt 0 view .LVU146
 715 00ea 7F29     		cmp	r1, #127
 716 00ec F4D8     		bhi	.L27
 717 00ee 3F2C     		cmp	r4, #63
 718 00f0 F2D8     		bhi	.L27
 257:../../../lib/pd2dsy/libdaisy/src/dev/oled_ssd130x.h ****         else
 719              		.loc 3 257 42 view .LVU147
 720 00f2 1078     		ldrb	r0, [r2]	@ zero_extendqisi2
 256:../../../lib/pd2dsy/libdaisy/src/dev/oled_ssd130x.h ****             buffer_[x + (y / 8) * width] |= (1 << (y % 8));
 721              		.loc 3 256 9 view .LVU148
 722 00f4 002F     		cmp	r7, #0
 723 00f6 ECD0     		beq	.L52
 724              	.L29:
 725              	.LVL38:
 726              	.LBB544:
 727              	.LBI538:
 252:../../../lib/pd2dsy/libdaisy/src/dev/oled_ssd130x.h ****     {
 728              		.loc 3 252 10 is_stmt 1 view .LVU149
 252:../../../lib/pd2dsy/libdaisy/src/dev/oled_ssd130x.h ****     {
 729              		.loc 3 252 10 is_stmt 0 view .LVU150
 730              	.LBE544:
 731              	.LBE549:
 732              	.LBE554:
 733              	.LBE562:
 416:../../../lib/pd2dsy/libdaisy/src/hid/disp/display.h ****             {
 734              		.loc 4 416 13 view .LVU151
 735 00f8 0133     		adds	r3, r3, #1
 736              	.LVL39:
 737              	.LBB563:
 738              	.LBB555:
 739              	.LBB550:
 740              	.LBB545:
 741              	.LBB541:
ARM GAS  /var/folders/fb/yfxt3z4538j6z0vjt03w70vc0000gn/T//ccrD3Rdr.s 			page 39


 259:../../../lib/pd2dsy/libdaisy/src/dev/oled_ssd130x.h ****     }
 742              		.loc 3 259 42 view .LVU152
 743 00fa 08EA0000 		and	r0, r8, r0
 744              	.LBE541:
 745              	.LBE545:
 746              	.LBE550:
 747              	.LBE555:
 748              	.LBE563:
 416:../../../lib/pd2dsy/libdaisy/src/hid/disp/display.h ****             {
 749              		.loc 4 416 26 view .LVU153
 750 00fe 0132     		adds	r2, r2, #1
 751 0100 0131     		adds	r1, r1, #1
 752 0102 AB42     		cmp	r3, r5
 753              	.LBB564:
 754              	.LBB556:
 755              	.LBB551:
 756              	.LBB546:
 757              	.LBB542:
 259:../../../lib/pd2dsy/libdaisy/src/dev/oled_ssd130x.h ****     }
 758              		.loc 3 259 42 view .LVU154
 759 0104 02F8010C 		strb	r0, [r2, #-1]
 259:../../../lib/pd2dsy/libdaisy/src/dev/oled_ssd130x.h ****     }
 760              		.loc 3 259 42 view .LVU155
 761              	.LBE542:
 762              	.LBE546:
 763              	.LBE551:
 764              	.LBE556:
 765              	.LBE564:
 416:../../../lib/pd2dsy/libdaisy/src/hid/disp/display.h ****             {
 766              		.loc 4 416 13 is_stmt 1 view .LVU156
 767              	.LVL40:
 416:../../../lib/pd2dsy/libdaisy/src/hid/disp/display.h ****             {
 768              		.loc 4 416 26 view .LVU157
 769 0108 EBD1     		bne	.L31
 770              	.LVL41:
 771              	.L30:
 413:../../../lib/pd2dsy/libdaisy/src/hid/disp/display.h ****         {
 772              		.loc 4 413 9 view .LVU158
 413:../../../lib/pd2dsy/libdaisy/src/hid/disp/display.h ****         {
 773              		.loc 4 413 22 view .LVU159
 774 010a D145     		cmp	r9, r10
 775 010c 04F10104 		add	r4, r4, #1
 776 0110 C3D1     		bne	.L25
 777 0112 DDF81080 		ldr	r8, [sp, #16]
 778              	.LVL42:
 779              	.L24:
 780              	.LBB565:
 781              	.LBB566:
 173:../../../lib/pd2dsy/libdaisy/src/hid/disp/display.h ****         currentY_ = (y >= Height()) ? Height() - 1 : y;
 782              		.loc 4 173 33 is_stmt 0 view .LVU160
 783 0116 3268     		ldr	r2, [r6]
 784              	.LBE566:
 785              	.LBE565:
 434:../../../lib/pd2dsy/libdaisy/src/hid/disp/display.h **** 
 786              		.loc 4 434 18 view .LVU161
 787 0118 0BEB0504 		add	r4, fp, r5
 788 011c 2649     		ldr	r1, .L60
ARM GAS  /var/folders/fb/yfxt3z4538j6z0vjt03w70vc0000gn/T//ccrD3Rdr.s 			page 40


 789              	.LBB571:
 790              	.LBB567:
 173:../../../lib/pd2dsy/libdaisy/src/hid/disp/display.h ****         currentY_ = (y >= Height()) ? Height() - 1 : y;
 791              		.loc 4 173 33 view .LVU162
 792 011e D368     		ldr	r3, [r2, #12]
 793              	.LBE567:
 794              	.LBE571:
 434:../../../lib/pd2dsy/libdaisy/src/hid/disp/display.h **** 
 795              		.loc 4 434 18 view .LVU163
 796 0120 A4B2     		uxth	r4, r4
 797              	.LVL43:
 798              	.LBB572:
 799              	.LBI565:
 171:../../../lib/pd2dsy/libdaisy/src/hid/disp/display.h ****     {
 800              		.loc 4 171 10 is_stmt 1 view .LVU164
 801              	.LBB568:
 173:../../../lib/pd2dsy/libdaisy/src/hid/disp/display.h ****         currentY_ = (y >= Height()) ? Height() - 1 : y;
 802              		.loc 4 173 9 view .LVU165
 803 0122 8B42     		cmp	r3, r1
 804 0124 34D1     		bne	.L56
 173:../../../lib/pd2dsy/libdaisy/src/hid/disp/display.h ****         currentY_ = (y >= Height()) ? Height() - 1 : y;
 805              		.loc 4 173 33 is_stmt 0 view .LVU166
 806 0126 8020     		movs	r0, #128
 807              	.L32:
 173:../../../lib/pd2dsy/libdaisy/src/hid/disp/display.h ****         currentY_ = (y >= Height()) ? Height() - 1 : y;
 808              		.loc 4 173 19 view .LVU167
 809 0128 8442     		cmp	r4, r0
 810 012a 04D3     		bcc	.L33
 173:../../../lib/pd2dsy/libdaisy/src/hid/disp/display.h ****         currentY_ = (y >= Height()) ? Height() - 1 : y;
 811              		.loc 4 173 44 view .LVU168
 812 012c D368     		ldr	r3, [r2, #12]
 813 012e 2249     		ldr	r1, .L60
 814 0130 8B42     		cmp	r3, r1
 815 0132 3AD1     		bne	.L57
 816 0134 7F24     		movs	r4, #127
 817              	.LVL44:
 818              	.L33:
 174:../../../lib/pd2dsy/libdaisy/src/hid/disp/display.h ****     }
 819              		.loc 4 174 34 view .LVU169
 820 0136 9368     		ldr	r3, [r2, #8]
 821 0138 204A     		ldr	r2, .L60+4
 173:../../../lib/pd2dsy/libdaisy/src/hid/disp/display.h ****         currentY_ = (y >= Height()) ? Height() - 1 : y;
 822              		.loc 4 173 19 view .LVU170
 823 013a B480     		strh	r4, [r6, #4]	@ movhi
 174:../../../lib/pd2dsy/libdaisy/src/hid/disp/display.h ****     }
 824              		.loc 4 174 9 is_stmt 1 view .LVU171
 825 013c 9342     		cmp	r3, r2
 826 013e 24D1     		bne	.L58
 174:../../../lib/pd2dsy/libdaisy/src/hid/disp/display.h ****     }
 827              		.loc 4 174 34 is_stmt 0 view .LVU172
 828 0140 4020     		movs	r0, #64
 829              	.L35:
 174:../../../lib/pd2dsy/libdaisy/src/hid/disp/display.h ****     }
 830              		.loc 4 174 19 view .LVU173
 831 0142 029B     		ldr	r3, [sp, #8]
 832 0144 8342     		cmp	r3, r0
 833 0146 06D3     		bcc	.L36
ARM GAS  /var/folders/fb/yfxt3z4538j6z0vjt03w70vc0000gn/T//ccrD3Rdr.s 			page 41


 174:../../../lib/pd2dsy/libdaisy/src/hid/disp/display.h ****     }
 834              		.loc 4 174 46 view .LVU174
 835 0148 3368     		ldr	r3, [r6]
 836 014a 1C4A     		ldr	r2, .L60+4
 837 014c 9B68     		ldr	r3, [r3, #8]
 838 014e 9342     		cmp	r3, r2
 839 0150 25D1     		bne	.L59
 840 0152 3F23     		movs	r3, #63
 841 0154 0293     		str	r3, [sp, #8]
 842              	.LVL45:
 843              	.L36:
 174:../../../lib/pd2dsy/libdaisy/src/hid/disp/display.h ****     }
 844              		.loc 4 174 19 view .LVU175
 845 0156 029B     		ldr	r3, [sp, #8]
 846 0158 F380     		strh	r3, [r6, #6]	@ movhi
 847              	.LVL46:
 848              	.L18:
 174:../../../lib/pd2dsy/libdaisy/src/hid/disp/display.h ****     }
 849              		.loc 4 174 19 view .LVU176
 850              	.LBE568:
 851              	.LBE572:
 852              	.LBE534:
 853              	.LBE533:
 444:../../../lib/pd2dsy/libdaisy/src/hid/disp/display.h ****         {
 445:../../../lib/pd2dsy/libdaisy/src/hid/disp/display.h ****             if(((ChildType*)(this))->ChildType::WriteChar(*str, font, on)
 446:../../../lib/pd2dsy/libdaisy/src/hid/disp/display.h ****                != *str)
 854              		.loc 4 446 16 view .LVU177
 855 015a 019B     		ldr	r3, [sp, #4]
 856 015c 1878     		ldrb	r0, [r3]	@ zero_extendqisi2
 445:../../../lib/pd2dsy/libdaisy/src/hid/disp/display.h ****                != *str)
 857              		.loc 4 445 13 view .LVU178
 858 015e 4045     		cmp	r0, r8
 859 0160 07D1     		bne	.L16
 860              	.LVL47:
 443:../../../lib/pd2dsy/libdaisy/src/hid/disp/display.h ****         {
 861              		.loc 4 443 9 is_stmt 1 view .LVU179
 862 0162 13F8018F 		ldrb	r8, [r3, #1]!	@ zero_extendqisi2
 863              	.LVL48:
 443:../../../lib/pd2dsy/libdaisy/src/hid/disp/display.h ****         {
 864              		.loc 4 443 9 is_stmt 0 view .LVU180
 865 0166 0193     		str	r3, [sp, #4]
 866 0168 B8F1000F 		cmp	r8, #0
 867 016c 7FF460AF 		bne	.L39
 868              	.LVL49:
 869              	.L38:
 870              	.LBB577:
 871              	.LBB575:
 402:../../../lib/pd2dsy/libdaisy/src/hid/disp/display.h **** 
 872              		.loc 4 402 20 view .LVU181
 873 0170 0020     		movs	r0, #0
 874              	.L16:
 875              	.LBE575:
 876              	.LBE577:
 447:../../../lib/pd2dsy/libdaisy/src/hid/disp/display.h ****             {
 448:../../../lib/pd2dsy/libdaisy/src/hid/disp/display.h ****                 // Char could not be written
 449:../../../lib/pd2dsy/libdaisy/src/hid/disp/display.h ****                 return *str;
 450:../../../lib/pd2dsy/libdaisy/src/hid/disp/display.h ****             }
ARM GAS  /var/folders/fb/yfxt3z4538j6z0vjt03w70vc0000gn/T//ccrD3Rdr.s 			page 42


 451:../../../lib/pd2dsy/libdaisy/src/hid/disp/display.h **** 
 452:../../../lib/pd2dsy/libdaisy/src/hid/disp/display.h ****             // Next char
 453:../../../lib/pd2dsy/libdaisy/src/hid/disp/display.h ****             str++;
 454:../../../lib/pd2dsy/libdaisy/src/hid/disp/display.h ****         }
 455:../../../lib/pd2dsy/libdaisy/src/hid/disp/display.h **** 
 456:../../../lib/pd2dsy/libdaisy/src/hid/disp/display.h ****         // Everything ok
 457:../../../lib/pd2dsy/libdaisy/src/hid/disp/display.h ****         return *str;
 458:../../../lib/pd2dsy/libdaisy/src/hid/disp/display.h ****     }
 877              		.loc 4 458 5 view .LVU182
 878 0172 09B0     		add	sp, sp, #36
 879              		.cfi_remember_state
 880              		.cfi_def_cfa_offset 36
 881              		@ sp needed
 882 0174 BDE8F08F 		pop	{r4, r5, r6, r7, r8, r9, r10, fp, pc}
 883              	.LVL50:
 884              	.L20:
 885              		.cfi_restore_state
 886              	.LBB578:
 887              	.LBB576:
 402:../../../lib/pd2dsy/libdaisy/src/hid/disp/display.h **** 
 888              		.loc 4 402 20 view .LVU183
 889 0178 4FF00008 		mov	r8, #0
 890              	.LVL51:
 402:../../../lib/pd2dsy/libdaisy/src/hid/disp/display.h **** 
 891              		.loc 4 402 20 view .LVU184
 892 017c EDE7     		b	.L18
 893              	.LVL52:
 894              	.L53:
 405:../../../lib/pd2dsy/libdaisy/src/hid/disp/display.h ****            || Height() < (currentY_ + font.FontHeight))
 895              		.loc 4 405 17 view .LVU185
 896 017e 3046     		mov	r0, r6
 897 0180 9847     		blx	r3
 898              	.LVL53:
 899 0182 62E7     		b	.L19
 900              	.L54:
 406:../../../lib/pd2dsy/libdaisy/src/hid/disp/display.h ****         {
 901              		.loc 4 406 21 view .LVU186
 902 0184 3046     		mov	r0, r6
 903 0186 9847     		blx	r3
 904              	.LVL54:
 905 0188 6BE7     		b	.L21
 906              	.LVL55:
 907              	.L58:
 908              	.LBB573:
 909              	.LBB569:
 174:../../../lib/pd2dsy/libdaisy/src/hid/disp/display.h ****     }
 910              		.loc 4 174 33 view .LVU187
 911 018a 3046     		mov	r0, r6
 912 018c 9847     		blx	r3
 913              	.LVL56:
 914 018e D8E7     		b	.L35
 915              	.LVL57:
 916              	.L56:
 173:../../../lib/pd2dsy/libdaisy/src/hid/disp/display.h ****         currentY_ = (y >= Height()) ? Height() - 1 : y;
 917              		.loc 4 173 32 view .LVU188
 918 0190 3046     		mov	r0, r6
 919 0192 9847     		blx	r3
ARM GAS  /var/folders/fb/yfxt3z4538j6z0vjt03w70vc0000gn/T//ccrD3Rdr.s 			page 43


 920              	.LVL58:
 173:../../../lib/pd2dsy/libdaisy/src/hid/disp/display.h ****         currentY_ = (y >= Height()) ? Height() - 1 : y;
 921              		.loc 4 173 44 view .LVU189
 922 0194 3268     		ldr	r2, [r6]
 923 0196 C7E7     		b	.L32
 924              	.LVL59:
 925              	.L22:
 173:../../../lib/pd2dsy/libdaisy/src/hid/disp/display.h ****         currentY_ = (y >= Height()) ? Height() - 1 : y;
 926              		.loc 4 173 44 view .LVU190
 927              	.LBE569:
 928              	.LBE573:
 434:../../../lib/pd2dsy/libdaisy/src/hid/disp/display.h **** 
 929              		.loc 4 434 19 view .LVU191
 930 0198 B6F804B0 		ldrh	fp, [r6, #4]
 931 019c BBE7     		b	.L24
 932              	.LVL60:
 933              	.L59:
 934              	.LBB574:
 935              	.LBB570:
 174:../../../lib/pd2dsy/libdaisy/src/hid/disp/display.h ****     }
 936              		.loc 4 174 45 view .LVU192
 937 019e 3046     		mov	r0, r6
 938 01a0 9847     		blx	r3
 939              	.LVL61:
 174:../../../lib/pd2dsy/libdaisy/src/hid/disp/display.h ****     }
 940              		.loc 4 174 19 view .LVU193
 941 01a2 0138     		subs	r0, r0, #1
 942 01a4 83B2     		uxth	r3, r0
 943 01a6 0293     		str	r3, [sp, #8]
 944              	.LVL62:
 174:../../../lib/pd2dsy/libdaisy/src/hid/disp/display.h ****     }
 945              		.loc 4 174 19 view .LVU194
 946 01a8 D5E7     		b	.L36
 947              	.LVL63:
 948              	.L57:
 173:../../../lib/pd2dsy/libdaisy/src/hid/disp/display.h ****         currentY_ = (y >= Height()) ? Height() - 1 : y;
 949              		.loc 4 173 43 view .LVU195
 950 01aa 3046     		mov	r0, r6
 951 01ac 9847     		blx	r3
 952              	.LVL64:
 173:../../../lib/pd2dsy/libdaisy/src/hid/disp/display.h ****         currentY_ = (y >= Height()) ? Height() - 1 : y;
 953              		.loc 4 173 19 view .LVU196
 954 01ae 0138     		subs	r0, r0, #1
 174:../../../lib/pd2dsy/libdaisy/src/hid/disp/display.h ****     }
 955              		.loc 4 174 34 view .LVU197
 956 01b0 3268     		ldr	r2, [r6]
 173:../../../lib/pd2dsy/libdaisy/src/hid/disp/display.h ****         currentY_ = (y >= Height()) ? Height() - 1 : y;
 957              		.loc 4 173 19 view .LVU198
 958 01b2 84B2     		uxth	r4, r0
 959              	.LVL65:
 173:../../../lib/pd2dsy/libdaisy/src/hid/disp/display.h ****         currentY_ = (y >= Height()) ? Height() - 1 : y;
 960              		.loc 4 173 19 view .LVU199
 961 01b4 BFE7     		b	.L33
 962              	.L61:
 963 01b6 00BF     		.align	2
 964              	.L60:
 965 01b8 00000000 		.word	_ZNK5daisy11OledDisplayINS_13SSD130xDriverILj128ELj64ENS_24SSD130x4WireSpiTransportEEEE5Widt
ARM GAS  /var/folders/fb/yfxt3z4538j6z0vjt03w70vc0000gn/T//ccrD3Rdr.s 			page 44


 966 01bc 00000000 		.word	_ZNK5daisy11OledDisplayINS_13SSD130xDriverILj128ELj64ENS_24SSD130x4WireSpiTransportEEEE6Heig
 967              	.LBE570:
 968              	.LBE574:
 969              	.LBE576:
 970              	.LBE578:
 971              		.cfi_endproc
 972              	.LFE3080:
 974              		.section	.text._ZN5daisy25OneBitGraphicsDisplayImplINS_11OledDisplayINS_13SSD130xDriverILj128ELj64
 975              		.align	1
 976              		.p2align 2,,3
 977              		.weak	_ZN5daisy25OneBitGraphicsDisplayImplINS_11OledDisplayINS_13SSD130xDriverILj128ELj64ENS_24SSD
 978              		.syntax unified
 979              		.thumb
 980              		.thumb_func
 982              	_ZN5daisy25OneBitGraphicsDisplayImplINS_11OledDisplayINS_13SSD130xDriverILj128ELj64ENS_24SSD130x4Wi
 983              	.LVL66:
 984              	.LFB3079:
 396:../../../lib/pd2dsy/libdaisy/src/hid/disp/display.h ****     {
 985              		.loc 4 396 10 is_stmt 1 view -0
 986              		.cfi_startproc
 987              		@ args = 4, pretend = 0, frame = 16
 988              		@ frame_needed = 0, uses_anonymous_args = 0
 396:../../../lib/pd2dsy/libdaisy/src/hid/disp/display.h ****     {
 989              		.loc 4 396 10 is_stmt 0 view .LVU201
 990 0000 2DE9F04F 		push	{r4, r5, r6, r7, r8, r9, r10, fp, lr}
 991              		.cfi_def_cfa_offset 36
 992              		.cfi_offset 4, -36
 993              		.cfi_offset 5, -32
 994              		.cfi_offset 6, -28
 995              		.cfi_offset 7, -24
 996              		.cfi_offset 8, -20
 997              		.cfi_offset 9, -16
 998              		.cfi_offset 10, -12
 999              		.cfi_offset 11, -8
 1000              		.cfi_offset 14, -4
 1001 0004 85B0     		sub	sp, sp, #20
 1002              		.cfi_def_cfa_offset 56
 1003              	.LVL67:
 401:../../../lib/pd2dsy/libdaisy/src/hid/disp/display.h ****             return 0;
 1004              		.loc 4 401 20 view .LVU202
 1005 0006 A1F12005 		sub	r5, r1, #32
 396:../../../lib/pd2dsy/libdaisy/src/hid/disp/display.h ****     {
 1006              		.loc 4 396 10 view .LVU203
 1007 000a 04AC     		add	r4, sp, #16
 1008 000c 9DF83870 		ldrb	r7, [sp, #56]	@ zero_extendqisi2
 1009 0010 0091     		str	r1, [sp]
 1010 0012 04E90C00 		stmdb	r4, {r2, r3}
 1011              	.LVL68:
 401:../../../lib/pd2dsy/libdaisy/src/hid/disp/display.h ****             return 0;
 1012              		.loc 4 401 9 view .LVU204
 1013 0016 EBB2     		uxtb	r3, r5
 1014 0018 5E2B     		cmp	r3, #94
 1015 001a 00F29580 		bhi	.L66
 405:../../../lib/pd2dsy/libdaisy/src/hid/disp/display.h ****            || Height() < (currentY_ + font.FontHeight))
 1016              		.loc 4 405 17 view .LVU205
 1017 001e 0368     		ldr	r3, [r0]
 1018 0020 8046     		mov	r8, r0
ARM GAS  /var/folders/fb/yfxt3z4538j6z0vjt03w70vc0000gn/T//ccrD3Rdr.s 			page 45


 1019 0022 5D4A     		ldr	r2, .L101
 1020 0024 DB68     		ldr	r3, [r3, #12]
 1021 0026 9DF80840 		ldrb	r4, [sp, #8]	@ zero_extendqisi2
 1022 002a 9342     		cmp	r3, r2
 1023 002c 9DF80960 		ldrb	r6, [sp, #9]	@ zero_extendqisi2
 1024 0030 40F09480 		bne	.L93
 1025 0034 8020     		movs	r0, #128
 1026              	.LVL69:
 1027              	.L65:
 405:../../../lib/pd2dsy/libdaisy/src/hid/disp/display.h ****            || Height() < (currentY_ + font.FontHeight))
 1028              		.loc 4 405 23 view .LVU206
 1029 0036 B8F80430 		ldrh	r3, [r8, #4]
 405:../../../lib/pd2dsy/libdaisy/src/hid/disp/display.h ****            || Height() < (currentY_ + font.FontHeight))
 1030              		.loc 4 405 33 view .LVU207
 1031 003a 2344     		add	r3, r3, r4
 406:../../../lib/pd2dsy/libdaisy/src/hid/disp/display.h ****         {
 1032              		.loc 4 406 12 view .LVU208
 1033 003c 8342     		cmp	r3, r0
 1034 003e 00F38380 		bgt	.L66
 406:../../../lib/pd2dsy/libdaisy/src/hid/disp/display.h ****         {
 1035              		.loc 4 406 21 discriminator 2 view .LVU209
 1036 0042 D8F80030 		ldr	r3, [r8]
 1037 0046 554A     		ldr	r2, .L101+4
 1038 0048 9B68     		ldr	r3, [r3, #8]
 1039 004a 9342     		cmp	r3, r2
 1040 004c 40F08880 		bne	.L94
 406:../../../lib/pd2dsy/libdaisy/src/hid/disp/display.h ****         {
 1041              		.loc 4 406 21 view .LVU210
 1042 0050 4020     		movs	r0, #64
 1043              	.L67:
 406:../../../lib/pd2dsy/libdaisy/src/hid/disp/display.h ****         {
 1044              		.loc 4 406 27 discriminator 2 view .LVU211
 1045 0052 B8F80620 		ldrh	r2, [r8, #6]
 406:../../../lib/pd2dsy/libdaisy/src/hid/disp/display.h ****         {
 1046              		.loc 4 406 37 discriminator 2 view .LVU212
 1047 0056 9319     		adds	r3, r2, r6
 406:../../../lib/pd2dsy/libdaisy/src/hid/disp/display.h ****         {
 1048              		.loc 4 406 27 discriminator 2 view .LVU213
 1049 0058 0192     		str	r2, [sp, #4]
 406:../../../lib/pd2dsy/libdaisy/src/hid/disp/display.h ****         {
 1050              		.loc 4 406 12 discriminator 2 view .LVU214
 1051 005a 8342     		cmp	r3, r0
 1052 005c 74DC     		bgt	.L66
 1053              	.LVL70:
 413:../../../lib/pd2dsy/libdaisy/src/hid/disp/display.h ****         {
 1054              		.loc 4 413 22 is_stmt 1 view .LVU215
 1055 005e 002E     		cmp	r6, #0
 1056 0060 00F08980 		beq	.L68
 415:../../../lib/pd2dsy/libdaisy/src/hid/disp/display.h ****             for(j = 0; j < font.FontWidth; j++)
 1057              		.loc 4 415 37 is_stmt 0 view .LVU216
 1058 0064 06FB05F5 		mul	r5, r6, r5
 1059 0068 6FF00040 		mvn	r0, #-2147483648
 415:../../../lib/pd2dsy/libdaisy/src/hid/disp/display.h ****             for(j = 0; j < font.FontWidth; j++)
 1060              		.loc 4 415 22 view .LVU217
 1061 006c 039B     		ldr	r3, [sp, #12]
 1062 006e 9646     		mov	lr, r2
 1063 0070 2844     		add	r0, r0, r5
ARM GAS  /var/folders/fb/yfxt3z4538j6z0vjt03w70vc0000gn/T//ccrD3Rdr.s 			page 46


 1064 0072 2E44     		add	r6, r6, r5
 434:../../../lib/pd2dsy/libdaisy/src/hid/disp/display.h **** 
 1065              		.loc 4 434 19 view .LVU218
 1066 0074 B8F804A0 		ldrh	r10, [r8, #4]
 1067 0078 03EB4000 		add	r0, r3, r0, lsl #1
 1068 007c 023B     		subs	r3, r3, #2
 1069 007e 03EB460B 		add	fp, r3, r6, lsl #1
 1070              	.LVL71:
 1071              	.L71:
 415:../../../lib/pd2dsy/libdaisy/src/hid/disp/display.h ****             for(j = 0; j < font.FontWidth; j++)
 1072              		.loc 4 415 15 view .LVU219
 1073 0082 30F8026F 		ldrh	r6, [r0, #2]!
 1074              	.LVL72:
 416:../../../lib/pd2dsy/libdaisy/src/hid/disp/display.h ****             {
 1075              		.loc 4 416 26 is_stmt 1 view .LVU220
 1076 0086 BCB3     		cbz	r4, .L76
 1077              	.LBB609:
 1078              	.LBB610:
 1079              	.LBB611:
 1080              	.LBB612:
 1081              	.LBB613:
 259:../../../lib/pd2dsy/libdaisy/src/dev/oled_ssd130x.h ****     }
 1082              		.loc 3 259 55 is_stmt 0 view .LVU221
 1083 0088 0EF00703 		and	r3, lr, #7
 259:../../../lib/pd2dsy/libdaisy/src/dev/oled_ssd130x.h ****     }
 1084              		.loc 3 259 49 view .LVU222
 1085 008c 4FF0010C 		mov	ip, #1
 259:../../../lib/pd2dsy/libdaisy/src/dev/oled_ssd130x.h ****     }
 1086              		.loc 3 259 28 view .LVU223
 1087 0090 4FEADE02 		lsr	r2, lr, #3
 1088 0094 5146     		mov	r1, r10
 259:../../../lib/pd2dsy/libdaisy/src/dev/oled_ssd130x.h ****     }
 1089              		.loc 3 259 49 view .LVU224
 1090 0096 0CFA03FC 		lsl	ip, ip, r3
 1091 009a 0AF11403 		add	r3, r10, #20
 259:../../../lib/pd2dsy/libdaisy/src/dev/oled_ssd130x.h ****     }
 1092              		.loc 3 259 42 view .LVU225
 1093 009e 4FFA8CFC 		sxtb	ip, ip
 1094 00a2 03EBC212 		add	r2, r3, r2, lsl #7
 1095              	.LBE613:
 1096              	.LBE612:
 1097              	.LBE611:
 1098              	.LBE610:
 1099              	.LBE609:
 416:../../../lib/pd2dsy/libdaisy/src/hid/disp/display.h ****             {
 1100              		.loc 4 416 19 view .LVU226
 1101 00a6 0023     		movs	r3, #0
 1102              	.LBB631:
 1103              	.LBB626:
 1104              	.LBB621:
 1105              	.LBB617:
 1106              	.LBB614:
 259:../../../lib/pd2dsy/libdaisy/src/dev/oled_ssd130x.h ****     }
 1107              		.loc 3 259 42 view .LVU227
 1108 00a8 6FEA0C09 		mvn	r9, ip
 1109 00ac 4244     		add	r2, r2, r8
 1110 00ae 0EE0     		b	.L77
ARM GAS  /var/folders/fb/yfxt3z4538j6z0vjt03w70vc0000gn/T//ccrD3Rdr.s 			page 47


 1111              	.LVL73:
 1112              	.L95:
 259:../../../lib/pd2dsy/libdaisy/src/dev/oled_ssd130x.h ****     }
 1113              		.loc 3 259 42 view .LVU228
 1114              	.LBE614:
 1115              	.LBE617:
 1116              	.LBE621:
 1117              	.LBE626:
 1118              	.LBE631:
 1119              	.LBB632:
 1120              	.LBI632:
  42:../../../lib/pd2dsy/libdaisy/src/hid/disp/oled_display.h ****     {
 1121              		.loc 2 42 10 is_stmt 1 view .LVU229
 1122              	.LBB633:
 1123              	.LBI633:
 252:../../../lib/pd2dsy/libdaisy/src/dev/oled_ssd130x.h ****     {
 1124              		.loc 3 252 10 view .LVU230
 1125              	.LBB634:
 254:../../../lib/pd2dsy/libdaisy/src/dev/oled_ssd130x.h ****             return;
 1126              		.loc 3 254 9 is_stmt 0 view .LVU231
 1127 00b0 7F29     		cmp	r1, #127
 1128 00b2 07D8     		bhi	.L73
 1129 00b4 BEF13F0F 		cmp	lr, #63
 1130 00b8 04D8     		bhi	.L73
 257:../../../lib/pd2dsy/libdaisy/src/dev/oled_ssd130x.h ****         else
 1131              		.loc 3 257 42 view .LVU232
 1132 00ba 1578     		ldrb	r5, [r2]	@ zero_extendqisi2
 256:../../../lib/pd2dsy/libdaisy/src/dev/oled_ssd130x.h ****             buffer_[x + (y / 8) * width] |= (1 << (y % 8));
 1133              		.loc 3 256 9 view .LVU233
 1134 00bc 9FB1     		cbz	r7, .L75
 1135              	.L92:
 256:../../../lib/pd2dsy/libdaisy/src/dev/oled_ssd130x.h ****             buffer_[x + (y / 8) * width] |= (1 << (y % 8));
 1136              		.loc 3 256 9 view .LVU234
 1137              	.LBE634:
 1138              	.LBE633:
 1139              	.LBE632:
 1140              	.LBB635:
 1141              	.LBB627:
 1142              	.LBB622:
 257:../../../lib/pd2dsy/libdaisy/src/dev/oled_ssd130x.h ****         else
 1143              		.loc 3 257 42 view .LVU235
 1144 00be 4CEA0505 		orr	r5, ip, r5
 1145 00c2 1570     		strb	r5, [r2]
 1146              	.L73:
 1147              	.LBE622:
 1148              	.LBE627:
 1149              	.LBE635:
 416:../../../lib/pd2dsy/libdaisy/src/hid/disp/display.h ****             {
 1150              		.loc 4 416 13 is_stmt 1 discriminator 2 view .LVU236
 1151 00c4 0133     		adds	r3, r3, #1
 1152              	.LVL74:
 416:../../../lib/pd2dsy/libdaisy/src/hid/disp/display.h ****             {
 1153              		.loc 4 416 26 discriminator 2 view .LVU237
 1154 00c6 0132     		adds	r2, r2, #1
 1155 00c8 0131     		adds	r1, r1, #1
 1156 00ca 9C42     		cmp	r4, r3
 1157 00cc 14D0     		beq	.L76
ARM GAS  /var/folders/fb/yfxt3z4538j6z0vjt03w70vc0000gn/T//ccrD3Rdr.s 			page 48


 1158              	.LVL75:
 1159              	.L77:
 418:../../../lib/pd2dsy/libdaisy/src/hid/disp/display.h ****                 {
 1160              		.loc 4 418 23 is_stmt 0 view .LVU238
 1161 00ce 06FA03F5 		lsl	r5, r6, r3
 418:../../../lib/pd2dsy/libdaisy/src/hid/disp/display.h ****                 {
 1162              		.loc 4 418 17 view .LVU239
 1163 00d2 2D04     		lsls	r5, r5, #16
 1164 00d4 ECD4     		bmi	.L95
 1165              	.LVL76:
 1166              	.LBB636:
 1167              	.LBI609:
  42:../../../lib/pd2dsy/libdaisy/src/hid/disp/oled_display.h ****     {
 1168              		.loc 2 42 10 is_stmt 1 view .LVU240
 1169              	.LBB628:
 1170              	.LBI610:
 252:../../../lib/pd2dsy/libdaisy/src/dev/oled_ssd130x.h ****     {
 1171              		.loc 3 252 10 view .LVU241
 1172              	.LBB623:
 254:../../../lib/pd2dsy/libdaisy/src/dev/oled_ssd130x.h ****             return;
 1173              		.loc 3 254 9 is_stmt 0 view .LVU242
 1174 00d6 7F29     		cmp	r1, #127
 1175 00d8 F4D8     		bhi	.L73
 1176 00da BEF13F0F 		cmp	lr, #63
 1177 00de F1D8     		bhi	.L73
 257:../../../lib/pd2dsy/libdaisy/src/dev/oled_ssd130x.h ****         else
 1178              		.loc 3 257 42 view .LVU243
 1179 00e0 1578     		ldrb	r5, [r2]	@ zero_extendqisi2
 256:../../../lib/pd2dsy/libdaisy/src/dev/oled_ssd130x.h ****             buffer_[x + (y / 8) * width] |= (1 << (y % 8));
 1180              		.loc 3 256 9 view .LVU244
 1181 00e2 002F     		cmp	r7, #0
 1182 00e4 EBD0     		beq	.L92
 1183              	.L75:
 1184              	.LVL77:
 1185              	.LBB618:
 1186              	.LBI612:
 252:../../../lib/pd2dsy/libdaisy/src/dev/oled_ssd130x.h ****     {
 1187              		.loc 3 252 10 is_stmt 1 view .LVU245
 252:../../../lib/pd2dsy/libdaisy/src/dev/oled_ssd130x.h ****     {
 1188              		.loc 3 252 10 is_stmt 0 view .LVU246
 1189              	.LBE618:
 1190              	.LBE623:
 1191              	.LBE628:
 1192              	.LBE636:
 416:../../../lib/pd2dsy/libdaisy/src/hid/disp/display.h ****             {
 1193              		.loc 4 416 13 view .LVU247
 1194 00e6 0133     		adds	r3, r3, #1
 1195              	.LVL78:
 1196              	.LBB637:
 1197              	.LBB629:
 1198              	.LBB624:
 1199              	.LBB619:
 1200              	.LBB615:
 259:../../../lib/pd2dsy/libdaisy/src/dev/oled_ssd130x.h ****     }
 1201              		.loc 3 259 42 view .LVU248
 1202 00e8 09EA0505 		and	r5, r9, r5
 1203              	.LBE615:
ARM GAS  /var/folders/fb/yfxt3z4538j6z0vjt03w70vc0000gn/T//ccrD3Rdr.s 			page 49


 1204              	.LBE619:
 1205              	.LBE624:
 1206              	.LBE629:
 1207              	.LBE637:
 416:../../../lib/pd2dsy/libdaisy/src/hid/disp/display.h ****             {
 1208              		.loc 4 416 26 view .LVU249
 1209 00ec 0132     		adds	r2, r2, #1
 1210 00ee 0131     		adds	r1, r1, #1
 1211 00f0 9C42     		cmp	r4, r3
 1212              	.LBB638:
 1213              	.LBB630:
 1214              	.LBB625:
 1215              	.LBB620:
 1216              	.LBB616:
 259:../../../lib/pd2dsy/libdaisy/src/dev/oled_ssd130x.h ****     }
 1217              		.loc 3 259 42 view .LVU250
 1218 00f2 02F8015C 		strb	r5, [r2, #-1]
 259:../../../lib/pd2dsy/libdaisy/src/dev/oled_ssd130x.h ****     }
 1219              		.loc 3 259 42 view .LVU251
 1220              	.LBE616:
 1221              	.LBE620:
 1222              	.LBE625:
 1223              	.LBE630:
 1224              	.LBE638:
 416:../../../lib/pd2dsy/libdaisy/src/hid/disp/display.h ****             {
 1225              		.loc 4 416 13 is_stmt 1 view .LVU252
 1226              	.LVL79:
 416:../../../lib/pd2dsy/libdaisy/src/hid/disp/display.h ****             {
 1227              		.loc 4 416 26 view .LVU253
 1228 00f6 EAD1     		bne	.L77
 1229              	.LVL80:
 1230              	.L76:
 413:../../../lib/pd2dsy/libdaisy/src/hid/disp/display.h ****         {
 1231              		.loc 4 413 9 view .LVU254
 413:../../../lib/pd2dsy/libdaisy/src/hid/disp/display.h ****         {
 1232              		.loc 4 413 22 view .LVU255
 1233 00f8 5845     		cmp	r0, fp
 1234 00fa 0EF1010E 		add	lr, lr, #1
 1235 00fe C0D1     		bne	.L71
 1236              	.LVL81:
 1237              	.L70:
 1238              	.LBB639:
 1239              	.LBB640:
 173:../../../lib/pd2dsy/libdaisy/src/hid/disp/display.h ****         currentY_ = (y >= Height()) ? Height() - 1 : y;
 1240              		.loc 4 173 33 is_stmt 0 view .LVU256
 1241 0100 D8F80030 		ldr	r3, [r8]
 1242              	.LBE640:
 1243              	.LBE639:
 434:../../../lib/pd2dsy/libdaisy/src/hid/disp/display.h **** 
 1244              		.loc 4 434 18 view .LVU257
 1245 0104 5444     		add	r4, r4, r10
 1246 0106 2449     		ldr	r1, .L101
 1247              	.LBB646:
 1248              	.LBB641:
 173:../../../lib/pd2dsy/libdaisy/src/hid/disp/display.h ****         currentY_ = (y >= Height()) ? Height() - 1 : y;
 1249              		.loc 4 173 33 view .LVU258
 1250 0108 DA68     		ldr	r2, [r3, #12]
ARM GAS  /var/folders/fb/yfxt3z4538j6z0vjt03w70vc0000gn/T//ccrD3Rdr.s 			page 50


 1251              	.LBE641:
 1252              	.LBE646:
 434:../../../lib/pd2dsy/libdaisy/src/hid/disp/display.h **** 
 1253              		.loc 4 434 18 view .LVU259
 1254 010a A4B2     		uxth	r4, r4
 1255              	.LVL82:
 1256              	.LBB647:
 1257              	.LBI639:
 171:../../../lib/pd2dsy/libdaisy/src/hid/disp/display.h ****     {
 1258              		.loc 4 171 10 is_stmt 1 view .LVU260
 1259              	.LBB642:
 173:../../../lib/pd2dsy/libdaisy/src/hid/disp/display.h ****         currentY_ = (y >= Height()) ? Height() - 1 : y;
 1260              		.loc 4 173 9 view .LVU261
 1261 010c 8A42     		cmp	r2, r1
 1262 010e 2DD1     		bne	.L96
 173:../../../lib/pd2dsy/libdaisy/src/hid/disp/display.h ****         currentY_ = (y >= Height()) ? Height() - 1 : y;
 1263              		.loc 4 173 33 is_stmt 0 view .LVU262
 1264 0110 8020     		movs	r0, #128
 1265              	.L78:
 173:../../../lib/pd2dsy/libdaisy/src/hid/disp/display.h ****         currentY_ = (y >= Height()) ? Height() - 1 : y;
 1266              		.loc 4 173 19 view .LVU263
 1267 0112 8442     		cmp	r4, r0
 1268 0114 1CD2     		bcs	.L97
 1269              	.LVL83:
 1270              	.L79:
 174:../../../lib/pd2dsy/libdaisy/src/hid/disp/display.h ****     }
 1271              		.loc 4 174 34 view .LVU264
 1272 0116 9B68     		ldr	r3, [r3, #8]
 1273 0118 204A     		ldr	r2, .L101+4
 173:../../../lib/pd2dsy/libdaisy/src/hid/disp/display.h ****         currentY_ = (y >= Height()) ? Height() - 1 : y;
 1274              		.loc 4 173 19 view .LVU265
 1275 011a A8F80440 		strh	r4, [r8, #4]	@ movhi
 174:../../../lib/pd2dsy/libdaisy/src/hid/disp/display.h ****     }
 1276              		.loc 4 174 9 is_stmt 1 view .LVU266
 1277 011e 9342     		cmp	r3, r2
 1278 0120 21D1     		bne	.L98
 174:../../../lib/pd2dsy/libdaisy/src/hid/disp/display.h ****     }
 1279              		.loc 4 174 34 is_stmt 0 view .LVU267
 1280 0122 4020     		movs	r0, #64
 1281              	.L81:
 174:../../../lib/pd2dsy/libdaisy/src/hid/disp/display.h ****     }
 1282              		.loc 4 174 19 view .LVU268
 1283 0124 019B     		ldr	r3, [sp, #4]
 1284 0126 8342     		cmp	r3, r0
 1285 0128 07D3     		bcc	.L82
 174:../../../lib/pd2dsy/libdaisy/src/hid/disp/display.h ****     }
 1286              		.loc 4 174 46 view .LVU269
 1287 012a D8F80030 		ldr	r3, [r8]
 1288 012e 1B4A     		ldr	r2, .L101+4
 1289 0130 9B68     		ldr	r3, [r3, #8]
 1290 0132 9342     		cmp	r3, r2
 1291 0134 29D1     		bne	.L99
 1292 0136 3F23     		movs	r3, #63
 1293 0138 0193     		str	r3, [sp, #4]
 1294              	.LVL84:
 1295              	.L82:
 174:../../../lib/pd2dsy/libdaisy/src/hid/disp/display.h ****     }
ARM GAS  /var/folders/fb/yfxt3z4538j6z0vjt03w70vc0000gn/T//ccrD3Rdr.s 			page 51


 1296              		.loc 4 174 19 view .LVU270
 1297 013a DDE90003 		ldrd	r0, r3, [sp]
 1298 013e A8F80630 		strh	r3, [r8, #6]	@ movhi
 1299              	.LVL85:
 174:../../../lib/pd2dsy/libdaisy/src/hid/disp/display.h ****     }
 1300              		.loc 4 174 19 view .LVU271
 1301              	.LBE642:
 1302              	.LBE647:
 438:../../../lib/pd2dsy/libdaisy/src/hid/disp/display.h **** 
 1303              		.loc 4 438 5 view .LVU272
 1304 0142 05B0     		add	sp, sp, #20
 1305              		.cfi_remember_state
 1306              		.cfi_def_cfa_offset 36
 1307              		@ sp needed
 1308 0144 BDE8F08F 		pop	{r4, r5, r6, r7, r8, r9, r10, fp, pc}
 1309              	.LVL86:
 1310              	.L66:
 1311              		.cfi_restore_state
 402:../../../lib/pd2dsy/libdaisy/src/hid/disp/display.h **** 
 1312              		.loc 4 402 20 view .LVU273
 1313 0148 0020     		movs	r0, #0
 438:../../../lib/pd2dsy/libdaisy/src/hid/disp/display.h **** 
 1314              		.loc 4 438 5 view .LVU274
 1315 014a 05B0     		add	sp, sp, #20
 1316              		.cfi_remember_state
 1317              		.cfi_def_cfa_offset 36
 1318              		@ sp needed
 1319 014c BDE8F08F 		pop	{r4, r5, r6, r7, r8, r9, r10, fp, pc}
 1320              	.LVL87:
 1321              	.L97:
 1322              		.cfi_restore_state
 1323              	.LBB648:
 1324              	.LBB643:
 173:../../../lib/pd2dsy/libdaisy/src/hid/disp/display.h ****         currentY_ = (y >= Height()) ? Height() - 1 : y;
 1325              		.loc 4 173 44 view .LVU275
 1326 0150 DA68     		ldr	r2, [r3, #12]
 1327 0152 1149     		ldr	r1, .L101
 1328 0154 8A42     		cmp	r2, r1
 1329 0156 11D1     		bne	.L100
 1330 0158 7F24     		movs	r4, #127
 1331              	.LVL88:
 173:../../../lib/pd2dsy/libdaisy/src/hid/disp/display.h ****         currentY_ = (y >= Height()) ? Height() - 1 : y;
 1332              		.loc 4 173 44 view .LVU276
 1333 015a DCE7     		b	.L79
 1334              	.LVL89:
 1335              	.L93:
 173:../../../lib/pd2dsy/libdaisy/src/hid/disp/display.h ****         currentY_ = (y >= Height()) ? Height() - 1 : y;
 1336              		.loc 4 173 44 view .LVU277
 1337              	.LBE643:
 1338              	.LBE648:
 405:../../../lib/pd2dsy/libdaisy/src/hid/disp/display.h ****            || Height() < (currentY_ + font.FontHeight))
 1339              		.loc 4 405 17 view .LVU278
 1340 015c 9847     		blx	r3
 1341              	.LVL90:
 405:../../../lib/pd2dsy/libdaisy/src/hid/disp/display.h ****            || Height() < (currentY_ + font.FontHeight))
 1342              		.loc 4 405 17 view .LVU279
 1343 015e 6AE7     		b	.L65
ARM GAS  /var/folders/fb/yfxt3z4538j6z0vjt03w70vc0000gn/T//ccrD3Rdr.s 			page 52


 1344              	.L94:
 406:../../../lib/pd2dsy/libdaisy/src/hid/disp/display.h ****         {
 1345              		.loc 4 406 21 discriminator 2 view .LVU280
 1346 0160 4046     		mov	r0, r8
 1347 0162 9847     		blx	r3
 1348              	.LVL91:
 1349 0164 75E7     		b	.L67
 1350              	.LVL92:
 1351              	.L98:
 1352              	.LBB649:
 1353              	.LBB644:
 174:../../../lib/pd2dsy/libdaisy/src/hid/disp/display.h ****     }
 1354              		.loc 4 174 33 view .LVU281
 1355 0166 4046     		mov	r0, r8
 1356 0168 9847     		blx	r3
 1357              	.LVL93:
 1358 016a DBE7     		b	.L81
 1359              	.LVL94:
 1360              	.L96:
 173:../../../lib/pd2dsy/libdaisy/src/hid/disp/display.h ****         currentY_ = (y >= Height()) ? Height() - 1 : y;
 1361              		.loc 4 173 32 view .LVU282
 1362 016c 4046     		mov	r0, r8
 1363 016e 9047     		blx	r2
 1364              	.LVL95:
 173:../../../lib/pd2dsy/libdaisy/src/hid/disp/display.h ****         currentY_ = (y >= Height()) ? Height() - 1 : y;
 1365              		.loc 4 173 44 view .LVU283
 1366 0170 D8F80030 		ldr	r3, [r8]
 1367 0174 CDE7     		b	.L78
 1368              	.LVL96:
 1369              	.L68:
 173:../../../lib/pd2dsy/libdaisy/src/hid/disp/display.h ****         currentY_ = (y >= Height()) ? Height() - 1 : y;
 1370              		.loc 4 173 44 view .LVU284
 1371              	.LBE644:
 1372              	.LBE649:
 434:../../../lib/pd2dsy/libdaisy/src/hid/disp/display.h **** 
 1373              		.loc 4 434 19 view .LVU285
 1374 0176 B8F804A0 		ldrh	r10, [r8, #4]
 1375 017a C1E7     		b	.L70
 1376              	.LVL97:
 1377              	.L100:
 1378              	.LBB650:
 1379              	.LBB645:
 173:../../../lib/pd2dsy/libdaisy/src/hid/disp/display.h ****         currentY_ = (y >= Height()) ? Height() - 1 : y;
 1380              		.loc 4 173 43 view .LVU286
 1381 017c 4046     		mov	r0, r8
 1382 017e 9047     		blx	r2
 1383              	.LVL98:
 173:../../../lib/pd2dsy/libdaisy/src/hid/disp/display.h ****         currentY_ = (y >= Height()) ? Height() - 1 : y;
 1384              		.loc 4 173 19 view .LVU287
 1385 0180 0138     		subs	r0, r0, #1
 174:../../../lib/pd2dsy/libdaisy/src/hid/disp/display.h ****     }
 1386              		.loc 4 174 34 view .LVU288
 1387 0182 D8F80030 		ldr	r3, [r8]
 173:../../../lib/pd2dsy/libdaisy/src/hid/disp/display.h ****         currentY_ = (y >= Height()) ? Height() - 1 : y;
 1388              		.loc 4 173 19 view .LVU289
 1389 0186 84B2     		uxth	r4, r0
 1390              	.LVL99:
ARM GAS  /var/folders/fb/yfxt3z4538j6z0vjt03w70vc0000gn/T//ccrD3Rdr.s 			page 53


 173:../../../lib/pd2dsy/libdaisy/src/hid/disp/display.h ****         currentY_ = (y >= Height()) ? Height() - 1 : y;
 1391              		.loc 4 173 19 view .LVU290
 1392 0188 C5E7     		b	.L79
 1393              	.L99:
 174:../../../lib/pd2dsy/libdaisy/src/hid/disp/display.h ****     }
 1394              		.loc 4 174 45 view .LVU291
 1395 018a 4046     		mov	r0, r8
 1396 018c 9847     		blx	r3
 1397              	.LVL100:
 174:../../../lib/pd2dsy/libdaisy/src/hid/disp/display.h ****     }
 1398              		.loc 4 174 19 view .LVU292
 1399 018e 0138     		subs	r0, r0, #1
 1400 0190 83B2     		uxth	r3, r0
 1401 0192 0193     		str	r3, [sp, #4]
 1402              	.LVL101:
 174:../../../lib/pd2dsy/libdaisy/src/hid/disp/display.h ****     }
 1403              		.loc 4 174 19 view .LVU293
 1404 0194 D1E7     		b	.L82
 1405              	.L102:
 1406 0196 00BF     		.align	2
 1407              	.L101:
 1408 0198 00000000 		.word	_ZNK5daisy11OledDisplayINS_13SSD130xDriverILj128ELj64ENS_24SSD130x4WireSpiTransportEEEE5Widt
 1409 019c 00000000 		.word	_ZNK5daisy11OledDisplayINS_13SSD130xDriverILj128ELj64ENS_24SSD130x4WireSpiTransportEEEE6Heig
 1410              	.LBE645:
 1411              	.LBE650:
 1412              		.cfi_endproc
 1413              	.LFE3079:
 1415              		.section	.text._ZN5daisy25OneBitGraphicsDisplayImplINS_11OledDisplayINS_13SSD130xDriverILj128ELj64
 1416              		.align	1
 1417              		.p2align 2,,3
 1418              		.weak	_ZN5daisy25OneBitGraphicsDisplayImplINS_11OledDisplayINS_13SSD130xDriverILj128ELj64ENS_24SSD
 1419              		.syntax unified
 1420              		.thumb
 1421              		.thumb_func
 1423              	_ZN5daisy25OneBitGraphicsDisplayImplINS_11OledDisplayINS_13SSD130xDriverILj128ELj64ENS_24SSD130x4Wi
 1424              	.LVL102:
 1425              	.LFB3081:
 459:../../../lib/pd2dsy/libdaisy/src/hid/disp/display.h **** 
 460:../../../lib/pd2dsy/libdaisy/src/hid/disp/display.h ****     Rectangle WriteStringAligned(const char*    str,
 1426              		.loc 4 460 15 is_stmt 1 view -0
 1427              		.cfi_startproc
 1428              		@ args = 12, pretend = 0, frame = 32
 1429              		@ frame_needed = 0, uses_anonymous_args = 0
 1430              		.loc 4 460 15 is_stmt 0 view .LVU295
 1431 0000 2DE9F04F 		push	{r4, r5, r6, r7, r8, r9, r10, fp, lr}
 1432              		.cfi_def_cfa_offset 36
 1433              		.cfi_offset 4, -36
 1434              		.cfi_offset 5, -32
 1435              		.cfi_offset 6, -28
 1436              		.cfi_offset 7, -24
 1437              		.cfi_offset 8, -20
 1438              		.cfi_offset 9, -16
 1439              		.cfi_offset 10, -12
 1440              		.cfi_offset 11, -8
 1441              		.cfi_offset 14, -4
 1442 0004 89B0     		sub	sp, sp, #36
 1443              		.cfi_def_cfa_offset 72
ARM GAS  /var/folders/fb/yfxt3z4538j6z0vjt03w70vc0000gn/T//ccrD3Rdr.s 			page 54


 1444              		.loc 4 460 15 view .LVU296
 1445 0006 1D46     		mov	r5, r3
 1446 0008 8846     		mov	r8, r1
 1447              	.LVL103:
 1448              	.LBB789:
 1449              	.LBI789:
 461:../../../lib/pd2dsy/libdaisy/src/hid/disp/display.h ****                                  const FontDef& font,
 462:../../../lib/pd2dsy/libdaisy/src/hid/disp/display.h ****                                  Rectangle      boundingBox,
 463:../../../lib/pd2dsy/libdaisy/src/hid/disp/display.h ****                                  Alignment      alignment,
 464:../../../lib/pd2dsy/libdaisy/src/hid/disp/display.h ****                                  bool           on) override
 465:../../../lib/pd2dsy/libdaisy/src/hid/disp/display.h ****     {
 466:../../../lib/pd2dsy/libdaisy/src/hid/disp/display.h ****         const auto alignedRect
 467:../../../lib/pd2dsy/libdaisy/src/hid/disp/display.h ****             = GetTextRect(str, font).AlignedWithin(boundingBox, alignment);
 468:../../../lib/pd2dsy/libdaisy/src/hid/disp/display.h ****         SetCursor(alignedRect.GetX(), alignedRect.GetY());
 469:../../../lib/pd2dsy/libdaisy/src/hid/disp/display.h ****         ((ChildType*)(this))->ChildType::WriteString(str, font, on);
 470:../../../lib/pd2dsy/libdaisy/src/hid/disp/display.h ****         return alignedRect;
 471:../../../lib/pd2dsy/libdaisy/src/hid/disp/display.h ****     }
 472:../../../lib/pd2dsy/libdaisy/src/hid/disp/display.h **** 
 473:../../../lib/pd2dsy/libdaisy/src/hid/disp/display.h ****   private:
 474:../../../lib/pd2dsy/libdaisy/src/hid/disp/display.h ****     uint32_t strlen(const char* string)
 475:../../../lib/pd2dsy/libdaisy/src/hid/disp/display.h ****     {
 476:../../../lib/pd2dsy/libdaisy/src/hid/disp/display.h ****         uint32_t result = 0;
 477:../../../lib/pd2dsy/libdaisy/src/hid/disp/display.h ****         while(*string++ != '\0')
 478:../../../lib/pd2dsy/libdaisy/src/hid/disp/display.h ****             result++;
 479:../../../lib/pd2dsy/libdaisy/src/hid/disp/display.h ****         return result;
 480:../../../lib/pd2dsy/libdaisy/src/hid/disp/display.h ****     }
 481:../../../lib/pd2dsy/libdaisy/src/hid/disp/display.h **** 
 482:../../../lib/pd2dsy/libdaisy/src/hid/disp/display.h ****     Rectangle GetTextRect(const char* text, const FontDef& font)
 1450              		.loc 4 482 15 is_stmt 1 view .LVU297
 1451              	.LBB790:
 1452              	.LBB791:
 1453              	.LBI791:
 474:../../../lib/pd2dsy/libdaisy/src/hid/disp/display.h ****     {
 1454              		.loc 4 474 14 view .LVU298
 1455              	.LBB792:
 477:../../../lib/pd2dsy/libdaisy/src/hid/disp/display.h ****             result++;
 1456              		.loc 4 477 25 view .LVU299
 1457              	.LBE792:
 1458              	.LBE791:
 1459              	.LBE790:
 1460              	.LBE789:
 460:../../../lib/pd2dsy/libdaisy/src/hid/disp/display.h ****                                  const FontDef& font,
 1461              		.loc 4 460 15 is_stmt 0 view .LVU300
 1462 000a 0690     		str	r0, [sp, #24]
 1463              	.LBB807:
 1464              	.LBB803:
 1465              	.LBB796:
 1466              	.LBB793:
 477:../../../lib/pd2dsy/libdaisy/src/hid/disp/display.h ****             result++;
 1467              		.loc 4 477 25 view .LVU301
 1468 000c 1046     		mov	r0, r2
 1469              	.LVL104:
 477:../../../lib/pd2dsy/libdaisy/src/hid/disp/display.h ****             result++;
 1470              		.loc 4 477 25 view .LVU302
 1471              	.LBE793:
 1472              	.LBE796:
 1473              	.LBE803:
ARM GAS  /var/folders/fb/yfxt3z4538j6z0vjt03w70vc0000gn/T//ccrD3Rdr.s 			page 55


 1474              	.LBE807:
 460:../../../lib/pd2dsy/libdaisy/src/hid/disp/display.h ****                                  const FontDef& font,
 1475              		.loc 4 460 15 view .LVU303
 1476 000e 129C     		ldr	r4, [sp, #72]
 1477              	.LBB808:
 1478              	.LBB804:
 1479              	.LBB797:
 1480              	.LBB794:
 477:../../../lib/pd2dsy/libdaisy/src/hid/disp/display.h ****             result++;
 1481              		.loc 4 477 25 view .LVU304
 1482 0010 10F8013B 		ldrb	r3, [r0], #1	@ zero_extendqisi2
 1483              	.LVL105:
 477:../../../lib/pd2dsy/libdaisy/src/hid/disp/display.h ****             result++;
 1484              		.loc 4 477 25 view .LVU305
 1485              	.LBE794:
 1486              	.LBE797:
 1487              	.LBE804:
 1488              	.LBE808:
 460:../../../lib/pd2dsy/libdaisy/src/hid/disp/display.h ****                                  const FontDef& font,
 1489              		.loc 4 460 15 view .LVU306
 1490 0014 1399     		ldr	r1, [sp, #76]
 1491              	.LVL106:
 460:../../../lib/pd2dsy/libdaisy/src/hid/disp/display.h ****                                  const FontDef& font,
 1492              		.loc 4 460 15 view .LVU307
 1493 0016 9DF85060 		ldrb	r6, [sp, #80]	@ zero_extendqisi2
 1494 001a 0092     		str	r2, [sp]
 1495              	.LBB809:
 1496              	.LBB805:
 1497              	.LBB798:
 1498              	.LBB795:
 477:../../../lib/pd2dsy/libdaisy/src/hid/disp/display.h ****             result++;
 1499              		.loc 4 477 25 view .LVU308
 1500 001c 33B1     		cbz	r3, .L104
 476:../../../lib/pd2dsy/libdaisy/src/hid/disp/display.h ****         while(*string++ != '\0')
 1501              		.loc 4 476 18 view .LVU309
 1502 001e 0022     		movs	r2, #0
 1503              	.LVL107:
 1504              	.L105:
 477:../../../lib/pd2dsy/libdaisy/src/hid/disp/display.h ****             result++;
 1505              		.loc 4 477 25 view .LVU310
 1506 0020 10F8013B 		ldrb	r3, [r0], #1	@ zero_extendqisi2
 1507              	.LVL108:
 478:../../../lib/pd2dsy/libdaisy/src/hid/disp/display.h ****         return result;
 1508              		.loc 4 478 13 view .LVU311
 1509 0024 0132     		adds	r2, r2, #1
 1510              	.LVL109:
 477:../../../lib/pd2dsy/libdaisy/src/hid/disp/display.h ****             result++;
 1511              		.loc 4 477 25 is_stmt 1 view .LVU312
 1512 0026 002B     		cmp	r3, #0
 1513 0028 FAD1     		bne	.L105
 1514              	.LBE795:
 1515              	.LBE798:
 483:../../../lib/pd2dsy/libdaisy/src/hid/disp/display.h ****     {
 484:../../../lib/pd2dsy/libdaisy/src/hid/disp/display.h ****         const auto numChars = strlen(text);
 485:../../../lib/pd2dsy/libdaisy/src/hid/disp/display.h ****         return {int16_t(numChars * font.FontWidth), font.FontHeight};
 1516              		.loc 4 485 68 is_stmt 0 view .LVU313
 1517 002a 93B2     		uxth	r3, r2
ARM GAS  /var/folders/fb/yfxt3z4538j6z0vjt03w70vc0000gn/T//ccrD3Rdr.s 			page 56


 1518              	.LVL110:
 1519              	.L104:
 1520              		.loc 4 485 68 view .LVU314
 1521 002c 2A78     		ldrb	r2, [r5]	@ zero_extendqisi2
 1522              		.loc 4 485 58 view .LVU315
 1523 002e 6878     		ldrb	r0, [r5, #1]	@ zero_extendqisi2
 1524              		.loc 4 485 68 view .LVU316
 1525 0030 12FB03F3 		smulbb	r3, r2, r3
 1526 0034 02B2     		sxth	r2, r0
 1527              	.LVL111:
 1528              	.LBB799:
 1529              	.LBI799:
 1530              		.file 15 "../../../lib/pd2dsy/libdaisy/src/hid/disp/graphics_common.h"
   1:../../../lib/pd2dsy/libdaisy/src/hid/disp/graphics_common.h **** #pragma once
   2:../../../lib/pd2dsy/libdaisy/src/hid/disp/graphics_common.h **** 
   3:../../../lib/pd2dsy/libdaisy/src/hid/disp/graphics_common.h **** #include <cstdint>
   4:../../../lib/pd2dsy/libdaisy/src/hid/disp/graphics_common.h **** 
   5:../../../lib/pd2dsy/libdaisy/src/hid/disp/graphics_common.h **** namespace daisy
   6:../../../lib/pd2dsy/libdaisy/src/hid/disp/graphics_common.h **** {
   7:../../../lib/pd2dsy/libdaisy/src/hid/disp/graphics_common.h **** /** Justifications */
   8:../../../lib/pd2dsy/libdaisy/src/hid/disp/graphics_common.h **** enum class Alignment
   9:../../../lib/pd2dsy/libdaisy/src/hid/disp/graphics_common.h **** {
  10:../../../lib/pd2dsy/libdaisy/src/hid/disp/graphics_common.h ****     centered,
  11:../../../lib/pd2dsy/libdaisy/src/hid/disp/graphics_common.h ****     topLeft,
  12:../../../lib/pd2dsy/libdaisy/src/hid/disp/graphics_common.h ****     topCentered,
  13:../../../lib/pd2dsy/libdaisy/src/hid/disp/graphics_common.h ****     topRight,
  14:../../../lib/pd2dsy/libdaisy/src/hid/disp/graphics_common.h ****     bottomLeft,
  15:../../../lib/pd2dsy/libdaisy/src/hid/disp/graphics_common.h ****     bottomCentered,
  16:../../../lib/pd2dsy/libdaisy/src/hid/disp/graphics_common.h ****     bottomRight,
  17:../../../lib/pd2dsy/libdaisy/src/hid/disp/graphics_common.h ****     centeredLeft,
  18:../../../lib/pd2dsy/libdaisy/src/hid/disp/graphics_common.h ****     centeredRight
  19:../../../lib/pd2dsy/libdaisy/src/hid/disp/graphics_common.h **** };
  20:../../../lib/pd2dsy/libdaisy/src/hid/disp/graphics_common.h **** 
  21:../../../lib/pd2dsy/libdaisy/src/hid/disp/graphics_common.h **** class Rectangle
  22:../../../lib/pd2dsy/libdaisy/src/hid/disp/graphics_common.h **** {
  23:../../../lib/pd2dsy/libdaisy/src/hid/disp/graphics_common.h ****   public:
  24:../../../lib/pd2dsy/libdaisy/src/hid/disp/graphics_common.h ****     Rectangle() : x_(0), y_(0), width_(0), height_(0) {}
  25:../../../lib/pd2dsy/libdaisy/src/hid/disp/graphics_common.h **** 
  26:../../../lib/pd2dsy/libdaisy/src/hid/disp/graphics_common.h ****     Rectangle(int16_t width, int16_t height)
 1531              		.loc 15 26 5 is_stmt 1 view .LVU317
 1532              	.LBB800:
 1533              	.LBI800:
  27:../../../lib/pd2dsy/libdaisy/src/hid/disp/graphics_common.h ****     : x_(0), y_(0), width_(max(0, width)), height_(max(0, height))
  28:../../../lib/pd2dsy/libdaisy/src/hid/disp/graphics_common.h ****     {
  29:../../../lib/pd2dsy/libdaisy/src/hid/disp/graphics_common.h ****     }
  30:../../../lib/pd2dsy/libdaisy/src/hid/disp/graphics_common.h **** 
  31:../../../lib/pd2dsy/libdaisy/src/hid/disp/graphics_common.h ****     Rectangle(int16_t x, int16_t y, int16_t width, int16_t height)
  32:../../../lib/pd2dsy/libdaisy/src/hid/disp/graphics_common.h ****     : x_(x), y_(y), width_(max(0, width)), height_(max(0, height))
  33:../../../lib/pd2dsy/libdaisy/src/hid/disp/graphics_common.h ****     {
  34:../../../lib/pd2dsy/libdaisy/src/hid/disp/graphics_common.h ****     }
  35:../../../lib/pd2dsy/libdaisy/src/hid/disp/graphics_common.h **** 
  36:../../../lib/pd2dsy/libdaisy/src/hid/disp/graphics_common.h ****     Rectangle(const Rectangle& other) { *this = other; }
  37:../../../lib/pd2dsy/libdaisy/src/hid/disp/graphics_common.h **** 
  38:../../../lib/pd2dsy/libdaisy/src/hid/disp/graphics_common.h ****     Rectangle& operator=(const Rectangle& other)
  39:../../../lib/pd2dsy/libdaisy/src/hid/disp/graphics_common.h ****     {
  40:../../../lib/pd2dsy/libdaisy/src/hid/disp/graphics_common.h ****         x_      = other.x_;
  41:../../../lib/pd2dsy/libdaisy/src/hid/disp/graphics_common.h ****         y_      = other.y_;
ARM GAS  /var/folders/fb/yfxt3z4538j6z0vjt03w70vc0000gn/T//ccrD3Rdr.s 			page 57


  42:../../../lib/pd2dsy/libdaisy/src/hid/disp/graphics_common.h ****         width_  = other.width_;
  43:../../../lib/pd2dsy/libdaisy/src/hid/disp/graphics_common.h ****         height_ = other.height_;
  44:../../../lib/pd2dsy/libdaisy/src/hid/disp/graphics_common.h ****         return *this;
  45:../../../lib/pd2dsy/libdaisy/src/hid/disp/graphics_common.h ****     }
  46:../../../lib/pd2dsy/libdaisy/src/hid/disp/graphics_common.h **** 
  47:../../../lib/pd2dsy/libdaisy/src/hid/disp/graphics_common.h ****     bool operator==(const Rectangle& other) const
  48:../../../lib/pd2dsy/libdaisy/src/hid/disp/graphics_common.h ****     {
  49:../../../lib/pd2dsy/libdaisy/src/hid/disp/graphics_common.h ****         return (x_ == other.x_) && (y_ == other.y_) && (width_ == other.width_)
  50:../../../lib/pd2dsy/libdaisy/src/hid/disp/graphics_common.h ****                && (height_ == other.height_);
  51:../../../lib/pd2dsy/libdaisy/src/hid/disp/graphics_common.h ****     }
  52:../../../lib/pd2dsy/libdaisy/src/hid/disp/graphics_common.h ****     bool operator!=(const Rectangle& other) const { return !(*this == other); }
  53:../../../lib/pd2dsy/libdaisy/src/hid/disp/graphics_common.h **** 
  54:../../../lib/pd2dsy/libdaisy/src/hid/disp/graphics_common.h ****     bool IsEmpty() const { return (width_ <= 0) || (height_ <= 0); }
  55:../../../lib/pd2dsy/libdaisy/src/hid/disp/graphics_common.h **** 
  56:../../../lib/pd2dsy/libdaisy/src/hid/disp/graphics_common.h ****     int16_t GetX() const { return x_; }
  57:../../../lib/pd2dsy/libdaisy/src/hid/disp/graphics_common.h ****     int16_t GetY() const { return y_; }
  58:../../../lib/pd2dsy/libdaisy/src/hid/disp/graphics_common.h ****     int16_t GetWidth() const { return width_; }
  59:../../../lib/pd2dsy/libdaisy/src/hid/disp/graphics_common.h ****     int16_t GetHeight() const { return height_; }
  60:../../../lib/pd2dsy/libdaisy/src/hid/disp/graphics_common.h ****     int16_t GetRight() const { return x_ + width_; }
  61:../../../lib/pd2dsy/libdaisy/src/hid/disp/graphics_common.h ****     int16_t GetBottom() const { return y_ + height_; }
  62:../../../lib/pd2dsy/libdaisy/src/hid/disp/graphics_common.h ****     int16_t GetCenterX() const { return x_ + width_ / 2; }
  63:../../../lib/pd2dsy/libdaisy/src/hid/disp/graphics_common.h ****     int16_t GetCenterY() const { return y_ + height_ / 2; }
  64:../../../lib/pd2dsy/libdaisy/src/hid/disp/graphics_common.h **** 
  65:../../../lib/pd2dsy/libdaisy/src/hid/disp/graphics_common.h ****     Rectangle WithX(int16_t x) const { return {x, y_, width_, height_}; }
  66:../../../lib/pd2dsy/libdaisy/src/hid/disp/graphics_common.h ****     Rectangle WithY(int16_t y) const { return {x_, y, width_, height_}; }
  67:../../../lib/pd2dsy/libdaisy/src/hid/disp/graphics_common.h ****     Rectangle WithWidth(int16_t width) const
  68:../../../lib/pd2dsy/libdaisy/src/hid/disp/graphics_common.h ****     {
  69:../../../lib/pd2dsy/libdaisy/src/hid/disp/graphics_common.h ****         return {x_, y_, width, height_};
  70:../../../lib/pd2dsy/libdaisy/src/hid/disp/graphics_common.h ****     }
  71:../../../lib/pd2dsy/libdaisy/src/hid/disp/graphics_common.h ****     Rectangle WithHeight(int16_t height) const
  72:../../../lib/pd2dsy/libdaisy/src/hid/disp/graphics_common.h ****     {
  73:../../../lib/pd2dsy/libdaisy/src/hid/disp/graphics_common.h ****         return {x_, y_, width_, height};
  74:../../../lib/pd2dsy/libdaisy/src/hid/disp/graphics_common.h ****     }
  75:../../../lib/pd2dsy/libdaisy/src/hid/disp/graphics_common.h ****     Rectangle WithSize(int16_t width, int16_t height) const
  76:../../../lib/pd2dsy/libdaisy/src/hid/disp/graphics_common.h ****     {
  77:../../../lib/pd2dsy/libdaisy/src/hid/disp/graphics_common.h ****         return {x_, y_, width, height};
  78:../../../lib/pd2dsy/libdaisy/src/hid/disp/graphics_common.h ****     }
  79:../../../lib/pd2dsy/libdaisy/src/hid/disp/graphics_common.h ****     Rectangle WithWidthKeepingCenter(int16_t width) const
  80:../../../lib/pd2dsy/libdaisy/src/hid/disp/graphics_common.h ****     {
  81:../../../lib/pd2dsy/libdaisy/src/hid/disp/graphics_common.h ****         return Rectangle(x_, y_, width, height_)
  82:../../../lib/pd2dsy/libdaisy/src/hid/disp/graphics_common.h ****             .WithCenter(GetCenterX(), GetCenterY());
  83:../../../lib/pd2dsy/libdaisy/src/hid/disp/graphics_common.h ****     }
  84:../../../lib/pd2dsy/libdaisy/src/hid/disp/graphics_common.h ****     Rectangle WithHeightKeepingCenter(int16_t height) const
  85:../../../lib/pd2dsy/libdaisy/src/hid/disp/graphics_common.h ****     {
  86:../../../lib/pd2dsy/libdaisy/src/hid/disp/graphics_common.h ****         return Rectangle(x_, y_, width_, height)
  87:../../../lib/pd2dsy/libdaisy/src/hid/disp/graphics_common.h ****             .WithCenter(GetCenterX(), GetCenterY());
  88:../../../lib/pd2dsy/libdaisy/src/hid/disp/graphics_common.h ****     }
  89:../../../lib/pd2dsy/libdaisy/src/hid/disp/graphics_common.h ****     Rectangle WithSizeKeepingCenter(int16_t width, int16_t height) const
  90:../../../lib/pd2dsy/libdaisy/src/hid/disp/graphics_common.h ****     {
  91:../../../lib/pd2dsy/libdaisy/src/hid/disp/graphics_common.h ****         return Rectangle(x_, y_, width, height)
  92:../../../lib/pd2dsy/libdaisy/src/hid/disp/graphics_common.h ****             .WithCenter(GetCenterX(), GetCenterY());
  93:../../../lib/pd2dsy/libdaisy/src/hid/disp/graphics_common.h ****     }
  94:../../../lib/pd2dsy/libdaisy/src/hid/disp/graphics_common.h **** 
  95:../../../lib/pd2dsy/libdaisy/src/hid/disp/graphics_common.h ****     Rectangle Reduced(int16_t sizeToReduce) const
  96:../../../lib/pd2dsy/libdaisy/src/hid/disp/graphics_common.h ****     {
  97:../../../lib/pd2dsy/libdaisy/src/hid/disp/graphics_common.h ****         return {int16_t(x_ + sizeToReduce),
  98:../../../lib/pd2dsy/libdaisy/src/hid/disp/graphics_common.h ****                 int16_t(y_ + sizeToReduce),
ARM GAS  /var/folders/fb/yfxt3z4538j6z0vjt03w70vc0000gn/T//ccrD3Rdr.s 			page 58


  99:../../../lib/pd2dsy/libdaisy/src/hid/disp/graphics_common.h ****                 int16_t(width_ - 2 * sizeToReduce),
 100:../../../lib/pd2dsy/libdaisy/src/hid/disp/graphics_common.h ****                 int16_t(height_ - 2 * sizeToReduce)};
 101:../../../lib/pd2dsy/libdaisy/src/hid/disp/graphics_common.h ****     }
 102:../../../lib/pd2dsy/libdaisy/src/hid/disp/graphics_common.h ****     Rectangle Reduced(int16_t xToReduce, int16_t yToReduce) const
 103:../../../lib/pd2dsy/libdaisy/src/hid/disp/graphics_common.h ****     {
 104:../../../lib/pd2dsy/libdaisy/src/hid/disp/graphics_common.h ****         return {int16_t(x_ + xToReduce),
 105:../../../lib/pd2dsy/libdaisy/src/hid/disp/graphics_common.h ****                 int16_t(y_ + yToReduce),
 106:../../../lib/pd2dsy/libdaisy/src/hid/disp/graphics_common.h ****                 int16_t(width_ - 2 * xToReduce),
 107:../../../lib/pd2dsy/libdaisy/src/hid/disp/graphics_common.h ****                 int16_t(height_ - 2 * yToReduce)};
 108:../../../lib/pd2dsy/libdaisy/src/hid/disp/graphics_common.h ****     }
 109:../../../lib/pd2dsy/libdaisy/src/hid/disp/graphics_common.h **** 
 110:../../../lib/pd2dsy/libdaisy/src/hid/disp/graphics_common.h ****     Rectangle Translated(int16_t x, int16_t y) const
 111:../../../lib/pd2dsy/libdaisy/src/hid/disp/graphics_common.h ****     {
 112:../../../lib/pd2dsy/libdaisy/src/hid/disp/graphics_common.h ****         return {int16_t(x_ + x), int16_t(y_ + y), width_, height_};
 113:../../../lib/pd2dsy/libdaisy/src/hid/disp/graphics_common.h ****     }
 114:../../../lib/pd2dsy/libdaisy/src/hid/disp/graphics_common.h **** 
 115:../../../lib/pd2dsy/libdaisy/src/hid/disp/graphics_common.h ****     Rectangle WithLeft(int16_t left) const
 116:../../../lib/pd2dsy/libdaisy/src/hid/disp/graphics_common.h ****     {
 117:../../../lib/pd2dsy/libdaisy/src/hid/disp/graphics_common.h ****         const auto newWidth = int16_t((x_ - left) + width_);
 118:../../../lib/pd2dsy/libdaisy/src/hid/disp/graphics_common.h ****         return {left, y_, newWidth, height_};
 119:../../../lib/pd2dsy/libdaisy/src/hid/disp/graphics_common.h ****     }
 120:../../../lib/pd2dsy/libdaisy/src/hid/disp/graphics_common.h **** 
 121:../../../lib/pd2dsy/libdaisy/src/hid/disp/graphics_common.h ****     Rectangle WithRight(int16_t right) const
 122:../../../lib/pd2dsy/libdaisy/src/hid/disp/graphics_common.h ****     {
 123:../../../lib/pd2dsy/libdaisy/src/hid/disp/graphics_common.h ****         const auto newWidth = int16_t(right - x_);
 124:../../../lib/pd2dsy/libdaisy/src/hid/disp/graphics_common.h ****         return {x_, y_, newWidth, height_};
 125:../../../lib/pd2dsy/libdaisy/src/hid/disp/graphics_common.h ****     }
 126:../../../lib/pd2dsy/libdaisy/src/hid/disp/graphics_common.h **** 
 127:../../../lib/pd2dsy/libdaisy/src/hid/disp/graphics_common.h ****     Rectangle WithTop(int16_t top) const
 128:../../../lib/pd2dsy/libdaisy/src/hid/disp/graphics_common.h ****     {
 129:../../../lib/pd2dsy/libdaisy/src/hid/disp/graphics_common.h ****         const auto newHeight = int16_t((y_ - top) + height_);
 130:../../../lib/pd2dsy/libdaisy/src/hid/disp/graphics_common.h ****         return {x_, top, width_, newHeight};
 131:../../../lib/pd2dsy/libdaisy/src/hid/disp/graphics_common.h ****     }
 132:../../../lib/pd2dsy/libdaisy/src/hid/disp/graphics_common.h **** 
 133:../../../lib/pd2dsy/libdaisy/src/hid/disp/graphics_common.h ****     Rectangle WithBottom(int16_t bottom) const
 134:../../../lib/pd2dsy/libdaisy/src/hid/disp/graphics_common.h ****     {
 135:../../../lib/pd2dsy/libdaisy/src/hid/disp/graphics_common.h ****         const auto newHeight = int16_t(bottom - y_);
 136:../../../lib/pd2dsy/libdaisy/src/hid/disp/graphics_common.h ****         return {x_, y_, width_, newHeight};
 137:../../../lib/pd2dsy/libdaisy/src/hid/disp/graphics_common.h ****     }
 138:../../../lib/pd2dsy/libdaisy/src/hid/disp/graphics_common.h **** 
 139:../../../lib/pd2dsy/libdaisy/src/hid/disp/graphics_common.h ****     Rectangle WithTrimmedLeft(int16_t pxToTrim) const
 140:../../../lib/pd2dsy/libdaisy/src/hid/disp/graphics_common.h ****     {
 141:../../../lib/pd2dsy/libdaisy/src/hid/disp/graphics_common.h ****         return {
 142:../../../lib/pd2dsy/libdaisy/src/hid/disp/graphics_common.h ****             int16_t(x_ + pxToTrim), y_, int16_t(width_ - pxToTrim), height_};
 143:../../../lib/pd2dsy/libdaisy/src/hid/disp/graphics_common.h ****     }
 144:../../../lib/pd2dsy/libdaisy/src/hid/disp/graphics_common.h **** 
 145:../../../lib/pd2dsy/libdaisy/src/hid/disp/graphics_common.h ****     Rectangle WithTrimmedRight(int16_t pxToTrim) const
 146:../../../lib/pd2dsy/libdaisy/src/hid/disp/graphics_common.h ****     {
 147:../../../lib/pd2dsy/libdaisy/src/hid/disp/graphics_common.h ****         return {x_, y_, int16_t(width_ - pxToTrim), height_};
 148:../../../lib/pd2dsy/libdaisy/src/hid/disp/graphics_common.h ****     }
 149:../../../lib/pd2dsy/libdaisy/src/hid/disp/graphics_common.h **** 
 150:../../../lib/pd2dsy/libdaisy/src/hid/disp/graphics_common.h ****     Rectangle WithTrimmedTop(int16_t pxToTrim) const
 151:../../../lib/pd2dsy/libdaisy/src/hid/disp/graphics_common.h ****     {
 152:../../../lib/pd2dsy/libdaisy/src/hid/disp/graphics_common.h ****         return {
 153:../../../lib/pd2dsy/libdaisy/src/hid/disp/graphics_common.h ****             x_, int16_t(y_ + pxToTrim), width_, int16_t(height_ - pxToTrim)};
 154:../../../lib/pd2dsy/libdaisy/src/hid/disp/graphics_common.h ****     }
 155:../../../lib/pd2dsy/libdaisy/src/hid/disp/graphics_common.h **** 
ARM GAS  /var/folders/fb/yfxt3z4538j6z0vjt03w70vc0000gn/T//ccrD3Rdr.s 			page 59


 156:../../../lib/pd2dsy/libdaisy/src/hid/disp/graphics_common.h ****     Rectangle WithTrimmedBottom(int16_t pxToTrim) const
 157:../../../lib/pd2dsy/libdaisy/src/hid/disp/graphics_common.h ****     {
 158:../../../lib/pd2dsy/libdaisy/src/hid/disp/graphics_common.h ****         return {x_, y_, width_, int16_t(height_ - pxToTrim)};
 159:../../../lib/pd2dsy/libdaisy/src/hid/disp/graphics_common.h ****     }
 160:../../../lib/pd2dsy/libdaisy/src/hid/disp/graphics_common.h **** 
 161:../../../lib/pd2dsy/libdaisy/src/hid/disp/graphics_common.h ****     Rectangle WithCenterX(int16_t centerX) const
 162:../../../lib/pd2dsy/libdaisy/src/hid/disp/graphics_common.h ****     {
 163:../../../lib/pd2dsy/libdaisy/src/hid/disp/graphics_common.h ****         return {int16_t(x_ + centerX - GetCenterX()), y_, width_, height_};
 164:../../../lib/pd2dsy/libdaisy/src/hid/disp/graphics_common.h ****     }
 165:../../../lib/pd2dsy/libdaisy/src/hid/disp/graphics_common.h **** 
 166:../../../lib/pd2dsy/libdaisy/src/hid/disp/graphics_common.h ****     Rectangle WithCenterY(int16_t centerY) const
 167:../../../lib/pd2dsy/libdaisy/src/hid/disp/graphics_common.h ****     {
 168:../../../lib/pd2dsy/libdaisy/src/hid/disp/graphics_common.h ****         return {x_, int16_t(y_ + centerY - GetCenterY()), width_, height_};
 169:../../../lib/pd2dsy/libdaisy/src/hid/disp/graphics_common.h ****     }
 170:../../../lib/pd2dsy/libdaisy/src/hid/disp/graphics_common.h **** 
 171:../../../lib/pd2dsy/libdaisy/src/hid/disp/graphics_common.h ****     Rectangle WithCenter(int16_t centerX, int16_t centerY) const
 172:../../../lib/pd2dsy/libdaisy/src/hid/disp/graphics_common.h ****     {
 173:../../../lib/pd2dsy/libdaisy/src/hid/disp/graphics_common.h ****         return {int16_t(x_ + centerX - GetCenterX()),
 174:../../../lib/pd2dsy/libdaisy/src/hid/disp/graphics_common.h ****                 int16_t(y_ + centerY - GetCenterY()),
 175:../../../lib/pd2dsy/libdaisy/src/hid/disp/graphics_common.h ****                 width_,
 176:../../../lib/pd2dsy/libdaisy/src/hid/disp/graphics_common.h ****                 height_};
 177:../../../lib/pd2dsy/libdaisy/src/hid/disp/graphics_common.h ****     }
 178:../../../lib/pd2dsy/libdaisy/src/hid/disp/graphics_common.h **** 
 179:../../../lib/pd2dsy/libdaisy/src/hid/disp/graphics_common.h ****     Rectangle RemoveFromLeft(int16_t pxToRemove)
 180:../../../lib/pd2dsy/libdaisy/src/hid/disp/graphics_common.h ****     {
 181:../../../lib/pd2dsy/libdaisy/src/hid/disp/graphics_common.h ****         const auto result = this->WithWidth(min(pxToRemove, width_));
 182:../../../lib/pd2dsy/libdaisy/src/hid/disp/graphics_common.h ****         x_ += min(pxToRemove, width_);
 183:../../../lib/pd2dsy/libdaisy/src/hid/disp/graphics_common.h ****         width_ = max(int16_t(width_ - pxToRemove), 0);
 184:../../../lib/pd2dsy/libdaisy/src/hid/disp/graphics_common.h ****         return result;
 185:../../../lib/pd2dsy/libdaisy/src/hid/disp/graphics_common.h ****     }
 186:../../../lib/pd2dsy/libdaisy/src/hid/disp/graphics_common.h **** 
 187:../../../lib/pd2dsy/libdaisy/src/hid/disp/graphics_common.h ****     Rectangle RemoveFromRight(int16_t pxToRemove)
 188:../../../lib/pd2dsy/libdaisy/src/hid/disp/graphics_common.h ****     {
 189:../../../lib/pd2dsy/libdaisy/src/hid/disp/graphics_common.h ****         const auto canRemove = min(pxToRemove, width_);
 190:../../../lib/pd2dsy/libdaisy/src/hid/disp/graphics_common.h ****         width_ -= canRemove;
 191:../../../lib/pd2dsy/libdaisy/src/hid/disp/graphics_common.h ****         return {int16_t(x_ + width_), y_, canRemove, height_};
 192:../../../lib/pd2dsy/libdaisy/src/hid/disp/graphics_common.h ****     }
 193:../../../lib/pd2dsy/libdaisy/src/hid/disp/graphics_common.h **** 
 194:../../../lib/pd2dsy/libdaisy/src/hid/disp/graphics_common.h ****     Rectangle RemoveFromTop(int16_t pxToRemove)
 195:../../../lib/pd2dsy/libdaisy/src/hid/disp/graphics_common.h ****     {
 196:../../../lib/pd2dsy/libdaisy/src/hid/disp/graphics_common.h ****         const auto result = this->WithHeight(min(pxToRemove, height_));
 197:../../../lib/pd2dsy/libdaisy/src/hid/disp/graphics_common.h ****         y_ += min(pxToRemove, height_);
 198:../../../lib/pd2dsy/libdaisy/src/hid/disp/graphics_common.h ****         height_ = max(height_ - pxToRemove, 0);
 199:../../../lib/pd2dsy/libdaisy/src/hid/disp/graphics_common.h ****         return result;
 200:../../../lib/pd2dsy/libdaisy/src/hid/disp/graphics_common.h ****     }
 201:../../../lib/pd2dsy/libdaisy/src/hid/disp/graphics_common.h **** 
 202:../../../lib/pd2dsy/libdaisy/src/hid/disp/graphics_common.h ****     Rectangle RemoveFromBottom(int16_t pxToRemove)
 203:../../../lib/pd2dsy/libdaisy/src/hid/disp/graphics_common.h ****     {
 204:../../../lib/pd2dsy/libdaisy/src/hid/disp/graphics_common.h ****         const auto canRemove = min(pxToRemove, height_);
 205:../../../lib/pd2dsy/libdaisy/src/hid/disp/graphics_common.h ****         height_ -= canRemove;
 206:../../../lib/pd2dsy/libdaisy/src/hid/disp/graphics_common.h ****         return {x_, int16_t(y_ + height_), width_, canRemove};
 207:../../../lib/pd2dsy/libdaisy/src/hid/disp/graphics_common.h ****     }
 208:../../../lib/pd2dsy/libdaisy/src/hid/disp/graphics_common.h **** 
 209:../../../lib/pd2dsy/libdaisy/src/hid/disp/graphics_common.h ****     Rectangle AlignedWithin(const Rectangle& other, Alignment alignment) const
 210:../../../lib/pd2dsy/libdaisy/src/hid/disp/graphics_common.h ****     {
 211:../../../lib/pd2dsy/libdaisy/src/hid/disp/graphics_common.h ****         switch(alignment)
 212:../../../lib/pd2dsy/libdaisy/src/hid/disp/graphics_common.h ****         {
ARM GAS  /var/folders/fb/yfxt3z4538j6z0vjt03w70vc0000gn/T//ccrD3Rdr.s 			page 60


 213:../../../lib/pd2dsy/libdaisy/src/hid/disp/graphics_common.h ****             case Alignment::topLeft:
 214:../../../lib/pd2dsy/libdaisy/src/hid/disp/graphics_common.h ****                 return {other.x_, other.y_, width_, height_};
 215:../../../lib/pd2dsy/libdaisy/src/hid/disp/graphics_common.h ****             case Alignment::topRight:
 216:../../../lib/pd2dsy/libdaisy/src/hid/disp/graphics_common.h ****                 return {int16_t(other.GetRight() - width_),
 217:../../../lib/pd2dsy/libdaisy/src/hid/disp/graphics_common.h ****                         other.y_,
 218:../../../lib/pd2dsy/libdaisy/src/hid/disp/graphics_common.h ****                         width_,
 219:../../../lib/pd2dsy/libdaisy/src/hid/disp/graphics_common.h ****                         height_};
 220:../../../lib/pd2dsy/libdaisy/src/hid/disp/graphics_common.h ****             case Alignment::topCentered:
 221:../../../lib/pd2dsy/libdaisy/src/hid/disp/graphics_common.h ****                 return {int16_t(x_ + (other.GetCenterX() - GetCenterX())),
 222:../../../lib/pd2dsy/libdaisy/src/hid/disp/graphics_common.h ****                         other.y_,
 223:../../../lib/pd2dsy/libdaisy/src/hid/disp/graphics_common.h ****                         width_,
 224:../../../lib/pd2dsy/libdaisy/src/hid/disp/graphics_common.h ****                         height_};
 225:../../../lib/pd2dsy/libdaisy/src/hid/disp/graphics_common.h ****             case Alignment::bottomLeft:
 226:../../../lib/pd2dsy/libdaisy/src/hid/disp/graphics_common.h ****                 return {other.x_,
 227:../../../lib/pd2dsy/libdaisy/src/hid/disp/graphics_common.h ****                         int16_t(other.GetBottom() - height_),
 228:../../../lib/pd2dsy/libdaisy/src/hid/disp/graphics_common.h ****                         width_,
 229:../../../lib/pd2dsy/libdaisy/src/hid/disp/graphics_common.h ****                         height_};
 230:../../../lib/pd2dsy/libdaisy/src/hid/disp/graphics_common.h ****             case Alignment::bottomRight:
 231:../../../lib/pd2dsy/libdaisy/src/hid/disp/graphics_common.h ****                 return {int16_t(other.GetRight() - width_),
 232:../../../lib/pd2dsy/libdaisy/src/hid/disp/graphics_common.h ****                         int16_t(other.GetBottom() - height_),
 233:../../../lib/pd2dsy/libdaisy/src/hid/disp/graphics_common.h ****                         width_,
 234:../../../lib/pd2dsy/libdaisy/src/hid/disp/graphics_common.h ****                         height_};
 235:../../../lib/pd2dsy/libdaisy/src/hid/disp/graphics_common.h ****             case Alignment::bottomCentered:
 236:../../../lib/pd2dsy/libdaisy/src/hid/disp/graphics_common.h ****                 return {int16_t(x_ + (other.GetCenterX() - GetCenterX())),
 237:../../../lib/pd2dsy/libdaisy/src/hid/disp/graphics_common.h ****                         int16_t(other.GetBottom() - height_),
 238:../../../lib/pd2dsy/libdaisy/src/hid/disp/graphics_common.h ****                         width_,
 239:../../../lib/pd2dsy/libdaisy/src/hid/disp/graphics_common.h ****                         height_};
 240:../../../lib/pd2dsy/libdaisy/src/hid/disp/graphics_common.h ****             case Alignment::centeredLeft:
 241:../../../lib/pd2dsy/libdaisy/src/hid/disp/graphics_common.h ****                 return {other.x_,
 242:../../../lib/pd2dsy/libdaisy/src/hid/disp/graphics_common.h ****                         int16_t(y_ + (other.GetCenterY() - GetCenterY())),
 243:../../../lib/pd2dsy/libdaisy/src/hid/disp/graphics_common.h ****                         width_,
 244:../../../lib/pd2dsy/libdaisy/src/hid/disp/graphics_common.h ****                         height_};
 245:../../../lib/pd2dsy/libdaisy/src/hid/disp/graphics_common.h ****             case Alignment::centeredRight:
 246:../../../lib/pd2dsy/libdaisy/src/hid/disp/graphics_common.h ****                 return {int16_t(other.GetRight() - width_),
 247:../../../lib/pd2dsy/libdaisy/src/hid/disp/graphics_common.h ****                         int16_t(y_ + (other.GetCenterY() - GetCenterY())),
 248:../../../lib/pd2dsy/libdaisy/src/hid/disp/graphics_common.h ****                         width_,
 249:../../../lib/pd2dsy/libdaisy/src/hid/disp/graphics_common.h ****                         height_};
 250:../../../lib/pd2dsy/libdaisy/src/hid/disp/graphics_common.h ****             case Alignment::centered:
 251:../../../lib/pd2dsy/libdaisy/src/hid/disp/graphics_common.h ****                 return {int16_t(x_ + (other.GetCenterX() - GetCenterX())),
 252:../../../lib/pd2dsy/libdaisy/src/hid/disp/graphics_common.h ****                         int16_t(y_ + (other.GetCenterY() - GetCenterY())),
 253:../../../lib/pd2dsy/libdaisy/src/hid/disp/graphics_common.h ****                         width_,
 254:../../../lib/pd2dsy/libdaisy/src/hid/disp/graphics_common.h ****                         height_};
 255:../../../lib/pd2dsy/libdaisy/src/hid/disp/graphics_common.h ****             default: return {};
 256:../../../lib/pd2dsy/libdaisy/src/hid/disp/graphics_common.h ****         }
 257:../../../lib/pd2dsy/libdaisy/src/hid/disp/graphics_common.h ****     }
 258:../../../lib/pd2dsy/libdaisy/src/hid/disp/graphics_common.h **** 
 259:../../../lib/pd2dsy/libdaisy/src/hid/disp/graphics_common.h ****   private:
 260:../../../lib/pd2dsy/libdaisy/src/hid/disp/graphics_common.h ****     int16_t x_, y_, width_, height_;
 261:../../../lib/pd2dsy/libdaisy/src/hid/disp/graphics_common.h ****     int16_t max(int16_t a, int16_t b) { return (a > b) ? a : b; }
 1534              		.loc 15 261 13 view .LVU318
 1535              	.LBE800:
 1536              	.LBE799:
 1537              	.LBE805:
 1538              	.LBE809:
 1539              		.loc 15 261 41 view .LVU319
 1540              	.LBB810:
 1541              	.LBB806:
ARM GAS  /var/folders/fb/yfxt3z4538j6z0vjt03w70vc0000gn/T//ccrD3Rdr.s 			page 61


 1542              	.LBB802:
 1543              	.LBB801:
 1544              	.LBI801:
 1545              		.loc 15 261 13 view .LVU320
 1546              	.LBE801:
 1547              	.LBE802:
 1548              	.LBE806:
 1549              	.LBE810:
 1550              		.loc 15 261 41 view .LVU321
 1551              	.LBB811:
 1552              	.LBI811:
 209:../../../lib/pd2dsy/libdaisy/src/hid/disp/graphics_common.h ****     {
 1553              		.loc 15 209 15 view .LVU322
 1554              	.LBB812:
 211:../../../lib/pd2dsy/libdaisy/src/hid/disp/graphics_common.h ****         {
 1555              		.loc 15 211 9 view .LVU323
 1556 0036 1BB2     		sxth	r3, r3
 1557 0038 23EAE373 		bic	r3, r3, r3, asr #31
 1558 003c 0829     		cmp	r1, #8
 1559 003e 00F2A681 		bhi	.L106
 1560 0042 DFE811F0 		tbh	[pc, r1, lsl #1]
 1561              	.L108:
 1562 0046 0101     		.2byte	(.L116-.L108)/2
 1563 0048 1301     		.2byte	(.L115-.L108)/2
 1564 004a 1F01     		.2byte	(.L114-.L108)/2
 1565 004c 3301     		.2byte	(.L113-.L108)/2
 1566 004e 4101     		.2byte	(.L112-.L108)/2
 1567 0050 4F01     		.2byte	(.L111-.L108)/2
 1568 0052 6601     		.2byte	(.L110-.L108)/2
 1569 0054 6F01     		.2byte	(.L109-.L108)/2
 1570 0056 0900     		.2byte	(.L107-.L108)/2
 1571              		.p2align 1
 1572              	.L107:
 245:../../../lib/pd2dsy/libdaisy/src/hid/disp/graphics_common.h ****                 return {int16_t(other.GetRight() - width_),
 1573              		.loc 15 245 13 view .LVU324
 246:../../../lib/pd2dsy/libdaisy/src/hid/disp/graphics_common.h ****                         int16_t(y_ + (other.GetCenterY() - GetCenterY())),
 1574              		.loc 15 246 17 view .LVU325
 1575              	.LVL112:
 1576              	.LBB813:
 1577              	.LBI813:
  60:../../../lib/pd2dsy/libdaisy/src/hid/disp/graphics_common.h ****     int16_t GetBottom() const { return y_ + height_; }
 1578              		.loc 15 60 13 view .LVU326
 1579              	.LBB814:
  60:../../../lib/pd2dsy/libdaisy/src/hid/disp/graphics_common.h ****     int16_t GetBottom() const { return y_ + height_; }
 1580              		.loc 15 60 32 view .LVU327
  60:../../../lib/pd2dsy/libdaisy/src/hid/disp/graphics_common.h ****     int16_t GetBottom() const { return y_ + height_; }
 1581              		.loc 15 60 42 is_stmt 0 view .LVU328
 1582 0058 A188     		ldrh	r1, [r4, #4]
 1583              	.LVL113:
  60:../../../lib/pd2dsy/libdaisy/src/hid/disp/graphics_common.h ****     int16_t GetBottom() const { return y_ + height_; }
 1584              		.loc 15 60 42 view .LVU329
 1585 005a 2788     		ldrh	r7, [r4]
 1586 005c 0F44     		add	r7, r7, r1
 1587              	.LBE814:
 1588              	.LBE813:
 1589              	.LBB815:
 1590              	.LBB816:
ARM GAS  /var/folders/fb/yfxt3z4538j6z0vjt03w70vc0000gn/T//ccrD3Rdr.s 			page 62


  63:../../../lib/pd2dsy/libdaisy/src/hid/disp/graphics_common.h **** 
 1591              		.loc 15 63 54 view .LVU330
 1592 005e B4F90610 		ldrsh	r1, [r4, #6]
 1593              	.LBE816:
 1594              	.LBE815:
 246:../../../lib/pd2dsy/libdaisy/src/hid/disp/graphics_common.h ****                         int16_t(y_ + (other.GetCenterY() - GetCenterY())),
 1595              		.loc 15 246 50 view .LVU331
 1596 0062 FF1A     		subs	r7, r7, r3
 1597              	.LBB820:
 1598              	.LBB817:
  63:../../../lib/pd2dsy/libdaisy/src/hid/disp/graphics_common.h **** 
 1599              		.loc 15 63 54 view .LVU332
 1600 0064 0029     		cmp	r1, #0
 1601              	.LBE817:
 1602              	.LBE820:
 246:../../../lib/pd2dsy/libdaisy/src/hid/disp/graphics_common.h ****                         int16_t(y_ + (other.GetCenterY() - GetCenterY())),
 1603              		.loc 15 246 50 view .LVU333
 1604 0066 BFB2     		uxth	r7, r7
 1605              	.LVL114:
 1606              	.LBB821:
 1607              	.LBI815:
  63:../../../lib/pd2dsy/libdaisy/src/hid/disp/graphics_common.h **** 
 1608              		.loc 15 63 13 is_stmt 1 view .LVU334
 1609              	.LBB818:
  63:../../../lib/pd2dsy/libdaisy/src/hid/disp/graphics_common.h **** 
 1610              		.loc 15 63 34 view .LVU335
  63:../../../lib/pd2dsy/libdaisy/src/hid/disp/graphics_common.h **** 
 1611              		.loc 15 63 34 is_stmt 0 view .LVU336
 1612              	.LBE818:
 1613              	.LBE821:
 1614              	.LBB822:
 1615              	.LBI822:
  63:../../../lib/pd2dsy/libdaisy/src/hid/disp/graphics_common.h **** 
 1616              		.loc 15 63 13 is_stmt 1 view .LVU337
 1617              	.LBB823:
  63:../../../lib/pd2dsy/libdaisy/src/hid/disp/graphics_common.h **** 
 1618              		.loc 15 63 34 view .LVU338
  63:../../../lib/pd2dsy/libdaisy/src/hid/disp/graphics_common.h **** 
 1619              		.loc 15 63 34 is_stmt 0 view .LVU339
 1620              	.LBE823:
 1621              	.LBE822:
 1622              	.LBB824:
 1623              	.LBB819:
  63:../../../lib/pd2dsy/libdaisy/src/hid/disp/graphics_common.h **** 
 1624              		.loc 15 63 54 view .LVU340
 1625 0068 C0F2FE80 		blt	.L179
 1626              	.L123:
  63:../../../lib/pd2dsy/libdaisy/src/hid/disp/graphics_common.h **** 
 1627              		.loc 15 63 54 view .LVU341
 1628              	.LBE819:
 1629              	.LBE824:
 1630              	.LBB825:
 1631              	.LBB826:
  63:../../../lib/pd2dsy/libdaisy/src/hid/disp/graphics_common.h **** 
 1632              		.loc 15 63 44 view .LVU342
 1633 006c 6488     		ldrh	r4, [r4, #2]
 1634              	.LVL115:
ARM GAS  /var/folders/fb/yfxt3z4538j6z0vjt03w70vc0000gn/T//ccrD3Rdr.s 			page 63


  63:../../../lib/pd2dsy/libdaisy/src/hid/disp/graphics_common.h **** 
 1635              		.loc 15 63 44 view .LVU343
 1636              	.LBE826:
 1637              	.LBE825:
 1638              	.LBB832:
 1639              	.LBB833:
 1640              	.LBB834:
  32:../../../lib/pd2dsy/libdaisy/src/hid/disp/graphics_common.h ****     {
 1641              		.loc 15 32 66 view .LVU344
 1642 006e 0698     		ldr	r0, [sp, #24]
 1643              	.LBE834:
 1644              	.LBE833:
 1645              	.LBE832:
 1646              	.LBB845:
 1647              	.LBB827:
  63:../../../lib/pd2dsy/libdaisy/src/hid/disp/graphics_common.h **** 
 1648              		.loc 15 63 44 view .LVU345
 1649 0070 04EB6104 		add	r4, r4, r1, asr #1
 1650              	.LBE827:
 1651              	.LBE845:
 1652              	.LBB846:
 1653              	.LBB841:
 1654              	.LBB837:
  32:../../../lib/pd2dsy/libdaisy/src/hid/disp/graphics_common.h ****     {
 1655              		.loc 15 32 66 view .LVU346
 1656 0074 C280     		strh	r2, [r0, #6]	@ movhi
 1657              	.LBE837:
 1658              	.LBE841:
 1659              	.LBE846:
 252:../../../lib/pd2dsy/libdaisy/src/hid/disp/graphics_common.h ****                         width_,
 1660              		.loc 15 252 58 view .LVU347
 1661 0076 A4EB5202 		sub	r2, r4, r2, lsr #1
 1662              	.LBB847:
 1663              	.LBB842:
 1664              	.LBB838:
  32:../../../lib/pd2dsy/libdaisy/src/hid/disp/graphics_common.h ****     {
 1665              		.loc 15 32 66 view .LVU348
 1666 007a 8380     		strh	r3, [r0, #4]	@ movhi
 1667 007c 0780     		strh	r7, [r0]	@ movhi
 1668              	.LBE838:
 1669              	.LBE842:
 1670              	.LBE847:
 252:../../../lib/pd2dsy/libdaisy/src/hid/disp/graphics_common.h ****                         width_,
 1671              		.loc 15 252 58 view .LVU349
 1672 007e 94B2     		uxth	r4, r2
 1673              	.LVL116:
 1674              	.LBB848:
 1675              	.LBI832:
  31:../../../lib/pd2dsy/libdaisy/src/hid/disp/graphics_common.h ****     : x_(x), y_(y), width_(max(0, width)), height_(max(0, height))
 1676              		.loc 15 31 5 is_stmt 1 view .LVU350
 1677              	.LBB843:
 1678              	.LBB839:
  32:../../../lib/pd2dsy/libdaisy/src/hid/disp/graphics_common.h ****     {
 1679              		.loc 15 32 66 is_stmt 0 view .LVU351
 1680 0080 4480     		strh	r4, [r0, #2]	@ movhi
 1681              	.LVL117:
 1682              	.LBB835:
ARM GAS  /var/folders/fb/yfxt3z4538j6z0vjt03w70vc0000gn/T//ccrD3Rdr.s 			page 64


 1683              	.LBI835:
 1684              		.loc 15 261 13 is_stmt 1 view .LVU352
 1685              	.LBE835:
 1686              	.LBE839:
 1687              	.LBE843:
 1688              	.LBE848:
 1689              	.LBE812:
 1690              	.LBE811:
 1691              		.loc 15 261 41 view .LVU353
 1692              	.LBB1037:
 1693              	.LBB1015:
 1694              	.LBB849:
 1695              	.LBB844:
 1696              	.LBB840:
 1697              	.LBB836:
 1698              	.LBI836:
 1699              		.loc 15 261 13 view .LVU354
 1700              	.LBE836:
 1701              	.LBE840:
 1702              	.LBE844:
 1703              	.LBE849:
 1704              	.LBE1015:
 1705              	.LBE1037:
 1706              		.loc 15 261 41 view .LVU355
 1707              	.L117:
  56:../../../lib/pd2dsy/libdaisy/src/hid/disp/graphics_common.h ****     int16_t GetY() const { return y_; }
 1708              		.loc 15 56 28 view .LVU356
  57:../../../lib/pd2dsy/libdaisy/src/hid/disp/graphics_common.h ****     int16_t GetWidth() const { return width_; }
 1709              		.loc 15 57 28 view .LVU357
 1710              	.LBB1038:
 1711              	.LBI1038:
 171:../../../lib/pd2dsy/libdaisy/src/hid/disp/display.h ****     {
 1712              		.loc 4 171 10 view .LVU358
 1713              	.LBB1039:
 173:../../../lib/pd2dsy/libdaisy/src/hid/disp/display.h ****         currentY_ = (y >= Height()) ? Height() - 1 : y;
 1714              		.loc 4 173 9 view .LVU359
 1715 0082 A64A     		ldr	r2, .L189
 173:../../../lib/pd2dsy/libdaisy/src/hid/disp/display.h ****         currentY_ = (y >= Height()) ? Height() - 1 : y;
 1716              		.loc 4 173 33 is_stmt 0 view .LVU360
 1717 0084 D8F80030 		ldr	r3, [r8]
 1718 0088 1146     		mov	r1, r2
 1719 008a 0192     		str	r2, [sp, #4]
 1720 008c DA68     		ldr	r2, [r3, #12]
 1721 008e 8A42     		cmp	r2, r1
 1722 0090 40F08B81 		bne	.L125
 1723 0094 8020     		movs	r0, #128
 1724              	.LVL118:
 1725              	.L126:
 173:../../../lib/pd2dsy/libdaisy/src/hid/disp/display.h ****         currentY_ = (y >= Height()) ? Height() - 1 : y;
 1726              		.loc 4 173 19 view .LVU361
 1727 0096 B842     		cmp	r0, r7
 1728 0098 05D8     		bhi	.L127
 173:../../../lib/pd2dsy/libdaisy/src/hid/disp/display.h ****         currentY_ = (y >= Height()) ? Height() - 1 : y;
 1729              		.loc 4 173 44 view .LVU362
 1730 009a DA68     		ldr	r2, [r3, #12]
 1731 009c 0199     		ldr	r1, [sp, #4]
 1732 009e 8A42     		cmp	r2, r1
ARM GAS  /var/folders/fb/yfxt3z4538j6z0vjt03w70vc0000gn/T//ccrD3Rdr.s 			page 65


 1733 00a0 40F09881 		bne	.L180
 1734 00a4 7F27     		movs	r7, #127
 1735              	.L127:
 1736 00a6 9E4A     		ldr	r2, .L189+4
 174:../../../lib/pd2dsy/libdaisy/src/hid/disp/display.h ****     }
 1737              		.loc 4 174 34 view .LVU363
 1738 00a8 9B68     		ldr	r3, [r3, #8]
 173:../../../lib/pd2dsy/libdaisy/src/hid/disp/display.h ****         currentY_ = (y >= Height()) ? Height() - 1 : y;
 1739              		.loc 4 173 19 view .LVU364
 1740 00aa A8F80470 		strh	r7, [r8, #4]	@ movhi
 174:../../../lib/pd2dsy/libdaisy/src/hid/disp/display.h ****     }
 1741              		.loc 4 174 9 is_stmt 1 view .LVU365
 1742 00ae 9342     		cmp	r3, r2
 1743 00b0 0392     		str	r2, [sp, #12]
 1744 00b2 40F08781 		bne	.L157
 174:../../../lib/pd2dsy/libdaisy/src/hid/disp/display.h ****     }
 1745              		.loc 4 174 34 is_stmt 0 view .LVU366
 1746 00b6 4020     		movs	r0, #64
 1747              	.L129:
 174:../../../lib/pd2dsy/libdaisy/src/hid/disp/display.h ****     }
 1748              		.loc 4 174 19 view .LVU367
 1749 00b8 A042     		cmp	r0, r4
 1750 00ba 07D8     		bhi	.L131
 174:../../../lib/pd2dsy/libdaisy/src/hid/disp/display.h ****     }
 1751              		.loc 4 174 46 view .LVU368
 1752 00bc D8F80030 		ldr	r3, [r8]
 1753 00c0 039A     		ldr	r2, [sp, #12]
 1754 00c2 9B68     		ldr	r3, [r3, #8]
 1755 00c4 9342     		cmp	r3, r2
 1756 00c6 40F08081 		bne	.L181
 1757 00ca 3F24     		movs	r4, #63
 1758              	.L131:
 174:../../../lib/pd2dsy/libdaisy/src/hid/disp/display.h ****     }
 1759              		.loc 4 174 46 view .LVU369
 1760              	.LBE1039:
 1761              	.LBE1038:
 1762              	.LBB1043:
 1763              	.LBB1044:
 443:../../../lib/pd2dsy/libdaisy/src/hid/disp/display.h ****         {
 1764              		.loc 4 443 9 view .LVU370
 1765 00cc 009B     		ldr	r3, [sp]
 1766              	.LBE1044:
 1767              	.LBE1043:
 1768              	.LBB1092:
 1769              	.LBB1040:
 174:../../../lib/pd2dsy/libdaisy/src/hid/disp/display.h ****     }
 1770              		.loc 4 174 19 view .LVU371
 1771 00ce A8F80640 		strh	r4, [r8, #6]	@ movhi
 1772              	.LVL119:
 174:../../../lib/pd2dsy/libdaisy/src/hid/disp/display.h ****     }
 1773              		.loc 4 174 19 view .LVU372
 1774              	.LBE1040:
 1775              	.LBE1092:
 1776              	.LBB1093:
 1777              	.LBB1089:
 443:../../../lib/pd2dsy/libdaisy/src/hid/disp/display.h ****         {
 1778              		.loc 4 443 9 view .LVU373
ARM GAS  /var/folders/fb/yfxt3z4538j6z0vjt03w70vc0000gn/T//ccrD3Rdr.s 			page 66


 1779 00d2 93F800B0 		ldrb	fp, [r3]	@ zero_extendqisi2
 1780 00d6 6B78     		ldrb	r3, [r5, #1]	@ zero_extendqisi2
 1781              	.LVL120:
 443:../../../lib/pd2dsy/libdaisy/src/hid/disp/display.h ****         {
 1782              		.loc 4 443 9 view .LVU374
 1783 00d8 2C78     		ldrb	r4, [r5]	@ zero_extendqisi2
 1784              	.LVL121:
 443:../../../lib/pd2dsy/libdaisy/src/hid/disp/display.h ****         {
 1785              		.loc 4 443 9 view .LVU375
 1786 00da 0493     		str	r3, [sp, #16]
 1787              	.LVL122:
 443:../../../lib/pd2dsy/libdaisy/src/hid/disp/display.h ****         {
 1788              		.loc 4 443 9 view .LVU376
 1789 00dc 6B68     		ldr	r3, [r5, #4]
 1790 00de 0793     		str	r3, [sp, #28]
 1791              	.LVL123:
 443:../../../lib/pd2dsy/libdaisy/src/hid/disp/display.h ****         {
 1792              		.loc 4 443 9 view .LVU377
 1793              	.LBE1089:
 1794              	.LBI1043:
 440:../../../lib/pd2dsy/libdaisy/src/hid/disp/display.h ****     {
 1795              		.loc 4 440 10 is_stmt 1 view .LVU378
 1796              	.LBB1090:
 443:../../../lib/pd2dsy/libdaisy/src/hid/disp/display.h ****         {
 1797              		.loc 4 443 9 view .LVU379
 1798 00e0 BBF1000F 		cmp	fp, #0
 1799 00e4 00F0AC80 		beq	.L103
 1800              	.LVL124:
 1801              	.L133:
 1802              	.LBB1045:
 1803              	.LBI1045:
 396:../../../lib/pd2dsy/libdaisy/src/hid/disp/display.h ****     {
 1804              		.loc 4 396 10 view .LVU380
 1805              	.LBB1046:
 401:../../../lib/pd2dsy/libdaisy/src/hid/disp/display.h ****             return 0;
 1806              		.loc 4 401 20 is_stmt 0 view .LVU381
 1807 00e8 ABF12005 		sub	r5, fp, #32
 401:../../../lib/pd2dsy/libdaisy/src/hid/disp/display.h ****             return 0;
 1808              		.loc 4 401 9 view .LVU382
 1809 00ec EBB2     		uxtb	r3, r5
 1810 00ee 5E2B     		cmp	r3, #94
 1811 00f0 00F22C81 		bhi	.L137
 405:../../../lib/pd2dsy/libdaisy/src/hid/disp/display.h ****            || Height() < (currentY_ + font.FontHeight))
 1812              		.loc 4 405 17 view .LVU383
 1813 00f4 D8F80030 		ldr	r3, [r8]
 1814 00f8 019A     		ldr	r2, [sp, #4]
 1815 00fa DB68     		ldr	r3, [r3, #12]
 1816 00fc 9342     		cmp	r3, r2
 1817 00fe 40F02881 		bne	.L182
 1818 0102 8020     		movs	r0, #128
 1819              	.L136:
 405:../../../lib/pd2dsy/libdaisy/src/hid/disp/display.h ****            || Height() < (currentY_ + font.FontHeight))
 1820              		.loc 4 405 23 view .LVU384
 1821 0104 B8F80430 		ldrh	r3, [r8, #4]
 405:../../../lib/pd2dsy/libdaisy/src/hid/disp/display.h ****            || Height() < (currentY_ + font.FontHeight))
 1822              		.loc 4 405 33 view .LVU385
 1823 0108 2344     		add	r3, r3, r4
ARM GAS  /var/folders/fb/yfxt3z4538j6z0vjt03w70vc0000gn/T//ccrD3Rdr.s 			page 67


 406:../../../lib/pd2dsy/libdaisy/src/hid/disp/display.h ****         {
 1824              		.loc 4 406 12 view .LVU386
 1825 010a 9842     		cmp	r0, r3
 1826 010c C0F21E81 		blt	.L137
 406:../../../lib/pd2dsy/libdaisy/src/hid/disp/display.h ****         {
 1827              		.loc 4 406 21 view .LVU387
 1828 0110 D8F80030 		ldr	r3, [r8]
 1829 0114 039A     		ldr	r2, [sp, #12]
 1830 0116 9B68     		ldr	r3, [r3, #8]
 1831 0118 9342     		cmp	r3, r2
 1832 011a 40F01D81 		bne	.L183
 1833 011e 4020     		movs	r0, #64
 1834              	.L138:
 406:../../../lib/pd2dsy/libdaisy/src/hid/disp/display.h ****         {
 1835              		.loc 4 406 27 view .LVU388
 1836 0120 B8F80610 		ldrh	r1, [r8, #6]
 406:../../../lib/pd2dsy/libdaisy/src/hid/disp/display.h ****         {
 1837              		.loc 4 406 37 view .LVU389
 1838 0124 049A     		ldr	r2, [sp, #16]
 406:../../../lib/pd2dsy/libdaisy/src/hid/disp/display.h ****         {
 1839              		.loc 4 406 27 view .LVU390
 1840 0126 0291     		str	r1, [sp, #8]
 406:../../../lib/pd2dsy/libdaisy/src/hid/disp/display.h ****         {
 1841              		.loc 4 406 37 view .LVU391
 1842 0128 8B18     		adds	r3, r1, r2
 406:../../../lib/pd2dsy/libdaisy/src/hid/disp/display.h ****         {
 1843              		.loc 4 406 12 view .LVU392
 1844 012a 9842     		cmp	r0, r3
 1845 012c C0F20E81 		blt	.L137
 1846              	.LVL125:
 413:../../../lib/pd2dsy/libdaisy/src/hid/disp/display.h ****         {
 1847              		.loc 4 413 22 is_stmt 1 view .LVU393
 1848 0130 002A     		cmp	r2, #0
 1849 0132 00F01C81 		beq	.L139
 415:../../../lib/pd2dsy/libdaisy/src/hid/disp/display.h ****             for(j = 0; j < font.FontWidth; j++)
 1850              		.loc 4 415 37 is_stmt 0 view .LVU394
 1851 0136 02FB05F5 		mul	r5, r2, r5
 1852 013a 6FF0004E 		mvn	lr, #-2147483648
 1853 013e 079B     		ldr	r3, [sp, #28]
 1854 0140 AE44     		add	lr, lr, r5
 1855 0142 1544     		add	r5, r5, r2
 1856 0144 CDF814B0 		str	fp, [sp, #20]
 1857 0148 03EB4E0E 		add	lr, r3, lr, lsl #1
 1858 014c 023B     		subs	r3, r3, #2
 434:../../../lib/pd2dsy/libdaisy/src/hid/disp/display.h **** 
 1859              		.loc 4 434 19 view .LVU395
 1860 014e B8F804A0 		ldrh	r10, [r8, #4]
 1861 0152 03EB4503 		add	r3, r3, r5, lsl #1
 1862 0156 0D46     		mov	r5, r1
 1863 0158 9B46     		mov	fp, r3
 1864              	.LVL126:
 1865              	.L142:
 415:../../../lib/pd2dsy/libdaisy/src/hid/disp/display.h ****             for(j = 0; j < font.FontWidth; j++)
 1866              		.loc 4 415 15 view .LVU396
 1867 015a 3EF8027F 		ldrh	r7, [lr, #2]!
 1868              	.LVL127:
 416:../../../lib/pd2dsy/libdaisy/src/hid/disp/display.h ****             {
ARM GAS  /var/folders/fb/yfxt3z4538j6z0vjt03w70vc0000gn/T//ccrD3Rdr.s 			page 68


 1869              		.loc 4 416 26 is_stmt 1 view .LVU397
 1870 015e A4B3     		cbz	r4, .L147
 1871              	.LBB1047:
 1872              	.LBB1048:
 1873              	.LBB1049:
 1874              	.LBB1050:
 1875              	.LBB1051:
 259:../../../lib/pd2dsy/libdaisy/src/dev/oled_ssd130x.h ****     }
 1876              		.loc 3 259 55 is_stmt 0 view .LVU398
 1877 0160 05F00703 		and	r3, r5, #7
 259:../../../lib/pd2dsy/libdaisy/src/dev/oled_ssd130x.h ****     }
 1878              		.loc 3 259 49 view .LVU399
 1879 0164 4FF0010C 		mov	ip, #1
 259:../../../lib/pd2dsy/libdaisy/src/dev/oled_ssd130x.h ****     }
 1880              		.loc 3 259 28 view .LVU400
 1881 0168 EA08     		lsrs	r2, r5, #3
 1882 016a 5146     		mov	r1, r10
 259:../../../lib/pd2dsy/libdaisy/src/dev/oled_ssd130x.h ****     }
 1883              		.loc 3 259 49 view .LVU401
 1884 016c 0CFA03FC 		lsl	ip, ip, r3
 1885 0170 0AF11403 		add	r3, r10, #20
 259:../../../lib/pd2dsy/libdaisy/src/dev/oled_ssd130x.h ****     }
 1886              		.loc 3 259 42 view .LVU402
 1887 0174 4FFA8CFC 		sxtb	ip, ip
 1888 0178 03EBC212 		add	r2, r3, r2, lsl #7
 1889              	.LBE1051:
 1890              	.LBE1050:
 1891              	.LBE1049:
 1892              	.LBE1048:
 1893              	.LBE1047:
 416:../../../lib/pd2dsy/libdaisy/src/hid/disp/display.h ****             {
 1894              		.loc 4 416 19 view .LVU403
 1895 017c 0023     		movs	r3, #0
 1896              	.LBB1069:
 1897              	.LBB1064:
 1898              	.LBB1059:
 1899              	.LBB1055:
 1900              	.LBB1052:
 259:../../../lib/pd2dsy/libdaisy/src/dev/oled_ssd130x.h ****     }
 1901              		.loc 3 259 42 view .LVU404
 1902 017e 6FEA0C09 		mvn	r9, ip
 1903 0182 4244     		add	r2, r2, r8
 1904 0184 0DE0     		b	.L148
 1905              	.LVL128:
 1906              	.L184:
 259:../../../lib/pd2dsy/libdaisy/src/dev/oled_ssd130x.h ****     }
 1907              		.loc 3 259 42 view .LVU405
 1908              	.LBE1052:
 1909              	.LBE1055:
 1910              	.LBE1059:
 1911              	.LBE1064:
 1912              	.LBE1069:
 1913              	.LBB1070:
 1914              	.LBI1070:
  42:../../../lib/pd2dsy/libdaisy/src/hid/disp/oled_display.h ****     {
 1915              		.loc 2 42 10 is_stmt 1 view .LVU406
 1916              	.LBB1071:
ARM GAS  /var/folders/fb/yfxt3z4538j6z0vjt03w70vc0000gn/T//ccrD3Rdr.s 			page 69


 1917              	.LBI1071:
 252:../../../lib/pd2dsy/libdaisy/src/dev/oled_ssd130x.h ****     {
 1918              		.loc 3 252 10 view .LVU407
 1919              	.LBB1072:
 254:../../../lib/pd2dsy/libdaisy/src/dev/oled_ssd130x.h ****             return;
 1920              		.loc 3 254 9 is_stmt 0 view .LVU408
 1921 0186 7F29     		cmp	r1, #127
 1922 0188 06D8     		bhi	.L144
 1923 018a 3F2D     		cmp	r5, #63
 1924 018c 04D8     		bhi	.L144
 257:../../../lib/pd2dsy/libdaisy/src/dev/oled_ssd130x.h ****         else
 1925              		.loc 3 257 42 view .LVU409
 1926 018e 1078     		ldrb	r0, [r2]	@ zero_extendqisi2
 256:../../../lib/pd2dsy/libdaisy/src/dev/oled_ssd130x.h ****             buffer_[x + (y / 8) * width] |= (1 << (y % 8));
 1927              		.loc 3 256 9 view .LVU410
 1928 0190 96B1     		cbz	r6, .L146
 1929              	.L178:
 256:../../../lib/pd2dsy/libdaisy/src/dev/oled_ssd130x.h ****             buffer_[x + (y / 8) * width] |= (1 << (y % 8));
 1930              		.loc 3 256 9 view .LVU411
 1931              	.LBE1072:
 1932              	.LBE1071:
 1933              	.LBE1070:
 1934              	.LBB1073:
 1935              	.LBB1065:
 1936              	.LBB1060:
 257:../../../lib/pd2dsy/libdaisy/src/dev/oled_ssd130x.h ****         else
 1937              		.loc 3 257 42 view .LVU412
 1938 0192 4CEA0000 		orr	r0, ip, r0
 1939 0196 1070     		strb	r0, [r2]
 1940              	.L144:
 1941              	.LBE1060:
 1942              	.LBE1065:
 1943              	.LBE1073:
 416:../../../lib/pd2dsy/libdaisy/src/hid/disp/display.h ****             {
 1944              		.loc 4 416 13 is_stmt 1 view .LVU413
 1945 0198 0133     		adds	r3, r3, #1
 1946              	.LVL129:
 416:../../../lib/pd2dsy/libdaisy/src/hid/disp/display.h ****             {
 1947              		.loc 4 416 26 view .LVU414
 1948 019a 0132     		adds	r2, r2, #1
 1949 019c 0131     		adds	r1, r1, #1
 1950 019e 9C42     		cmp	r4, r3
 1951 01a0 13D0     		beq	.L147
 1952              	.LVL130:
 1953              	.L148:
 418:../../../lib/pd2dsy/libdaisy/src/hid/disp/display.h ****                 {
 1954              		.loc 4 418 23 is_stmt 0 view .LVU415
 1955 01a2 07FA03F0 		lsl	r0, r7, r3
 418:../../../lib/pd2dsy/libdaisy/src/hid/disp/display.h ****                 {
 1956              		.loc 4 418 17 view .LVU416
 1957 01a6 0004     		lsls	r0, r0, #16
 1958 01a8 EDD4     		bmi	.L184
 1959              	.LVL131:
 1960              	.LBB1074:
 1961              	.LBI1047:
  42:../../../lib/pd2dsy/libdaisy/src/hid/disp/oled_display.h ****     {
 1962              		.loc 2 42 10 is_stmt 1 view .LVU417
ARM GAS  /var/folders/fb/yfxt3z4538j6z0vjt03w70vc0000gn/T//ccrD3Rdr.s 			page 70


 1963              	.LBB1066:
 1964              	.LBI1048:
 252:../../../lib/pd2dsy/libdaisy/src/dev/oled_ssd130x.h ****     {
 1965              		.loc 3 252 10 view .LVU418
 1966              	.LBB1061:
 254:../../../lib/pd2dsy/libdaisy/src/dev/oled_ssd130x.h ****             return;
 1967              		.loc 3 254 9 is_stmt 0 view .LVU419
 1968 01aa 7F29     		cmp	r1, #127
 1969 01ac F4D8     		bhi	.L144
 1970 01ae 3F2D     		cmp	r5, #63
 1971 01b0 F2D8     		bhi	.L144
 257:../../../lib/pd2dsy/libdaisy/src/dev/oled_ssd130x.h ****         else
 1972              		.loc 3 257 42 view .LVU420
 1973 01b2 1078     		ldrb	r0, [r2]	@ zero_extendqisi2
 256:../../../lib/pd2dsy/libdaisy/src/dev/oled_ssd130x.h ****             buffer_[x + (y / 8) * width] |= (1 << (y % 8));
 1974              		.loc 3 256 9 view .LVU421
 1975 01b4 002E     		cmp	r6, #0
 1976 01b6 ECD0     		beq	.L178
 1977              	.L146:
 1978              	.LVL132:
 1979              	.LBB1056:
 1980              	.LBI1050:
 252:../../../lib/pd2dsy/libdaisy/src/dev/oled_ssd130x.h ****     {
 1981              		.loc 3 252 10 is_stmt 1 view .LVU422
 252:../../../lib/pd2dsy/libdaisy/src/dev/oled_ssd130x.h ****     {
 1982              		.loc 3 252 10 is_stmt 0 view .LVU423
 1983              	.LBE1056:
 1984              	.LBE1061:
 1985              	.LBE1066:
 1986              	.LBE1074:
 416:../../../lib/pd2dsy/libdaisy/src/hid/disp/display.h ****             {
 1987              		.loc 4 416 13 view .LVU424
 1988 01b8 0133     		adds	r3, r3, #1
 1989              	.LVL133:
 1990              	.LBB1075:
 1991              	.LBB1067:
 1992              	.LBB1062:
 1993              	.LBB1057:
 1994              	.LBB1053:
 259:../../../lib/pd2dsy/libdaisy/src/dev/oled_ssd130x.h ****     }
 1995              		.loc 3 259 42 view .LVU425
 1996 01ba 09EA0000 		and	r0, r9, r0
 1997              	.LBE1053:
 1998              	.LBE1057:
 1999              	.LBE1062:
 2000              	.LBE1067:
 2001              	.LBE1075:
 416:../../../lib/pd2dsy/libdaisy/src/hid/disp/display.h ****             {
 2002              		.loc 4 416 26 view .LVU426
 2003 01be 0132     		adds	r2, r2, #1
 2004 01c0 0131     		adds	r1, r1, #1
 2005 01c2 9C42     		cmp	r4, r3
 2006              	.LBB1076:
 2007              	.LBB1068:
 2008              	.LBB1063:
 2009              	.LBB1058:
 2010              	.LBB1054:
ARM GAS  /var/folders/fb/yfxt3z4538j6z0vjt03w70vc0000gn/T//ccrD3Rdr.s 			page 71


 259:../../../lib/pd2dsy/libdaisy/src/dev/oled_ssd130x.h ****     }
 2011              		.loc 3 259 42 view .LVU427
 2012 01c4 02F8010C 		strb	r0, [r2, #-1]
 259:../../../lib/pd2dsy/libdaisy/src/dev/oled_ssd130x.h ****     }
 2013              		.loc 3 259 42 view .LVU428
 2014              	.LBE1054:
 2015              	.LBE1058:
 2016              	.LBE1063:
 2017              	.LBE1068:
 2018              	.LBE1076:
 416:../../../lib/pd2dsy/libdaisy/src/hid/disp/display.h ****             {
 2019              		.loc 4 416 13 is_stmt 1 view .LVU429
 2020              	.LVL134:
 416:../../../lib/pd2dsy/libdaisy/src/hid/disp/display.h ****             {
 2021              		.loc 4 416 26 view .LVU430
 2022 01c8 EBD1     		bne	.L148
 2023              	.LVL135:
 2024              	.L147:
 413:../../../lib/pd2dsy/libdaisy/src/hid/disp/display.h ****         {
 2025              		.loc 4 413 9 view .LVU431
 413:../../../lib/pd2dsy/libdaisy/src/hid/disp/display.h ****         {
 2026              		.loc 4 413 22 view .LVU432
 2027 01ca F345     		cmp	fp, lr
 2028 01cc 05F10105 		add	r5, r5, #1
 2029 01d0 C3D1     		bne	.L142
 2030 01d2 DDF814B0 		ldr	fp, [sp, #20]
 2031              	.LVL136:
 2032              	.L141:
 2033              	.LBB1077:
 2034              	.LBB1078:
 173:../../../lib/pd2dsy/libdaisy/src/hid/disp/display.h ****         currentY_ = (y >= Height()) ? Height() - 1 : y;
 2035              		.loc 4 173 33 is_stmt 0 view .LVU433
 2036 01d6 D8F80020 		ldr	r2, [r8]
 2037              	.LBE1078:
 2038              	.LBE1077:
 434:../../../lib/pd2dsy/libdaisy/src/hid/disp/display.h **** 
 2039              		.loc 4 434 18 view .LVU434
 2040 01da 0AEB0405 		add	r5, r10, r4
 2041 01de 0199     		ldr	r1, [sp, #4]
 2042              	.LBB1083:
 2043              	.LBB1079:
 173:../../../lib/pd2dsy/libdaisy/src/hid/disp/display.h ****         currentY_ = (y >= Height()) ? Height() - 1 : y;
 2044              		.loc 4 173 33 view .LVU435
 2045 01e0 D368     		ldr	r3, [r2, #12]
 2046              	.LBE1079:
 2047              	.LBE1083:
 434:../../../lib/pd2dsy/libdaisy/src/hid/disp/display.h **** 
 2048              		.loc 4 434 18 view .LVU436
 2049 01e2 ADB2     		uxth	r5, r5
 2050              	.LVL137:
 2051              	.LBB1084:
 2052              	.LBI1077:
 171:../../../lib/pd2dsy/libdaisy/src/hid/disp/display.h ****     {
 2053              		.loc 4 171 10 is_stmt 1 view .LVU437
 2054              	.LBB1080:
 173:../../../lib/pd2dsy/libdaisy/src/hid/disp/display.h ****         currentY_ = (y >= Height()) ? Height() - 1 : y;
 2055              		.loc 4 173 9 view .LVU438
ARM GAS  /var/folders/fb/yfxt3z4538j6z0vjt03w70vc0000gn/T//ccrD3Rdr.s 			page 72


 2056 01e4 8B42     		cmp	r3, r1
 2057 01e6 40F0BD80 		bne	.L185
 173:../../../lib/pd2dsy/libdaisy/src/hid/disp/display.h ****         currentY_ = (y >= Height()) ? Height() - 1 : y;
 2058              		.loc 4 173 33 is_stmt 0 view .LVU439
 2059 01ea 8020     		movs	r0, #128
 2060              	.L149:
 173:../../../lib/pd2dsy/libdaisy/src/hid/disp/display.h ****         currentY_ = (y >= Height()) ? Height() - 1 : y;
 2061              		.loc 4 173 19 view .LVU440
 2062 01ec 8542     		cmp	r5, r0
 2063 01ee 05D3     		bcc	.L150
 173:../../../lib/pd2dsy/libdaisy/src/hid/disp/display.h ****         currentY_ = (y >= Height()) ? Height() - 1 : y;
 2064              		.loc 4 173 44 view .LVU441
 2065 01f0 D368     		ldr	r3, [r2, #12]
 2066 01f2 0199     		ldr	r1, [sp, #4]
 2067 01f4 8B42     		cmp	r3, r1
 2068 01f6 40F0C380 		bne	.L186
 2069 01fa 7F25     		movs	r5, #127
 2070              	.LVL138:
 2071              	.L150:
 174:../../../lib/pd2dsy/libdaisy/src/hid/disp/display.h ****     }
 2072              		.loc 4 174 34 view .LVU442
 2073 01fc 9368     		ldr	r3, [r2, #8]
 2074 01fe 039A     		ldr	r2, [sp, #12]
 173:../../../lib/pd2dsy/libdaisy/src/hid/disp/display.h ****         currentY_ = (y >= Height()) ? Height() - 1 : y;
 2075              		.loc 4 173 19 view .LVU443
 2076 0200 A8F80450 		strh	r5, [r8, #4]	@ movhi
 174:../../../lib/pd2dsy/libdaisy/src/hid/disp/display.h ****     }
 2077              		.loc 4 174 9 is_stmt 1 view .LVU444
 2078 0204 9342     		cmp	r3, r2
 2079 0206 40F0AA80 		bne	.L187
 174:../../../lib/pd2dsy/libdaisy/src/hid/disp/display.h ****     }
 2080              		.loc 4 174 34 is_stmt 0 view .LVU445
 2081 020a 4020     		movs	r0, #64
 2082              	.L152:
 174:../../../lib/pd2dsy/libdaisy/src/hid/disp/display.h ****     }
 2083              		.loc 4 174 19 view .LVU446
 2084 020c 029B     		ldr	r3, [sp, #8]
 2085 020e 8342     		cmp	r3, r0
 2086 0210 08D3     		bcc	.L153
 174:../../../lib/pd2dsy/libdaisy/src/hid/disp/display.h ****     }
 2087              		.loc 4 174 46 view .LVU447
 2088 0212 D8F80030 		ldr	r3, [r8]
 2089 0216 039A     		ldr	r2, [sp, #12]
 2090 0218 9B68     		ldr	r3, [r3, #8]
 2091 021a 9342     		cmp	r3, r2
 2092 021c 40F0AA80 		bne	.L188
 2093 0220 3F23     		movs	r3, #63
 2094 0222 0293     		str	r3, [sp, #8]
 2095              	.LVL139:
 2096              	.L153:
 174:../../../lib/pd2dsy/libdaisy/src/hid/disp/display.h ****     }
 2097              		.loc 4 174 19 view .LVU448
 2098 0224 029B     		ldr	r3, [sp, #8]
 2099 0226 A8F80630 		strh	r3, [r8, #6]	@ movhi
 2100              	.LVL140:
 2101              	.L135:
 174:../../../lib/pd2dsy/libdaisy/src/hid/disp/display.h ****     }
ARM GAS  /var/folders/fb/yfxt3z4538j6z0vjt03w70vc0000gn/T//ccrD3Rdr.s 			page 73


 2102              		.loc 4 174 19 view .LVU449
 2103              	.LBE1080:
 2104              	.LBE1084:
 2105              	.LBE1046:
 2106              	.LBE1045:
 445:../../../lib/pd2dsy/libdaisy/src/hid/disp/display.h ****                != *str)
 2107              		.loc 4 445 13 view .LVU450
 2108 022a 009A     		ldr	r2, [sp]
 2109 022c 1378     		ldrb	r3, [r2]	@ zero_extendqisi2
 2110 022e 5B45     		cmp	r3, fp
 2111 0230 06D1     		bne	.L103
 2112              	.LVL141:
 443:../../../lib/pd2dsy/libdaisy/src/hid/disp/display.h ****         {
 2113              		.loc 4 443 9 is_stmt 1 view .LVU451
 2114 0232 12F801BF 		ldrb	fp, [r2, #1]!	@ zero_extendqisi2
 2115              	.LVL142:
 443:../../../lib/pd2dsy/libdaisy/src/hid/disp/display.h ****         {
 2116              		.loc 4 443 9 is_stmt 0 view .LVU452
 2117 0236 0092     		str	r2, [sp]
 2118 0238 BBF1000F 		cmp	fp, #0
 2119 023c 7FF454AF 		bne	.L133
 2120              	.LVL143:
 2121              	.L103:
 443:../../../lib/pd2dsy/libdaisy/src/hid/disp/display.h ****         {
 2122              		.loc 4 443 9 view .LVU453
 2123              	.LBE1090:
 2124              	.LBE1093:
 471:../../../lib/pd2dsy/libdaisy/src/hid/disp/display.h **** 
 2125              		.loc 4 471 5 view .LVU454
 2126 0240 0698     		ldr	r0, [sp, #24]
 2127 0242 09B0     		add	sp, sp, #36
 2128              		.cfi_remember_state
 2129              		.cfi_def_cfa_offset 36
 2130              		@ sp needed
 2131 0244 BDE8F08F 		pop	{r4, r5, r6, r7, r8, r9, r10, fp, pc}
 2132              	.LVL144:
 2133              	.L116:
 2134              		.cfi_restore_state
 2135              	.LBB1094:
 2136              	.LBB1016:
 250:../../../lib/pd2dsy/libdaisy/src/hid/disp/graphics_common.h ****                 return {int16_t(x_ + (other.GetCenterX() - GetCenterX())),
 2137              		.loc 15 250 13 is_stmt 1 view .LVU455
 251:../../../lib/pd2dsy/libdaisy/src/hid/disp/graphics_common.h ****                         int16_t(y_ + (other.GetCenterY() - GetCenterY())),
 2138              		.loc 15 251 17 view .LVU456
 2139              	.LBB850:
 2140              	.LBI850:
  62:../../../lib/pd2dsy/libdaisy/src/hid/disp/graphics_common.h ****     int16_t GetCenterY() const { return y_ + height_ / 2; }
 2141              		.loc 15 62 13 view .LVU457
 2142              	.LBB851:
  62:../../../lib/pd2dsy/libdaisy/src/hid/disp/graphics_common.h ****     int16_t GetCenterY() const { return y_ + height_ / 2; }
 2143              		.loc 15 62 34 view .LVU458
  62:../../../lib/pd2dsy/libdaisy/src/hid/disp/graphics_common.h ****     int16_t GetCenterY() const { return y_ + height_ / 2; }
 2144              		.loc 15 62 34 is_stmt 0 view .LVU459
 2145              	.LBE851:
 2146              	.LBE850:
 2147              	.LBB853:
 2148              	.LBI853:
ARM GAS  /var/folders/fb/yfxt3z4538j6z0vjt03w70vc0000gn/T//ccrD3Rdr.s 			page 74


  62:../../../lib/pd2dsy/libdaisy/src/hid/disp/graphics_common.h ****     int16_t GetCenterY() const { return y_ + height_ / 2; }
 2149              		.loc 15 62 13 is_stmt 1 view .LVU460
 2150              	.LBB854:
  62:../../../lib/pd2dsy/libdaisy/src/hid/disp/graphics_common.h ****     int16_t GetCenterY() const { return y_ + height_ / 2; }
 2151              		.loc 15 62 34 view .LVU461
  62:../../../lib/pd2dsy/libdaisy/src/hid/disp/graphics_common.h ****     int16_t GetCenterY() const { return y_ + height_ / 2; }
 2152              		.loc 15 62 34 is_stmt 0 view .LVU462
 2153              	.LBE854:
 2154              	.LBE853:
 2155              	.LBB855:
 2156              	.LBB852:
  62:../../../lib/pd2dsy/libdaisy/src/hid/disp/graphics_common.h ****     int16_t GetCenterY() const { return y_ + height_ / 2; }
 2157              		.loc 15 62 53 view .LVU463
 2158 0248 B4F90410 		ldrsh	r1, [r4, #4]
 2159              	.LVL145:
  62:../../../lib/pd2dsy/libdaisy/src/hid/disp/graphics_common.h ****     int16_t GetCenterY() const { return y_ + height_ / 2; }
 2160              		.loc 15 62 44 view .LVU464
 2161 024c 2788     		ldrh	r7, [r4]
  62:../../../lib/pd2dsy/libdaisy/src/hid/disp/graphics_common.h ****     int16_t GetCenterY() const { return y_ + height_ / 2; }
 2162              		.loc 15 62 53 view .LVU465
 2163 024e 0029     		cmp	r1, #0
 2164 0250 B8BF     		it	lt
 2165 0252 0131     		addlt	r1, r1, #1
  62:../../../lib/pd2dsy/libdaisy/src/hid/disp/graphics_common.h ****     int16_t GetCenterY() const { return y_ + height_ / 2; }
 2166              		.loc 15 62 44 view .LVU466
 2167 0254 07EB6107 		add	r7, r7, r1, asr #1
 2168              	.LBE852:
 2169              	.LBE855:
 2170              	.LBB856:
 2171              	.LBB828:
  63:../../../lib/pd2dsy/libdaisy/src/hid/disp/graphics_common.h **** 
 2172              		.loc 15 63 54 view .LVU467
 2173 0258 B4F90610 		ldrsh	r1, [r4, #6]
 2174              	.LBE828:
 2175              	.LBE856:
 251:../../../lib/pd2dsy/libdaisy/src/hid/disp/graphics_common.h ****                         int16_t(y_ + (other.GetCenterY() - GetCenterY())),
 2176              		.loc 15 251 58 view .LVU468
 2177 025c A7EB6307 		sub	r7, r7, r3, asr #1
 2178              	.LBB857:
 2179              	.LBB829:
  63:../../../lib/pd2dsy/libdaisy/src/hid/disp/graphics_common.h **** 
 2180              		.loc 15 63 54 view .LVU469
 2181 0260 0029     		cmp	r1, #0
 2182              	.LBE829:
 2183              	.LBE857:
 251:../../../lib/pd2dsy/libdaisy/src/hid/disp/graphics_common.h ****                         int16_t(y_ + (other.GetCenterY() - GetCenterY())),
 2184              		.loc 15 251 58 view .LVU470
 2185 0262 BFB2     		uxth	r7, r7
 2186              	.LVL146:
 2187              	.LBB858:
 2188              	.LBI825:
  63:../../../lib/pd2dsy/libdaisy/src/hid/disp/graphics_common.h **** 
 2189              		.loc 15 63 13 is_stmt 1 view .LVU471
 2190              	.LBB830:
  63:../../../lib/pd2dsy/libdaisy/src/hid/disp/graphics_common.h **** 
 2191              		.loc 15 63 34 view .LVU472
  63:../../../lib/pd2dsy/libdaisy/src/hid/disp/graphics_common.h **** 
ARM GAS  /var/folders/fb/yfxt3z4538j6z0vjt03w70vc0000gn/T//ccrD3Rdr.s 			page 75


 2192              		.loc 15 63 34 is_stmt 0 view .LVU473
 2193              	.LBE830:
 2194              	.LBE858:
 2195              	.LBB859:
 2196              	.LBI859:
  63:../../../lib/pd2dsy/libdaisy/src/hid/disp/graphics_common.h **** 
 2197              		.loc 15 63 13 is_stmt 1 view .LVU474
 2198              	.LBB860:
  63:../../../lib/pd2dsy/libdaisy/src/hid/disp/graphics_common.h **** 
 2199              		.loc 15 63 34 view .LVU475
  63:../../../lib/pd2dsy/libdaisy/src/hid/disp/graphics_common.h **** 
 2200              		.loc 15 63 34 is_stmt 0 view .LVU476
 2201              	.LBE860:
 2202              	.LBE859:
 2203              	.LBB861:
 2204              	.LBB831:
  63:../../../lib/pd2dsy/libdaisy/src/hid/disp/graphics_common.h **** 
 2205              		.loc 15 63 54 view .LVU477
 2206 0264 BFF602AF 		bge	.L123
 2207              	.L179:
  63:../../../lib/pd2dsy/libdaisy/src/hid/disp/graphics_common.h **** 
 2208              		.loc 15 63 54 view .LVU478
 2209 0268 0131     		adds	r1, r1, #1
 2210 026a FFE6     		b	.L123
 2211              	.LVL147:
 2212              	.L115:
  63:../../../lib/pd2dsy/libdaisy/src/hid/disp/graphics_common.h **** 
 2213              		.loc 15 63 54 view .LVU479
 2214              	.LBE831:
 2215              	.LBE861:
 213:../../../lib/pd2dsy/libdaisy/src/hid/disp/graphics_common.h ****                 return {other.x_, other.y_, width_, height_};
 2216              		.loc 15 213 13 is_stmt 1 view .LVU480
 214:../../../lib/pd2dsy/libdaisy/src/hid/disp/graphics_common.h ****             case Alignment::topRight:
 2217              		.loc 15 214 17 view .LVU481
 214:../../../lib/pd2dsy/libdaisy/src/hid/disp/graphics_common.h ****             case Alignment::topRight:
 2218              		.loc 15 214 31 is_stmt 0 view .LVU482
 2219 026c B4F90070 		ldrsh	r7, [r4]
 2220              	.LBB862:
 2221              	.LBB863:
 2222              	.LBB864:
  32:../../../lib/pd2dsy/libdaisy/src/hid/disp/graphics_common.h ****     {
 2223              		.loc 15 32 66 view .LVU483
 2224 0270 0699     		ldr	r1, [sp, #24]
 2225              	.LVL148:
  32:../../../lib/pd2dsy/libdaisy/src/hid/disp/graphics_common.h ****     {
 2226              		.loc 15 32 66 view .LVU484
 2227              	.LBE864:
 2228              	.LBE863:
 2229              	.LBE862:
 214:../../../lib/pd2dsy/libdaisy/src/hid/disp/graphics_common.h ****             case Alignment::topRight:
 2230              		.loc 15 214 41 view .LVU485
 2231 0272 B4F90240 		ldrsh	r4, [r4, #2]
 2232              	.LVL149:
 2233              	.LBB877:
 2234              	.LBI862:
  31:../../../lib/pd2dsy/libdaisy/src/hid/disp/graphics_common.h ****     : x_(x), y_(y), width_(max(0, width)), height_(max(0, height))
 2235              		.loc 15 31 5 is_stmt 1 view .LVU486
ARM GAS  /var/folders/fb/yfxt3z4538j6z0vjt03w70vc0000gn/T//ccrD3Rdr.s 			page 76


 2236              	.LBB872:
 2237              	.LBB867:
  32:../../../lib/pd2dsy/libdaisy/src/hid/disp/graphics_common.h ****     {
 2238              		.loc 15 32 66 is_stmt 0 view .LVU487
 2239 0276 0F80     		strh	r7, [r1]	@ movhi
 2240              	.LBE867:
 2241              	.LBE872:
 2242              	.LBE877:
 2243              	.LBE1016:
 2244              	.LBE1094:
 468:../../../lib/pd2dsy/libdaisy/src/hid/disp/display.h ****         ((ChildType*)(this))->ChildType::WriteString(str, font, on);
 2245              		.loc 4 468 18 view .LVU488
 2246 0278 BFB2     		uxth	r7, r7
 2247              	.LVL150:
 2248              	.LBB1095:
 2249              	.LBB1017:
 2250              	.LBB878:
 2251              	.LBB873:
 2252              	.LBB868:
  32:../../../lib/pd2dsy/libdaisy/src/hid/disp/graphics_common.h ****     {
 2253              		.loc 15 32 66 view .LVU489
 2254 027a 4C80     		strh	r4, [r1, #2]	@ movhi
 2255              	.LBE868:
 2256              	.LBE873:
 2257              	.LBE878:
 2258              	.LBE1017:
 2259              	.LBE1095:
 468:../../../lib/pd2dsy/libdaisy/src/hid/disp/display.h ****         ((ChildType*)(this))->ChildType::WriteString(str, font, on);
 2260              		.loc 4 468 18 view .LVU490
 2261 027c A4B2     		uxth	r4, r4
 2262              	.LVL151:
 2263              	.LBB1096:
 2264              	.LBB1018:
 2265              	.LBB879:
 2266              	.LBB874:
 2267              	.LBB869:
  32:../../../lib/pd2dsy/libdaisy/src/hid/disp/graphics_common.h ****     {
 2268              		.loc 15 32 66 view .LVU491
 2269 027e 8B80     		strh	r3, [r1, #4]	@ movhi
 2270              	.LVL152:
 2271              	.LBB865:
 2272              	.LBI865:
 2273              		.loc 15 261 13 is_stmt 1 view .LVU492
 2274              	.LBE865:
 2275              	.LBE869:
 2276              	.LBE874:
 2277              	.LBE879:
 2278              	.LBE1018:
 2279              	.LBE1096:
 2280              		.loc 15 261 41 view .LVU493
 2281              	.LBB1097:
 2282              	.LBB1019:
 2283              	.LBB880:
 2284              	.LBB875:
 2285              	.LBB870:
 2286              	.LBB866:
 2287              	.LBI866:
ARM GAS  /var/folders/fb/yfxt3z4538j6z0vjt03w70vc0000gn/T//ccrD3Rdr.s 			page 77


 2288              		.loc 15 261 13 view .LVU494
 2289              	.LBE866:
 2290              	.LBE870:
 2291              	.LBE875:
 2292              	.LBE880:
 2293              	.LBE1019:
 2294              	.LBE1097:
 2295              		.loc 15 261 41 view .LVU495
 2296              	.LBB1098:
 2297              	.LBB1020:
 2298              	.LBB881:
 2299              	.LBB876:
 2300              	.LBB871:
  32:../../../lib/pd2dsy/libdaisy/src/hid/disp/graphics_common.h ****     {
 2301              		.loc 15 32 66 is_stmt 0 view .LVU496
 2302 0280 CA80     		strh	r2, [r1, #6]	@ movhi
 2303              	.LBE871:
  34:../../../lib/pd2dsy/libdaisy/src/hid/disp/graphics_common.h **** 
 2304              		.loc 15 34 5 view .LVU497
 2305 0282 FEE6     		b	.L117
 2306              	.LVL153:
 2307              	.L114:
  34:../../../lib/pd2dsy/libdaisy/src/hid/disp/graphics_common.h **** 
 2308              		.loc 15 34 5 view .LVU498
 2309              	.LBE876:
 2310              	.LBE881:
 220:../../../lib/pd2dsy/libdaisy/src/hid/disp/graphics_common.h ****                 return {int16_t(x_ + (other.GetCenterX() - GetCenterX())),
 2311              		.loc 15 220 13 is_stmt 1 view .LVU499
 221:../../../lib/pd2dsy/libdaisy/src/hid/disp/graphics_common.h ****                         other.y_,
 2312              		.loc 15 221 17 view .LVU500
 2313              	.LBB882:
 2314              	.LBI882:
  62:../../../lib/pd2dsy/libdaisy/src/hid/disp/graphics_common.h ****     int16_t GetCenterY() const { return y_ + height_ / 2; }
 2315              		.loc 15 62 13 view .LVU501
 2316              	.LBB883:
  62:../../../lib/pd2dsy/libdaisy/src/hid/disp/graphics_common.h ****     int16_t GetCenterY() const { return y_ + height_ / 2; }
 2317              		.loc 15 62 34 view .LVU502
  62:../../../lib/pd2dsy/libdaisy/src/hid/disp/graphics_common.h ****     int16_t GetCenterY() const { return y_ + height_ / 2; }
 2318              		.loc 15 62 34 is_stmt 0 view .LVU503
 2319              	.LBE883:
 2320              	.LBE882:
 2321              	.LBB886:
 2322              	.LBI886:
  62:../../../lib/pd2dsy/libdaisy/src/hid/disp/graphics_common.h ****     int16_t GetCenterY() const { return y_ + height_ / 2; }
 2323              		.loc 15 62 13 is_stmt 1 view .LVU504
 2324              	.LBB887:
  62:../../../lib/pd2dsy/libdaisy/src/hid/disp/graphics_common.h ****     int16_t GetCenterY() const { return y_ + height_ / 2; }
 2325              		.loc 15 62 34 view .LVU505
  62:../../../lib/pd2dsy/libdaisy/src/hid/disp/graphics_common.h ****     int16_t GetCenterY() const { return y_ + height_ / 2; }
 2326              		.loc 15 62 34 is_stmt 0 view .LVU506
 2327              	.LBE887:
 2328              	.LBE886:
 2329              	.LBB888:
 2330              	.LBB884:
  62:../../../lib/pd2dsy/libdaisy/src/hid/disp/graphics_common.h ****     int16_t GetCenterY() const { return y_ + height_ / 2; }
 2331              		.loc 15 62 53 view .LVU507
 2332 0284 B4F90410 		ldrsh	r1, [r4, #4]
ARM GAS  /var/folders/fb/yfxt3z4538j6z0vjt03w70vc0000gn/T//ccrD3Rdr.s 			page 78


 2333              	.LVL154:
  62:../../../lib/pd2dsy/libdaisy/src/hid/disp/graphics_common.h ****     int16_t GetCenterY() const { return y_ + height_ / 2; }
 2334              		.loc 15 62 44 view .LVU508
 2335 0288 2788     		ldrh	r7, [r4]
  62:../../../lib/pd2dsy/libdaisy/src/hid/disp/graphics_common.h ****     int16_t GetCenterY() const { return y_ + height_ / 2; }
 2336              		.loc 15 62 53 view .LVU509
 2337 028a 0029     		cmp	r1, #0
 2338              	.LBE884:
 2339              	.LBE888:
 222:../../../lib/pd2dsy/libdaisy/src/hid/disp/graphics_common.h ****                         width_,
 2340              		.loc 15 222 31 view .LVU510
 2341 028c B4F90240 		ldrsh	r4, [r4, #2]
 2342              	.LVL155:
 2343              	.LBB889:
 2344              	.LBB885:
  62:../../../lib/pd2dsy/libdaisy/src/hid/disp/graphics_common.h ****     int16_t GetCenterY() const { return y_ + height_ / 2; }
 2345              		.loc 15 62 53 view .LVU511
 2346 0290 B8BF     		it	lt
 2347 0292 0131     		addlt	r1, r1, #1
  62:../../../lib/pd2dsy/libdaisy/src/hid/disp/graphics_common.h ****     int16_t GetCenterY() const { return y_ + height_ / 2; }
 2348              		.loc 15 62 44 view .LVU512
 2349 0294 07EB6107 		add	r7, r7, r1, asr #1
 2350              	.LBE885:
 2351              	.LBE889:
 2352              	.LBB890:
 2353              	.LBB891:
 2354              	.LBB892:
  32:../../../lib/pd2dsy/libdaisy/src/hid/disp/graphics_common.h ****     {
 2355              		.loc 15 32 66 view .LVU513
 2356 0298 0699     		ldr	r1, [sp, #24]
 2357 029a 8B80     		strh	r3, [r1, #4]	@ movhi
 2358              	.LBE892:
 2359              	.LBE891:
 2360              	.LBE890:
 221:../../../lib/pd2dsy/libdaisy/src/hid/disp/graphics_common.h ****                         other.y_,
 2361              		.loc 15 221 58 view .LVU514
 2362 029c A7EB6303 		sub	r3, r7, r3, asr #1
 2363              	.LBB903:
 2364              	.LBB899:
 2365              	.LBB895:
  32:../../../lib/pd2dsy/libdaisy/src/hid/disp/graphics_common.h ****     {
 2366              		.loc 15 32 66 view .LVU515
 2367 02a0 4C80     		strh	r4, [r1, #2]	@ movhi
 2368              	.LBE895:
 2369              	.LBE899:
 2370              	.LBE903:
 2371              	.LBE1020:
 2372              	.LBE1098:
 468:../../../lib/pd2dsy/libdaisy/src/hid/disp/display.h ****         ((ChildType*)(this))->ChildType::WriteString(str, font, on);
 2373              		.loc 4 468 18 view .LVU516
 2374 02a2 A4B2     		uxth	r4, r4
 2375              	.LBB1099:
 2376              	.LBB1021:
 221:../../../lib/pd2dsy/libdaisy/src/hid/disp/graphics_common.h ****                         other.y_,
 2377              		.loc 15 221 58 view .LVU517
 2378 02a4 9FB2     		uxth	r7, r3
 2379              	.LVL156:
ARM GAS  /var/folders/fb/yfxt3z4538j6z0vjt03w70vc0000gn/T//ccrD3Rdr.s 			page 79


 2380              	.LBB904:
 2381              	.LBI890:
  31:../../../lib/pd2dsy/libdaisy/src/hid/disp/graphics_common.h ****     : x_(x), y_(y), width_(max(0, width)), height_(max(0, height))
 2382              		.loc 15 31 5 is_stmt 1 view .LVU518
 2383              	.LBB900:
 2384              	.LBB896:
 2385              	.LBB893:
 2386              	.LBI893:
 2387              		.loc 15 261 13 view .LVU519
 2388              	.LBE893:
 2389              	.LBE896:
 2390              	.LBE900:
 2391              	.LBE904:
 2392              	.LBE1021:
 2393              	.LBE1099:
 2394              		.loc 15 261 41 view .LVU520
 2395              	.LBB1100:
 2396              	.LBB1022:
 2397              	.LBB905:
 2398              	.LBB901:
 2399              	.LBB897:
 2400              	.LBB894:
 2401              	.LBI894:
 2402              		.loc 15 261 13 view .LVU521
 2403              	.LBE894:
 2404              	.LBE897:
 2405              	.LBE901:
 2406              	.LBE905:
 2407              	.LBE1022:
 2408              	.LBE1100:
 2409              		.loc 15 261 41 view .LVU522
 2410              	.LBB1101:
 2411              	.LBB1023:
 2412              	.LBB906:
 2413              	.LBB902:
 2414              	.LBB898:
  32:../../../lib/pd2dsy/libdaisy/src/hid/disp/graphics_common.h ****     {
 2415              		.loc 15 32 66 is_stmt 0 view .LVU523
 2416 02a6 CA80     		strh	r2, [r1, #6]	@ movhi
 2417 02a8 0F80     		strh	r7, [r1]	@ movhi
 2418              	.LBE898:
  34:../../../lib/pd2dsy/libdaisy/src/hid/disp/graphics_common.h **** 
 2419              		.loc 15 34 5 view .LVU524
 2420 02aa EAE6     		b	.L117
 2421              	.LVL157:
 2422              	.L113:
  34:../../../lib/pd2dsy/libdaisy/src/hid/disp/graphics_common.h **** 
 2423              		.loc 15 34 5 view .LVU525
 2424              	.LBE902:
 2425              	.LBE906:
 215:../../../lib/pd2dsy/libdaisy/src/hid/disp/graphics_common.h ****                 return {int16_t(other.GetRight() - width_),
 2426              		.loc 15 215 13 is_stmt 1 view .LVU526
 216:../../../lib/pd2dsy/libdaisy/src/hid/disp/graphics_common.h ****                         other.y_,
 2427              		.loc 15 216 17 view .LVU527
 2428              	.LBB907:
 2429              	.LBI907:
  60:../../../lib/pd2dsy/libdaisy/src/hid/disp/graphics_common.h ****     int16_t GetBottom() const { return y_ + height_; }
ARM GAS  /var/folders/fb/yfxt3z4538j6z0vjt03w70vc0000gn/T//ccrD3Rdr.s 			page 80


 2430              		.loc 15 60 13 view .LVU528
 2431              	.LBB908:
  60:../../../lib/pd2dsy/libdaisy/src/hid/disp/graphics_common.h ****     int16_t GetBottom() const { return y_ + height_; }
 2432              		.loc 15 60 32 view .LVU529
  60:../../../lib/pd2dsy/libdaisy/src/hid/disp/graphics_common.h ****     int16_t GetBottom() const { return y_ + height_; }
 2433              		.loc 15 60 42 is_stmt 0 view .LVU530
 2434 02ac A188     		ldrh	r1, [r4, #4]
 2435              	.LVL158:
  60:../../../lib/pd2dsy/libdaisy/src/hid/disp/graphics_common.h ****     int16_t GetBottom() const { return y_ + height_; }
 2436              		.loc 15 60 42 view .LVU531
 2437 02ae 2788     		ldrh	r7, [r4]
 2438              	.LBE908:
 2439              	.LBE907:
 217:../../../lib/pd2dsy/libdaisy/src/hid/disp/graphics_common.h ****                         width_,
 2440              		.loc 15 217 31 view .LVU532
 2441 02b0 B4F90240 		ldrsh	r4, [r4, #2]
 2442              	.LVL159:
 2443              	.LBB910:
 2444              	.LBB909:
  60:../../../lib/pd2dsy/libdaisy/src/hid/disp/graphics_common.h ****     int16_t GetBottom() const { return y_ + height_; }
 2445              		.loc 15 60 42 view .LVU533
 2446 02b4 0F44     		add	r7, r7, r1
 2447              	.LBE909:
 2448              	.LBE910:
 2449              	.LBB911:
 2450              	.LBB912:
 2451              	.LBB913:
  32:../../../lib/pd2dsy/libdaisy/src/hid/disp/graphics_common.h ****     {
 2452              		.loc 15 32 66 view .LVU534
 2453 02b6 0699     		ldr	r1, [sp, #24]
 2454 02b8 8B80     		strh	r3, [r1, #4]	@ movhi
 2455              	.LBE913:
 2456              	.LBE912:
 2457              	.LBE911:
 216:../../../lib/pd2dsy/libdaisy/src/hid/disp/graphics_common.h ****                         other.y_,
 2458              		.loc 15 216 50 view .LVU535
 2459 02ba FB1A     		subs	r3, r7, r3
 2460              	.LBB924:
 2461              	.LBB920:
 2462              	.LBB916:
  32:../../../lib/pd2dsy/libdaisy/src/hid/disp/graphics_common.h ****     {
 2463              		.loc 15 32 66 view .LVU536
 2464 02bc 4C80     		strh	r4, [r1, #2]	@ movhi
 2465              	.LBE916:
 2466              	.LBE920:
 2467              	.LBE924:
 2468              	.LBE1023:
 2469              	.LBE1101:
 468:../../../lib/pd2dsy/libdaisy/src/hid/disp/display.h ****         ((ChildType*)(this))->ChildType::WriteString(str, font, on);
 2470              		.loc 4 468 18 view .LVU537
 2471 02be A4B2     		uxth	r4, r4
 2472              	.LBB1102:
 2473              	.LBB1024:
 216:../../../lib/pd2dsy/libdaisy/src/hid/disp/graphics_common.h ****                         other.y_,
 2474              		.loc 15 216 50 view .LVU538
 2475 02c0 9FB2     		uxth	r7, r3
 2476              	.LVL160:
ARM GAS  /var/folders/fb/yfxt3z4538j6z0vjt03w70vc0000gn/T//ccrD3Rdr.s 			page 81


 2477              	.LBB925:
 2478              	.LBI911:
  31:../../../lib/pd2dsy/libdaisy/src/hid/disp/graphics_common.h ****     : x_(x), y_(y), width_(max(0, width)), height_(max(0, height))
 2479              		.loc 15 31 5 is_stmt 1 view .LVU539
 2480              	.LBB921:
 2481              	.LBB917:
 2482              	.LBB914:
 2483              	.LBI914:
 2484              		.loc 15 261 13 view .LVU540
 2485              	.LBE914:
 2486              	.LBE917:
 2487              	.LBE921:
 2488              	.LBE925:
 2489              	.LBE1024:
 2490              	.LBE1102:
 2491              		.loc 15 261 41 view .LVU541
 2492              	.LBB1103:
 2493              	.LBB1025:
 2494              	.LBB926:
 2495              	.LBB922:
 2496              	.LBB918:
 2497              	.LBB915:
 2498              	.LBI915:
 2499              		.loc 15 261 13 view .LVU542
 2500              	.LBE915:
 2501              	.LBE918:
 2502              	.LBE922:
 2503              	.LBE926:
 2504              	.LBE1025:
 2505              	.LBE1103:
 2506              		.loc 15 261 41 view .LVU543
 2507              	.LBB1104:
 2508              	.LBB1026:
 2509              	.LBB927:
 2510              	.LBB923:
 2511              	.LBB919:
  32:../../../lib/pd2dsy/libdaisy/src/hid/disp/graphics_common.h ****     {
 2512              		.loc 15 32 66 is_stmt 0 view .LVU544
 2513 02c2 CA80     		strh	r2, [r1, #6]	@ movhi
 2514 02c4 0F80     		strh	r7, [r1]	@ movhi
 2515              	.LBE919:
  34:../../../lib/pd2dsy/libdaisy/src/hid/disp/graphics_common.h **** 
 2516              		.loc 15 34 5 view .LVU545
 2517 02c6 DCE6     		b	.L117
 2518              	.LVL161:
 2519              	.L112:
  34:../../../lib/pd2dsy/libdaisy/src/hid/disp/graphics_common.h **** 
 2520              		.loc 15 34 5 view .LVU546
 2521              	.LBE923:
 2522              	.LBE927:
 225:../../../lib/pd2dsy/libdaisy/src/hid/disp/graphics_common.h ****                 return {other.x_,
 2523              		.loc 15 225 13 is_stmt 1 view .LVU547
 226:../../../lib/pd2dsy/libdaisy/src/hid/disp/graphics_common.h ****                         int16_t(other.GetBottom() - height_),
 2524              		.loc 15 226 17 view .LVU548
 2525              	.LBB928:
 2526              	.LBB929:
  61:../../../lib/pd2dsy/libdaisy/src/hid/disp/graphics_common.h ****     int16_t GetCenterX() const { return x_ + width_ / 2; }
ARM GAS  /var/folders/fb/yfxt3z4538j6z0vjt03w70vc0000gn/T//ccrD3Rdr.s 			page 82


 2527              		.loc 15 61 43 is_stmt 0 view .LVU549
 2528 02c8 E788     		ldrh	r7, [r4, #6]
 2529 02ca 6188     		ldrh	r1, [r4, #2]
 2530              	.LVL162:
  61:../../../lib/pd2dsy/libdaisy/src/hid/disp/graphics_common.h ****     int16_t GetCenterX() const { return x_ + width_ / 2; }
 2531              		.loc 15 61 43 view .LVU550
 2532 02cc 3944     		add	r1, r1, r7
 2533              	.LBE929:
 2534              	.LBE928:
 226:../../../lib/pd2dsy/libdaisy/src/hid/disp/graphics_common.h ****                         int16_t(other.GetBottom() - height_),
 2535              		.loc 15 226 31 view .LVU551
 2536 02ce B4F90070 		ldrsh	r7, [r4]
 227:../../../lib/pd2dsy/libdaisy/src/hid/disp/graphics_common.h ****                         width_,
 2537              		.loc 15 227 51 view .LVU552
 2538 02d2 081A     		subs	r0, r1, r0
 2539              	.LVL163:
 2540              	.LBB931:
 2541              	.LBI928:
  61:../../../lib/pd2dsy/libdaisy/src/hid/disp/graphics_common.h ****     int16_t GetCenterX() const { return x_ + width_ / 2; }
 2542              		.loc 15 61 13 is_stmt 1 view .LVU553
 2543              	.LBB930:
  61:../../../lib/pd2dsy/libdaisy/src/hid/disp/graphics_common.h ****     int16_t GetCenterX() const { return x_ + width_ / 2; }
 2544              		.loc 15 61 33 view .LVU554
  61:../../../lib/pd2dsy/libdaisy/src/hid/disp/graphics_common.h ****     int16_t GetCenterX() const { return x_ + width_ / 2; }
 2545              		.loc 15 61 33 is_stmt 0 view .LVU555
 2546              	.LBE930:
 2547              	.LBE931:
 2548              	.LBB932:
 2549              	.LBB933:
 2550              	.LBB934:
  32:../../../lib/pd2dsy/libdaisy/src/hid/disp/graphics_common.h ****     {
 2551              		.loc 15 32 66 view .LVU556
 2552 02d4 0699     		ldr	r1, [sp, #24]
 2553              	.LBE934:
 2554              	.LBE933:
 2555              	.LBE932:
 227:../../../lib/pd2dsy/libdaisy/src/hid/disp/graphics_common.h ****                         width_,
 2556              		.loc 15 227 51 view .LVU557
 2557 02d6 84B2     		uxth	r4, r0
 2558              	.LVL164:
 2559              	.LBB944:
 2560              	.LBB940:
 2561              	.LBB937:
  32:../../../lib/pd2dsy/libdaisy/src/hid/disp/graphics_common.h ****     {
 2562              		.loc 15 32 66 view .LVU558
 2563 02d8 0F80     		strh	r7, [r1]	@ movhi
 2564 02da 8B80     		strh	r3, [r1, #4]	@ movhi
 2565              	.LVL165:
  32:../../../lib/pd2dsy/libdaisy/src/hid/disp/graphics_common.h ****     {
 2566              		.loc 15 32 66 view .LVU559
 2567              	.LBE937:
 2568              	.LBE940:
 2569              	.LBI932:
  31:../../../lib/pd2dsy/libdaisy/src/hid/disp/graphics_common.h ****     : x_(x), y_(y), width_(max(0, width)), height_(max(0, height))
 2570              		.loc 15 31 5 is_stmt 1 view .LVU560
 2571              	.LBE944:
 2572              	.LBE1026:
ARM GAS  /var/folders/fb/yfxt3z4538j6z0vjt03w70vc0000gn/T//ccrD3Rdr.s 			page 83


 2573              	.LBE1104:
 468:../../../lib/pd2dsy/libdaisy/src/hid/disp/display.h ****         ((ChildType*)(this))->ChildType::WriteString(str, font, on);
 2574              		.loc 4 468 18 is_stmt 0 view .LVU561
 2575 02dc BFB2     		uxth	r7, r7
 2576              	.LVL166:
 2577              	.LBB1105:
 2578              	.LBB1027:
 2579              	.LBB945:
 2580              	.LBB941:
 2581              	.LBB938:
  32:../../../lib/pd2dsy/libdaisy/src/hid/disp/graphics_common.h ****     {
 2582              		.loc 15 32 66 view .LVU562
 2583 02de CA80     		strh	r2, [r1, #6]	@ movhi
 2584 02e0 4C80     		strh	r4, [r1, #2]	@ movhi
 2585              	.LVL167:
 2586              	.LBB935:
 2587              	.LBI935:
 2588              		.loc 15 261 13 is_stmt 1 view .LVU563
 2589              	.LBE935:
 2590              	.LBE938:
 2591              	.LBE941:
 2592              	.LBE945:
 2593              	.LBE1027:
 2594              	.LBE1105:
 2595              		.loc 15 261 41 view .LVU564
 2596              	.LBB1106:
 2597              	.LBB1028:
 2598              	.LBB946:
 2599              	.LBB942:
 2600              	.LBB939:
 2601              	.LBB936:
 2602              	.LBI936:
 2603              		.loc 15 261 13 view .LVU565
 2604              	.LBE936:
 2605              	.LBE939:
 2606              	.LBE942:
 2607              	.LBE946:
 2608              	.LBE1028:
 2609              	.LBE1106:
 2610              		.loc 15 261 41 view .LVU566
 2611              	.LBB1107:
 2612              	.LBB1029:
 2613              	.LBB947:
 2614              	.LBB943:
  34:../../../lib/pd2dsy/libdaisy/src/hid/disp/graphics_common.h **** 
 2615              		.loc 15 34 5 is_stmt 0 view .LVU567
 2616 02e2 CEE6     		b	.L117
 2617              	.LVL168:
 2618              	.L111:
  34:../../../lib/pd2dsy/libdaisy/src/hid/disp/graphics_common.h **** 
 2619              		.loc 15 34 5 view .LVU568
 2620              	.LBE943:
 2621              	.LBE947:
 235:../../../lib/pd2dsy/libdaisy/src/hid/disp/graphics_common.h ****                 return {int16_t(x_ + (other.GetCenterX() - GetCenterX())),
 2622              		.loc 15 235 13 is_stmt 1 view .LVU569
 236:../../../lib/pd2dsy/libdaisy/src/hid/disp/graphics_common.h ****                         int16_t(other.GetBottom() - height_),
 2623              		.loc 15 236 17 view .LVU570
ARM GAS  /var/folders/fb/yfxt3z4538j6z0vjt03w70vc0000gn/T//ccrD3Rdr.s 			page 84


 2624              	.LBB948:
 2625              	.LBI948:
  62:../../../lib/pd2dsy/libdaisy/src/hid/disp/graphics_common.h ****     int16_t GetCenterY() const { return y_ + height_ / 2; }
 2626              		.loc 15 62 13 view .LVU571
 2627              	.LBB949:
  62:../../../lib/pd2dsy/libdaisy/src/hid/disp/graphics_common.h ****     int16_t GetCenterY() const { return y_ + height_ / 2; }
 2628              		.loc 15 62 34 view .LVU572
  62:../../../lib/pd2dsy/libdaisy/src/hid/disp/graphics_common.h ****     int16_t GetCenterY() const { return y_ + height_ / 2; }
 2629              		.loc 15 62 34 is_stmt 0 view .LVU573
 2630              	.LBE949:
 2631              	.LBE948:
 2632              	.LBB951:
 2633              	.LBI951:
  62:../../../lib/pd2dsy/libdaisy/src/hid/disp/graphics_common.h ****     int16_t GetCenterY() const { return y_ + height_ / 2; }
 2634              		.loc 15 62 13 is_stmt 1 view .LVU574
 2635              	.LBB952:
  62:../../../lib/pd2dsy/libdaisy/src/hid/disp/graphics_common.h ****     int16_t GetCenterY() const { return y_ + height_ / 2; }
 2636              		.loc 15 62 34 view .LVU575
  62:../../../lib/pd2dsy/libdaisy/src/hid/disp/graphics_common.h ****     int16_t GetCenterY() const { return y_ + height_ / 2; }
 2637              		.loc 15 62 34 is_stmt 0 view .LVU576
 2638              	.LBE952:
 2639              	.LBE951:
 2640              	.LBB953:
 2641              	.LBB950:
  62:../../../lib/pd2dsy/libdaisy/src/hid/disp/graphics_common.h ****     int16_t GetCenterY() const { return y_ + height_ / 2; }
 2642              		.loc 15 62 53 view .LVU577
 2643 02e4 B4F90410 		ldrsh	r1, [r4, #4]
 2644              	.LVL169:
  62:../../../lib/pd2dsy/libdaisy/src/hid/disp/graphics_common.h ****     int16_t GetCenterY() const { return y_ + height_ / 2; }
 2645              		.loc 15 62 44 view .LVU578
 2646 02e8 2788     		ldrh	r7, [r4]
  62:../../../lib/pd2dsy/libdaisy/src/hid/disp/graphics_common.h ****     int16_t GetCenterY() const { return y_ + height_ / 2; }
 2647              		.loc 15 62 53 view .LVU579
 2648 02ea 0029     		cmp	r1, #0
 2649 02ec B8BF     		it	lt
 2650 02ee 0131     		addlt	r1, r1, #1
  62:../../../lib/pd2dsy/libdaisy/src/hid/disp/graphics_common.h ****     int16_t GetCenterY() const { return y_ + height_ / 2; }
 2651              		.loc 15 62 44 view .LVU580
 2652 02f0 07EB6107 		add	r7, r7, r1, asr #1
 2653              	.LBE950:
 2654              	.LBE953:
 236:../../../lib/pd2dsy/libdaisy/src/hid/disp/graphics_common.h ****                         int16_t(other.GetBottom() - height_),
 2655              		.loc 15 236 58 view .LVU581
 2656 02f4 A7EB6307 		sub	r7, r7, r3, asr #1
 2657              	.L177:
 2658              	.LBB954:
 2659              	.LBB955:
  61:../../../lib/pd2dsy/libdaisy/src/hid/disp/graphics_common.h ****     int16_t GetCenterX() const { return x_ + width_ / 2; }
 2660              		.loc 15 61 43 view .LVU582
 2661 02f8 B4F802C0 		ldrh	ip, [r4, #2]
 2662              	.LBE955:
 2663              	.LBE954:
 236:../../../lib/pd2dsy/libdaisy/src/hid/disp/graphics_common.h ****                         int16_t(other.GetBottom() - height_),
 2664              		.loc 15 236 58 view .LVU583
 2665 02fc BFB2     		uxth	r7, r7
 2666              	.LVL170:
 2667              	.LBB958:
ARM GAS  /var/folders/fb/yfxt3z4538j6z0vjt03w70vc0000gn/T//ccrD3Rdr.s 			page 85


 2668              	.LBI954:
  61:../../../lib/pd2dsy/libdaisy/src/hid/disp/graphics_common.h ****     int16_t GetCenterX() const { return x_ + width_ / 2; }
 2669              		.loc 15 61 13 is_stmt 1 view .LVU584
 2670              	.LBB956:
  61:../../../lib/pd2dsy/libdaisy/src/hid/disp/graphics_common.h ****     int16_t GetCenterX() const { return x_ + width_ / 2; }
 2671              		.loc 15 61 33 view .LVU585
  61:../../../lib/pd2dsy/libdaisy/src/hid/disp/graphics_common.h ****     int16_t GetCenterX() const { return x_ + width_ / 2; }
 2672              		.loc 15 61 43 is_stmt 0 view .LVU586
 2673 02fe E488     		ldrh	r4, [r4, #6]
 2674              	.LVL171:
  61:../../../lib/pd2dsy/libdaisy/src/hid/disp/graphics_common.h ****     int16_t GetCenterX() const { return x_ + width_ / 2; }
 2675              		.loc 15 61 43 view .LVU587
 2676              	.LBE956:
 2677              	.LBE958:
 2678              	.LBB959:
 2679              	.LBB960:
 2680              	.LBB961:
  32:../../../lib/pd2dsy/libdaisy/src/hid/disp/graphics_common.h ****     {
 2681              		.loc 15 32 66 view .LVU588
 2682 0300 0699     		ldr	r1, [sp, #24]
 2683              	.LBE961:
 2684              	.LBE960:
 2685              	.LBE959:
 2686              	.LBB973:
 2687              	.LBB957:
  61:../../../lib/pd2dsy/libdaisy/src/hid/disp/graphics_common.h ****     int16_t GetCenterX() const { return x_ + width_ / 2; }
 2688              		.loc 15 61 43 view .LVU589
 2689 0302 6444     		add	r4, r4, ip
 2690              	.LBE957:
 2691              	.LBE973:
 2692              	.LBB974:
 2693              	.LBB968:
 2694              	.LBB964:
  32:../../../lib/pd2dsy/libdaisy/src/hid/disp/graphics_common.h ****     {
 2695              		.loc 15 32 66 view .LVU590
 2696 0304 8B80     		strh	r3, [r1, #4]	@ movhi
 2697              	.LBE964:
 2698              	.LBE968:
 2699              	.LBE974:
 237:../../../lib/pd2dsy/libdaisy/src/hid/disp/graphics_common.h ****                         width_,
 2700              		.loc 15 237 51 view .LVU591
 2701 0306 201A     		subs	r0, r4, r0
 2702              	.LBB975:
 2703              	.LBB969:
 2704              	.LBB965:
  32:../../../lib/pd2dsy/libdaisy/src/hid/disp/graphics_common.h ****     {
 2705              		.loc 15 32 66 view .LVU592
 2706 0308 CA80     		strh	r2, [r1, #6]	@ movhi
 2707 030a 0F80     		strh	r7, [r1]	@ movhi
 2708              	.LBE965:
 2709              	.LBE969:
 2710              	.LBE975:
 237:../../../lib/pd2dsy/libdaisy/src/hid/disp/graphics_common.h ****                         width_,
 2711              		.loc 15 237 51 view .LVU593
 2712 030c 84B2     		uxth	r4, r0
 2713              	.LVL172:
 2714              	.LBB976:
ARM GAS  /var/folders/fb/yfxt3z4538j6z0vjt03w70vc0000gn/T//ccrD3Rdr.s 			page 86


 2715              	.LBI959:
  31:../../../lib/pd2dsy/libdaisy/src/hid/disp/graphics_common.h ****     : x_(x), y_(y), width_(max(0, width)), height_(max(0, height))
 2716              		.loc 15 31 5 is_stmt 1 view .LVU594
 2717              	.LBB970:
 2718              	.LBB966:
  32:../../../lib/pd2dsy/libdaisy/src/hid/disp/graphics_common.h ****     {
 2719              		.loc 15 32 66 is_stmt 0 view .LVU595
 2720 030e 4C80     		strh	r4, [r1, #2]	@ movhi
 2721              	.LVL173:
 2722              	.LBB962:
 2723              	.LBI962:
 2724              		.loc 15 261 13 is_stmt 1 view .LVU596
 2725              	.LBE962:
 2726              	.LBE966:
 2727              	.LBE970:
 2728              	.LBE976:
 2729              	.LBE1029:
 2730              	.LBE1107:
 2731              		.loc 15 261 41 view .LVU597
 2732              	.LBB1108:
 2733              	.LBB1030:
 2734              	.LBB977:
 2735              	.LBB971:
 2736              	.LBB967:
 2737              	.LBB963:
 2738              	.LBI963:
 2739              		.loc 15 261 13 view .LVU598
 2740              	.LBE963:
 2741              	.LBE967:
 2742              	.LBE971:
 2743              	.LBE977:
 2744              	.LBE1030:
 2745              	.LBE1108:
 2746              		.loc 15 261 41 view .LVU599
 2747              	.LBB1109:
 2748              	.LBB1031:
 2749              	.LBB978:
 2750              	.LBB972:
  34:../../../lib/pd2dsy/libdaisy/src/hid/disp/graphics_common.h **** 
 2751              		.loc 15 34 5 is_stmt 0 view .LVU600
 2752 0310 B7E6     		b	.L117
 2753              	.LVL174:
 2754              	.L110:
  34:../../../lib/pd2dsy/libdaisy/src/hid/disp/graphics_common.h **** 
 2755              		.loc 15 34 5 view .LVU601
 2756              	.LBE972:
 2757              	.LBE978:
 230:../../../lib/pd2dsy/libdaisy/src/hid/disp/graphics_common.h ****                 return {int16_t(other.GetRight() - width_),
 2758              		.loc 15 230 13 is_stmt 1 view .LVU602
 231:../../../lib/pd2dsy/libdaisy/src/hid/disp/graphics_common.h ****                         int16_t(other.GetBottom() - height_),
 2759              		.loc 15 231 17 view .LVU603
 2760              	.LBB979:
 2761              	.LBI979:
  60:../../../lib/pd2dsy/libdaisy/src/hid/disp/graphics_common.h ****     int16_t GetBottom() const { return y_ + height_; }
 2762              		.loc 15 60 13 view .LVU604
 2763              	.LBB980:
  60:../../../lib/pd2dsy/libdaisy/src/hid/disp/graphics_common.h ****     int16_t GetBottom() const { return y_ + height_; }
ARM GAS  /var/folders/fb/yfxt3z4538j6z0vjt03w70vc0000gn/T//ccrD3Rdr.s 			page 87


 2764              		.loc 15 60 32 view .LVU605
  60:../../../lib/pd2dsy/libdaisy/src/hid/disp/graphics_common.h ****     int16_t GetBottom() const { return y_ + height_; }
 2765              		.loc 15 60 42 is_stmt 0 view .LVU606
 2766 0312 2788     		ldrh	r7, [r4]
 2767 0314 A188     		ldrh	r1, [r4, #4]
 2768              	.LVL175:
  60:../../../lib/pd2dsy/libdaisy/src/hid/disp/graphics_common.h ****     int16_t GetBottom() const { return y_ + height_; }
 2769              		.loc 15 60 42 view .LVU607
 2770 0316 0F44     		add	r7, r7, r1
 2771              	.LBE980:
 2772              	.LBE979:
 231:../../../lib/pd2dsy/libdaisy/src/hid/disp/graphics_common.h ****                         int16_t(other.GetBottom() - height_),
 2773              		.loc 15 231 50 view .LVU608
 2774 0318 FF1A     		subs	r7, r7, r3
 2775 031a EDE7     		b	.L177
 2776              	.L190:
 2777              		.align	2
 2778              	.L189:
 2779 031c 00000000 		.word	_ZNK5daisy11OledDisplayINS_13SSD130xDriverILj128ELj64ENS_24SSD130x4WireSpiTransportEEEE5Widt
 2780 0320 00000000 		.word	_ZNK5daisy11OledDisplayINS_13SSD130xDriverILj128ELj64ENS_24SSD130x4WireSpiTransportEEEE6Heig
 2781              	.LVL176:
 2782              	.L109:
 240:../../../lib/pd2dsy/libdaisy/src/hid/disp/graphics_common.h ****                 return {other.x_,
 2783              		.loc 15 240 13 is_stmt 1 view .LVU609
 241:../../../lib/pd2dsy/libdaisy/src/hid/disp/graphics_common.h ****                         int16_t(y_ + (other.GetCenterY() - GetCenterY())),
 2784              		.loc 15 241 17 view .LVU610
 2785              	.LBB981:
 2786              	.LBB982:
  63:../../../lib/pd2dsy/libdaisy/src/hid/disp/graphics_common.h **** 
 2787              		.loc 15 63 54 is_stmt 0 view .LVU611
 2788 0324 B4F90610 		ldrsh	r1, [r4, #6]
 2789              	.LVL177:
  63:../../../lib/pd2dsy/libdaisy/src/hid/disp/graphics_common.h **** 
 2790              		.loc 15 63 54 view .LVU612
 2791              	.LBE982:
 2792              	.LBE981:
 241:../../../lib/pd2dsy/libdaisy/src/hid/disp/graphics_common.h ****                         int16_t(y_ + (other.GetCenterY() - GetCenterY())),
 2793              		.loc 15 241 31 view .LVU613
 2794 0328 B4F90070 		ldrsh	r7, [r4]
 2795              	.LVL178:
 2796              	.LBB987:
 2797              	.LBI981:
  63:../../../lib/pd2dsy/libdaisy/src/hid/disp/graphics_common.h **** 
 2798              		.loc 15 63 13 is_stmt 1 view .LVU614
 2799              	.LBB983:
  63:../../../lib/pd2dsy/libdaisy/src/hid/disp/graphics_common.h **** 
 2800              		.loc 15 63 34 view .LVU615
  63:../../../lib/pd2dsy/libdaisy/src/hid/disp/graphics_common.h **** 
 2801              		.loc 15 63 34 is_stmt 0 view .LVU616
 2802              	.LBE983:
 2803              	.LBE987:
 2804              	.LBB988:
 2805              	.LBI988:
  63:../../../lib/pd2dsy/libdaisy/src/hid/disp/graphics_common.h **** 
 2806              		.loc 15 63 13 is_stmt 1 view .LVU617
 2807              	.LBB989:
  63:../../../lib/pd2dsy/libdaisy/src/hid/disp/graphics_common.h **** 
ARM GAS  /var/folders/fb/yfxt3z4538j6z0vjt03w70vc0000gn/T//ccrD3Rdr.s 			page 88


 2808              		.loc 15 63 34 view .LVU618
  63:../../../lib/pd2dsy/libdaisy/src/hid/disp/graphics_common.h **** 
 2809              		.loc 15 63 34 is_stmt 0 view .LVU619
 2810              	.LBE989:
 2811              	.LBE988:
 2812              	.LBB990:
 2813              	.LBB984:
  63:../../../lib/pd2dsy/libdaisy/src/hid/disp/graphics_common.h **** 
 2814              		.loc 15 63 54 view .LVU620
 2815 032c 0029     		cmp	r1, #0
  63:../../../lib/pd2dsy/libdaisy/src/hid/disp/graphics_common.h **** 
 2816              		.loc 15 63 44 view .LVU621
 2817 032e 6488     		ldrh	r4, [r4, #2]
 2818              	.LVL179:
  63:../../../lib/pd2dsy/libdaisy/src/hid/disp/graphics_common.h **** 
 2819              		.loc 15 63 44 view .LVU622
 2820              	.LBE984:
 2821              	.LBE990:
 2822              	.LBB991:
 2823              	.LBB992:
 2824              	.LBB993:
  32:../../../lib/pd2dsy/libdaisy/src/hid/disp/graphics_common.h ****     {
 2825              		.loc 15 32 66 view .LVU623
 2826 0330 0698     		ldr	r0, [sp, #24]
 2827              	.LBE993:
 2828              	.LBE992:
 2829              	.LBE991:
 2830              	.LBB1005:
 2831              	.LBB985:
  63:../../../lib/pd2dsy/libdaisy/src/hid/disp/graphics_common.h **** 
 2832              		.loc 15 63 54 view .LVU624
 2833 0332 B8BF     		it	lt
 2834 0334 0131     		addlt	r1, r1, #1
 2835              	.LBE985:
 2836              	.LBE1005:
 2837              	.LBB1006:
 2838              	.LBB1000:
 2839              	.LBB996:
  32:../../../lib/pd2dsy/libdaisy/src/hid/disp/graphics_common.h ****     {
 2840              		.loc 15 32 66 view .LVU625
 2841 0336 C280     		strh	r2, [r0, #6]	@ movhi
 2842              	.LBE996:
 2843              	.LBE1000:
 2844              	.LBE1006:
 2845              	.LBB1007:
 2846              	.LBB986:
  63:../../../lib/pd2dsy/libdaisy/src/hid/disp/graphics_common.h **** 
 2847              		.loc 15 63 44 view .LVU626
 2848 0338 04EB6104 		add	r4, r4, r1, asr #1
 2849              	.LBE986:
 2850              	.LBE1007:
 2851              	.LBB1008:
 2852              	.LBB1001:
 2853              	.LBB997:
  32:../../../lib/pd2dsy/libdaisy/src/hid/disp/graphics_common.h ****     {
 2854              		.loc 15 32 66 view .LVU627
 2855 033c 0780     		strh	r7, [r0]	@ movhi
ARM GAS  /var/folders/fb/yfxt3z4538j6z0vjt03w70vc0000gn/T//ccrD3Rdr.s 			page 89


 2856 033e 8380     		strh	r3, [r0, #4]	@ movhi
 2857              	.LBE997:
 2858              	.LBE1001:
 2859              	.LBE1008:
 2860              	.LBE1031:
 2861              	.LBE1109:
 468:../../../lib/pd2dsy/libdaisy/src/hid/disp/display.h ****         ((ChildType*)(this))->ChildType::WriteString(str, font, on);
 2862              		.loc 4 468 18 view .LVU628
 2863 0340 BFB2     		uxth	r7, r7
 2864              	.LBB1110:
 2865              	.LBB1032:
 242:../../../lib/pd2dsy/libdaisy/src/hid/disp/graphics_common.h ****                         width_,
 2866              		.loc 15 242 58 view .LVU629
 2867 0342 A4EB5202 		sub	r2, r4, r2, lsr #1
 2868 0346 94B2     		uxth	r4, r2
 2869              	.LVL180:
 2870              	.LBB1009:
 2871              	.LBI991:
  31:../../../lib/pd2dsy/libdaisy/src/hid/disp/graphics_common.h ****     : x_(x), y_(y), width_(max(0, width)), height_(max(0, height))
 2872              		.loc 15 31 5 is_stmt 1 view .LVU630
 2873              	.LBB1002:
 2874              	.LBB998:
  32:../../../lib/pd2dsy/libdaisy/src/hid/disp/graphics_common.h ****     {
 2875              		.loc 15 32 66 is_stmt 0 view .LVU631
 2876 0348 4480     		strh	r4, [r0, #2]	@ movhi
 2877              	.LVL181:
 2878              	.LBB994:
 2879              	.LBI994:
 2880              		.loc 15 261 13 is_stmt 1 view .LVU632
 2881              	.LBE994:
 2882              	.LBE998:
 2883              	.LBE1002:
 2884              	.LBE1009:
 2885              	.LBE1032:
 2886              	.LBE1110:
 2887              		.loc 15 261 41 view .LVU633
 2888              	.LBB1111:
 2889              	.LBB1033:
 2890              	.LBB1010:
 2891              	.LBB1003:
 2892              	.LBB999:
 2893              	.LBB995:
 2894              	.LBI995:
 2895              		.loc 15 261 13 view .LVU634
 2896              	.LBE995:
 2897              	.LBE999:
 2898              	.LBE1003:
 2899              	.LBE1010:
 2900              	.LBE1033:
 2901              	.LBE1111:
 2902              		.loc 15 261 41 view .LVU635
 2903              	.LBB1112:
 2904              	.LBB1034:
 2905              	.LBB1011:
 2906              	.LBB1004:
  34:../../../lib/pd2dsy/libdaisy/src/hid/disp/graphics_common.h **** 
 2907              		.loc 15 34 5 is_stmt 0 view .LVU636
ARM GAS  /var/folders/fb/yfxt3z4538j6z0vjt03w70vc0000gn/T//ccrD3Rdr.s 			page 90


 2908 034a 9AE6     		b	.L117
 2909              	.LVL182:
 2910              	.L137:
  34:../../../lib/pd2dsy/libdaisy/src/hid/disp/graphics_common.h **** 
 2911              		.loc 15 34 5 view .LVU637
 2912              	.LBE1004:
 2913              	.LBE1011:
 2914              	.LBE1034:
 2915              	.LBE1112:
 2916              	.LBB1113:
 2917              	.LBB1091:
 2918              	.LBB1088:
 2919              	.LBB1087:
 402:../../../lib/pd2dsy/libdaisy/src/hid/disp/display.h **** 
 2920              		.loc 4 402 20 view .LVU638
 2921 034c 4FF0000B 		mov	fp, #0
 2922              	.LVL183:
 402:../../../lib/pd2dsy/libdaisy/src/hid/disp/display.h **** 
 2923              		.loc 4 402 20 view .LVU639
 2924 0350 6BE7     		b	.L135
 2925              	.LVL184:
 2926              	.L182:
 405:../../../lib/pd2dsy/libdaisy/src/hid/disp/display.h ****            || Height() < (currentY_ + font.FontHeight))
 2927              		.loc 4 405 17 view .LVU640
 2928 0352 4046     		mov	r0, r8
 2929 0354 9847     		blx	r3
 2930              	.LVL185:
 2931 0356 D5E6     		b	.L136
 2932              	.L183:
 406:../../../lib/pd2dsy/libdaisy/src/hid/disp/display.h ****         {
 2933              		.loc 4 406 21 view .LVU641
 2934 0358 4046     		mov	r0, r8
 2935 035a 9847     		blx	r3
 2936              	.LVL186:
 2937 035c E0E6     		b	.L138
 2938              	.LVL187:
 2939              	.L187:
 2940              	.LBB1085:
 2941              	.LBB1081:
 174:../../../lib/pd2dsy/libdaisy/src/hid/disp/display.h ****     }
 2942              		.loc 4 174 33 view .LVU642
 2943 035e 4046     		mov	r0, r8
 2944 0360 9847     		blx	r3
 2945              	.LVL188:
 2946 0362 53E7     		b	.L152
 2947              	.LVL189:
 2948              	.L185:
 173:../../../lib/pd2dsy/libdaisy/src/hid/disp/display.h ****         currentY_ = (y >= Height()) ? Height() - 1 : y;
 2949              		.loc 4 173 32 view .LVU643
 2950 0364 4046     		mov	r0, r8
 2951 0366 9847     		blx	r3
 2952              	.LVL190:
 173:../../../lib/pd2dsy/libdaisy/src/hid/disp/display.h ****         currentY_ = (y >= Height()) ? Height() - 1 : y;
 2953              		.loc 4 173 44 view .LVU644
 2954 0368 D8F80020 		ldr	r2, [r8]
 2955 036c 3EE7     		b	.L149
 2956              	.LVL191:
ARM GAS  /var/folders/fb/yfxt3z4538j6z0vjt03w70vc0000gn/T//ccrD3Rdr.s 			page 91


 2957              	.L139:
 173:../../../lib/pd2dsy/libdaisy/src/hid/disp/display.h ****         currentY_ = (y >= Height()) ? Height() - 1 : y;
 2958              		.loc 4 173 44 view .LVU645
 2959              	.LBE1081:
 2960              	.LBE1085:
 434:../../../lib/pd2dsy/libdaisy/src/hid/disp/display.h **** 
 2961              		.loc 4 434 19 view .LVU646
 2962 036e B8F804A0 		ldrh	r10, [r8, #4]
 2963 0372 30E7     		b	.L141
 2964              	.LVL192:
 2965              	.L188:
 2966              	.LBB1086:
 2967              	.LBB1082:
 174:../../../lib/pd2dsy/libdaisy/src/hid/disp/display.h ****     }
 2968              		.loc 4 174 45 view .LVU647
 2969 0374 4046     		mov	r0, r8
 2970 0376 9847     		blx	r3
 2971              	.LVL193:
 174:../../../lib/pd2dsy/libdaisy/src/hid/disp/display.h ****     }
 2972              		.loc 4 174 19 view .LVU648
 2973 0378 0138     		subs	r0, r0, #1
 2974 037a 83B2     		uxth	r3, r0
 2975 037c 0293     		str	r3, [sp, #8]
 2976              	.LVL194:
 174:../../../lib/pd2dsy/libdaisy/src/hid/disp/display.h ****     }
 2977              		.loc 4 174 19 view .LVU649
 2978 037e 51E7     		b	.L153
 2979              	.LVL195:
 2980              	.L186:
 173:../../../lib/pd2dsy/libdaisy/src/hid/disp/display.h ****         currentY_ = (y >= Height()) ? Height() - 1 : y;
 2981              		.loc 4 173 43 view .LVU650
 2982 0380 4046     		mov	r0, r8
 2983 0382 9847     		blx	r3
 2984              	.LVL196:
 173:../../../lib/pd2dsy/libdaisy/src/hid/disp/display.h ****         currentY_ = (y >= Height()) ? Height() - 1 : y;
 2985              		.loc 4 173 19 view .LVU651
 2986 0384 0138     		subs	r0, r0, #1
 174:../../../lib/pd2dsy/libdaisy/src/hid/disp/display.h ****     }
 2987              		.loc 4 174 34 view .LVU652
 2988 0386 D8F80020 		ldr	r2, [r8]
 173:../../../lib/pd2dsy/libdaisy/src/hid/disp/display.h ****         currentY_ = (y >= Height()) ? Height() - 1 : y;
 2989              		.loc 4 173 19 view .LVU653
 2990 038a 85B2     		uxth	r5, r0
 2991              	.LVL197:
 173:../../../lib/pd2dsy/libdaisy/src/hid/disp/display.h ****         currentY_ = (y >= Height()) ? Height() - 1 : y;
 2992              		.loc 4 173 19 view .LVU654
 2993 038c 36E7     		b	.L150
 2994              	.LVL198:
 2995              	.L106:
 173:../../../lib/pd2dsy/libdaisy/src/hid/disp/display.h ****         currentY_ = (y >= Height()) ? Height() - 1 : y;
 2996              		.loc 4 173 19 view .LVU655
 2997              	.LBE1082:
 2998              	.LBE1086:
 2999              	.LBE1087:
 3000              	.LBE1088:
 3001              	.LBE1091:
 3002              	.LBE1113:
ARM GAS  /var/folders/fb/yfxt3z4538j6z0vjt03w70vc0000gn/T//ccrD3Rdr.s 			page 92


 3003              	.LBB1114:
 3004              	.LBB1035:
 255:../../../lib/pd2dsy/libdaisy/src/hid/disp/graphics_common.h ****         }
 3005              		.loc 15 255 13 is_stmt 1 view .LVU656
 255:../../../lib/pd2dsy/libdaisy/src/hid/disp/graphics_common.h ****         }
 3006              		.loc 15 255 22 view .LVU657
 3007              	.LBB1012:
 3008              	.LBI1012:
  24:../../../lib/pd2dsy/libdaisy/src/hid/disp/graphics_common.h **** 
 3009              		.loc 15 24 5 view .LVU658
 3010              	.LBE1012:
 3011              	.LBE1035:
 3012              	.LBE1114:
 3013              	.LBB1115:
 3014              	.LBB1041:
 173:../../../lib/pd2dsy/libdaisy/src/hid/disp/display.h ****         currentY_ = (y >= Height()) ? Height() - 1 : y;
 3015              		.loc 4 173 33 is_stmt 0 view .LVU659
 3016 038e D8F80030 		ldr	r3, [r8]
 3017              	.LBE1041:
 3018              	.LBE1115:
 3019              	.LBB1116:
 3020              	.LBB1036:
 3021              	.LBB1014:
 3022              	.LBB1013:
  24:../../../lib/pd2dsy/libdaisy/src/hid/disp/graphics_common.h **** 
 3023              		.loc 15 24 53 view .LVU660
 3024 0392 0024     		movs	r4, #0
 3025              	.LVL199:
  24:../../../lib/pd2dsy/libdaisy/src/hid/disp/graphics_common.h **** 
 3026              		.loc 15 24 53 view .LVU661
 3027 0394 069A     		ldr	r2, [sp, #24]
 3028 0396 1349     		ldr	r1, .L191
 3029              	.LVL200:
  24:../../../lib/pd2dsy/libdaisy/src/hid/disp/graphics_common.h **** 
 3030              		.loc 15 24 53 view .LVU662
 3031 0398 1480     		strh	r4, [r2]	@ movhi
 3032 039a 5480     		strh	r4, [r2, #2]	@ movhi
 3033 039c 9480     		strh	r4, [r2, #4]	@ movhi
 3034 039e D480     		strh	r4, [r2, #6]	@ movhi
 3035              	.LVL201:
  24:../../../lib/pd2dsy/libdaisy/src/hid/disp/graphics_common.h **** 
 3036              		.loc 15 24 53 view .LVU663
 3037              	.LBE1013:
 3038              	.LBE1014:
 3039              	.LBE1036:
 3040              	.LBE1116:
  56:../../../lib/pd2dsy/libdaisy/src/hid/disp/graphics_common.h ****     int16_t GetY() const { return y_; }
 3041              		.loc 15 56 28 is_stmt 1 view .LVU664
  57:../../../lib/pd2dsy/libdaisy/src/hid/disp/graphics_common.h ****     int16_t GetWidth() const { return width_; }
 3042              		.loc 15 57 28 view .LVU665
 3043              	.LBB1117:
 171:../../../lib/pd2dsy/libdaisy/src/hid/disp/display.h ****     {
 3044              		.loc 4 171 10 view .LVU666
 3045              	.LBB1042:
 173:../../../lib/pd2dsy/libdaisy/src/hid/disp/display.h ****         currentY_ = (y >= Height()) ? Height() - 1 : y;
 3046              		.loc 4 173 9 view .LVU667
 173:../../../lib/pd2dsy/libdaisy/src/hid/disp/display.h ****         currentY_ = (y >= Height()) ? Height() - 1 : y;
ARM GAS  /var/folders/fb/yfxt3z4538j6z0vjt03w70vc0000gn/T//ccrD3Rdr.s 			page 93


 3047              		.loc 4 173 33 is_stmt 0 view .LVU668
 3048 03a0 DA68     		ldr	r2, [r3, #12]
 3049 03a2 0191     		str	r1, [sp, #4]
 3050 03a4 8A42     		cmp	r2, r1
 3051 03a6 05D0     		beq	.L124
 3052 03a8 2746     		mov	r7, r4
 3053              	.LVL202:
 3054              	.L125:
 173:../../../lib/pd2dsy/libdaisy/src/hid/disp/display.h ****         currentY_ = (y >= Height()) ? Height() - 1 : y;
 3055              		.loc 4 173 32 view .LVU669
 3056 03aa 4046     		mov	r0, r8
 3057 03ac 9047     		blx	r2
 3058              	.LVL203:
 173:../../../lib/pd2dsy/libdaisy/src/hid/disp/display.h ****         currentY_ = (y >= Height()) ? Height() - 1 : y;
 3059              		.loc 4 173 44 view .LVU670
 3060 03ae D8F80030 		ldr	r3, [r8]
 3061 03b2 70E6     		b	.L126
 3062              	.LVL204:
 3063              	.L124:
 174:../../../lib/pd2dsy/libdaisy/src/hid/disp/display.h ****     }
 3064              		.loc 4 174 34 view .LVU671
 3065 03b4 9B68     		ldr	r3, [r3, #8]
 3066 03b6 0C4A     		ldr	r2, .L191+4
 173:../../../lib/pd2dsy/libdaisy/src/hid/disp/display.h ****         currentY_ = (y >= Height()) ? Height() - 1 : y;
 3067              		.loc 4 173 19 view .LVU672
 3068 03b8 A8F80440 		strh	r4, [r8, #4]	@ movhi
 174:../../../lib/pd2dsy/libdaisy/src/hid/disp/display.h ****     }
 3069              		.loc 4 174 9 is_stmt 1 view .LVU673
 3070 03bc 9342     		cmp	r3, r2
 3071 03be 0392     		str	r2, [sp, #12]
 3072 03c0 3FF484AE 		beq	.L131
 3073              	.LVL205:
 3074              	.L157:
 174:../../../lib/pd2dsy/libdaisy/src/hid/disp/display.h ****     }
 3075              		.loc 4 174 33 is_stmt 0 view .LVU674
 3076 03c4 4046     		mov	r0, r8
 3077 03c6 9847     		blx	r3
 3078              	.LVL206:
 3079 03c8 76E6     		b	.L129
 3080              	.L181:
 174:../../../lib/pd2dsy/libdaisy/src/hid/disp/display.h ****     }
 3081              		.loc 4 174 45 view .LVU675
 3082 03ca 4046     		mov	r0, r8
 3083 03cc 9847     		blx	r3
 3084              	.LVL207:
 174:../../../lib/pd2dsy/libdaisy/src/hid/disp/display.h ****     }
 3085              		.loc 4 174 19 view .LVU676
 3086 03ce 0138     		subs	r0, r0, #1
 3087 03d0 84B2     		uxth	r4, r0
 3088 03d2 7BE6     		b	.L131
 3089              	.L180:
 173:../../../lib/pd2dsy/libdaisy/src/hid/disp/display.h ****         currentY_ = (y >= Height()) ? Height() - 1 : y;
 3090              		.loc 4 173 43 view .LVU677
 3091 03d4 4046     		mov	r0, r8
 3092 03d6 9047     		blx	r2
 3093              	.LVL208:
 173:../../../lib/pd2dsy/libdaisy/src/hid/disp/display.h ****         currentY_ = (y >= Height()) ? Height() - 1 : y;
ARM GAS  /var/folders/fb/yfxt3z4538j6z0vjt03w70vc0000gn/T//ccrD3Rdr.s 			page 94


 3094              		.loc 4 173 19 view .LVU678
 3095 03d8 0138     		subs	r0, r0, #1
 174:../../../lib/pd2dsy/libdaisy/src/hid/disp/display.h ****     }
 3096              		.loc 4 174 34 view .LVU679
 3097 03da D8F80030 		ldr	r3, [r8]
 173:../../../lib/pd2dsy/libdaisy/src/hid/disp/display.h ****         currentY_ = (y >= Height()) ? Height() - 1 : y;
 3098              		.loc 4 173 19 view .LVU680
 3099 03de 87B2     		uxth	r7, r0
 3100 03e0 61E6     		b	.L127
 3101              	.L192:
 3102 03e2 00BF     		.align	2
 3103              	.L191:
 3104 03e4 00000000 		.word	_ZNK5daisy11OledDisplayINS_13SSD130xDriverILj128ELj64ENS_24SSD130x4WireSpiTransportEEEE5Widt
 3105 03e8 00000000 		.word	_ZNK5daisy11OledDisplayINS_13SSD130xDriverILj128ELj64ENS_24SSD130x4WireSpiTransportEEEE6Heig
 3106              	.LBE1042:
 3107              	.LBE1117:
 3108              		.cfi_endproc
 3109              	.LFE3081:
 3111              		.section	.text._ZN5daisy11OledDisplayINS_13SSD130xDriverILj128ELj64ENS_24SSD130x4WireSpiTransportE
 3112              		.align	1
 3113              		.p2align 2,,3
 3114              		.weak	_ZN5daisy11OledDisplayINS_13SSD130xDriverILj128ELj64ENS_24SSD130x4WireSpiTransportEEEE9DrawP
 3115              		.syntax unified
 3116              		.thumb
 3117              		.thumb_func
 3119              	_ZN5daisy11OledDisplayINS_13SSD130xDriverILj128ELj64ENS_24SSD130x4WireSpiTransportEEEE9DrawPixelEjj
 3120              	.LVL209:
 3121              	.LFB3075:
  42:../../../lib/pd2dsy/libdaisy/src/hid/disp/oled_display.h ****     {
 3122              		.loc 2 42 10 is_stmt 1 view -0
 3123              		.cfi_startproc
 3124              		@ args = 0, pretend = 0, frame = 0
 3125              		@ frame_needed = 0, uses_anonymous_args = 0
 3126              		@ link register save eliminated.
 3127              	.LBB1122:
 3128              	.LBI1122:
 252:../../../lib/pd2dsy/libdaisy/src/dev/oled_ssd130x.h ****     {
 3129              		.loc 3 252 10 view .LVU682
 3130              	.LBB1123:
 254:../../../lib/pd2dsy/libdaisy/src/dev/oled_ssd130x.h ****             return;
 3131              		.loc 3 254 9 is_stmt 0 view .LVU683
 3132 0000 7F29     		cmp	r1, #127
 3133 0002 1ED8     		bhi	.L193
 3134 0004 3F2A     		cmp	r2, #63
 3135 0006 1CD8     		bhi	.L193
 256:../../../lib/pd2dsy/libdaisy/src/dev/oled_ssd130x.h ****             buffer_[x + (y / 8) * width] |= (1 << (y % 8));
 3136              		.loc 3 256 9 view .LVU684
 3137 0008 6BB1     		cbz	r3, .L195
 257:../../../lib/pd2dsy/libdaisy/src/dev/oled_ssd130x.h ****         else
 3138              		.loc 3 257 28 view .LVU685
 3139 000a D308     		lsrs	r3, r2, #3
 3140              	.LVL210:
 257:../../../lib/pd2dsy/libdaisy/src/dev/oled_ssd130x.h ****         else
 3141              		.loc 3 257 48 view .LVU686
 3142 000c 4FF0010C 		mov	ip, #1
 257:../../../lib/pd2dsy/libdaisy/src/dev/oled_ssd130x.h ****         else
 3143              		.loc 3 257 54 view .LVU687
ARM GAS  /var/folders/fb/yfxt3z4538j6z0vjt03w70vc0000gn/T//ccrD3Rdr.s 			page 95


 3144 0010 02F00702 		and	r2, r2, #7
 3145              	.LVL211:
 257:../../../lib/pd2dsy/libdaisy/src/dev/oled_ssd130x.h ****         else
 3146              		.loc 3 257 42 view .LVU688
 3147 0014 01EBC313 		add	r3, r1, r3, lsl #7
 257:../../../lib/pd2dsy/libdaisy/src/dev/oled_ssd130x.h ****         else
 3148              		.loc 3 257 48 view .LVU689
 3149 0018 0CFA02F2 		lsl	r2, ip, r2
 257:../../../lib/pd2dsy/libdaisy/src/dev/oled_ssd130x.h ****         else
 3150              		.loc 3 257 42 view .LVU690
 3151 001c C118     		adds	r1, r0, r3
 3152              	.LVL212:
 257:../../../lib/pd2dsy/libdaisy/src/dev/oled_ssd130x.h ****         else
 3153              		.loc 3 257 42 view .LVU691
 3154 001e 0B7D     		ldrb	r3, [r1, #20]	@ zero_extendqisi2
 3155 0020 1A43     		orrs	r2, r2, r3
 3156 0022 0A75     		strb	r2, [r1, #20]
 3157 0024 7047     		bx	lr
 3158              	.LVL213:
 3159              	.L195:
 3160              	.LBB1124:
 3161              	.LBI1124:
 252:../../../lib/pd2dsy/libdaisy/src/dev/oled_ssd130x.h ****     {
 3162              		.loc 3 252 10 is_stmt 1 view .LVU692
 3163              	.LBB1125:
 259:../../../lib/pd2dsy/libdaisy/src/dev/oled_ssd130x.h ****     }
 3164              		.loc 3 259 28 is_stmt 0 view .LVU693
 3165 0026 D308     		lsrs	r3, r2, #3
 3166              	.LVL214:
 259:../../../lib/pd2dsy/libdaisy/src/dev/oled_ssd130x.h ****     }
 3167              		.loc 3 259 49 view .LVU694
 3168 0028 4FF0010C 		mov	ip, #1
 259:../../../lib/pd2dsy/libdaisy/src/dev/oled_ssd130x.h ****     }
 3169              		.loc 3 259 55 view .LVU695
 3170 002c 02F00702 		and	r2, r2, #7
 3171              	.LVL215:
 259:../../../lib/pd2dsy/libdaisy/src/dev/oled_ssd130x.h ****     }
 3172              		.loc 3 259 42 view .LVU696
 3173 0030 01EBC313 		add	r3, r1, r3, lsl #7
 259:../../../lib/pd2dsy/libdaisy/src/dev/oled_ssd130x.h ****     }
 3174              		.loc 3 259 49 view .LVU697
 3175 0034 0CFA02FC 		lsl	ip, ip, r2
 259:../../../lib/pd2dsy/libdaisy/src/dev/oled_ssd130x.h ****     }
 3176              		.loc 3 259 42 view .LVU698
 3177 0038 C118     		adds	r1, r0, r3
 3178              	.LVL216:
 259:../../../lib/pd2dsy/libdaisy/src/dev/oled_ssd130x.h ****     }
 3179              		.loc 3 259 42 view .LVU699
 3180 003a 0A7D     		ldrb	r2, [r1, #20]	@ zero_extendqisi2
 3181 003c 22EA0C02 		bic	r2, r2, ip
 3182 0040 0A75     		strb	r2, [r1, #20]
 3183              	.LVL217:
 3184              	.L193:
 259:../../../lib/pd2dsy/libdaisy/src/dev/oled_ssd130x.h ****     }
 3185              		.loc 3 259 42 view .LVU700
 3186              	.LBE1125:
 3187              	.LBE1124:
ARM GAS  /var/folders/fb/yfxt3z4538j6z0vjt03w70vc0000gn/T//ccrD3Rdr.s 			page 96


 3188              	.LBE1123:
 3189              	.LBE1122:
  45:../../../lib/pd2dsy/libdaisy/src/hid/disp/oled_display.h **** 
 3190              		.loc 2 45 5 view .LVU701
 3191 0042 7047     		bx	lr
 3192              		.cfi_endproc
 3193              	.LFE3075:
 3195              		.section	.text._ZN5daisy25OneBitGraphicsDisplayImplINS_11OledDisplayINS_13SSD130xDriverILj128ELj64
 3196              		.align	1
 3197              		.p2align 2,,3
 3198              		.weak	_ZN5daisy25OneBitGraphicsDisplayImplINS_11OledDisplayINS_13SSD130xDriverILj128ELj64ENS_24SSD
 3199              		.syntax unified
 3200              		.thumb
 3201              		.thumb_func
 3203              	_ZN5daisy25OneBitGraphicsDisplayImplINS_11OledDisplayINS_13SSD130xDriverILj128ELj64ENS_24SSD130x4Wi
 3204              	.LVL218:
 3205              	.LFB3076:
 221:../../../lib/pd2dsy/libdaisy/src/hid/disp/display.h ****                   uint_fast8_t y1,
 3206              		.loc 4 221 10 is_stmt 1 view -0
 3207              		.cfi_startproc
 3208              		@ args = 8, pretend = 0, frame = 8
 3209              		@ frame_needed = 0, uses_anonymous_args = 0
 221:../../../lib/pd2dsy/libdaisy/src/hid/disp/display.h ****                   uint_fast8_t y1,
 3210              		.loc 4 221 10 is_stmt 0 view .LVU703
 3211 0000 2DE9F04F 		push	{r4, r5, r6, r7, r8, r9, r10, fp, lr}
 3212              		.cfi_def_cfa_offset 36
 3213              		.cfi_offset 4, -36
 3214              		.cfi_offset 5, -32
 3215              		.cfi_offset 6, -28
 3216              		.cfi_offset 7, -24
 3217              		.cfi_offset 8, -20
 3218              		.cfi_offset 9, -16
 3219              		.cfi_offset 10, -12
 3220              		.cfi_offset 11, -8
 3221              		.cfi_offset 14, -4
 3222 0004 83B0     		sub	sp, sp, #12
 3223              		.cfi_def_cfa_offset 48
 227:../../../lib/pd2dsy/libdaisy/src/hid/disp/display.h ****         int_fast16_t deltaY = abs((int_fast16_t)y2 - (int_fast16_t)y1);
 3224              		.loc 4 227 52 view .LVU704
 3225 0006 5C1A     		subs	r4, r3, r1
 221:../../../lib/pd2dsy/libdaisy/src/hid/disp/display.h ****                   uint_fast8_t y1,
 3226              		.loc 4 221 10 view .LVU705
 3227 0008 0C9E     		ldr	r6, [sp, #48]
 227:../../../lib/pd2dsy/libdaisy/src/hid/disp/display.h ****         int_fast16_t deltaY = abs((int_fast16_t)y2 - (int_fast16_t)y1);
 3228              		.loc 4 227 22 view .LVU706
 3229 000a 002C     		cmp	r4, #0
 221:../../../lib/pd2dsy/libdaisy/src/hid/disp/display.h ****                   uint_fast8_t y1,
 3230              		.loc 4 221 10 view .LVU707
 3231 000c 9DF83490 		ldrb	r9, [sp, #52]	@ zero_extendqisi2
 228:../../../lib/pd2dsy/libdaisy/src/hid/disp/display.h ****         int_fast16_t signX  = ((x1 < x2) ? 1 : -1);
 3232              		.loc 4 228 52 view .LVU708
 3233 0010 A6EB0208 		sub	r8, r6, r2
 227:../../../lib/pd2dsy/libdaisy/src/hid/disp/display.h ****         int_fast16_t deltaY = abs((int_fast16_t)y2 - (int_fast16_t)y1);
 3234              		.loc 4 227 22 view .LVU709
 3235 0014 B8BF     		it	lt
 3236 0016 6442     		rsblt	r4, r4, #0
 3237              	.LVL219:
ARM GAS  /var/folders/fb/yfxt3z4538j6z0vjt03w70vc0000gn/T//ccrD3Rdr.s 			page 97


 228:../../../lib/pd2dsy/libdaisy/src/hid/disp/display.h ****         int_fast16_t signX  = ((x1 < x2) ? 1 : -1);
 3238              		.loc 4 228 22 view .LVU710
 3239 0018 B8F1000F 		cmp	r8, #0
 3240 001c B8BF     		it	lt
 3241 001e C8F10008 		rsblt	r8, r8, #0
 3242              	.LVL220:
 229:../../../lib/pd2dsy/libdaisy/src/hid/disp/display.h ****         int_fast16_t signY  = ((y1 < y2) ? 1 : -1);
 3243              		.loc 4 229 42 view .LVU711
 3244 0022 8B42     		cmp	r3, r1
 3245 0024 8CBF     		ite	hi
 3246 0026 4FF0010A 		movhi	r10, #1
 3247 002a 4FF0FF3A 		movls	r10, #-1
 3248              	.LVL221:
 230:../../../lib/pd2dsy/libdaisy/src/hid/disp/display.h ****         int_fast16_t error  = deltaX - deltaY;
 3249              		.loc 4 230 42 view .LVU712
 3250 002e 9642     		cmp	r6, r2
 231:../../../lib/pd2dsy/libdaisy/src/hid/disp/display.h ****         int_fast16_t error2;
 3251              		.loc 4 231 22 view .LVU713
 3252 0030 A4EB080C 		sub	ip, r4, r8
 230:../../../lib/pd2dsy/libdaisy/src/hid/disp/display.h ****         int_fast16_t error  = deltaX - deltaY;
 3253              		.loc 4 230 42 view .LVU714
 3254 0034 51D8     		bhi	.L198
 3255              	.LVL222:
 3256              	.LBB1142:
 3257              	.LBI1142:
  42:../../../lib/pd2dsy/libdaisy/src/hid/disp/oled_display.h ****     {
 3258              		.loc 2 42 10 is_stmt 1 discriminator 4 view .LVU715
 3259              	.LBB1143:
 3260              	.LBI1143:
 252:../../../lib/pd2dsy/libdaisy/src/dev/oled_ssd130x.h ****     {
 3261              		.loc 3 252 10 discriminator 4 view .LVU716
 3262              	.LBE1143:
 3263              	.LBE1142:
 230:../../../lib/pd2dsy/libdaisy/src/hid/disp/display.h ****         int_fast16_t error  = deltaX - deltaY;
 3264              		.loc 4 230 42 is_stmt 0 discriminator 4 view .LVU717
 3265 0036 4FF0FF35 		mov	r5, #-1
 3266              	.LBB1159:
 3267              	.LBB1153:
 3268              	.LBB1144:
 254:../../../lib/pd2dsy/libdaisy/src/dev/oled_ssd130x.h ****             return;
 3269              		.loc 3 254 9 discriminator 4 view .LVU718
 3270 003a 7F2B     		cmp	r3, #127
 3271              	.LBE1144:
 3272              	.LBE1153:
 3273              	.LBE1159:
 230:../../../lib/pd2dsy/libdaisy/src/hid/disp/display.h ****         int_fast16_t error  = deltaX - deltaY;
 3274              		.loc 4 230 42 discriminator 4 view .LVU719
 3275 003c 0195     		str	r5, [sp, #4]
 3276              	.LBB1160:
 3277              	.LBB1154:
 3278              	.LBB1149:
 254:../../../lib/pd2dsy/libdaisy/src/dev/oled_ssd130x.h ****             return;
 3279              		.loc 3 254 9 discriminator 4 view .LVU720
 3280 003e 12D8     		bhi	.L199
 3281 0040 3F2E     		cmp	r6, #63
 3282 0042 10D8     		bhi	.L199
 3283              	.LVL223:
ARM GAS  /var/folders/fb/yfxt3z4538j6z0vjt03w70vc0000gn/T//ccrD3Rdr.s 			page 98


 3284              	.L210:
 257:../../../lib/pd2dsy/libdaisy/src/dev/oled_ssd130x.h ****         else
 3285              		.loc 3 257 28 view .LVU721
 3286 0044 F508     		lsrs	r5, r6, #3
 257:../../../lib/pd2dsy/libdaisy/src/dev/oled_ssd130x.h ****         else
 3287              		.loc 3 257 54 view .LVU722
 3288 0046 06F0070E 		and	lr, r6, #7
 257:../../../lib/pd2dsy/libdaisy/src/dev/oled_ssd130x.h ****         else
 3289              		.loc 3 257 48 view .LVU723
 3290 004a 0127     		movs	r7, #1
 257:../../../lib/pd2dsy/libdaisy/src/dev/oled_ssd130x.h ****         else
 3291              		.loc 3 257 42 view .LVU724
 3292 004c 03EBC515 		add	r5, r3, r5, lsl #7
 3293 0050 0544     		add	r5, r5, r0
 256:../../../lib/pd2dsy/libdaisy/src/dev/oled_ssd130x.h ****             buffer_[x + (y / 8) * width] |= (1 << (y % 8));
 3294              		.loc 3 256 9 view .LVU725
 3295 0052 B9F1000F 		cmp	r9, #0
 3296 0056 47D0     		beq	.L200
 257:../../../lib/pd2dsy/libdaisy/src/dev/oled_ssd130x.h ****         else
 3297              		.loc 3 257 48 view .LVU726
 3298 0058 07FA0EF7 		lsl	r7, r7, lr
 257:../../../lib/pd2dsy/libdaisy/src/dev/oled_ssd130x.h ****         else
 3299              		.loc 3 257 42 view .LVU727
 3300 005c 95F814E0 		ldrb	lr, [r5, #20]	@ zero_extendqisi2
 3301 0060 47EA0E07 		orr	r7, r7, lr
 3302 0064 2F75     		strb	r7, [r5, #20]
 3303              	.LVL224:
 3304              	.L199:
 257:../../../lib/pd2dsy/libdaisy/src/dev/oled_ssd130x.h ****         else
 3305              		.loc 3 257 42 view .LVU728
 3306              	.LBE1149:
 3307              	.LBE1154:
 3308              	.LBE1160:
 239:../../../lib/pd2dsy/libdaisy/src/hid/disp/display.h ****         {
 3309              		.loc 4 239 26 is_stmt 1 view .LVU729
 3310 0066 9642     		cmp	r6, r2
 3311 0068 01D1     		bne	.L203
 3312              	.L222:
 239:../../../lib/pd2dsy/libdaisy/src/hid/disp/display.h ****         {
 3313              		.loc 4 239 26 is_stmt 0 view .LVU730
 3314 006a 8B42     		cmp	r3, r1
 3315 006c 29D0     		beq	.L196
 3316              	.L203:
 3317              	.LVL225:
 243:../../../lib/pd2dsy/libdaisy/src/hid/disp/display.h ****             {
 3318              		.loc 4 243 23 view .LVU731
 3319 006e C8F10007 		rsb	r7, r8, #0
 3320              	.L205:
 3321              	.LVL226:
 3322              	.LBB1161:
 3323              	.LBI1161:
  42:../../../lib/pd2dsy/libdaisy/src/hid/disp/oled_display.h ****     {
 3324              		.loc 2 42 10 is_stmt 1 view .LVU732
 3325              	.LBB1162:
 3326              	.LBI1162:
 252:../../../lib/pd2dsy/libdaisy/src/dev/oled_ssd130x.h ****     {
 3327              		.loc 3 252 10 view .LVU733
ARM GAS  /var/folders/fb/yfxt3z4538j6z0vjt03w70vc0000gn/T//ccrD3Rdr.s 			page 99


 3328              	.LBB1163:
 254:../../../lib/pd2dsy/libdaisy/src/dev/oled_ssd130x.h ****             return;
 3329              		.loc 3 254 9 is_stmt 0 view .LVU734
 3330 0072 7F29     		cmp	r1, #127
 3331 0074 14D8     		bhi	.L206
 3332 0076 3F2A     		cmp	r2, #63
 3333 0078 12D8     		bhi	.L206
 257:../../../lib/pd2dsy/libdaisy/src/dev/oled_ssd130x.h ****         else
 3334              		.loc 3 257 28 view .LVU735
 3335 007a D508     		lsrs	r5, r2, #3
 257:../../../lib/pd2dsy/libdaisy/src/dev/oled_ssd130x.h ****         else
 3336              		.loc 3 257 54 view .LVU736
 3337 007c 02F0070B 		and	fp, r2, #7
 257:../../../lib/pd2dsy/libdaisy/src/dev/oled_ssd130x.h ****         else
 3338              		.loc 3 257 48 view .LVU737
 3339 0080 4FF0010E 		mov	lr, #1
 257:../../../lib/pd2dsy/libdaisy/src/dev/oled_ssd130x.h ****         else
 3340              		.loc 3 257 42 view .LVU738
 3341 0084 01EBC515 		add	r5, r1, r5, lsl #7
 3342 0088 0544     		add	r5, r5, r0
 256:../../../lib/pd2dsy/libdaisy/src/dev/oled_ssd130x.h ****             buffer_[x + (y / 8) * width] |= (1 << (y % 8));
 3343              		.loc 3 256 9 view .LVU739
 3344 008a B9F1000F 		cmp	r9, #0
 3345 008e 1BD0     		beq	.L207
 257:../../../lib/pd2dsy/libdaisy/src/dev/oled_ssd130x.h ****         else
 3346              		.loc 3 257 48 view .LVU740
 3347 0090 0EFA0BFE 		lsl	lr, lr, fp
 257:../../../lib/pd2dsy/libdaisy/src/dev/oled_ssd130x.h ****         else
 3348              		.loc 3 257 42 view .LVU741
 3349 0094 95F814B0 		ldrb	fp, [r5, #20]	@ zero_extendqisi2
 3350 0098 4EEA0B0E 		orr	lr, lr, fp
 3351 009c 85F814E0 		strb	lr, [r5, #20]
 3352              	.L206:
 3353              	.LVL227:
 257:../../../lib/pd2dsy/libdaisy/src/dev/oled_ssd130x.h ****         else
 3354              		.loc 3 257 42 view .LVU742
 3355              	.LBE1163:
 3356              	.LBE1162:
 3357              	.LBE1161:
 243:../../../lib/pd2dsy/libdaisy/src/hid/disp/display.h ****             {
 3358              		.loc 4 243 13 view .LVU743
 3359 00a0 B7EB4C0F 		cmp	r7, ip, lsl #1
 242:../../../lib/pd2dsy/libdaisy/src/hid/disp/display.h ****             if(error2 > -deltaY)
 3360              		.loc 4 242 20 view .LVU744
 3361 00a4 4FEA4C05 		lsl	r5, ip, #1
 3362              	.LVL228:
 243:../../../lib/pd2dsy/libdaisy/src/hid/disp/display.h ****             {
 3363              		.loc 4 243 13 view .LVU745
 3364 00a8 02DA     		bge	.L208
 245:../../../lib/pd2dsy/libdaisy/src/hid/disp/display.h ****                 x1 += signX;
 3365              		.loc 4 245 23 view .LVU746
 3366 00aa ACEB080C 		sub	ip, ip, r8
 3367              	.LVL229:
 246:../../../lib/pd2dsy/libdaisy/src/hid/disp/display.h ****             }
 3368              		.loc 4 246 20 view .LVU747
 3369 00ae 5144     		add	r1, r1, r10
 3370              	.LVL230:
ARM GAS  /var/folders/fb/yfxt3z4538j6z0vjt03w70vc0000gn/T//ccrD3Rdr.s 			page 100


 3371              	.L208:
 249:../../../lib/pd2dsy/libdaisy/src/hid/disp/display.h ****             {
 3372              		.loc 4 249 13 view .LVU748
 3373 00b0 AC42     		cmp	r4, r5
 3374 00b2 02DD     		ble	.L209
 252:../../../lib/pd2dsy/libdaisy/src/hid/disp/display.h ****             }
 3375              		.loc 4 252 20 view .LVU749
 3376 00b4 019D     		ldr	r5, [sp, #4]
 3377              	.LVL231:
 251:../../../lib/pd2dsy/libdaisy/src/hid/disp/display.h ****                 y1 += signY;
 3378              		.loc 4 251 23 view .LVU750
 3379 00b6 A444     		add	ip, ip, r4
 3380              	.LVL232:
 252:../../../lib/pd2dsy/libdaisy/src/hid/disp/display.h ****             }
 3381              		.loc 4 252 20 view .LVU751
 3382 00b8 2A44     		add	r2, r2, r5
 3383              	.LVL233:
 3384              	.L209:
 239:../../../lib/pd2dsy/libdaisy/src/hid/disp/display.h ****         {
 3385              		.loc 4 239 26 is_stmt 1 view .LVU752
 3386 00ba 9942     		cmp	r1, r3
 3387 00bc D9D1     		bne	.L205
 239:../../../lib/pd2dsy/libdaisy/src/hid/disp/display.h ****         {
 3388              		.loc 4 239 26 is_stmt 0 view .LVU753
 3389 00be 9642     		cmp	r6, r2
 3390 00c0 D7D1     		bne	.L205
 3391              	.L196:
 255:../../../lib/pd2dsy/libdaisy/src/hid/disp/display.h **** 
 3392              		.loc 4 255 5 view .LVU754
 3393 00c2 03B0     		add	sp, sp, #12
 3394              		.cfi_remember_state
 3395              		.cfi_def_cfa_offset 36
 3396              		@ sp needed
 3397 00c4 BDE8F08F 		pop	{r4, r5, r6, r7, r8, r9, r10, fp, pc}
 3398              	.LVL234:
 3399              	.L207:
 3400              		.cfi_restore_state
 3401              	.LBB1168:
 3402              	.LBB1167:
 3403              	.LBB1166:
 3404              	.LBB1164:
 3405              	.LBI1164:
 252:../../../lib/pd2dsy/libdaisy/src/dev/oled_ssd130x.h ****     {
 3406              		.loc 3 252 10 is_stmt 1 view .LVU755
 3407              	.LBB1165:
 259:../../../lib/pd2dsy/libdaisy/src/dev/oled_ssd130x.h ****     }
 3408              		.loc 3 259 49 is_stmt 0 view .LVU756
 3409 00c8 0EFA0BFB 		lsl	fp, lr, fp
 259:../../../lib/pd2dsy/libdaisy/src/dev/oled_ssd130x.h ****     }
 3410              		.loc 3 259 42 view .LVU757
 3411 00cc 95F814E0 		ldrb	lr, [r5, #20]	@ zero_extendqisi2
 3412 00d0 2EEA0B0E 		bic	lr, lr, fp
 3413 00d4 85F814E0 		strb	lr, [r5, #20]
 3414 00d8 E2E7     		b	.L206
 3415              	.LVL235:
 3416              	.L198:
 259:../../../lib/pd2dsy/libdaisy/src/dev/oled_ssd130x.h ****     }
ARM GAS  /var/folders/fb/yfxt3z4538j6z0vjt03w70vc0000gn/T//ccrD3Rdr.s 			page 101


 3417              		.loc 3 259 42 view .LVU758
 3418              	.LBE1165:
 3419              	.LBE1164:
 3420              	.LBE1166:
 3421              	.LBE1167:
 3422              	.LBE1168:
 3423              	.LBB1169:
  42:../../../lib/pd2dsy/libdaisy/src/hid/disp/oled_display.h ****     {
 3424              		.loc 2 42 10 is_stmt 1 view .LVU759
 3425              	.LBB1155:
 252:../../../lib/pd2dsy/libdaisy/src/dev/oled_ssd130x.h ****     {
 3426              		.loc 3 252 10 view .LVU760
 3427              	.LBE1155:
 3428              	.LBE1169:
 230:../../../lib/pd2dsy/libdaisy/src/hid/disp/display.h ****         int_fast16_t error  = deltaX - deltaY;
 3429              		.loc 4 230 42 is_stmt 0 view .LVU761
 3430 00da 0125     		movs	r5, #1
 3431              	.LBB1170:
 3432              	.LBB1156:
 3433              	.LBB1150:
 254:../../../lib/pd2dsy/libdaisy/src/dev/oled_ssd130x.h ****             return;
 3434              		.loc 3 254 9 view .LVU762
 3435 00dc 7F2B     		cmp	r3, #127
 3436              	.LBE1150:
 3437              	.LBE1156:
 3438              	.LBE1170:
 230:../../../lib/pd2dsy/libdaisy/src/hid/disp/display.h ****         int_fast16_t error  = deltaX - deltaY;
 3439              		.loc 4 230 42 view .LVU763
 3440 00de 0195     		str	r5, [sp, #4]
 3441              	.LBB1171:
 3442              	.LBB1157:
 3443              	.LBB1151:
 254:../../../lib/pd2dsy/libdaisy/src/dev/oled_ssd130x.h ****             return;
 3444              		.loc 3 254 9 view .LVU764
 3445 00e0 C5D8     		bhi	.L203
 3446 00e2 3F2E     		cmp	r6, #63
 3447 00e4 AED9     		bls	.L210
 3448 00e6 C2E7     		b	.L203
 3449              	.LVL236:
 3450              	.L200:
 3451              	.LBB1145:
 3452              	.LBI1145:
 252:../../../lib/pd2dsy/libdaisy/src/dev/oled_ssd130x.h ****     {
 3453              		.loc 3 252 10 is_stmt 1 view .LVU765
 3454              	.LBB1146:
 259:../../../lib/pd2dsy/libdaisy/src/dev/oled_ssd130x.h ****     }
 3455              		.loc 3 259 49 is_stmt 0 view .LVU766
 3456 00e8 07FA0EFE 		lsl	lr, r7, lr
 259:../../../lib/pd2dsy/libdaisy/src/dev/oled_ssd130x.h ****     }
 3457              		.loc 3 259 42 view .LVU767
 3458 00ec 2F7D     		ldrb	r7, [r5, #20]	@ zero_extendqisi2
 3459              	.LBE1146:
 3460              	.LBE1145:
 3461              	.LBE1151:
 3462              	.LBE1157:
 3463              	.LBE1171:
 239:../../../lib/pd2dsy/libdaisy/src/hid/disp/display.h ****         {
ARM GAS  /var/folders/fb/yfxt3z4538j6z0vjt03w70vc0000gn/T//ccrD3Rdr.s 			page 102


 3464              		.loc 4 239 26 view .LVU768
 3465 00ee 9642     		cmp	r6, r2
 3466              	.LBB1172:
 3467              	.LBB1158:
 3468              	.LBB1152:
 3469              	.LBB1148:
 3470              	.LBB1147:
 259:../../../lib/pd2dsy/libdaisy/src/dev/oled_ssd130x.h ****     }
 3471              		.loc 3 259 42 view .LVU769
 3472 00f0 27EA0E07 		bic	r7, r7, lr
 3473 00f4 2F75     		strb	r7, [r5, #20]
 3474              	.LVL237:
 259:../../../lib/pd2dsy/libdaisy/src/dev/oled_ssd130x.h ****     }
 3475              		.loc 3 259 42 view .LVU770
 3476              	.LBE1147:
 3477              	.LBE1148:
 3478              	.LBE1152:
 3479              	.LBE1158:
 3480              	.LBE1172:
 239:../../../lib/pd2dsy/libdaisy/src/hid/disp/display.h ****         {
 3481              		.loc 4 239 26 is_stmt 1 view .LVU771
 3482 00f6 B8D0     		beq	.L222
 3483 00f8 B9E7     		b	.L203
 3484              		.cfi_endproc
 3485              	.LFE3076:
 3487 00fa 00BF     		.section	.text._ZN5daisy25OneBitGraphicsDisplayImplINS_11OledDisplayINS_13SSD130xDriverILj128ELj64
 3488              		.align	1
 3489              		.p2align 2,,3
 3490              		.weak	_ZN5daisy25OneBitGraphicsDisplayImplINS_11OledDisplayINS_13SSD130xDriverILj128ELj64ENS_24SSD
 3491              		.syntax unified
 3492              		.thumb
 3493              		.thumb_func
 3495              	_ZN5daisy25OneBitGraphicsDisplayImplINS_11OledDisplayINS_13SSD130xDriverILj128ELj64ENS_24SSD130x4Wi
 3496              	.LVL238:
 3497              	.LFB3078:
 283:../../../lib/pd2dsy/libdaisy/src/hid/disp/display.h ****                  uint_fast8_t y,
 3498              		.loc 4 283 10 view -0
 3499              		.cfi_startproc
 3500              		@ args = 12, pretend = 0, frame = 8
 3501              		@ frame_needed = 0, uses_anonymous_args = 0
 283:../../../lib/pd2dsy/libdaisy/src/hid/disp/display.h ****                  uint_fast8_t y,
 3502              		.loc 4 283 10 is_stmt 0 view .LVU773
 3503 0000 2DE9F04F 		push	{r4, r5, r6, r7, r8, r9, r10, fp, lr}
 3504              		.cfi_def_cfa_offset 36
 3505              		.cfi_offset 4, -36
 3506              		.cfi_offset 5, -32
 3507              		.cfi_offset 6, -28
 3508              		.cfi_offset 7, -24
 3509              		.cfi_offset 8, -20
 3510              		.cfi_offset 9, -16
 3511              		.cfi_offset 10, -12
 3512              		.cfi_offset 11, -8
 3513              		.cfi_offset 14, -4
 3514 0004 2DED068B 		vpush.64	{d8, d9, d10}
 3515              		.cfi_def_cfa_offset 60
 3516              		.cfi_offset 80, -60
 3517              		.cfi_offset 81, -56
ARM GAS  /var/folders/fb/yfxt3z4538j6z0vjt03w70vc0000gn/T//ccrD3Rdr.s 			page 103


 3518              		.cfi_offset 82, -52
 3519              		.cfi_offset 83, -48
 3520              		.cfi_offset 84, -44
 3521              		.cfi_offset 85, -40
 3522 0008 83B0     		sub	sp, sp, #12
 3523              		.cfi_def_cfa_offset 72
 283:../../../lib/pd2dsy/libdaisy/src/hid/disp/display.h ****                  uint_fast8_t y,
 3524              		.loc 4 283 10 view .LVU774
 3525 000a 1F46     		mov	r7, r3
 3526 000c 8046     		mov	r8, r0
 3527 000e 0D46     		mov	r5, r1
 3528 0010 9DF85030 		ldrb	r3, [sp, #80]	@ zero_extendqisi2
 3529              	.LVL239:
 283:../../../lib/pd2dsy/libdaisy/src/hid/disp/display.h ****                  uint_fast8_t y,
 3530              		.loc 4 283 10 view .LVU775
 3531 0014 1646     		mov	r6, r2
 3532 0016 0193     		str	r3, [sp, #4]
 306:../../../lib/pd2dsy/libdaisy/src/hid/disp/display.h ****         {
 3533              		.loc 4 306 9 view .LVU776
 3534 0018 139B     		ldr	r3, [sp, #76]
 3535 001a 002B     		cmp	r3, #0
 3536 001c C0F22182 		blt	.L224
 313:../../../lib/pd2dsy/libdaisy/src/hid/disp/display.h **** 
 3537              		.loc 4 313 27 view .LVU777
 3538 0020 129A     		ldr	r2, [sp, #72]
 3539              	.LVL240:
 313:../../../lib/pd2dsy/libdaisy/src/hid/disp/display.h **** 
 3540              		.loc 4 313 27 view .LVU778
 3541 0022 1344     		add	r3, r3, r2
 3542 0024 06EE103A 		vmov	s12, r3	@ int
 3543              	.LVL241:
 3544              	.L225:
 312:../../../lib/pd2dsy/libdaisy/src/hid/disp/display.h ****         end_angle_rad   = deg2rad(start_angle + sweep);
 3545              		.loc 4 312 27 view .LVU779
 3546 0028 DDED127A 		vldr.32	s15, [sp, #72]	@ int
 313:../../../lib/pd2dsy/libdaisy/src/hid/disp/display.h **** 
 3547              		.loc 4 313 27 view .LVU780
 3548 002c B8EEC66B 		vcvt.f64.s32	d6, s12
 312:../../../lib/pd2dsy/libdaisy/src/hid/disp/display.h ****         end_angle_rad   = deg2rad(start_angle + sweep);
 3549              		.loc 4 312 27 view .LVU781
 3550 0030 9FEDCD4B 		vldr.64	d4, .L300
 3551 0034 B8EEE77B 		vcvt.f64.s32	d7, s15
 3552 0038 9FEDCD5B 		vldr.64	d5, .L300+8
 3553 003c 27EE047B 		vmul.f64	d7, d7, d4
 313:../../../lib/pd2dsy/libdaisy/src/hid/disp/display.h **** 
 3554              		.loc 4 313 27 view .LVU782
 3555 0040 26EE046B 		vmul.f64	d6, d6, d4
 312:../../../lib/pd2dsy/libdaisy/src/hid/disp/display.h ****         end_angle_rad   = deg2rad(start_angle + sweep);
 3556              		.loc 4 312 27 view .LVU783
 3557 0044 87EE050B 		vdiv.f64	d0, d7, d5
 313:../../../lib/pd2dsy/libdaisy/src/hid/disp/display.h **** 
 3558              		.loc 4 313 27 view .LVU784
 3559 0048 86EE05AB 		vdiv.f64	d10, d6, d5
 312:../../../lib/pd2dsy/libdaisy/src/hid/disp/display.h ****         end_angle_rad   = deg2rad(start_angle + sweep);
 3560              		.loc 4 312 25 view .LVU785
 3561 004c F7EEC08B 		vcvt.f32.f64	s17, d0
 3562              	.LVL242:
ARM GAS  /var/folders/fb/yfxt3z4538j6z0vjt03w70vc0000gn/T//ccrD3Rdr.s 			page 104


 3563              	.LBB1205:
 3564              	.LBB1206:
 3565              		.file 16 "/Library/DaisyToolchain/0.2.0/arm/arm-none-eabi/include/c++/10.3.1/cmath"
   1:/Library/DaisyToolchain/0.2.0/arm/arm-none-eabi/include/c++/10.3.1/cmath **** // -*- C++ -*- C forwarding header.
   2:/Library/DaisyToolchain/0.2.0/arm/arm-none-eabi/include/c++/10.3.1/cmath **** 
   3:/Library/DaisyToolchain/0.2.0/arm/arm-none-eabi/include/c++/10.3.1/cmath **** // Copyright (C) 1997-2020 Free Software Foundation, Inc.
   4:/Library/DaisyToolchain/0.2.0/arm/arm-none-eabi/include/c++/10.3.1/cmath **** //
   5:/Library/DaisyToolchain/0.2.0/arm/arm-none-eabi/include/c++/10.3.1/cmath **** // This file is part of the GNU ISO C++ Library.  This library is free
   6:/Library/DaisyToolchain/0.2.0/arm/arm-none-eabi/include/c++/10.3.1/cmath **** // software; you can redistribute it and/or modify it under the
   7:/Library/DaisyToolchain/0.2.0/arm/arm-none-eabi/include/c++/10.3.1/cmath **** // terms of the GNU General Public License as published by the
   8:/Library/DaisyToolchain/0.2.0/arm/arm-none-eabi/include/c++/10.3.1/cmath **** // Free Software Foundation; either version 3, or (at your option)
   9:/Library/DaisyToolchain/0.2.0/arm/arm-none-eabi/include/c++/10.3.1/cmath **** // any later version.
  10:/Library/DaisyToolchain/0.2.0/arm/arm-none-eabi/include/c++/10.3.1/cmath **** 
  11:/Library/DaisyToolchain/0.2.0/arm/arm-none-eabi/include/c++/10.3.1/cmath **** // This library is distributed in the hope that it will be useful,
  12:/Library/DaisyToolchain/0.2.0/arm/arm-none-eabi/include/c++/10.3.1/cmath **** // but WITHOUT ANY WARRANTY; without even the implied warranty of
  13:/Library/DaisyToolchain/0.2.0/arm/arm-none-eabi/include/c++/10.3.1/cmath **** // MERCHANTABILITY or FITNESS FOR A PARTICULAR PURPOSE.  See the
  14:/Library/DaisyToolchain/0.2.0/arm/arm-none-eabi/include/c++/10.3.1/cmath **** // GNU General Public License for more details.
  15:/Library/DaisyToolchain/0.2.0/arm/arm-none-eabi/include/c++/10.3.1/cmath **** 
  16:/Library/DaisyToolchain/0.2.0/arm/arm-none-eabi/include/c++/10.3.1/cmath **** // Under Section 7 of GPL version 3, you are granted additional
  17:/Library/DaisyToolchain/0.2.0/arm/arm-none-eabi/include/c++/10.3.1/cmath **** // permissions described in the GCC Runtime Library Exception, version
  18:/Library/DaisyToolchain/0.2.0/arm/arm-none-eabi/include/c++/10.3.1/cmath **** // 3.1, as published by the Free Software Foundation.
  19:/Library/DaisyToolchain/0.2.0/arm/arm-none-eabi/include/c++/10.3.1/cmath **** 
  20:/Library/DaisyToolchain/0.2.0/arm/arm-none-eabi/include/c++/10.3.1/cmath **** // You should have received a copy of the GNU General Public License and
  21:/Library/DaisyToolchain/0.2.0/arm/arm-none-eabi/include/c++/10.3.1/cmath **** // a copy of the GCC Runtime Library Exception along with this program;
  22:/Library/DaisyToolchain/0.2.0/arm/arm-none-eabi/include/c++/10.3.1/cmath **** // see the files COPYING3 and COPYING.RUNTIME respectively.  If not, see
  23:/Library/DaisyToolchain/0.2.0/arm/arm-none-eabi/include/c++/10.3.1/cmath **** // <http://www.gnu.org/licenses/>.
  24:/Library/DaisyToolchain/0.2.0/arm/arm-none-eabi/include/c++/10.3.1/cmath **** 
  25:/Library/DaisyToolchain/0.2.0/arm/arm-none-eabi/include/c++/10.3.1/cmath **** /** @file include/cmath
  26:/Library/DaisyToolchain/0.2.0/arm/arm-none-eabi/include/c++/10.3.1/cmath ****  *  This is a Standard C++ Library file.  You should @c \#include this file
  27:/Library/DaisyToolchain/0.2.0/arm/arm-none-eabi/include/c++/10.3.1/cmath ****  *  in your programs, rather than any of the @a *.h implementation files.
  28:/Library/DaisyToolchain/0.2.0/arm/arm-none-eabi/include/c++/10.3.1/cmath ****  *
  29:/Library/DaisyToolchain/0.2.0/arm/arm-none-eabi/include/c++/10.3.1/cmath ****  *  This is the C++ version of the Standard C Library header @c math.h,
  30:/Library/DaisyToolchain/0.2.0/arm/arm-none-eabi/include/c++/10.3.1/cmath ****  *  and its contents are (mostly) the same as that header, but are all
  31:/Library/DaisyToolchain/0.2.0/arm/arm-none-eabi/include/c++/10.3.1/cmath ****  *  contained in the namespace @c std (except for names which are defined
  32:/Library/DaisyToolchain/0.2.0/arm/arm-none-eabi/include/c++/10.3.1/cmath ****  *  as macros in C).
  33:/Library/DaisyToolchain/0.2.0/arm/arm-none-eabi/include/c++/10.3.1/cmath ****  */
  34:/Library/DaisyToolchain/0.2.0/arm/arm-none-eabi/include/c++/10.3.1/cmath **** 
  35:/Library/DaisyToolchain/0.2.0/arm/arm-none-eabi/include/c++/10.3.1/cmath **** //
  36:/Library/DaisyToolchain/0.2.0/arm/arm-none-eabi/include/c++/10.3.1/cmath **** // ISO C++ 14882: 26.5  C library
  37:/Library/DaisyToolchain/0.2.0/arm/arm-none-eabi/include/c++/10.3.1/cmath **** //
  38:/Library/DaisyToolchain/0.2.0/arm/arm-none-eabi/include/c++/10.3.1/cmath **** 
  39:/Library/DaisyToolchain/0.2.0/arm/arm-none-eabi/include/c++/10.3.1/cmath **** #pragma GCC system_header
  40:/Library/DaisyToolchain/0.2.0/arm/arm-none-eabi/include/c++/10.3.1/cmath **** 
  41:/Library/DaisyToolchain/0.2.0/arm/arm-none-eabi/include/c++/10.3.1/cmath **** #include <bits/c++config.h>
  42:/Library/DaisyToolchain/0.2.0/arm/arm-none-eabi/include/c++/10.3.1/cmath **** #include <bits/cpp_type_traits.h>
  43:/Library/DaisyToolchain/0.2.0/arm/arm-none-eabi/include/c++/10.3.1/cmath **** #include <ext/type_traits.h>
  44:/Library/DaisyToolchain/0.2.0/arm/arm-none-eabi/include/c++/10.3.1/cmath **** #define _GLIBCXX_INCLUDE_NEXT_C_HEADERS
  45:/Library/DaisyToolchain/0.2.0/arm/arm-none-eabi/include/c++/10.3.1/cmath **** #include_next <math.h>
  46:/Library/DaisyToolchain/0.2.0/arm/arm-none-eabi/include/c++/10.3.1/cmath **** #undef _GLIBCXX_INCLUDE_NEXT_C_HEADERS
  47:/Library/DaisyToolchain/0.2.0/arm/arm-none-eabi/include/c++/10.3.1/cmath **** #include <bits/std_abs.h>
  48:/Library/DaisyToolchain/0.2.0/arm/arm-none-eabi/include/c++/10.3.1/cmath **** 
  49:/Library/DaisyToolchain/0.2.0/arm/arm-none-eabi/include/c++/10.3.1/cmath **** #ifndef _GLIBCXX_CMATH
  50:/Library/DaisyToolchain/0.2.0/arm/arm-none-eabi/include/c++/10.3.1/cmath **** #define _GLIBCXX_CMATH 1
  51:/Library/DaisyToolchain/0.2.0/arm/arm-none-eabi/include/c++/10.3.1/cmath **** 
  52:/Library/DaisyToolchain/0.2.0/arm/arm-none-eabi/include/c++/10.3.1/cmath **** // Get rid of those macros defined in <math.h> in lieu of real functions.
  53:/Library/DaisyToolchain/0.2.0/arm/arm-none-eabi/include/c++/10.3.1/cmath **** #undef div
  54:/Library/DaisyToolchain/0.2.0/arm/arm-none-eabi/include/c++/10.3.1/cmath **** #undef acos
ARM GAS  /var/folders/fb/yfxt3z4538j6z0vjt03w70vc0000gn/T//ccrD3Rdr.s 			page 105


  55:/Library/DaisyToolchain/0.2.0/arm/arm-none-eabi/include/c++/10.3.1/cmath **** #undef asin
  56:/Library/DaisyToolchain/0.2.0/arm/arm-none-eabi/include/c++/10.3.1/cmath **** #undef atan
  57:/Library/DaisyToolchain/0.2.0/arm/arm-none-eabi/include/c++/10.3.1/cmath **** #undef atan2
  58:/Library/DaisyToolchain/0.2.0/arm/arm-none-eabi/include/c++/10.3.1/cmath **** #undef ceil
  59:/Library/DaisyToolchain/0.2.0/arm/arm-none-eabi/include/c++/10.3.1/cmath **** #undef cos
  60:/Library/DaisyToolchain/0.2.0/arm/arm-none-eabi/include/c++/10.3.1/cmath **** #undef cosh
  61:/Library/DaisyToolchain/0.2.0/arm/arm-none-eabi/include/c++/10.3.1/cmath **** #undef exp
  62:/Library/DaisyToolchain/0.2.0/arm/arm-none-eabi/include/c++/10.3.1/cmath **** #undef fabs
  63:/Library/DaisyToolchain/0.2.0/arm/arm-none-eabi/include/c++/10.3.1/cmath **** #undef floor
  64:/Library/DaisyToolchain/0.2.0/arm/arm-none-eabi/include/c++/10.3.1/cmath **** #undef fmod
  65:/Library/DaisyToolchain/0.2.0/arm/arm-none-eabi/include/c++/10.3.1/cmath **** #undef frexp
  66:/Library/DaisyToolchain/0.2.0/arm/arm-none-eabi/include/c++/10.3.1/cmath **** #undef ldexp
  67:/Library/DaisyToolchain/0.2.0/arm/arm-none-eabi/include/c++/10.3.1/cmath **** #undef log
  68:/Library/DaisyToolchain/0.2.0/arm/arm-none-eabi/include/c++/10.3.1/cmath **** #undef log10
  69:/Library/DaisyToolchain/0.2.0/arm/arm-none-eabi/include/c++/10.3.1/cmath **** #undef modf
  70:/Library/DaisyToolchain/0.2.0/arm/arm-none-eabi/include/c++/10.3.1/cmath **** #undef pow
  71:/Library/DaisyToolchain/0.2.0/arm/arm-none-eabi/include/c++/10.3.1/cmath **** #undef sin
  72:/Library/DaisyToolchain/0.2.0/arm/arm-none-eabi/include/c++/10.3.1/cmath **** #undef sinh
  73:/Library/DaisyToolchain/0.2.0/arm/arm-none-eabi/include/c++/10.3.1/cmath **** #undef sqrt
  74:/Library/DaisyToolchain/0.2.0/arm/arm-none-eabi/include/c++/10.3.1/cmath **** #undef tan
  75:/Library/DaisyToolchain/0.2.0/arm/arm-none-eabi/include/c++/10.3.1/cmath **** #undef tanh
  76:/Library/DaisyToolchain/0.2.0/arm/arm-none-eabi/include/c++/10.3.1/cmath **** 
  77:/Library/DaisyToolchain/0.2.0/arm/arm-none-eabi/include/c++/10.3.1/cmath **** extern "C++"
  78:/Library/DaisyToolchain/0.2.0/arm/arm-none-eabi/include/c++/10.3.1/cmath **** {
  79:/Library/DaisyToolchain/0.2.0/arm/arm-none-eabi/include/c++/10.3.1/cmath **** namespace std _GLIBCXX_VISIBILITY(default)
  80:/Library/DaisyToolchain/0.2.0/arm/arm-none-eabi/include/c++/10.3.1/cmath **** {
  81:/Library/DaisyToolchain/0.2.0/arm/arm-none-eabi/include/c++/10.3.1/cmath **** _GLIBCXX_BEGIN_NAMESPACE_VERSION
  82:/Library/DaisyToolchain/0.2.0/arm/arm-none-eabi/include/c++/10.3.1/cmath **** 
  83:/Library/DaisyToolchain/0.2.0/arm/arm-none-eabi/include/c++/10.3.1/cmath ****   using ::acos;
  84:/Library/DaisyToolchain/0.2.0/arm/arm-none-eabi/include/c++/10.3.1/cmath **** 
  85:/Library/DaisyToolchain/0.2.0/arm/arm-none-eabi/include/c++/10.3.1/cmath **** #ifndef __CORRECT_ISO_CPP_MATH_H_PROTO
  86:/Library/DaisyToolchain/0.2.0/arm/arm-none-eabi/include/c++/10.3.1/cmath ****   inline _GLIBCXX_CONSTEXPR float
  87:/Library/DaisyToolchain/0.2.0/arm/arm-none-eabi/include/c++/10.3.1/cmath ****   acos(float __x)
  88:/Library/DaisyToolchain/0.2.0/arm/arm-none-eabi/include/c++/10.3.1/cmath ****   { return __builtin_acosf(__x); }
  89:/Library/DaisyToolchain/0.2.0/arm/arm-none-eabi/include/c++/10.3.1/cmath **** 
  90:/Library/DaisyToolchain/0.2.0/arm/arm-none-eabi/include/c++/10.3.1/cmath ****   inline _GLIBCXX_CONSTEXPR long double
  91:/Library/DaisyToolchain/0.2.0/arm/arm-none-eabi/include/c++/10.3.1/cmath ****   acos(long double __x)
  92:/Library/DaisyToolchain/0.2.0/arm/arm-none-eabi/include/c++/10.3.1/cmath ****   { return __builtin_acosl(__x); }
  93:/Library/DaisyToolchain/0.2.0/arm/arm-none-eabi/include/c++/10.3.1/cmath **** #endif
  94:/Library/DaisyToolchain/0.2.0/arm/arm-none-eabi/include/c++/10.3.1/cmath **** 
  95:/Library/DaisyToolchain/0.2.0/arm/arm-none-eabi/include/c++/10.3.1/cmath ****   template<typename _Tp>
  96:/Library/DaisyToolchain/0.2.0/arm/arm-none-eabi/include/c++/10.3.1/cmath ****     inline _GLIBCXX_CONSTEXPR
  97:/Library/DaisyToolchain/0.2.0/arm/arm-none-eabi/include/c++/10.3.1/cmath ****     typename __gnu_cxx::__enable_if<__is_integer<_Tp>::__value, 
  98:/Library/DaisyToolchain/0.2.0/arm/arm-none-eabi/include/c++/10.3.1/cmath ****                                     double>::__type
  99:/Library/DaisyToolchain/0.2.0/arm/arm-none-eabi/include/c++/10.3.1/cmath ****     acos(_Tp __x)
 100:/Library/DaisyToolchain/0.2.0/arm/arm-none-eabi/include/c++/10.3.1/cmath ****     { return __builtin_acos(__x); }
 101:/Library/DaisyToolchain/0.2.0/arm/arm-none-eabi/include/c++/10.3.1/cmath **** 
 102:/Library/DaisyToolchain/0.2.0/arm/arm-none-eabi/include/c++/10.3.1/cmath ****   using ::asin;
 103:/Library/DaisyToolchain/0.2.0/arm/arm-none-eabi/include/c++/10.3.1/cmath **** 
 104:/Library/DaisyToolchain/0.2.0/arm/arm-none-eabi/include/c++/10.3.1/cmath **** #ifndef __CORRECT_ISO_CPP_MATH_H_PROTO
 105:/Library/DaisyToolchain/0.2.0/arm/arm-none-eabi/include/c++/10.3.1/cmath ****   inline _GLIBCXX_CONSTEXPR float
 106:/Library/DaisyToolchain/0.2.0/arm/arm-none-eabi/include/c++/10.3.1/cmath ****   asin(float __x)
 107:/Library/DaisyToolchain/0.2.0/arm/arm-none-eabi/include/c++/10.3.1/cmath ****   { return __builtin_asinf(__x); }
 108:/Library/DaisyToolchain/0.2.0/arm/arm-none-eabi/include/c++/10.3.1/cmath **** 
 109:/Library/DaisyToolchain/0.2.0/arm/arm-none-eabi/include/c++/10.3.1/cmath ****   inline _GLIBCXX_CONSTEXPR long double
 110:/Library/DaisyToolchain/0.2.0/arm/arm-none-eabi/include/c++/10.3.1/cmath ****   asin(long double __x)
 111:/Library/DaisyToolchain/0.2.0/arm/arm-none-eabi/include/c++/10.3.1/cmath ****   { return __builtin_asinl(__x); }
ARM GAS  /var/folders/fb/yfxt3z4538j6z0vjt03w70vc0000gn/T//ccrD3Rdr.s 			page 106


 112:/Library/DaisyToolchain/0.2.0/arm/arm-none-eabi/include/c++/10.3.1/cmath **** #endif
 113:/Library/DaisyToolchain/0.2.0/arm/arm-none-eabi/include/c++/10.3.1/cmath **** 
 114:/Library/DaisyToolchain/0.2.0/arm/arm-none-eabi/include/c++/10.3.1/cmath ****   template<typename _Tp>
 115:/Library/DaisyToolchain/0.2.0/arm/arm-none-eabi/include/c++/10.3.1/cmath ****     inline _GLIBCXX_CONSTEXPR
 116:/Library/DaisyToolchain/0.2.0/arm/arm-none-eabi/include/c++/10.3.1/cmath ****     typename __gnu_cxx::__enable_if<__is_integer<_Tp>::__value,
 117:/Library/DaisyToolchain/0.2.0/arm/arm-none-eabi/include/c++/10.3.1/cmath ****                                     double>::__type
 118:/Library/DaisyToolchain/0.2.0/arm/arm-none-eabi/include/c++/10.3.1/cmath ****     asin(_Tp __x)
 119:/Library/DaisyToolchain/0.2.0/arm/arm-none-eabi/include/c++/10.3.1/cmath ****     { return __builtin_asin(__x); }
 120:/Library/DaisyToolchain/0.2.0/arm/arm-none-eabi/include/c++/10.3.1/cmath **** 
 121:/Library/DaisyToolchain/0.2.0/arm/arm-none-eabi/include/c++/10.3.1/cmath ****   using ::atan;
 122:/Library/DaisyToolchain/0.2.0/arm/arm-none-eabi/include/c++/10.3.1/cmath **** 
 123:/Library/DaisyToolchain/0.2.0/arm/arm-none-eabi/include/c++/10.3.1/cmath **** #ifndef __CORRECT_ISO_CPP_MATH_H_PROTO
 124:/Library/DaisyToolchain/0.2.0/arm/arm-none-eabi/include/c++/10.3.1/cmath ****   inline _GLIBCXX_CONSTEXPR float
 125:/Library/DaisyToolchain/0.2.0/arm/arm-none-eabi/include/c++/10.3.1/cmath ****   atan(float __x)
 126:/Library/DaisyToolchain/0.2.0/arm/arm-none-eabi/include/c++/10.3.1/cmath ****   { return __builtin_atanf(__x); }
 127:/Library/DaisyToolchain/0.2.0/arm/arm-none-eabi/include/c++/10.3.1/cmath **** 
 128:/Library/DaisyToolchain/0.2.0/arm/arm-none-eabi/include/c++/10.3.1/cmath ****   inline _GLIBCXX_CONSTEXPR long double
 129:/Library/DaisyToolchain/0.2.0/arm/arm-none-eabi/include/c++/10.3.1/cmath ****   atan(long double __x)
 130:/Library/DaisyToolchain/0.2.0/arm/arm-none-eabi/include/c++/10.3.1/cmath ****   { return __builtin_atanl(__x); }
 131:/Library/DaisyToolchain/0.2.0/arm/arm-none-eabi/include/c++/10.3.1/cmath **** #endif
 132:/Library/DaisyToolchain/0.2.0/arm/arm-none-eabi/include/c++/10.3.1/cmath **** 
 133:/Library/DaisyToolchain/0.2.0/arm/arm-none-eabi/include/c++/10.3.1/cmath ****   template<typename _Tp>
 134:/Library/DaisyToolchain/0.2.0/arm/arm-none-eabi/include/c++/10.3.1/cmath ****     inline _GLIBCXX_CONSTEXPR
 135:/Library/DaisyToolchain/0.2.0/arm/arm-none-eabi/include/c++/10.3.1/cmath ****     typename __gnu_cxx::__enable_if<__is_integer<_Tp>::__value,
 136:/Library/DaisyToolchain/0.2.0/arm/arm-none-eabi/include/c++/10.3.1/cmath ****                                     double>::__type
 137:/Library/DaisyToolchain/0.2.0/arm/arm-none-eabi/include/c++/10.3.1/cmath ****     atan(_Tp __x)
 138:/Library/DaisyToolchain/0.2.0/arm/arm-none-eabi/include/c++/10.3.1/cmath ****     { return __builtin_atan(__x); }
 139:/Library/DaisyToolchain/0.2.0/arm/arm-none-eabi/include/c++/10.3.1/cmath **** 
 140:/Library/DaisyToolchain/0.2.0/arm/arm-none-eabi/include/c++/10.3.1/cmath ****   using ::atan2;
 141:/Library/DaisyToolchain/0.2.0/arm/arm-none-eabi/include/c++/10.3.1/cmath **** 
 142:/Library/DaisyToolchain/0.2.0/arm/arm-none-eabi/include/c++/10.3.1/cmath **** #ifndef __CORRECT_ISO_CPP_MATH_H_PROTO
 143:/Library/DaisyToolchain/0.2.0/arm/arm-none-eabi/include/c++/10.3.1/cmath ****   inline _GLIBCXX_CONSTEXPR float
 144:/Library/DaisyToolchain/0.2.0/arm/arm-none-eabi/include/c++/10.3.1/cmath ****   atan2(float __y, float __x)
 145:/Library/DaisyToolchain/0.2.0/arm/arm-none-eabi/include/c++/10.3.1/cmath ****   { return __builtin_atan2f(__y, __x); }
 146:/Library/DaisyToolchain/0.2.0/arm/arm-none-eabi/include/c++/10.3.1/cmath **** 
 147:/Library/DaisyToolchain/0.2.0/arm/arm-none-eabi/include/c++/10.3.1/cmath ****   inline _GLIBCXX_CONSTEXPR long double
 148:/Library/DaisyToolchain/0.2.0/arm/arm-none-eabi/include/c++/10.3.1/cmath ****   atan2(long double __y, long double __x)
 149:/Library/DaisyToolchain/0.2.0/arm/arm-none-eabi/include/c++/10.3.1/cmath ****   { return __builtin_atan2l(__y, __x); }
 150:/Library/DaisyToolchain/0.2.0/arm/arm-none-eabi/include/c++/10.3.1/cmath **** #endif
 151:/Library/DaisyToolchain/0.2.0/arm/arm-none-eabi/include/c++/10.3.1/cmath **** 
 152:/Library/DaisyToolchain/0.2.0/arm/arm-none-eabi/include/c++/10.3.1/cmath ****   template<typename _Tp, typename _Up>
 153:/Library/DaisyToolchain/0.2.0/arm/arm-none-eabi/include/c++/10.3.1/cmath ****     inline _GLIBCXX_CONSTEXPR
 154:/Library/DaisyToolchain/0.2.0/arm/arm-none-eabi/include/c++/10.3.1/cmath ****     typename __gnu_cxx::__promote_2<_Tp, _Up>::__type
 155:/Library/DaisyToolchain/0.2.0/arm/arm-none-eabi/include/c++/10.3.1/cmath ****     atan2(_Tp __y, _Up __x)
 156:/Library/DaisyToolchain/0.2.0/arm/arm-none-eabi/include/c++/10.3.1/cmath ****     {
 157:/Library/DaisyToolchain/0.2.0/arm/arm-none-eabi/include/c++/10.3.1/cmath ****       typedef typename __gnu_cxx::__promote_2<_Tp, _Up>::__type __type;
 158:/Library/DaisyToolchain/0.2.0/arm/arm-none-eabi/include/c++/10.3.1/cmath ****       return atan2(__type(__y), __type(__x));
 159:/Library/DaisyToolchain/0.2.0/arm/arm-none-eabi/include/c++/10.3.1/cmath ****     }
 160:/Library/DaisyToolchain/0.2.0/arm/arm-none-eabi/include/c++/10.3.1/cmath **** 
 161:/Library/DaisyToolchain/0.2.0/arm/arm-none-eabi/include/c++/10.3.1/cmath ****   using ::ceil;
 162:/Library/DaisyToolchain/0.2.0/arm/arm-none-eabi/include/c++/10.3.1/cmath **** 
 163:/Library/DaisyToolchain/0.2.0/arm/arm-none-eabi/include/c++/10.3.1/cmath **** #ifndef __CORRECT_ISO_CPP_MATH_H_PROTO
 164:/Library/DaisyToolchain/0.2.0/arm/arm-none-eabi/include/c++/10.3.1/cmath ****   inline _GLIBCXX_CONSTEXPR float
 165:/Library/DaisyToolchain/0.2.0/arm/arm-none-eabi/include/c++/10.3.1/cmath ****   ceil(float __x)
 166:/Library/DaisyToolchain/0.2.0/arm/arm-none-eabi/include/c++/10.3.1/cmath ****   { return __builtin_ceilf(__x); }
 167:/Library/DaisyToolchain/0.2.0/arm/arm-none-eabi/include/c++/10.3.1/cmath **** 
 168:/Library/DaisyToolchain/0.2.0/arm/arm-none-eabi/include/c++/10.3.1/cmath ****   inline _GLIBCXX_CONSTEXPR long double
ARM GAS  /var/folders/fb/yfxt3z4538j6z0vjt03w70vc0000gn/T//ccrD3Rdr.s 			page 107


 169:/Library/DaisyToolchain/0.2.0/arm/arm-none-eabi/include/c++/10.3.1/cmath ****   ceil(long double __x)
 170:/Library/DaisyToolchain/0.2.0/arm/arm-none-eabi/include/c++/10.3.1/cmath ****   { return __builtin_ceill(__x); }
 171:/Library/DaisyToolchain/0.2.0/arm/arm-none-eabi/include/c++/10.3.1/cmath **** #endif
 172:/Library/DaisyToolchain/0.2.0/arm/arm-none-eabi/include/c++/10.3.1/cmath **** 
 173:/Library/DaisyToolchain/0.2.0/arm/arm-none-eabi/include/c++/10.3.1/cmath ****   template<typename _Tp>
 174:/Library/DaisyToolchain/0.2.0/arm/arm-none-eabi/include/c++/10.3.1/cmath ****     inline _GLIBCXX_CONSTEXPR
 175:/Library/DaisyToolchain/0.2.0/arm/arm-none-eabi/include/c++/10.3.1/cmath ****     typename __gnu_cxx::__enable_if<__is_integer<_Tp>::__value, 
 176:/Library/DaisyToolchain/0.2.0/arm/arm-none-eabi/include/c++/10.3.1/cmath ****                                     double>::__type
 177:/Library/DaisyToolchain/0.2.0/arm/arm-none-eabi/include/c++/10.3.1/cmath ****     ceil(_Tp __x)
 178:/Library/DaisyToolchain/0.2.0/arm/arm-none-eabi/include/c++/10.3.1/cmath ****     { return __builtin_ceil(__x); }
 179:/Library/DaisyToolchain/0.2.0/arm/arm-none-eabi/include/c++/10.3.1/cmath **** 
 180:/Library/DaisyToolchain/0.2.0/arm/arm-none-eabi/include/c++/10.3.1/cmath ****   using ::cos;
 181:/Library/DaisyToolchain/0.2.0/arm/arm-none-eabi/include/c++/10.3.1/cmath **** 
 182:/Library/DaisyToolchain/0.2.0/arm/arm-none-eabi/include/c++/10.3.1/cmath **** #ifndef __CORRECT_ISO_CPP_MATH_H_PROTO
 183:/Library/DaisyToolchain/0.2.0/arm/arm-none-eabi/include/c++/10.3.1/cmath ****   inline _GLIBCXX_CONSTEXPR float
 184:/Library/DaisyToolchain/0.2.0/arm/arm-none-eabi/include/c++/10.3.1/cmath ****   cos(float __x)
 185:/Library/DaisyToolchain/0.2.0/arm/arm-none-eabi/include/c++/10.3.1/cmath ****   { return __builtin_cosf(__x); }
 3566              		.loc 16 185 26 view .LVU786
 3567 0050 B0EE680A 		vmov.f32	s0, s17
 3568 0054 FFF7FEFF 		bl	cosf
 3569              	.LVL243:
 3570              		.loc 16 185 26 view .LVU787
 3571              	.LBE1206:
 3572              	.LBE1205:
 315:../../../lib/pd2dsy/libdaisy/src/hid/disp/display.h ****         start_y = -sin(start_angle_rad) * radius;
 3573              		.loc 4 315 17 view .LVU788
 3574 0058 07EE907A 		vmov	s15, r7	@ int
 313:../../../lib/pd2dsy/libdaisy/src/hid/disp/display.h **** 
 3575              		.loc 4 313 25 view .LVU789
 3576 005c B7EECAAB 		vcvt.f32.f64	s20, d10
 3577              	.LVL244:
 3578              	.LBB1209:
 3579              	.LBI1205:
 184:/Library/DaisyToolchain/0.2.0/arm/arm-none-eabi/include/c++/10.3.1/cmath ****   { return __builtin_cosf(__x); }
 3580              		.loc 16 184 3 is_stmt 1 view .LVU790
 3581              	.LBB1207:
 3582              		.loc 16 185 5 view .LVU791
 3583              		.loc 16 185 5 is_stmt 0 view .LVU792
 3584              	.LBE1207:
 3585              	.LBE1209:
 315:../../../lib/pd2dsy/libdaisy/src/hid/disp/display.h ****         start_y = -sin(start_angle_rad) * radius;
 3586              		.loc 4 315 17 view .LVU793
 3587 0060 F8EE679A 		vcvt.f32.u32	s19, s15
 3588              	.LBB1210:
 3589              	.LBB1208:
 3590              		.loc 16 185 26 view .LVU794
 3591 0064 B0EE408A 		vmov.f32	s16, s0
 3592              	.LBE1208:
 3593              	.LBE1210:
 3594              	.LBB1211:
 3595              	.LBB1212:
 186:/Library/DaisyToolchain/0.2.0/arm/arm-none-eabi/include/c++/10.3.1/cmath **** 
 187:/Library/DaisyToolchain/0.2.0/arm/arm-none-eabi/include/c++/10.3.1/cmath ****   inline _GLIBCXX_CONSTEXPR long double
 188:/Library/DaisyToolchain/0.2.0/arm/arm-none-eabi/include/c++/10.3.1/cmath ****   cos(long double __x)
 189:/Library/DaisyToolchain/0.2.0/arm/arm-none-eabi/include/c++/10.3.1/cmath ****   { return __builtin_cosl(__x); }
 190:/Library/DaisyToolchain/0.2.0/arm/arm-none-eabi/include/c++/10.3.1/cmath **** #endif
 191:/Library/DaisyToolchain/0.2.0/arm/arm-none-eabi/include/c++/10.3.1/cmath **** 
ARM GAS  /var/folders/fb/yfxt3z4538j6z0vjt03w70vc0000gn/T//ccrD3Rdr.s 			page 108


 192:/Library/DaisyToolchain/0.2.0/arm/arm-none-eabi/include/c++/10.3.1/cmath ****   template<typename _Tp>
 193:/Library/DaisyToolchain/0.2.0/arm/arm-none-eabi/include/c++/10.3.1/cmath ****     inline _GLIBCXX_CONSTEXPR
 194:/Library/DaisyToolchain/0.2.0/arm/arm-none-eabi/include/c++/10.3.1/cmath ****     typename __gnu_cxx::__enable_if<__is_integer<_Tp>::__value,
 195:/Library/DaisyToolchain/0.2.0/arm/arm-none-eabi/include/c++/10.3.1/cmath ****                                     double>::__type
 196:/Library/DaisyToolchain/0.2.0/arm/arm-none-eabi/include/c++/10.3.1/cmath ****     cos(_Tp __x)
 197:/Library/DaisyToolchain/0.2.0/arm/arm-none-eabi/include/c++/10.3.1/cmath ****     { return __builtin_cos(__x); }
 198:/Library/DaisyToolchain/0.2.0/arm/arm-none-eabi/include/c++/10.3.1/cmath **** 
 199:/Library/DaisyToolchain/0.2.0/arm/arm-none-eabi/include/c++/10.3.1/cmath ****   using ::cosh;
 200:/Library/DaisyToolchain/0.2.0/arm/arm-none-eabi/include/c++/10.3.1/cmath **** 
 201:/Library/DaisyToolchain/0.2.0/arm/arm-none-eabi/include/c++/10.3.1/cmath **** #ifndef __CORRECT_ISO_CPP_MATH_H_PROTO
 202:/Library/DaisyToolchain/0.2.0/arm/arm-none-eabi/include/c++/10.3.1/cmath ****   inline _GLIBCXX_CONSTEXPR float
 203:/Library/DaisyToolchain/0.2.0/arm/arm-none-eabi/include/c++/10.3.1/cmath ****   cosh(float __x)
 204:/Library/DaisyToolchain/0.2.0/arm/arm-none-eabi/include/c++/10.3.1/cmath ****   { return __builtin_coshf(__x); }
 205:/Library/DaisyToolchain/0.2.0/arm/arm-none-eabi/include/c++/10.3.1/cmath **** 
 206:/Library/DaisyToolchain/0.2.0/arm/arm-none-eabi/include/c++/10.3.1/cmath ****   inline _GLIBCXX_CONSTEXPR long double
 207:/Library/DaisyToolchain/0.2.0/arm/arm-none-eabi/include/c++/10.3.1/cmath ****   cosh(long double __x)
 208:/Library/DaisyToolchain/0.2.0/arm/arm-none-eabi/include/c++/10.3.1/cmath ****   { return __builtin_coshl(__x); }
 209:/Library/DaisyToolchain/0.2.0/arm/arm-none-eabi/include/c++/10.3.1/cmath **** #endif
 210:/Library/DaisyToolchain/0.2.0/arm/arm-none-eabi/include/c++/10.3.1/cmath **** 
 211:/Library/DaisyToolchain/0.2.0/arm/arm-none-eabi/include/c++/10.3.1/cmath ****   template<typename _Tp>
 212:/Library/DaisyToolchain/0.2.0/arm/arm-none-eabi/include/c++/10.3.1/cmath ****     inline _GLIBCXX_CONSTEXPR
 213:/Library/DaisyToolchain/0.2.0/arm/arm-none-eabi/include/c++/10.3.1/cmath ****     typename __gnu_cxx::__enable_if<__is_integer<_Tp>::__value,
 214:/Library/DaisyToolchain/0.2.0/arm/arm-none-eabi/include/c++/10.3.1/cmath ****                                     double>::__type
 215:/Library/DaisyToolchain/0.2.0/arm/arm-none-eabi/include/c++/10.3.1/cmath ****     cosh(_Tp __x)
 216:/Library/DaisyToolchain/0.2.0/arm/arm-none-eabi/include/c++/10.3.1/cmath ****     { return __builtin_cosh(__x); }
 217:/Library/DaisyToolchain/0.2.0/arm/arm-none-eabi/include/c++/10.3.1/cmath **** 
 218:/Library/DaisyToolchain/0.2.0/arm/arm-none-eabi/include/c++/10.3.1/cmath ****   using ::exp;
 219:/Library/DaisyToolchain/0.2.0/arm/arm-none-eabi/include/c++/10.3.1/cmath **** 
 220:/Library/DaisyToolchain/0.2.0/arm/arm-none-eabi/include/c++/10.3.1/cmath **** #ifndef __CORRECT_ISO_CPP_MATH_H_PROTO
 221:/Library/DaisyToolchain/0.2.0/arm/arm-none-eabi/include/c++/10.3.1/cmath ****   inline _GLIBCXX_CONSTEXPR float
 222:/Library/DaisyToolchain/0.2.0/arm/arm-none-eabi/include/c++/10.3.1/cmath ****   exp(float __x)
 223:/Library/DaisyToolchain/0.2.0/arm/arm-none-eabi/include/c++/10.3.1/cmath ****   { return __builtin_expf(__x); }
 224:/Library/DaisyToolchain/0.2.0/arm/arm-none-eabi/include/c++/10.3.1/cmath **** 
 225:/Library/DaisyToolchain/0.2.0/arm/arm-none-eabi/include/c++/10.3.1/cmath ****   inline _GLIBCXX_CONSTEXPR long double
 226:/Library/DaisyToolchain/0.2.0/arm/arm-none-eabi/include/c++/10.3.1/cmath ****   exp(long double __x)
 227:/Library/DaisyToolchain/0.2.0/arm/arm-none-eabi/include/c++/10.3.1/cmath ****   { return __builtin_expl(__x); }
 228:/Library/DaisyToolchain/0.2.0/arm/arm-none-eabi/include/c++/10.3.1/cmath **** #endif
 229:/Library/DaisyToolchain/0.2.0/arm/arm-none-eabi/include/c++/10.3.1/cmath **** 
 230:/Library/DaisyToolchain/0.2.0/arm/arm-none-eabi/include/c++/10.3.1/cmath ****   template<typename _Tp>
 231:/Library/DaisyToolchain/0.2.0/arm/arm-none-eabi/include/c++/10.3.1/cmath ****     inline _GLIBCXX_CONSTEXPR
 232:/Library/DaisyToolchain/0.2.0/arm/arm-none-eabi/include/c++/10.3.1/cmath ****     typename __gnu_cxx::__enable_if<__is_integer<_Tp>::__value,
 233:/Library/DaisyToolchain/0.2.0/arm/arm-none-eabi/include/c++/10.3.1/cmath ****                                     double>::__type
 234:/Library/DaisyToolchain/0.2.0/arm/arm-none-eabi/include/c++/10.3.1/cmath ****     exp(_Tp __x)
 235:/Library/DaisyToolchain/0.2.0/arm/arm-none-eabi/include/c++/10.3.1/cmath ****     { return __builtin_exp(__x); }
 236:/Library/DaisyToolchain/0.2.0/arm/arm-none-eabi/include/c++/10.3.1/cmath **** 
 237:/Library/DaisyToolchain/0.2.0/arm/arm-none-eabi/include/c++/10.3.1/cmath ****   using ::fabs;
 238:/Library/DaisyToolchain/0.2.0/arm/arm-none-eabi/include/c++/10.3.1/cmath **** 
 239:/Library/DaisyToolchain/0.2.0/arm/arm-none-eabi/include/c++/10.3.1/cmath **** #ifndef __CORRECT_ISO_CPP_MATH_H_PROTO
 240:/Library/DaisyToolchain/0.2.0/arm/arm-none-eabi/include/c++/10.3.1/cmath ****   inline _GLIBCXX_CONSTEXPR float
 241:/Library/DaisyToolchain/0.2.0/arm/arm-none-eabi/include/c++/10.3.1/cmath ****   fabs(float __x)
 242:/Library/DaisyToolchain/0.2.0/arm/arm-none-eabi/include/c++/10.3.1/cmath ****   { return __builtin_fabsf(__x); }
 243:/Library/DaisyToolchain/0.2.0/arm/arm-none-eabi/include/c++/10.3.1/cmath **** 
 244:/Library/DaisyToolchain/0.2.0/arm/arm-none-eabi/include/c++/10.3.1/cmath ****   inline _GLIBCXX_CONSTEXPR long double
 245:/Library/DaisyToolchain/0.2.0/arm/arm-none-eabi/include/c++/10.3.1/cmath ****   fabs(long double __x)
 246:/Library/DaisyToolchain/0.2.0/arm/arm-none-eabi/include/c++/10.3.1/cmath ****   { return __builtin_fabsl(__x); }
 247:/Library/DaisyToolchain/0.2.0/arm/arm-none-eabi/include/c++/10.3.1/cmath **** #endif
 248:/Library/DaisyToolchain/0.2.0/arm/arm-none-eabi/include/c++/10.3.1/cmath **** 
ARM GAS  /var/folders/fb/yfxt3z4538j6z0vjt03w70vc0000gn/T//ccrD3Rdr.s 			page 109


 249:/Library/DaisyToolchain/0.2.0/arm/arm-none-eabi/include/c++/10.3.1/cmath ****   template<typename _Tp>
 250:/Library/DaisyToolchain/0.2.0/arm/arm-none-eabi/include/c++/10.3.1/cmath ****     inline _GLIBCXX_CONSTEXPR
 251:/Library/DaisyToolchain/0.2.0/arm/arm-none-eabi/include/c++/10.3.1/cmath ****     typename __gnu_cxx::__enable_if<__is_integer<_Tp>::__value,
 252:/Library/DaisyToolchain/0.2.0/arm/arm-none-eabi/include/c++/10.3.1/cmath ****                                     double>::__type
 253:/Library/DaisyToolchain/0.2.0/arm/arm-none-eabi/include/c++/10.3.1/cmath ****     fabs(_Tp __x)
 254:/Library/DaisyToolchain/0.2.0/arm/arm-none-eabi/include/c++/10.3.1/cmath ****     { return __builtin_fabs(__x); }
 255:/Library/DaisyToolchain/0.2.0/arm/arm-none-eabi/include/c++/10.3.1/cmath **** 
 256:/Library/DaisyToolchain/0.2.0/arm/arm-none-eabi/include/c++/10.3.1/cmath ****   using ::floor;
 257:/Library/DaisyToolchain/0.2.0/arm/arm-none-eabi/include/c++/10.3.1/cmath **** 
 258:/Library/DaisyToolchain/0.2.0/arm/arm-none-eabi/include/c++/10.3.1/cmath **** #ifndef __CORRECT_ISO_CPP_MATH_H_PROTO
 259:/Library/DaisyToolchain/0.2.0/arm/arm-none-eabi/include/c++/10.3.1/cmath ****   inline _GLIBCXX_CONSTEXPR float
 260:/Library/DaisyToolchain/0.2.0/arm/arm-none-eabi/include/c++/10.3.1/cmath ****   floor(float __x)
 261:/Library/DaisyToolchain/0.2.0/arm/arm-none-eabi/include/c++/10.3.1/cmath ****   { return __builtin_floorf(__x); }
 262:/Library/DaisyToolchain/0.2.0/arm/arm-none-eabi/include/c++/10.3.1/cmath **** 
 263:/Library/DaisyToolchain/0.2.0/arm/arm-none-eabi/include/c++/10.3.1/cmath ****   inline _GLIBCXX_CONSTEXPR long double
 264:/Library/DaisyToolchain/0.2.0/arm/arm-none-eabi/include/c++/10.3.1/cmath ****   floor(long double __x)
 265:/Library/DaisyToolchain/0.2.0/arm/arm-none-eabi/include/c++/10.3.1/cmath ****   { return __builtin_floorl(__x); }
 266:/Library/DaisyToolchain/0.2.0/arm/arm-none-eabi/include/c++/10.3.1/cmath **** #endif
 267:/Library/DaisyToolchain/0.2.0/arm/arm-none-eabi/include/c++/10.3.1/cmath **** 
 268:/Library/DaisyToolchain/0.2.0/arm/arm-none-eabi/include/c++/10.3.1/cmath ****   template<typename _Tp>
 269:/Library/DaisyToolchain/0.2.0/arm/arm-none-eabi/include/c++/10.3.1/cmath ****     inline _GLIBCXX_CONSTEXPR
 270:/Library/DaisyToolchain/0.2.0/arm/arm-none-eabi/include/c++/10.3.1/cmath ****     typename __gnu_cxx::__enable_if<__is_integer<_Tp>::__value,
 271:/Library/DaisyToolchain/0.2.0/arm/arm-none-eabi/include/c++/10.3.1/cmath ****                                     double>::__type
 272:/Library/DaisyToolchain/0.2.0/arm/arm-none-eabi/include/c++/10.3.1/cmath ****     floor(_Tp __x)
 273:/Library/DaisyToolchain/0.2.0/arm/arm-none-eabi/include/c++/10.3.1/cmath ****     { return __builtin_floor(__x); }
 274:/Library/DaisyToolchain/0.2.0/arm/arm-none-eabi/include/c++/10.3.1/cmath **** 
 275:/Library/DaisyToolchain/0.2.0/arm/arm-none-eabi/include/c++/10.3.1/cmath ****   using ::fmod;
 276:/Library/DaisyToolchain/0.2.0/arm/arm-none-eabi/include/c++/10.3.1/cmath **** 
 277:/Library/DaisyToolchain/0.2.0/arm/arm-none-eabi/include/c++/10.3.1/cmath **** #ifndef __CORRECT_ISO_CPP_MATH_H_PROTO
 278:/Library/DaisyToolchain/0.2.0/arm/arm-none-eabi/include/c++/10.3.1/cmath ****   inline _GLIBCXX_CONSTEXPR float
 279:/Library/DaisyToolchain/0.2.0/arm/arm-none-eabi/include/c++/10.3.1/cmath ****   fmod(float __x, float __y)
 280:/Library/DaisyToolchain/0.2.0/arm/arm-none-eabi/include/c++/10.3.1/cmath ****   { return __builtin_fmodf(__x, __y); }
 281:/Library/DaisyToolchain/0.2.0/arm/arm-none-eabi/include/c++/10.3.1/cmath **** 
 282:/Library/DaisyToolchain/0.2.0/arm/arm-none-eabi/include/c++/10.3.1/cmath ****   inline _GLIBCXX_CONSTEXPR long double
 283:/Library/DaisyToolchain/0.2.0/arm/arm-none-eabi/include/c++/10.3.1/cmath ****   fmod(long double __x, long double __y)
 284:/Library/DaisyToolchain/0.2.0/arm/arm-none-eabi/include/c++/10.3.1/cmath ****   { return __builtin_fmodl(__x, __y); }
 285:/Library/DaisyToolchain/0.2.0/arm/arm-none-eabi/include/c++/10.3.1/cmath **** #endif
 286:/Library/DaisyToolchain/0.2.0/arm/arm-none-eabi/include/c++/10.3.1/cmath **** 
 287:/Library/DaisyToolchain/0.2.0/arm/arm-none-eabi/include/c++/10.3.1/cmath ****   template<typename _Tp, typename _Up>
 288:/Library/DaisyToolchain/0.2.0/arm/arm-none-eabi/include/c++/10.3.1/cmath ****     inline _GLIBCXX_CONSTEXPR
 289:/Library/DaisyToolchain/0.2.0/arm/arm-none-eabi/include/c++/10.3.1/cmath ****     typename __gnu_cxx::__promote_2<_Tp, _Up>::__type
 290:/Library/DaisyToolchain/0.2.0/arm/arm-none-eabi/include/c++/10.3.1/cmath ****     fmod(_Tp __x, _Up __y)
 291:/Library/DaisyToolchain/0.2.0/arm/arm-none-eabi/include/c++/10.3.1/cmath ****     {
 292:/Library/DaisyToolchain/0.2.0/arm/arm-none-eabi/include/c++/10.3.1/cmath ****       typedef typename __gnu_cxx::__promote_2<_Tp, _Up>::__type __type;
 293:/Library/DaisyToolchain/0.2.0/arm/arm-none-eabi/include/c++/10.3.1/cmath ****       return fmod(__type(__x), __type(__y));
 294:/Library/DaisyToolchain/0.2.0/arm/arm-none-eabi/include/c++/10.3.1/cmath ****     }
 295:/Library/DaisyToolchain/0.2.0/arm/arm-none-eabi/include/c++/10.3.1/cmath **** 
 296:/Library/DaisyToolchain/0.2.0/arm/arm-none-eabi/include/c++/10.3.1/cmath ****   using ::frexp;
 297:/Library/DaisyToolchain/0.2.0/arm/arm-none-eabi/include/c++/10.3.1/cmath **** 
 298:/Library/DaisyToolchain/0.2.0/arm/arm-none-eabi/include/c++/10.3.1/cmath **** #ifndef __CORRECT_ISO_CPP_MATH_H_PROTO
 299:/Library/DaisyToolchain/0.2.0/arm/arm-none-eabi/include/c++/10.3.1/cmath ****   inline float
 300:/Library/DaisyToolchain/0.2.0/arm/arm-none-eabi/include/c++/10.3.1/cmath ****   frexp(float __x, int* __exp)
 301:/Library/DaisyToolchain/0.2.0/arm/arm-none-eabi/include/c++/10.3.1/cmath ****   { return __builtin_frexpf(__x, __exp); }
 302:/Library/DaisyToolchain/0.2.0/arm/arm-none-eabi/include/c++/10.3.1/cmath **** 
 303:/Library/DaisyToolchain/0.2.0/arm/arm-none-eabi/include/c++/10.3.1/cmath ****   inline long double
 304:/Library/DaisyToolchain/0.2.0/arm/arm-none-eabi/include/c++/10.3.1/cmath ****   frexp(long double __x, int* __exp)
 305:/Library/DaisyToolchain/0.2.0/arm/arm-none-eabi/include/c++/10.3.1/cmath ****   { return __builtin_frexpl(__x, __exp); }
ARM GAS  /var/folders/fb/yfxt3z4538j6z0vjt03w70vc0000gn/T//ccrD3Rdr.s 			page 110


 306:/Library/DaisyToolchain/0.2.0/arm/arm-none-eabi/include/c++/10.3.1/cmath **** #endif
 307:/Library/DaisyToolchain/0.2.0/arm/arm-none-eabi/include/c++/10.3.1/cmath **** 
 308:/Library/DaisyToolchain/0.2.0/arm/arm-none-eabi/include/c++/10.3.1/cmath ****   template<typename _Tp>
 309:/Library/DaisyToolchain/0.2.0/arm/arm-none-eabi/include/c++/10.3.1/cmath ****     inline _GLIBCXX_CONSTEXPR
 310:/Library/DaisyToolchain/0.2.0/arm/arm-none-eabi/include/c++/10.3.1/cmath ****     typename __gnu_cxx::__enable_if<__is_integer<_Tp>::__value, 
 311:/Library/DaisyToolchain/0.2.0/arm/arm-none-eabi/include/c++/10.3.1/cmath ****                                     double>::__type
 312:/Library/DaisyToolchain/0.2.0/arm/arm-none-eabi/include/c++/10.3.1/cmath ****     frexp(_Tp __x, int* __exp)
 313:/Library/DaisyToolchain/0.2.0/arm/arm-none-eabi/include/c++/10.3.1/cmath ****     { return __builtin_frexp(__x, __exp); }
 314:/Library/DaisyToolchain/0.2.0/arm/arm-none-eabi/include/c++/10.3.1/cmath **** 
 315:/Library/DaisyToolchain/0.2.0/arm/arm-none-eabi/include/c++/10.3.1/cmath ****   using ::ldexp;
 316:/Library/DaisyToolchain/0.2.0/arm/arm-none-eabi/include/c++/10.3.1/cmath **** 
 317:/Library/DaisyToolchain/0.2.0/arm/arm-none-eabi/include/c++/10.3.1/cmath **** #ifndef __CORRECT_ISO_CPP_MATH_H_PROTO
 318:/Library/DaisyToolchain/0.2.0/arm/arm-none-eabi/include/c++/10.3.1/cmath ****   inline _GLIBCXX_CONSTEXPR float
 319:/Library/DaisyToolchain/0.2.0/arm/arm-none-eabi/include/c++/10.3.1/cmath ****   ldexp(float __x, int __exp)
 320:/Library/DaisyToolchain/0.2.0/arm/arm-none-eabi/include/c++/10.3.1/cmath ****   { return __builtin_ldexpf(__x, __exp); }
 321:/Library/DaisyToolchain/0.2.0/arm/arm-none-eabi/include/c++/10.3.1/cmath **** 
 322:/Library/DaisyToolchain/0.2.0/arm/arm-none-eabi/include/c++/10.3.1/cmath ****   inline _GLIBCXX_CONSTEXPR long double
 323:/Library/DaisyToolchain/0.2.0/arm/arm-none-eabi/include/c++/10.3.1/cmath ****   ldexp(long double __x, int __exp)
 324:/Library/DaisyToolchain/0.2.0/arm/arm-none-eabi/include/c++/10.3.1/cmath ****   { return __builtin_ldexpl(__x, __exp); }
 325:/Library/DaisyToolchain/0.2.0/arm/arm-none-eabi/include/c++/10.3.1/cmath **** #endif
 326:/Library/DaisyToolchain/0.2.0/arm/arm-none-eabi/include/c++/10.3.1/cmath **** 
 327:/Library/DaisyToolchain/0.2.0/arm/arm-none-eabi/include/c++/10.3.1/cmath ****   template<typename _Tp>
 328:/Library/DaisyToolchain/0.2.0/arm/arm-none-eabi/include/c++/10.3.1/cmath ****     inline _GLIBCXX_CONSTEXPR
 329:/Library/DaisyToolchain/0.2.0/arm/arm-none-eabi/include/c++/10.3.1/cmath ****     typename __gnu_cxx::__enable_if<__is_integer<_Tp>::__value, 
 330:/Library/DaisyToolchain/0.2.0/arm/arm-none-eabi/include/c++/10.3.1/cmath ****                                     double>::__type
 331:/Library/DaisyToolchain/0.2.0/arm/arm-none-eabi/include/c++/10.3.1/cmath ****     ldexp(_Tp __x, int __exp)
 332:/Library/DaisyToolchain/0.2.0/arm/arm-none-eabi/include/c++/10.3.1/cmath ****     { return __builtin_ldexp(__x, __exp); }
 333:/Library/DaisyToolchain/0.2.0/arm/arm-none-eabi/include/c++/10.3.1/cmath **** 
 334:/Library/DaisyToolchain/0.2.0/arm/arm-none-eabi/include/c++/10.3.1/cmath ****   using ::log;
 335:/Library/DaisyToolchain/0.2.0/arm/arm-none-eabi/include/c++/10.3.1/cmath **** 
 336:/Library/DaisyToolchain/0.2.0/arm/arm-none-eabi/include/c++/10.3.1/cmath **** #ifndef __CORRECT_ISO_CPP_MATH_H_PROTO
 337:/Library/DaisyToolchain/0.2.0/arm/arm-none-eabi/include/c++/10.3.1/cmath ****   inline _GLIBCXX_CONSTEXPR float
 338:/Library/DaisyToolchain/0.2.0/arm/arm-none-eabi/include/c++/10.3.1/cmath ****   log(float __x)
 339:/Library/DaisyToolchain/0.2.0/arm/arm-none-eabi/include/c++/10.3.1/cmath ****   { return __builtin_logf(__x); }
 340:/Library/DaisyToolchain/0.2.0/arm/arm-none-eabi/include/c++/10.3.1/cmath **** 
 341:/Library/DaisyToolchain/0.2.0/arm/arm-none-eabi/include/c++/10.3.1/cmath ****   inline _GLIBCXX_CONSTEXPR long double
 342:/Library/DaisyToolchain/0.2.0/arm/arm-none-eabi/include/c++/10.3.1/cmath ****   log(long double __x)
 343:/Library/DaisyToolchain/0.2.0/arm/arm-none-eabi/include/c++/10.3.1/cmath ****   { return __builtin_logl(__x); }
 344:/Library/DaisyToolchain/0.2.0/arm/arm-none-eabi/include/c++/10.3.1/cmath **** #endif
 345:/Library/DaisyToolchain/0.2.0/arm/arm-none-eabi/include/c++/10.3.1/cmath **** 
 346:/Library/DaisyToolchain/0.2.0/arm/arm-none-eabi/include/c++/10.3.1/cmath ****   template<typename _Tp>
 347:/Library/DaisyToolchain/0.2.0/arm/arm-none-eabi/include/c++/10.3.1/cmath ****     inline _GLIBCXX_CONSTEXPR
 348:/Library/DaisyToolchain/0.2.0/arm/arm-none-eabi/include/c++/10.3.1/cmath ****     typename __gnu_cxx::__enable_if<__is_integer<_Tp>::__value, 
 349:/Library/DaisyToolchain/0.2.0/arm/arm-none-eabi/include/c++/10.3.1/cmath ****                                     double>::__type
 350:/Library/DaisyToolchain/0.2.0/arm/arm-none-eabi/include/c++/10.3.1/cmath ****     log(_Tp __x)
 351:/Library/DaisyToolchain/0.2.0/arm/arm-none-eabi/include/c++/10.3.1/cmath ****     { return __builtin_log(__x); }
 352:/Library/DaisyToolchain/0.2.0/arm/arm-none-eabi/include/c++/10.3.1/cmath **** 
 353:/Library/DaisyToolchain/0.2.0/arm/arm-none-eabi/include/c++/10.3.1/cmath ****   using ::log10;
 354:/Library/DaisyToolchain/0.2.0/arm/arm-none-eabi/include/c++/10.3.1/cmath **** 
 355:/Library/DaisyToolchain/0.2.0/arm/arm-none-eabi/include/c++/10.3.1/cmath **** #ifndef __CORRECT_ISO_CPP_MATH_H_PROTO
 356:/Library/DaisyToolchain/0.2.0/arm/arm-none-eabi/include/c++/10.3.1/cmath ****   inline _GLIBCXX_CONSTEXPR float
 357:/Library/DaisyToolchain/0.2.0/arm/arm-none-eabi/include/c++/10.3.1/cmath ****   log10(float __x)
 358:/Library/DaisyToolchain/0.2.0/arm/arm-none-eabi/include/c++/10.3.1/cmath ****   { return __builtin_log10f(__x); }
 359:/Library/DaisyToolchain/0.2.0/arm/arm-none-eabi/include/c++/10.3.1/cmath **** 
 360:/Library/DaisyToolchain/0.2.0/arm/arm-none-eabi/include/c++/10.3.1/cmath ****   inline _GLIBCXX_CONSTEXPR long double
 361:/Library/DaisyToolchain/0.2.0/arm/arm-none-eabi/include/c++/10.3.1/cmath ****   log10(long double __x)
 362:/Library/DaisyToolchain/0.2.0/arm/arm-none-eabi/include/c++/10.3.1/cmath ****   { return __builtin_log10l(__x); }
ARM GAS  /var/folders/fb/yfxt3z4538j6z0vjt03w70vc0000gn/T//ccrD3Rdr.s 			page 111


 363:/Library/DaisyToolchain/0.2.0/arm/arm-none-eabi/include/c++/10.3.1/cmath **** #endif
 364:/Library/DaisyToolchain/0.2.0/arm/arm-none-eabi/include/c++/10.3.1/cmath **** 
 365:/Library/DaisyToolchain/0.2.0/arm/arm-none-eabi/include/c++/10.3.1/cmath ****   template<typename _Tp>
 366:/Library/DaisyToolchain/0.2.0/arm/arm-none-eabi/include/c++/10.3.1/cmath ****     inline _GLIBCXX_CONSTEXPR
 367:/Library/DaisyToolchain/0.2.0/arm/arm-none-eabi/include/c++/10.3.1/cmath ****     typename __gnu_cxx::__enable_if<__is_integer<_Tp>::__value,
 368:/Library/DaisyToolchain/0.2.0/arm/arm-none-eabi/include/c++/10.3.1/cmath ****                                     double>::__type
 369:/Library/DaisyToolchain/0.2.0/arm/arm-none-eabi/include/c++/10.3.1/cmath ****     log10(_Tp __x)
 370:/Library/DaisyToolchain/0.2.0/arm/arm-none-eabi/include/c++/10.3.1/cmath ****     { return __builtin_log10(__x); }
 371:/Library/DaisyToolchain/0.2.0/arm/arm-none-eabi/include/c++/10.3.1/cmath **** 
 372:/Library/DaisyToolchain/0.2.0/arm/arm-none-eabi/include/c++/10.3.1/cmath ****   using ::modf;
 373:/Library/DaisyToolchain/0.2.0/arm/arm-none-eabi/include/c++/10.3.1/cmath **** 
 374:/Library/DaisyToolchain/0.2.0/arm/arm-none-eabi/include/c++/10.3.1/cmath **** #ifndef __CORRECT_ISO_CPP_MATH_H_PROTO
 375:/Library/DaisyToolchain/0.2.0/arm/arm-none-eabi/include/c++/10.3.1/cmath ****   inline float
 376:/Library/DaisyToolchain/0.2.0/arm/arm-none-eabi/include/c++/10.3.1/cmath ****   modf(float __x, float* __iptr)
 377:/Library/DaisyToolchain/0.2.0/arm/arm-none-eabi/include/c++/10.3.1/cmath ****   { return __builtin_modff(__x, __iptr); }
 378:/Library/DaisyToolchain/0.2.0/arm/arm-none-eabi/include/c++/10.3.1/cmath **** 
 379:/Library/DaisyToolchain/0.2.0/arm/arm-none-eabi/include/c++/10.3.1/cmath ****   inline long double
 380:/Library/DaisyToolchain/0.2.0/arm/arm-none-eabi/include/c++/10.3.1/cmath ****   modf(long double __x, long double* __iptr)
 381:/Library/DaisyToolchain/0.2.0/arm/arm-none-eabi/include/c++/10.3.1/cmath ****   { return __builtin_modfl(__x, __iptr); }
 382:/Library/DaisyToolchain/0.2.0/arm/arm-none-eabi/include/c++/10.3.1/cmath **** #endif
 383:/Library/DaisyToolchain/0.2.0/arm/arm-none-eabi/include/c++/10.3.1/cmath **** 
 384:/Library/DaisyToolchain/0.2.0/arm/arm-none-eabi/include/c++/10.3.1/cmath ****   using ::pow;
 385:/Library/DaisyToolchain/0.2.0/arm/arm-none-eabi/include/c++/10.3.1/cmath **** 
 386:/Library/DaisyToolchain/0.2.0/arm/arm-none-eabi/include/c++/10.3.1/cmath **** #ifndef __CORRECT_ISO_CPP_MATH_H_PROTO
 387:/Library/DaisyToolchain/0.2.0/arm/arm-none-eabi/include/c++/10.3.1/cmath ****   inline _GLIBCXX_CONSTEXPR float
 388:/Library/DaisyToolchain/0.2.0/arm/arm-none-eabi/include/c++/10.3.1/cmath ****   pow(float __x, float __y)
 389:/Library/DaisyToolchain/0.2.0/arm/arm-none-eabi/include/c++/10.3.1/cmath ****   { return __builtin_powf(__x, __y); }
 390:/Library/DaisyToolchain/0.2.0/arm/arm-none-eabi/include/c++/10.3.1/cmath **** 
 391:/Library/DaisyToolchain/0.2.0/arm/arm-none-eabi/include/c++/10.3.1/cmath ****   inline _GLIBCXX_CONSTEXPR long double
 392:/Library/DaisyToolchain/0.2.0/arm/arm-none-eabi/include/c++/10.3.1/cmath ****   pow(long double __x, long double __y)
 393:/Library/DaisyToolchain/0.2.0/arm/arm-none-eabi/include/c++/10.3.1/cmath ****   { return __builtin_powl(__x, __y); }
 394:/Library/DaisyToolchain/0.2.0/arm/arm-none-eabi/include/c++/10.3.1/cmath **** 
 395:/Library/DaisyToolchain/0.2.0/arm/arm-none-eabi/include/c++/10.3.1/cmath **** #if __cplusplus < 201103L
 396:/Library/DaisyToolchain/0.2.0/arm/arm-none-eabi/include/c++/10.3.1/cmath ****   // _GLIBCXX_RESOLVE_LIB_DEFECTS
 397:/Library/DaisyToolchain/0.2.0/arm/arm-none-eabi/include/c++/10.3.1/cmath ****   // DR 550. What should the return type of pow(float,int) be?
 398:/Library/DaisyToolchain/0.2.0/arm/arm-none-eabi/include/c++/10.3.1/cmath ****   inline double
 399:/Library/DaisyToolchain/0.2.0/arm/arm-none-eabi/include/c++/10.3.1/cmath ****   pow(double __x, int __i)
 400:/Library/DaisyToolchain/0.2.0/arm/arm-none-eabi/include/c++/10.3.1/cmath ****   { return __builtin_powi(__x, __i); }
 401:/Library/DaisyToolchain/0.2.0/arm/arm-none-eabi/include/c++/10.3.1/cmath **** 
 402:/Library/DaisyToolchain/0.2.0/arm/arm-none-eabi/include/c++/10.3.1/cmath ****   inline float
 403:/Library/DaisyToolchain/0.2.0/arm/arm-none-eabi/include/c++/10.3.1/cmath ****   pow(float __x, int __n)
 404:/Library/DaisyToolchain/0.2.0/arm/arm-none-eabi/include/c++/10.3.1/cmath ****   { return __builtin_powif(__x, __n); }
 405:/Library/DaisyToolchain/0.2.0/arm/arm-none-eabi/include/c++/10.3.1/cmath **** 
 406:/Library/DaisyToolchain/0.2.0/arm/arm-none-eabi/include/c++/10.3.1/cmath ****   inline long double
 407:/Library/DaisyToolchain/0.2.0/arm/arm-none-eabi/include/c++/10.3.1/cmath ****   pow(long double __x, int __n)
 408:/Library/DaisyToolchain/0.2.0/arm/arm-none-eabi/include/c++/10.3.1/cmath ****   { return __builtin_powil(__x, __n); }
 409:/Library/DaisyToolchain/0.2.0/arm/arm-none-eabi/include/c++/10.3.1/cmath **** #endif
 410:/Library/DaisyToolchain/0.2.0/arm/arm-none-eabi/include/c++/10.3.1/cmath **** #endif
 411:/Library/DaisyToolchain/0.2.0/arm/arm-none-eabi/include/c++/10.3.1/cmath **** 
 412:/Library/DaisyToolchain/0.2.0/arm/arm-none-eabi/include/c++/10.3.1/cmath ****   template<typename _Tp, typename _Up>
 413:/Library/DaisyToolchain/0.2.0/arm/arm-none-eabi/include/c++/10.3.1/cmath ****     inline _GLIBCXX_CONSTEXPR
 414:/Library/DaisyToolchain/0.2.0/arm/arm-none-eabi/include/c++/10.3.1/cmath ****     typename __gnu_cxx::__promote_2<_Tp, _Up>::__type
 415:/Library/DaisyToolchain/0.2.0/arm/arm-none-eabi/include/c++/10.3.1/cmath ****     pow(_Tp __x, _Up __y)
 416:/Library/DaisyToolchain/0.2.0/arm/arm-none-eabi/include/c++/10.3.1/cmath ****     {
 417:/Library/DaisyToolchain/0.2.0/arm/arm-none-eabi/include/c++/10.3.1/cmath ****       typedef typename __gnu_cxx::__promote_2<_Tp, _Up>::__type __type;
 418:/Library/DaisyToolchain/0.2.0/arm/arm-none-eabi/include/c++/10.3.1/cmath ****       return pow(__type(__x), __type(__y));
 419:/Library/DaisyToolchain/0.2.0/arm/arm-none-eabi/include/c++/10.3.1/cmath ****     }
ARM GAS  /var/folders/fb/yfxt3z4538j6z0vjt03w70vc0000gn/T//ccrD3Rdr.s 			page 112


 420:/Library/DaisyToolchain/0.2.0/arm/arm-none-eabi/include/c++/10.3.1/cmath **** 
 421:/Library/DaisyToolchain/0.2.0/arm/arm-none-eabi/include/c++/10.3.1/cmath ****   using ::sin;
 422:/Library/DaisyToolchain/0.2.0/arm/arm-none-eabi/include/c++/10.3.1/cmath **** 
 423:/Library/DaisyToolchain/0.2.0/arm/arm-none-eabi/include/c++/10.3.1/cmath **** #ifndef __CORRECT_ISO_CPP_MATH_H_PROTO
 424:/Library/DaisyToolchain/0.2.0/arm/arm-none-eabi/include/c++/10.3.1/cmath ****   inline _GLIBCXX_CONSTEXPR float
 425:/Library/DaisyToolchain/0.2.0/arm/arm-none-eabi/include/c++/10.3.1/cmath ****   sin(float __x)
 426:/Library/DaisyToolchain/0.2.0/arm/arm-none-eabi/include/c++/10.3.1/cmath ****   { return __builtin_sinf(__x); }
 3596              		.loc 16 426 26 view .LVU795
 3597 0068 B0EE680A 		vmov.f32	s0, s17
 3598 006c FFF7FEFF 		bl	sinf
 3599              	.LVL245:
 3600              	.LBE1212:
 3601              	.LBE1211:
 316:../../../lib/pd2dsy/libdaisy/src/hid/disp/display.h ****         end_x   = cos(end_angle_rad) * radius;
 3602              		.loc 4 316 17 view .LVU796
 3603 0070 60EE698A 		vnmul.f32	s17, s0, s19
 3604              	.LVL246:
 3605              	.LBB1214:
 3606              	.LBB1215:
 185:/Library/DaisyToolchain/0.2.0/arm/arm-none-eabi/include/c++/10.3.1/cmath **** 
 3607              		.loc 16 185 26 view .LVU797
 3608 0074 B0EE4A0A 		vmov.f32	s0, s20
 3609 0078 FFF7FEFF 		bl	cosf
 3610              	.LVL247:
 3611 007c B0EE409A 		vmov.f32	s18, s0
 3612              	.LBE1215:
 3613              	.LBE1214:
 3614              	.LBB1217:
 3615              	.LBB1218:
 3616              		.loc 16 426 26 view .LVU798
 3617 0080 B0EE4A0A 		vmov.f32	s0, s20
 3618 0084 FFF7FEFF 		bl	sinf
 3619              	.LVL248:
 3620              	.LBE1218:
 3621              	.LBE1217:
 318:../../../lib/pd2dsy/libdaisy/src/hid/disp/display.h **** 
 3622              		.loc 4 318 17 view .LVU799
 3623 0088 20EE690A 		vnmul.f32	s0, s0, s19
 315:../../../lib/pd2dsy/libdaisy/src/hid/disp/display.h ****         start_y = -sin(start_angle_rad) * radius;
 3624              		.loc 4 315 17 view .LVU800
 3625 008c 29EE888A 		vmul.f32	s16, s19, s16
 3626              	.LVL249:
 3627              	.LBB1220:
 3628              	.LBI1211:
 425:/Library/DaisyToolchain/0.2.0/arm/arm-none-eabi/include/c++/10.3.1/cmath ****   { return __builtin_sinf(__x); }
 3629              		.loc 16 425 3 is_stmt 1 view .LVU801
 3630              	.LBB1213:
 3631              		.loc 16 426 5 view .LVU802
 3632              		.loc 16 426 5 is_stmt 0 view .LVU803
 3633              	.LBE1213:
 3634              	.LBE1220:
 3635              	.LBB1221:
 3636              	.LBI1214:
 184:/Library/DaisyToolchain/0.2.0/arm/arm-none-eabi/include/c++/10.3.1/cmath ****   { return __builtin_cosf(__x); }
 3637              		.loc 16 184 3 is_stmt 1 view .LVU804
 3638              	.LBB1216:
 185:/Library/DaisyToolchain/0.2.0/arm/arm-none-eabi/include/c++/10.3.1/cmath **** 
ARM GAS  /var/folders/fb/yfxt3z4538j6z0vjt03w70vc0000gn/T//ccrD3Rdr.s 			page 113


 3639              		.loc 16 185 5 view .LVU805
 185:/Library/DaisyToolchain/0.2.0/arm/arm-none-eabi/include/c++/10.3.1/cmath **** 
 3640              		.loc 16 185 5 is_stmt 0 view .LVU806
 3641              	.LBE1216:
 3642              	.LBE1221:
 317:../../../lib/pd2dsy/libdaisy/src/hid/disp/display.h ****         end_y   = -sin(end_angle_rad) * radius;
 3643              		.loc 4 317 17 view .LVU807
 3644 0090 29EE899A 		vmul.f32	s18, s19, s18
 3645              	.LVL250:
 3646              	.LBB1222:
 3647              	.LBI1217:
 425:/Library/DaisyToolchain/0.2.0/arm/arm-none-eabi/include/c++/10.3.1/cmath ****   { return __builtin_sinf(__x); }
 3648              		.loc 16 425 3 is_stmt 1 view .LVU808
 3649              	.LBB1219:
 3650              		.loc 16 426 5 view .LVU809
 3651              		.loc 16 426 5 is_stmt 0 view .LVU810
 3652              	.LBE1219:
 3653              	.LBE1222:
 322:../../../lib/pd2dsy/libdaisy/src/hid/disp/display.h ****            < 2.0f)
 3654              		.loc 4 322 25 view .LVU811
 3655 0094 70EE687A 		vsub.f32	s15, s0, s17
 321:../../../lib/pd2dsy/libdaisy/src/hid/disp/display.h ****                + (end_y - start_y) * (end_y - start_y)
 3656              		.loc 4 321 9 view .LVU812
 3657 0098 F0EE006A 		vmov.f32	s13, #2.0e+0
 321:../../../lib/pd2dsy/libdaisy/src/hid/disp/display.h ****                + (end_y - start_y) * (end_y - start_y)
 3658              		.loc 4 321 19 view .LVU813
 3659 009c 39EE487A 		vsub.f32	s14, s18, s16
 322:../../../lib/pd2dsy/libdaisy/src/hid/disp/display.h ****            < 2.0f)
 3660              		.loc 4 322 36 view .LVU814
 3661 00a0 67EEA77A 		vmul.f32	s15, s15, s15
 322:../../../lib/pd2dsy/libdaisy/src/hid/disp/display.h ****            < 2.0f)
 3662              		.loc 4 322 16 view .LVU815
 3663 00a4 E7EE077A 		vfma.f32	s15, s14, s14
 321:../../../lib/pd2dsy/libdaisy/src/hid/disp/display.h ****                + (end_y - start_y) * (end_y - start_y)
 3664              		.loc 4 321 9 view .LVU816
 3665 00a8 F4EEE67A 		vcmpe.f32	s15, s13
 3666 00ac F1EE10FA 		vmrs	APSR_nzcv, FPSCR
 3667 00b0 06D5     		bpl	.L282
 325:../../../lib/pd2dsy/libdaisy/src/hid/disp/display.h ****                 circle = true;
 3668              		.loc 4 325 13 view .LVU817
 3669 00b2 139B     		ldr	r3, [sp, #76]
 3670 00b4 B42B     		cmp	r3, #180
 3671 00b6 40F39680 		ble	.L223
 326:../../../lib/pd2dsy/libdaisy/src/hid/disp/display.h ****             else
 3672              		.loc 4 326 24 view .LVU818
 3673 00ba 4FF00109 		mov	r9, #1
 3674 00be 01E0     		b	.L226
 3675              	.L282:
 304:../../../lib/pd2dsy/libdaisy/src/hid/disp/display.h **** 
 3676              		.loc 4 304 14 view .LVU819
 3677 00c0 4FF00009 		mov	r9, #0
 3678              	.L226:
 3679              	.LVL251:
 302:../../../lib/pd2dsy/libdaisy/src/hid/disp/display.h **** 
 3680              		.loc 4 302 27 view .LVU820
 3681 00c4 0124     		movs	r4, #1
 332:../../../lib/pd2dsy/libdaisy/src/hid/disp/display.h ****         t_y = 0;
ARM GAS  /var/folders/fb/yfxt3z4538j6z0vjt03w70vc0000gn/T//ccrD3Rdr.s 			page 114


 3682              		.loc 4 332 13 view .LVU821
 3683 00c6 7842     		rsbs	r0, r7, #0
 3684              	.LVL252:
 333:../../../lib/pd2dsy/libdaisy/src/hid/disp/display.h ****         err = 2 - 2 * radius;
 3685              		.loc 4 333 13 view .LVU822
 3686 00c8 4FF0000C 		mov	ip, #0
 3687 00cc 0095     		str	r5, [sp]
 334:../../../lib/pd2dsy/libdaisy/src/hid/disp/display.h **** 
 3688              		.loc 4 334 17 view .LVU823
 3689 00ce E31B     		subs	r3, r4, r7
 302:../../../lib/pd2dsy/libdaisy/src/hid/disp/display.h **** 
 3690              		.loc 4 302 17 view .LVU824
 3691 00d0 2146     		mov	r1, r4
 302:../../../lib/pd2dsy/libdaisy/src/hid/disp/display.h **** 
 3692              		.loc 4 302 22 view .LVU825
 3693 00d2 2746     		mov	r7, r4
 3694              	.LVL253:
 302:../../../lib/pd2dsy/libdaisy/src/hid/disp/display.h **** 
 3695              		.loc 4 302 12 view .LVU826
 3696 00d4 2246     		mov	r2, r4
 334:../../../lib/pd2dsy/libdaisy/src/hid/disp/display.h **** 
 3697              		.loc 4 334 17 view .LVU827
 3698 00d6 A340     		lsls	r3, r3, r4
 3699              	.LVL254:
 3700              	.L252:
 338:../../../lib/pd2dsy/libdaisy/src/hid/disp/display.h ****             {
 3701              		.loc 4 338 13 view .LVU828
 3702 00d8 B9F1000F 		cmp	r9, #0
 3703 00dc 6AD1     		bne	.L228
 343:../../../lib/pd2dsy/libdaisy/src/hid/disp/display.h ****                 t_exy  = end_x * t_y;
 3704              		.loc 4 343 34 view .LVU829
 3705 00de 4242     		rsbs	r2, r0, #0
 3706              	.LVL255:
 340:../../../lib/pd2dsy/libdaisy/src/hid/disp/display.h ****                 t_syx  = start_y * t_x;
 3707              		.loc 4 340 24 view .LVU830
 3708 00e0 06EE90CA 		vmov	s13, ip	@ int
 342:../../../lib/pd2dsy/libdaisy/src/hid/disp/display.h ****                 t_synx = start_y * -t_x;
 3709              		.loc 4 342 34 view .LVU831
 3710 00e4 CCF10001 		rsb	r1, ip, #0
 3711              	.LVL256:
 343:../../../lib/pd2dsy/libdaisy/src/hid/disp/display.h ****                 t_exy  = end_x * t_y;
 3712              		.loc 4 343 34 view .LVU832
 3713 00e8 07EE102A 		vmov	s14, r2	@ int
 340:../../../lib/pd2dsy/libdaisy/src/hid/disp/display.h ****                 t_syx  = start_y * t_x;
 3714              		.loc 4 340 24 view .LVU833
 3715 00ec B8EEE66A 		vcvt.f32.s32	s12, s13
 342:../../../lib/pd2dsy/libdaisy/src/hid/disp/display.h ****                 t_synx = start_y * -t_x;
 3716              		.loc 4 342 34 view .LVU834
 3717 00f0 07EE901A 		vmov	s15, r1	@ int
 341:../../../lib/pd2dsy/libdaisy/src/hid/disp/display.h ****                 t_sxny = start_x * -t_y;
 3718              		.loc 4 341 24 view .LVU835
 3719 00f4 06EE900A 		vmov	s13, r0	@ int
 343:../../../lib/pd2dsy/libdaisy/src/hid/disp/display.h ****                 t_exy  = end_x * t_y;
 3720              		.loc 4 343 34 view .LVU836
 3721 00f8 B8EEC77A 		vcvt.f32.s32	s14, s14
 349:../../../lib/pd2dsy/libdaisy/src/hid/disp/display.h ****                 {
 3722              		.loc 4 349 17 view .LVU837
ARM GAS  /var/folders/fb/yfxt3z4538j6z0vjt03w70vc0000gn/T//ccrD3Rdr.s 			page 115


 3723 00fc 139A     		ldr	r2, [sp, #76]
 340:../../../lib/pd2dsy/libdaisy/src/hid/disp/display.h ****                 t_syx  = start_y * t_x;
 3724              		.loc 4 340 24 view .LVU838
 3725 00fe 66EE084A 		vmul.f32	s9, s12, s16
 3726              	.LVL257:
 342:../../../lib/pd2dsy/libdaisy/src/hid/disp/display.h ****                 t_synx = start_y * -t_x;
 3727              		.loc 4 342 34 view .LVU839
 3728 0102 F8EEE77A 		vcvt.f32.s32	s15, s15
 349:../../../lib/pd2dsy/libdaisy/src/hid/disp/display.h ****                 {
 3729              		.loc 4 349 17 view .LVU840
 3730 0106 B42A     		cmp	r2, #180
 343:../../../lib/pd2dsy/libdaisy/src/hid/disp/display.h ****                 t_exy  = end_x * t_y;
 3731              		.loc 4 343 24 view .LVU841
 3732 0108 27EE284A 		vmul.f32	s8, s14, s17
 341:../../../lib/pd2dsy/libdaisy/src/hid/disp/display.h ****                 t_sxny = start_x * -t_y;
 3733              		.loc 4 341 24 view .LVU842
 3734 010c F8EEE66A 		vcvt.f32.s32	s13, s13
 342:../../../lib/pd2dsy/libdaisy/src/hid/disp/display.h ****                 t_synx = start_y * -t_x;
 3735              		.loc 4 342 24 view .LVU843
 3736 0110 67EE885A 		vmul.f32	s11, s15, s16
 351:../../../lib/pd2dsy/libdaisy/src/hid/disp/display.h ****                     d2 = (t_sxy - t_syx < 0 || t_exy - t_eyx > 0);
 3737              		.loc 4 351 33 view .LVU844
 3738 0114 74EEC43A 		vsub.f32	s7, s9, s8
 341:../../../lib/pd2dsy/libdaisy/src/hid/disp/display.h ****                 t_sxny = start_x * -t_y;
 3739              		.loc 4 341 24 view .LVU845
 3740 0118 26EEA85A 		vmul.f32	s10, s13, s17
 3741              	.LVL258:
 344:../../../lib/pd2dsy/libdaisy/src/hid/disp/display.h ****                 t_eyx  = end_y * t_x;
 3742              		.loc 4 344 24 view .LVU846
 3743 011c 26EE096A 		vmul.f32	s12, s12, s18
 3744              	.LVL259:
 345:../../../lib/pd2dsy/libdaisy/src/hid/disp/display.h ****                 t_exny = end_x * -t_y;
 3745              		.loc 4 345 24 view .LVU847
 3746 0120 66EE806A 		vmul.f32	s13, s13, s0
 3747              	.LVL260:
 346:../../../lib/pd2dsy/libdaisy/src/hid/disp/display.h ****                 t_eynx = end_y * -t_x;
 3748              		.loc 4 346 24 view .LVU848
 3749 0124 67EE897A 		vmul.f32	s15, s15, s18
 3750              	.LVL261:
 347:../../../lib/pd2dsy/libdaisy/src/hid/disp/display.h **** 
 3751              		.loc 4 347 24 view .LVU849
 3752 0128 27EE007A 		vmul.f32	s14, s14, s0
 3753              	.LVL262:
 351:../../../lib/pd2dsy/libdaisy/src/hid/disp/display.h ****                     d2 = (t_sxy - t_syx < 0 || t_exy - t_eyx > 0);
 3754              		.loc 4 351 46 view .LVU850
 3755 012c F5EEC03A 		vcmpe.f32	s7, #0
 349:../../../lib/pd2dsy/libdaisy/src/hid/disp/display.h ****                 {
 3756              		.loc 4 349 17 view .LVU851
 3757 0130 40F3F280 		ble	.L229
 351:../../../lib/pd2dsy/libdaisy/src/hid/disp/display.h ****                     d2 = (t_sxy - t_syx < 0 || t_exy - t_eyx > 0);
 3758              		.loc 4 351 46 view .LVU852
 3759 0134 F1EE10FA 		vmrs	APSR_nzcv, FPSCR
 3760 0138 00F17F81 		bmi	.L255
 351:../../../lib/pd2dsy/libdaisy/src/hid/disp/display.h ****                     d2 = (t_sxy - t_syx < 0 || t_exy - t_eyx > 0);
 3761              		.loc 4 351 55 discriminator 2 view .LVU853
 3762 013c 76EE473A 		vsub.f32	s7, s12, s14
 352:../../../lib/pd2dsy/libdaisy/src/hid/disp/display.h ****                     d3 = (t_sxny - t_syx < 0 || t_exny - t_eyx > 0);
ARM GAS  /var/folders/fb/yfxt3z4538j6z0vjt03w70vc0000gn/T//ccrD3Rdr.s 			page 116


 3763              		.loc 4 352 33 discriminator 2 view .LVU854
 3764 0140 74EEC54A 		vsub.f32	s9, s9, s10
 3765              	.LVL263:
 351:../../../lib/pd2dsy/libdaisy/src/hid/disp/display.h ****                     d2 = (t_sxy - t_syx < 0 || t_exy - t_eyx > 0);
 3766              		.loc 4 351 46 discriminator 2 view .LVU855
 3767 0144 F5EEC03A 		vcmpe.f32	s7, #0
 3768 0148 F1EE10FA 		vmrs	APSR_nzcv, FPSCR
 352:../../../lib/pd2dsy/libdaisy/src/hid/disp/display.h ****                     d3 = (t_sxny - t_syx < 0 || t_exny - t_eyx > 0);
 3769              		.loc 4 352 45 discriminator 2 view .LVU856
 3770 014c F5EEC04A 		vcmpe.f32	s9, #0
 351:../../../lib/pd2dsy/libdaisy/src/hid/disp/display.h ****                     d2 = (t_sxy - t_syx < 0 || t_exy - t_eyx > 0);
 3771              		.loc 4 351 46 discriminator 2 view .LVU857
 3772 0150 CCBF     		ite	gt
 3773 0152 0122     		movgt	r2, #1
 3774 0154 0022     		movle	r2, #0
 3775              	.LVL264:
 352:../../../lib/pd2dsy/libdaisy/src/hid/disp/display.h ****                     d3 = (t_sxny - t_syx < 0 || t_exny - t_eyx > 0);
 3776              		.loc 4 352 45 discriminator 2 view .LVU858
 3777 0156 F1EE10FA 		vmrs	APSR_nzcv, FPSCR
 3778 015a 00F17781 		bmi	.L256
 3779              	.L298:
 352:../../../lib/pd2dsy/libdaisy/src/hid/disp/display.h ****                     d3 = (t_sxny - t_syx < 0 || t_exny - t_eyx > 0);
 3780              		.loc 4 352 54 discriminator 2 view .LVU859
 3781 015e 36EE666A 		vsub.f32	s12, s12, s13
 3782              	.LVL265:
 353:../../../lib/pd2dsy/libdaisy/src/hid/disp/display.h ****                     d4 = (t_sxny - t_synx < 0 || t_exny - t_eynx > 0);
 3783              		.loc 4 353 34 discriminator 2 view .LVU860
 3784 0162 35EEC55A 		vsub.f32	s10, s11, s10
 3785              	.LVL266:
 352:../../../lib/pd2dsy/libdaisy/src/hid/disp/display.h ****                     d3 = (t_sxny - t_syx < 0 || t_exny - t_eyx > 0);
 3786              		.loc 4 352 45 discriminator 2 view .LVU861
 3787 0166 B5EEC06A 		vcmpe.f32	s12, #0
 3788 016a F1EE10FA 		vmrs	APSR_nzcv, FPSCR
 353:../../../lib/pd2dsy/libdaisy/src/hid/disp/display.h ****                     d4 = (t_sxny - t_synx < 0 || t_exny - t_eynx > 0);
 3789              		.loc 4 353 46 discriminator 2 view .LVU862
 3790 016e B5EEC05A 		vcmpe.f32	s10, #0
 352:../../../lib/pd2dsy/libdaisy/src/hid/disp/display.h ****                     d3 = (t_sxny - t_syx < 0 || t_exny - t_eyx > 0);
 3791              		.loc 4 352 45 discriminator 2 view .LVU863
 3792 0172 CCBF     		ite	gt
 3793 0174 0121     		movgt	r1, #1
 3794 0176 0021     		movle	r1, #0
 3795              	.LVL267:
 353:../../../lib/pd2dsy/libdaisy/src/hid/disp/display.h ****                     d4 = (t_sxny - t_synx < 0 || t_exny - t_eynx > 0);
 3796              		.loc 4 353 46 discriminator 2 view .LVU864
 3797 0178 F1EE10FA 		vmrs	APSR_nzcv, FPSCR
 3798 017c 00F16F81 		bmi	.L257
 3799              	.L299:
 353:../../../lib/pd2dsy/libdaisy/src/hid/disp/display.h ****                     d4 = (t_sxny - t_synx < 0 || t_exny - t_eynx > 0);
 3800              		.loc 4 353 56 discriminator 2 view .LVU865
 3801 0180 77EEE66A 		vsub.f32	s13, s15, s13
 3802              	.LVL268:
 353:../../../lib/pd2dsy/libdaisy/src/hid/disp/display.h ****                     d4 = (t_sxny - t_synx < 0 || t_exny - t_eynx > 0);
 3803              		.loc 4 353 46 discriminator 2 view .LVU866
 3804 0184 F5EEC06A 		vcmpe.f32	s13, #0
 3805 0188 F1EE10FA 		vmrs	APSR_nzcv, FPSCR
 3806 018c CCBF     		ite	gt
 3807 018e 0127     		movgt	r7, #1
ARM GAS  /var/folders/fb/yfxt3z4538j6z0vjt03w70vc0000gn/T//ccrD3Rdr.s 			page 117


 3808              	.LVL269:
 353:../../../lib/pd2dsy/libdaisy/src/hid/disp/display.h ****                     d4 = (t_sxny - t_synx < 0 || t_exny - t_eynx > 0);
 3809              		.loc 4 353 46 discriminator 2 view .LVU867
 3810 0190 0027     		movle	r7, #0
 3811              	.L232:
 3812              	.LVL270:
 354:../../../lib/pd2dsy/libdaisy/src/hid/disp/display.h ****                 }
 3813              		.loc 4 354 34 discriminator 6 view .LVU868
 3814 0192 75EEC45A 		vsub.f32	s11, s11, s8
 3815              	.LVL271:
 354:../../../lib/pd2dsy/libdaisy/src/hid/disp/display.h ****                 }
 3816              		.loc 4 354 47 discriminator 6 view .LVU869
 3817 0196 F5EEC05A 		vcmpe.f32	s11, #0
 3818 019a F1EE10FA 		vmrs	APSR_nzcv, FPSCR
 3819 019e 00F14781 		bmi	.L258
 3820              	.L288:
 361:../../../lib/pd2dsy/libdaisy/src/hid/disp/display.h ****                 }
 3821              		.loc 4 361 57 discriminator 1 view .LVU870
 3822 01a2 77EEC77A 		vsub.f32	s15, s15, s14
 3823              	.LVL272:
 361:../../../lib/pd2dsy/libdaisy/src/hid/disp/display.h ****                 }
 3824              		.loc 4 361 47 discriminator 1 view .LVU871
 3825 01a6 F5EEC07A 		vcmpe.f32	s15, #0
 3826 01aa F1EE10FA 		vmrs	APSR_nzcv, FPSCR
 3827 01ae CCBF     		ite	gt
 3828 01b0 0124     		movgt	r4, #1
 3829              	.LVL273:
 361:../../../lib/pd2dsy/libdaisy/src/hid/disp/display.h ****                 }
 3830              		.loc 4 361 47 discriminator 1 view .LVU872
 3831 01b2 0024     		movle	r4, #0
 3832              	.LVL274:
 3833              	.L228:
 365:../../../lib/pd2dsy/libdaisy/src/hid/disp/display.h ****                 ((ChildType*)(this))
 3834              		.loc 4 365 13 view .LVU873
 3835 01b4 002A     		cmp	r2, #0
 3836 01b6 40F08A80 		bne	.L289
 3837              	.L240:
 368:../../../lib/pd2dsy/libdaisy/src/hid/disp/display.h ****                 ((ChildType*)(this))
 3838              		.loc 4 368 13 view .LVU874
 3839 01ba 0029     		cmp	r1, #0
 3840 01bc 64D1     		bne	.L290
 3841              	.L242:
 371:../../../lib/pd2dsy/libdaisy/src/hid/disp/display.h ****                 ((ChildType*)(this))
 3842              		.loc 4 371 13 view .LVU875
 3843 01be BFB9     		cbnz	r7, .L291
 3844              	.L244:
 374:../../../lib/pd2dsy/libdaisy/src/hid/disp/display.h ****                 ((ChildType*)(this))
 3845              		.loc 4 374 13 view .LVU876
 3846 01c0 C4BB     		cbnz	r4, .L292
 3847              	.L246:
 3848              	.LVL275:
 379:../../../lib/pd2dsy/libdaisy/src/hid/disp/display.h ****             {
 3849              		.loc 4 379 13 view .LVU877
 3850 01c2 9C45     		cmp	ip, r3
 3851 01c4 58DB     		blt	.L263
 3852              	.L294:
 381:../../../lib/pd2dsy/libdaisy/src/hid/disp/display.h ****                 err = err + (t_y * 2 + 1);
ARM GAS  /var/folders/fb/yfxt3z4538j6z0vjt03w70vc0000gn/T//ccrD3Rdr.s 			page 118


 3853              		.loc 4 381 17 view .LVU878
 3854 01c6 0CF1010C 		add	ip, ip, #1
 3855              	.LVL276:
 382:../../../lib/pd2dsy/libdaisy/src/hid/disp/display.h ****                 if(-t_x == t_y && e2 <= t_x)
 3856              		.loc 4 382 38 view .LVU879
 3857 01ca 03EB4C0E 		add	lr, r3, ip, lsl #1
 383:../../../lib/pd2dsy/libdaisy/src/hid/disp/display.h ****                 {
 3858              		.loc 4 383 17 view .LVU880
 3859 01ce 1CEB000F 		cmn	ip, r0
 382:../../../lib/pd2dsy/libdaisy/src/hid/disp/display.h ****                 if(-t_x == t_y && e2 <= t_x)
 3860              		.loc 4 382 21 view .LVU881
 3861 01d2 0EF1010E 		add	lr, lr, #1
 3862              	.LVL277:
 383:../../../lib/pd2dsy/libdaisy/src/hid/disp/display.h ****                 {
 3863              		.loc 4 383 17 view .LVU882
 3864 01d6 00F0C080 		beq	.L293
 3865              	.LVL278:
 3866              	.L248:
 388:../../../lib/pd2dsy/libdaisy/src/hid/disp/display.h ****             {
 3867              		.loc 4 388 13 view .LVU883
 3868 01da 9842     		cmp	r0, r3
 3869 01dc 4FDB     		blt	.L249
 3870              	.L264:
 388:../../../lib/pd2dsy/libdaisy/src/hid/disp/display.h ****             {
 3871              		.loc 4 388 13 view .LVU884
 3872 01de 7346     		mov	r3, lr
 3873              	.LVL279:
 3874              	.L250:
 393:../../../lib/pd2dsy/libdaisy/src/hid/disp/display.h ****     }
 3875              		.loc 4 393 21 is_stmt 1 view .LVU885
 3876 01e0 0028     		cmp	r0, #0
 3877 01e2 7FF779AF 		ble	.L252
 3878              	.LVL280:
 3879              	.L223:
 394:../../../lib/pd2dsy/libdaisy/src/hid/disp/display.h **** 
 3880              		.loc 4 394 5 is_stmt 0 view .LVU886
 3881 01e6 03B0     		add	sp, sp, #12
 3882              		.cfi_remember_state
 3883              		.cfi_def_cfa_offset 60
 3884              		@ sp needed
 3885 01e8 BDEC068B 		vldm	sp!, {d8-d10}
 3886              		.cfi_restore 84
 3887              		.cfi_restore 85
 3888              		.cfi_restore 82
 3889              		.cfi_restore 83
 3890              		.cfi_restore 80
 3891              		.cfi_restore 81
 3892              		.cfi_def_cfa_offset 36
 3893              	.LVL281:
 394:../../../lib/pd2dsy/libdaisy/src/hid/disp/display.h **** 
 3894              		.loc 4 394 5 view .LVU887
 3895 01ec BDE8F08F 		pop	{r4, r5, r6, r7, r8, r9, r10, fp, pc}
 3896              	.LVL282:
 3897              	.L291:
 3898              		.cfi_restore_state
 373:../../../lib/pd2dsy/libdaisy/src/hid/disp/display.h ****             if(d4)
 3899              		.loc 4 373 43 view .LVU888
ARM GAS  /var/folders/fb/yfxt3z4538j6z0vjt03w70vc0000gn/T//ccrD3Rdr.s 			page 119


 3900 01f0 009D     		ldr	r5, [sp]
 3901 01f2 A6EB0C0E 		sub	lr, r6, ip
 3902 01f6 00EB050A 		add	r10, r0, r5
 3903              	.LVL283:
 3904              	.LBB1223:
 3905              	.LBI1223:
  42:../../../lib/pd2dsy/libdaisy/src/hid/disp/oled_display.h ****     {
 3906              		.loc 2 42 10 is_stmt 1 view .LVU889
 3907              	.LBB1224:
 3908              	.LBI1224:
 252:../../../lib/pd2dsy/libdaisy/src/dev/oled_ssd130x.h ****     {
 3909              		.loc 3 252 10 view .LVU890
 3910              	.LBB1225:
 254:../../../lib/pd2dsy/libdaisy/src/dev/oled_ssd130x.h ****             return;
 3911              		.loc 3 254 9 is_stmt 0 view .LVU891
 3912 01fa BAF17F0F 		cmp	r10, #127
 3913 01fe DFD8     		bhi	.L244
 3914 0200 BEF13F0F 		cmp	lr, #63
 3915 0204 DCD8     		bhi	.L244
 257:../../../lib/pd2dsy/libdaisy/src/dev/oled_ssd130x.h ****         else
 3916              		.loc 3 257 28 view .LVU892
 3917 0206 4FEADE0B 		lsr	fp, lr, #3
 256:../../../lib/pd2dsy/libdaisy/src/dev/oled_ssd130x.h ****             buffer_[x + (y / 8) * width] |= (1 << (y % 8));
 3918              		.loc 3 256 9 view .LVU893
 3919 020a 019D     		ldr	r5, [sp, #4]
 257:../../../lib/pd2dsy/libdaisy/src/dev/oled_ssd130x.h ****         else
 3920              		.loc 3 257 42 view .LVU894
 3921 020c 0AEBCB1A 		add	r10, r10, fp, lsl #7
 3922              	.LVL284:
 256:../../../lib/pd2dsy/libdaisy/src/dev/oled_ssd130x.h ****             buffer_[x + (y / 8) * width] |= (1 << (y % 8));
 3923              		.loc 3 256 9 view .LVU895
 3924 0210 002D     		cmp	r5, #0
 3925 0212 00F0B180 		beq	.L245
 257:../../../lib/pd2dsy/libdaisy/src/dev/oled_ssd130x.h ****         else
 3926              		.loc 3 257 54 view .LVU896
 3927 0216 0EF0070B 		and	fp, lr, #7
 257:../../../lib/pd2dsy/libdaisy/src/dev/oled_ssd130x.h ****         else
 3928              		.loc 3 257 42 view .LVU897
 3929 021a C244     		add	r10, r10, r8
 257:../../../lib/pd2dsy/libdaisy/src/dev/oled_ssd130x.h ****         else
 3930              		.loc 3 257 48 view .LVU898
 3931 021c 4FF0010E 		mov	lr, #1
 3932              	.LVL285:
 257:../../../lib/pd2dsy/libdaisy/src/dev/oled_ssd130x.h ****         else
 3933              		.loc 3 257 48 view .LVU899
 3934 0220 0EFA0BFE 		lsl	lr, lr, fp
 257:../../../lib/pd2dsy/libdaisy/src/dev/oled_ssd130x.h ****         else
 3935              		.loc 3 257 42 view .LVU900
 3936 0224 9AF814B0 		ldrb	fp, [r10, #20]	@ zero_extendqisi2
 3937 0228 4EEA0B0E 		orr	lr, lr, fp
 3938 022c 8AF814E0 		strb	lr, [r10, #20]
 3939              	.LVL286:
 257:../../../lib/pd2dsy/libdaisy/src/dev/oled_ssd130x.h ****         else
 3940              		.loc 3 257 42 view .LVU901
 3941              	.LBE1225:
 3942              	.LBE1224:
 3943              	.LBE1223:
ARM GAS  /var/folders/fb/yfxt3z4538j6z0vjt03w70vc0000gn/T//ccrD3Rdr.s 			page 120


 374:../../../lib/pd2dsy/libdaisy/src/hid/disp/display.h ****                 ((ChildType*)(this))
 3944              		.loc 4 374 13 view .LVU902
 3945 0230 002C     		cmp	r4, #0
 3946 0232 C6D0     		beq	.L246
 3947              	.L292:
 376:../../../lib/pd2dsy/libdaisy/src/hid/disp/display.h **** 
 3948              		.loc 4 376 43 view .LVU903
 3949 0234 009D     		ldr	r5, [sp]
 3950 0236 A6EB0C0E 		sub	lr, r6, ip
 3951 023a A5EB000A 		sub	r10, r5, r0
 3952              	.LVL287:
 3953              	.LBB1230:
 3954              	.LBI1230:
  42:../../../lib/pd2dsy/libdaisy/src/hid/disp/oled_display.h ****     {
 3955              		.loc 2 42 10 is_stmt 1 view .LVU904
 3956              	.LBB1231:
 3957              	.LBI1231:
 252:../../../lib/pd2dsy/libdaisy/src/dev/oled_ssd130x.h ****     {
 3958              		.loc 3 252 10 view .LVU905
 3959              	.LBB1232:
 254:../../../lib/pd2dsy/libdaisy/src/dev/oled_ssd130x.h ****             return;
 3960              		.loc 3 254 9 is_stmt 0 view .LVU906
 3961 023e BAF17F0F 		cmp	r10, #127
 3962 0242 BED8     		bhi	.L246
 3963 0244 BEF13F0F 		cmp	lr, #63
 3964 0248 BBD8     		bhi	.L246
 257:../../../lib/pd2dsy/libdaisy/src/dev/oled_ssd130x.h ****         else
 3965              		.loc 3 257 28 view .LVU907
 3966 024a 4FEADE0B 		lsr	fp, lr, #3
 256:../../../lib/pd2dsy/libdaisy/src/dev/oled_ssd130x.h ****             buffer_[x + (y / 8) * width] |= (1 << (y % 8));
 3967              		.loc 3 256 9 view .LVU908
 3968 024e 019D     		ldr	r5, [sp, #4]
 257:../../../lib/pd2dsy/libdaisy/src/dev/oled_ssd130x.h ****         else
 3969              		.loc 3 257 42 view .LVU909
 3970 0250 0AEBCB1A 		add	r10, r10, fp, lsl #7
 3971              	.LVL288:
 256:../../../lib/pd2dsy/libdaisy/src/dev/oled_ssd130x.h ****             buffer_[x + (y / 8) * width] |= (1 << (y % 8));
 3972              		.loc 3 256 9 view .LVU910
 3973 0254 002D     		cmp	r5, #0
 3974 0256 00F0AE80 		beq	.L247
 257:../../../lib/pd2dsy/libdaisy/src/dev/oled_ssd130x.h ****         else
 3975              		.loc 3 257 54 view .LVU911
 3976 025a 0EF0070B 		and	fp, lr, #7
 257:../../../lib/pd2dsy/libdaisy/src/dev/oled_ssd130x.h ****         else
 3977              		.loc 3 257 42 view .LVU912
 3978 025e C244     		add	r10, r10, r8
 257:../../../lib/pd2dsy/libdaisy/src/dev/oled_ssd130x.h ****         else
 3979              		.loc 3 257 48 view .LVU913
 3980 0260 4FF0010E 		mov	lr, #1
 3981              	.LVL289:
 257:../../../lib/pd2dsy/libdaisy/src/dev/oled_ssd130x.h ****         else
 3982              		.loc 3 257 48 view .LVU914
 3983              	.LBE1232:
 3984              	.LBE1231:
 3985              	.LBE1230:
 379:../../../lib/pd2dsy/libdaisy/src/hid/disp/display.h ****             {
 3986              		.loc 4 379 13 view .LVU915
ARM GAS  /var/folders/fb/yfxt3z4538j6z0vjt03w70vc0000gn/T//ccrD3Rdr.s 			page 121


 3987 0264 9C45     		cmp	ip, r3
 3988              	.LBB1239:
 3989              	.LBB1237:
 3990              	.LBB1235:
 257:../../../lib/pd2dsy/libdaisy/src/dev/oled_ssd130x.h ****         else
 3991              		.loc 3 257 48 view .LVU916
 3992 0266 0EFA0BFE 		lsl	lr, lr, fp
 257:../../../lib/pd2dsy/libdaisy/src/dev/oled_ssd130x.h ****         else
 3993              		.loc 3 257 42 view .LVU917
 3994 026a 9AF814B0 		ldrb	fp, [r10, #20]	@ zero_extendqisi2
 3995 026e 4EEA0B0E 		orr	lr, lr, fp
 3996 0272 8AF814E0 		strb	lr, [r10, #20]
 3997              	.LVL290:
 257:../../../lib/pd2dsy/libdaisy/src/dev/oled_ssd130x.h ****         else
 3998              		.loc 3 257 42 view .LVU918
 3999              	.LBE1235:
 4000              	.LBE1237:
 4001              	.LBE1239:
 379:../../../lib/pd2dsy/libdaisy/src/hid/disp/display.h ****             {
 4002              		.loc 4 379 13 view .LVU919
 4003 0276 A6DA     		bge	.L294
 4004              	.L263:
 388:../../../lib/pd2dsy/libdaisy/src/hid/disp/display.h ****             {
 4005              		.loc 4 388 13 view .LVU920
 4006 0278 9842     		cmp	r0, r3
 4007 027a 9E46     		mov	lr, r3
 4008              	.LVL291:
 388:../../../lib/pd2dsy/libdaisy/src/hid/disp/display.h ****             {
 4009              		.loc 4 388 13 view .LVU921
 4010 027c AFDA     		bge	.L264
 4011              	.LVL292:
 4012              	.L249:
 390:../../../lib/pd2dsy/libdaisy/src/hid/disp/display.h ****                 err = err + (t_x * 2 + 1);
 4013              		.loc 4 390 17 view .LVU922
 4014 027e 0130     		adds	r0, r0, #1
 4015              	.LVL293:
 391:../../../lib/pd2dsy/libdaisy/src/hid/disp/display.h ****             }
 4016              		.loc 4 391 38 view .LVU923
 4017 0280 0EEB4003 		add	r3, lr, r0, lsl #1
 391:../../../lib/pd2dsy/libdaisy/src/hid/disp/display.h ****             }
 4018              		.loc 4 391 21 view .LVU924
 4019 0284 0133     		adds	r3, r3, #1
 4020              	.LVL294:
 391:../../../lib/pd2dsy/libdaisy/src/hid/disp/display.h ****             }
 4021              		.loc 4 391 21 view .LVU925
 4022 0286 ABE7     		b	.L250
 4023              	.L290:
 370:../../../lib/pd2dsy/libdaisy/src/hid/disp/display.h ****             if(d3)
 4024              		.loc 4 370 43 view .LVU926
 4025 0288 009D     		ldr	r5, [sp]
 4026 028a 0CEB060E 		add	lr, ip, r6
 4027 028e 00EB050A 		add	r10, r0, r5
 4028              	.LVL295:
 4029              	.LBB1240:
 4030              	.LBI1240:
  42:../../../lib/pd2dsy/libdaisy/src/hid/disp/oled_display.h ****     {
 4031              		.loc 2 42 10 is_stmt 1 view .LVU927
ARM GAS  /var/folders/fb/yfxt3z4538j6z0vjt03w70vc0000gn/T//ccrD3Rdr.s 			page 122


 4032              	.LBB1241:
 4033              	.LBI1241:
 252:../../../lib/pd2dsy/libdaisy/src/dev/oled_ssd130x.h ****     {
 4034              		.loc 3 252 10 view .LVU928
 4035              	.LBB1242:
 254:../../../lib/pd2dsy/libdaisy/src/dev/oled_ssd130x.h ****             return;
 4036              		.loc 3 254 9 is_stmt 0 view .LVU929
 4037 0292 BAF17F0F 		cmp	r10, #127
 4038 0296 92D8     		bhi	.L242
 4039 0298 BEF13F0F 		cmp	lr, #63
 4040 029c 8FD8     		bhi	.L242
 257:../../../lib/pd2dsy/libdaisy/src/dev/oled_ssd130x.h ****         else
 4041              		.loc 3 257 28 view .LVU930
 4042 029e 4FEADE0B 		lsr	fp, lr, #3
 256:../../../lib/pd2dsy/libdaisy/src/dev/oled_ssd130x.h ****             buffer_[x + (y / 8) * width] |= (1 << (y % 8));
 4043              		.loc 3 256 9 view .LVU931
 4044 02a2 019D     		ldr	r5, [sp, #4]
 257:../../../lib/pd2dsy/libdaisy/src/dev/oled_ssd130x.h ****         else
 4045              		.loc 3 257 42 view .LVU932
 4046 02a4 0AEBCB1A 		add	r10, r10, fp, lsl #7
 4047              	.LVL296:
 256:../../../lib/pd2dsy/libdaisy/src/dev/oled_ssd130x.h ****             buffer_[x + (y / 8) * width] |= (1 << (y % 8));
 4048              		.loc 3 256 9 view .LVU933
 4049 02a8 002D     		cmp	r5, #0
 4050 02aa 73D0     		beq	.L243
 257:../../../lib/pd2dsy/libdaisy/src/dev/oled_ssd130x.h ****         else
 4051              		.loc 3 257 54 view .LVU934
 4052 02ac 0EF0070B 		and	fp, lr, #7
 257:../../../lib/pd2dsy/libdaisy/src/dev/oled_ssd130x.h ****         else
 4053              		.loc 3 257 42 view .LVU935
 4054 02b0 C244     		add	r10, r10, r8
 257:../../../lib/pd2dsy/libdaisy/src/dev/oled_ssd130x.h ****         else
 4055              		.loc 3 257 48 view .LVU936
 4056 02b2 4FF0010E 		mov	lr, #1
 4057              	.LVL297:
 257:../../../lib/pd2dsy/libdaisy/src/dev/oled_ssd130x.h ****         else
 4058              		.loc 3 257 48 view .LVU937
 4059 02b6 0EFA0BFE 		lsl	lr, lr, fp
 257:../../../lib/pd2dsy/libdaisy/src/dev/oled_ssd130x.h ****         else
 4060              		.loc 3 257 42 view .LVU938
 4061 02ba 9AF814B0 		ldrb	fp, [r10, #20]	@ zero_extendqisi2
 4062 02be 4EEA0B0E 		orr	lr, lr, fp
 4063 02c2 8AF814E0 		strb	lr, [r10, #20]
 4064              	.LVL298:
 257:../../../lib/pd2dsy/libdaisy/src/dev/oled_ssd130x.h ****         else
 4065              		.loc 3 257 42 view .LVU939
 4066              	.LBE1242:
 4067              	.LBE1241:
 4068              	.LBE1240:
 371:../../../lib/pd2dsy/libdaisy/src/hid/disp/display.h ****                 ((ChildType*)(this))
 4069              		.loc 4 371 13 view .LVU940
 4070 02c6 002F     		cmp	r7, #0
 4071 02c8 3FF47AAF 		beq	.L244
 4072 02cc 90E7     		b	.L291
 4073              	.L289:
 367:../../../lib/pd2dsy/libdaisy/src/hid/disp/display.h ****             if(d2)
 4074              		.loc 4 367 43 view .LVU941
ARM GAS  /var/folders/fb/yfxt3z4538j6z0vjt03w70vc0000gn/T//ccrD3Rdr.s 			page 123


 4075 02ce 009D     		ldr	r5, [sp]
 4076 02d0 0CEB060E 		add	lr, ip, r6
 4077 02d4 A5EB000A 		sub	r10, r5, r0
 4078              	.LVL299:
 4079              	.LBB1247:
 4080              	.LBI1247:
  42:../../../lib/pd2dsy/libdaisy/src/hid/disp/oled_display.h ****     {
 4081              		.loc 2 42 10 is_stmt 1 view .LVU942
 4082              	.LBB1248:
 4083              	.LBI1248:
 252:../../../lib/pd2dsy/libdaisy/src/dev/oled_ssd130x.h ****     {
 4084              		.loc 3 252 10 view .LVU943
 4085              	.LBB1249:
 254:../../../lib/pd2dsy/libdaisy/src/dev/oled_ssd130x.h ****             return;
 4086              		.loc 3 254 9 is_stmt 0 view .LVU944
 4087 02d8 BAF17F0F 		cmp	r10, #127
 4088 02dc 3FF66DAF 		bhi	.L240
 4089 02e0 BEF13F0F 		cmp	lr, #63
 4090 02e4 3FF669AF 		bhi	.L240
 257:../../../lib/pd2dsy/libdaisy/src/dev/oled_ssd130x.h ****         else
 4091              		.loc 3 257 28 view .LVU945
 4092 02e8 4FEADE0B 		lsr	fp, lr, #3
 256:../../../lib/pd2dsy/libdaisy/src/dev/oled_ssd130x.h ****             buffer_[x + (y / 8) * width] |= (1 << (y % 8));
 4093              		.loc 3 256 9 view .LVU946
 4094 02ec 019D     		ldr	r5, [sp, #4]
 257:../../../lib/pd2dsy/libdaisy/src/dev/oled_ssd130x.h ****         else
 4095              		.loc 3 257 42 view .LVU947
 4096 02ee 0AEBCB1A 		add	r10, r10, fp, lsl #7
 4097              	.LVL300:
 256:../../../lib/pd2dsy/libdaisy/src/dev/oled_ssd130x.h ****             buffer_[x + (y / 8) * width] |= (1 << (y % 8));
 4098              		.loc 3 256 9 view .LVU948
 4099 02f2 002D     		cmp	r5, #0
 4100 02f4 6DD0     		beq	.L241
 257:../../../lib/pd2dsy/libdaisy/src/dev/oled_ssd130x.h ****         else
 4101              		.loc 3 257 54 view .LVU949
 4102 02f6 0EF0070B 		and	fp, lr, #7
 257:../../../lib/pd2dsy/libdaisy/src/dev/oled_ssd130x.h ****         else
 4103              		.loc 3 257 42 view .LVU950
 4104 02fa C244     		add	r10, r10, r8
 257:../../../lib/pd2dsy/libdaisy/src/dev/oled_ssd130x.h ****         else
 4105              		.loc 3 257 48 view .LVU951
 4106 02fc 4FF0010E 		mov	lr, #1
 4107              	.LVL301:
 257:../../../lib/pd2dsy/libdaisy/src/dev/oled_ssd130x.h ****         else
 4108              		.loc 3 257 48 view .LVU952
 4109 0300 0EFA0BFE 		lsl	lr, lr, fp
 257:../../../lib/pd2dsy/libdaisy/src/dev/oled_ssd130x.h ****         else
 4110              		.loc 3 257 42 view .LVU953
 4111 0304 9AF814B0 		ldrb	fp, [r10, #20]	@ zero_extendqisi2
 4112 0308 4EEA0B0E 		orr	lr, lr, fp
 4113 030c 8AF814E0 		strb	lr, [r10, #20]
 4114              	.LVL302:
 257:../../../lib/pd2dsy/libdaisy/src/dev/oled_ssd130x.h ****         else
 4115              		.loc 3 257 42 view .LVU954
 4116              	.LBE1249:
 4117              	.LBE1248:
 4118              	.LBE1247:
ARM GAS  /var/folders/fb/yfxt3z4538j6z0vjt03w70vc0000gn/T//ccrD3Rdr.s 			page 124


 368:../../../lib/pd2dsy/libdaisy/src/hid/disp/display.h ****                 ((ChildType*)(this))
 4119              		.loc 4 368 13 view .LVU955
 4120 0310 0029     		cmp	r1, #0
 4121 0312 3FF454AF 		beq	.L242
 4122 0316 B7E7     		b	.L290
 4123              	.LVL303:
 4124              	.L229:
 358:../../../lib/pd2dsy/libdaisy/src/hid/disp/display.h ****                     d2 = (t_sxy - t_syx < 0 && t_exy - t_eyx > 0);
 4125              		.loc 4 358 46 view .LVU956
 4126 0318 F1EE10FA 		vmrs	APSR_nzcv, FPSCR
 4127 031c 7ED4     		bmi	.L295
 4128 031e 4A46     		mov	r2, r9
 4129              	.L233:
 4130              	.LVL304:
 359:../../../lib/pd2dsy/libdaisy/src/hid/disp/display.h ****                     d3 = (t_sxny - t_syx < 0 && t_exny - t_eyx > 0);
 4131              		.loc 4 359 33 discriminator 6 view .LVU957
 4132 0320 74EEC54A 		vsub.f32	s9, s9, s10
 4133              	.LVL305:
 359:../../../lib/pd2dsy/libdaisy/src/hid/disp/display.h ****                     d3 = (t_sxny - t_syx < 0 && t_exny - t_eyx > 0);
 4134              		.loc 4 359 45 discriminator 6 view .LVU958
 4135 0324 F5EEC04A 		vcmpe.f32	s9, #0
 4136 0328 F1EE10FA 		vmrs	APSR_nzcv, FPSCR
 4137 032c 6CD4     		bmi	.L296
 359:../../../lib/pd2dsy/libdaisy/src/hid/disp/display.h ****                     d3 = (t_sxny - t_syx < 0 && t_exny - t_eyx > 0);
 4138              		.loc 4 359 45 view .LVU959
 4139 032e 0021     		movs	r1, #0
 4140              	.LVL306:
 4141              	.L235:
 360:../../../lib/pd2dsy/libdaisy/src/hid/disp/display.h ****                     d4 = (t_sxny - t_synx < 0 && t_exny - t_eynx > 0);
 4142              		.loc 4 360 34 discriminator 6 view .LVU960
 4143 0330 35EEC55A 		vsub.f32	s10, s11, s10
 4144              	.LVL307:
 360:../../../lib/pd2dsy/libdaisy/src/hid/disp/display.h ****                     d4 = (t_sxny - t_synx < 0 && t_exny - t_eynx > 0);
 4145              		.loc 4 360 46 discriminator 6 view .LVU961
 4146 0334 B5EEC05A 		vcmpe.f32	s10, #0
 4147 0338 F1EE10FA 		vmrs	APSR_nzcv, FPSCR
 4148 033c 5AD4     		bmi	.L297
 360:../../../lib/pd2dsy/libdaisy/src/hid/disp/display.h ****                     d4 = (t_sxny - t_synx < 0 && t_exny - t_eynx > 0);
 4149              		.loc 4 360 46 view .LVU962
 4150 033e 0027     		movs	r7, #0
 4151              	.LVL308:
 4152              	.L237:
 361:../../../lib/pd2dsy/libdaisy/src/hid/disp/display.h ****                 }
 4153              		.loc 4 361 34 discriminator 6 view .LVU963
 4154 0340 75EEC45A 		vsub.f32	s11, s11, s8
 4155              	.LVL309:
 361:../../../lib/pd2dsy/libdaisy/src/hid/disp/display.h ****                 }
 4156              		.loc 4 361 47 discriminator 6 view .LVU964
 4157 0344 F5EEC05A 		vcmpe.f32	s11, #0
 4158 0348 F1EE10FA 		vmrs	APSR_nzcv, FPSCR
 4159 034c 3FF529AF 		bmi	.L288
 361:../../../lib/pd2dsy/libdaisy/src/hid/disp/display.h ****                 }
 4160              		.loc 4 361 47 view .LVU965
 4161 0350 0024     		movs	r4, #0
 4162              	.LVL310:
 365:../../../lib/pd2dsy/libdaisy/src/hid/disp/display.h ****                 ((ChildType*)(this))
 4163              		.loc 4 365 13 view .LVU966
ARM GAS  /var/folders/fb/yfxt3z4538j6z0vjt03w70vc0000gn/T//ccrD3Rdr.s 			page 125


 4164 0352 002A     		cmp	r2, #0
 4165 0354 3FF431AF 		beq	.L240
 4166 0358 B9E7     		b	.L289
 4167              	.LVL311:
 4168              	.L293:
 383:../../../lib/pd2dsy/libdaisy/src/hid/disp/display.h ****                 {
 4169              		.loc 4 383 32 discriminator 1 view .LVU967
 4170 035a 9842     		cmp	r0, r3
 4171 035c 8FDB     		blt	.L249
 385:../../../lib/pd2dsy/libdaisy/src/hid/disp/display.h ****                 }
 4172              		.loc 4 385 24 view .LVU968
 4173 035e 0023     		movs	r3, #0
 4174              	.LVL312:
 385:../../../lib/pd2dsy/libdaisy/src/hid/disp/display.h ****                 }
 4175              		.loc 4 385 24 view .LVU969
 4176 0360 3BE7     		b	.L248
 4177              	.L301:
 4178 0362 00BFAFF3 		.align	3
 4178      0080
 4179              	.L300:
 4180 0368 7A008BFC 		.word	-57999238
 4181 036c FA210940 		.word	1074340346
 4182 0370 00000000 		.word	0
 4183 0374 00806640 		.word	1080459264
 4184              	.LVL313:
 4185              	.L245:
 4186              	.LBB1254:
 4187              	.LBB1229:
 4188              	.LBB1228:
 4189              	.LBB1226:
 4190              	.LBI1226:
 252:../../../lib/pd2dsy/libdaisy/src/dev/oled_ssd130x.h ****     {
 4191              		.loc 3 252 10 is_stmt 1 view .LVU970
 4192              	.LBB1227:
 259:../../../lib/pd2dsy/libdaisy/src/dev/oled_ssd130x.h ****     }
 4193              		.loc 3 259 42 is_stmt 0 view .LVU971
 4194 0378 C244     		add	r10, r10, r8
 4195              	.LVL314:
 259:../../../lib/pd2dsy/libdaisy/src/dev/oled_ssd130x.h ****     }
 4196              		.loc 3 259 49 view .LVU972
 4197 037a 4FF0010B 		mov	fp, #1
 4198              	.LVL315:
 259:../../../lib/pd2dsy/libdaisy/src/dev/oled_ssd130x.h ****     }
 4199              		.loc 3 259 55 view .LVU973
 4200 037e 0EF0070E 		and	lr, lr, #7
 4201              	.LVL316:
 259:../../../lib/pd2dsy/libdaisy/src/dev/oled_ssd130x.h ****     }
 4202              		.loc 3 259 49 view .LVU974
 4203 0382 0BFA0EFE 		lsl	lr, fp, lr
 259:../../../lib/pd2dsy/libdaisy/src/dev/oled_ssd130x.h ****     }
 4204              		.loc 3 259 42 view .LVU975
 4205 0386 9AF814B0 		ldrb	fp, [r10, #20]	@ zero_extendqisi2
 4206 038a 2BEA0E0E 		bic	lr, fp, lr
 4207 038e 8AF814E0 		strb	lr, [r10, #20]
 4208              	.LVL317:
 259:../../../lib/pd2dsy/libdaisy/src/dev/oled_ssd130x.h ****     }
 4209              		.loc 3 259 42 view .LVU976
ARM GAS  /var/folders/fb/yfxt3z4538j6z0vjt03w70vc0000gn/T//ccrD3Rdr.s 			page 126


 4210 0392 15E7     		b	.L244
 4211              	.LVL318:
 4212              	.L243:
 259:../../../lib/pd2dsy/libdaisy/src/dev/oled_ssd130x.h ****     }
 4213              		.loc 3 259 42 view .LVU977
 4214              	.LBE1227:
 4215              	.LBE1226:
 4216              	.LBE1228:
 4217              	.LBE1229:
 4218              	.LBE1254:
 4219              	.LBB1255:
 4220              	.LBB1246:
 4221              	.LBB1245:
 4222              	.LBB1243:
 4223              	.LBI1243:
 252:../../../lib/pd2dsy/libdaisy/src/dev/oled_ssd130x.h ****     {
 4224              		.loc 3 252 10 is_stmt 1 view .LVU978
 4225              	.LBB1244:
 259:../../../lib/pd2dsy/libdaisy/src/dev/oled_ssd130x.h ****     }
 4226              		.loc 3 259 42 is_stmt 0 view .LVU979
 4227 0394 C244     		add	r10, r10, r8
 4228              	.LVL319:
 259:../../../lib/pd2dsy/libdaisy/src/dev/oled_ssd130x.h ****     }
 4229              		.loc 3 259 49 view .LVU980
 4230 0396 4FF0010B 		mov	fp, #1
 4231              	.LVL320:
 259:../../../lib/pd2dsy/libdaisy/src/dev/oled_ssd130x.h ****     }
 4232              		.loc 3 259 55 view .LVU981
 4233 039a 0EF0070E 		and	lr, lr, #7
 4234              	.LVL321:
 259:../../../lib/pd2dsy/libdaisy/src/dev/oled_ssd130x.h ****     }
 4235              		.loc 3 259 49 view .LVU982
 4236 039e 0BFA0EFE 		lsl	lr, fp, lr
 259:../../../lib/pd2dsy/libdaisy/src/dev/oled_ssd130x.h ****     }
 4237              		.loc 3 259 42 view .LVU983
 4238 03a2 9AF814B0 		ldrb	fp, [r10, #20]	@ zero_extendqisi2
 4239 03a6 2BEA0E0E 		bic	lr, fp, lr
 4240 03aa 8AF814E0 		strb	lr, [r10, #20]
 4241              	.LVL322:
 259:../../../lib/pd2dsy/libdaisy/src/dev/oled_ssd130x.h ****     }
 4242              		.loc 3 259 42 view .LVU984
 4243              	.LBE1244:
 4244              	.LBE1243:
 4245              	.LBE1245:
 4246              	.LBE1246:
 4247              	.LBE1255:
 371:../../../lib/pd2dsy/libdaisy/src/hid/disp/display.h ****                 ((ChildType*)(this))
 4248              		.loc 4 371 13 view .LVU985
 4249 03ae 002F     		cmp	r7, #0
 4250 03b0 3FF406AF 		beq	.L244
 4251 03b4 1CE7     		b	.L291
 4252              	.LVL323:
 4253              	.L247:
 4254              	.LBB1256:
 4255              	.LBB1238:
 4256              	.LBB1236:
 4257              	.LBB1233:
ARM GAS  /var/folders/fb/yfxt3z4538j6z0vjt03w70vc0000gn/T//ccrD3Rdr.s 			page 127


 4258              	.LBI1233:
 252:../../../lib/pd2dsy/libdaisy/src/dev/oled_ssd130x.h ****     {
 4259              		.loc 3 252 10 is_stmt 1 view .LVU986
 4260              	.LBB1234:
 259:../../../lib/pd2dsy/libdaisy/src/dev/oled_ssd130x.h ****     }
 4261              		.loc 3 259 42 is_stmt 0 view .LVU987
 4262 03b6 C244     		add	r10, r10, r8
 4263              	.LVL324:
 259:../../../lib/pd2dsy/libdaisy/src/dev/oled_ssd130x.h ****     }
 4264              		.loc 3 259 49 view .LVU988
 4265 03b8 4FF0010B 		mov	fp, #1
 4266              	.LVL325:
 259:../../../lib/pd2dsy/libdaisy/src/dev/oled_ssd130x.h ****     }
 4267              		.loc 3 259 55 view .LVU989
 4268 03bc 0EF0070E 		and	lr, lr, #7
 4269              	.LVL326:
 259:../../../lib/pd2dsy/libdaisy/src/dev/oled_ssd130x.h ****     }
 4270              		.loc 3 259 49 view .LVU990
 4271 03c0 0BFA0EFE 		lsl	lr, fp, lr
 259:../../../lib/pd2dsy/libdaisy/src/dev/oled_ssd130x.h ****     }
 4272              		.loc 3 259 42 view .LVU991
 4273 03c4 9AF814B0 		ldrb	fp, [r10, #20]	@ zero_extendqisi2
 4274 03c8 2BEA0E0E 		bic	lr, fp, lr
 4275 03cc 8AF814E0 		strb	lr, [r10, #20]
 4276              	.LVL327:
 259:../../../lib/pd2dsy/libdaisy/src/dev/oled_ssd130x.h ****     }
 4277              		.loc 3 259 42 view .LVU992
 4278 03d0 F7E6     		b	.L246
 4279              	.LVL328:
 4280              	.L241:
 259:../../../lib/pd2dsy/libdaisy/src/dev/oled_ssd130x.h ****     }
 4281              		.loc 3 259 42 view .LVU993
 4282              	.LBE1234:
 4283              	.LBE1233:
 4284              	.LBE1236:
 4285              	.LBE1238:
 4286              	.LBE1256:
 4287              	.LBB1257:
 4288              	.LBB1253:
 4289              	.LBB1252:
 4290              	.LBB1250:
 4291              	.LBI1250:
 252:../../../lib/pd2dsy/libdaisy/src/dev/oled_ssd130x.h ****     {
 4292              		.loc 3 252 10 is_stmt 1 view .LVU994
 4293              	.LBB1251:
 259:../../../lib/pd2dsy/libdaisy/src/dev/oled_ssd130x.h ****     }
 4294              		.loc 3 259 42 is_stmt 0 view .LVU995
 4295 03d2 C244     		add	r10, r10, r8
 4296              	.LVL329:
 259:../../../lib/pd2dsy/libdaisy/src/dev/oled_ssd130x.h ****     }
 4297              		.loc 3 259 49 view .LVU996
 4298 03d4 4FF0010B 		mov	fp, #1
 4299              	.LVL330:
 259:../../../lib/pd2dsy/libdaisy/src/dev/oled_ssd130x.h ****     }
 4300              		.loc 3 259 55 view .LVU997
 4301 03d8 0EF0070E 		and	lr, lr, #7
 4302              	.LVL331:
ARM GAS  /var/folders/fb/yfxt3z4538j6z0vjt03w70vc0000gn/T//ccrD3Rdr.s 			page 128


 259:../../../lib/pd2dsy/libdaisy/src/dev/oled_ssd130x.h ****     }
 4303              		.loc 3 259 49 view .LVU998
 4304 03dc 0BFA0EFE 		lsl	lr, fp, lr
 259:../../../lib/pd2dsy/libdaisy/src/dev/oled_ssd130x.h ****     }
 4305              		.loc 3 259 42 view .LVU999
 4306 03e0 9AF814B0 		ldrb	fp, [r10, #20]	@ zero_extendqisi2
 4307 03e4 2BEA0E0E 		bic	lr, fp, lr
 4308 03e8 8AF814E0 		strb	lr, [r10, #20]
 4309              	.LVL332:
 259:../../../lib/pd2dsy/libdaisy/src/dev/oled_ssd130x.h ****     }
 4310              		.loc 3 259 42 view .LVU1000
 4311              	.LBE1251:
 4312              	.LBE1250:
 4313              	.LBE1252:
 4314              	.LBE1253:
 4315              	.LBE1257:
 368:../../../lib/pd2dsy/libdaisy/src/hid/disp/display.h ****                 ((ChildType*)(this))
 4316              		.loc 4 368 13 view .LVU1001
 4317 03ec 0029     		cmp	r1, #0
 4318 03ee 3FF4E6AE 		beq	.L242
 4319 03f2 49E7     		b	.L290
 4320              	.LVL333:
 4321              	.L297:
 360:../../../lib/pd2dsy/libdaisy/src/hid/disp/display.h ****                     d4 = (t_sxny - t_synx < 0 && t_exny - t_eynx > 0);
 4322              		.loc 4 360 56 discriminator 1 view .LVU1002
 4323 03f4 77EEE66A 		vsub.f32	s13, s15, s13
 4324              	.LVL334:
 360:../../../lib/pd2dsy/libdaisy/src/hid/disp/display.h ****                     d4 = (t_sxny - t_synx < 0 && t_exny - t_eynx > 0);
 4325              		.loc 4 360 46 discriminator 1 view .LVU1003
 4326 03f8 F5EEC06A 		vcmpe.f32	s13, #0
 4327 03fc F1EE10FA 		vmrs	APSR_nzcv, FPSCR
 4328 0400 CCBF     		ite	gt
 4329 0402 0127     		movgt	r7, #1
 4330              	.LVL335:
 360:../../../lib/pd2dsy/libdaisy/src/hid/disp/display.h ****                     d4 = (t_sxny - t_synx < 0 && t_exny - t_eynx > 0);
 4331              		.loc 4 360 46 discriminator 1 view .LVU1004
 4332 0404 0027     		movle	r7, #0
 4333 0406 9BE7     		b	.L237
 4334              	.LVL336:
 4335              	.L296:
 359:../../../lib/pd2dsy/libdaisy/src/hid/disp/display.h ****                     d3 = (t_sxny - t_syx < 0 && t_exny - t_eyx > 0);
 4336              		.loc 4 359 54 discriminator 1 view .LVU1005
 4337 0408 36EE666A 		vsub.f32	s12, s12, s13
 4338              	.LVL337:
 359:../../../lib/pd2dsy/libdaisy/src/hid/disp/display.h ****                     d3 = (t_sxny - t_syx < 0 && t_exny - t_eyx > 0);
 4339              		.loc 4 359 45 discriminator 1 view .LVU1006
 4340 040c B5EEC06A 		vcmpe.f32	s12, #0
 4341 0410 F1EE10FA 		vmrs	APSR_nzcv, FPSCR
 4342 0414 CCBF     		ite	gt
 4343 0416 0121     		movgt	r1, #1
 4344 0418 0021     		movle	r1, #0
 4345 041a 89E7     		b	.L235
 4346              	.LVL338:
 4347              	.L295:
 358:../../../lib/pd2dsy/libdaisy/src/hid/disp/display.h ****                     d2 = (t_sxy - t_syx < 0 && t_exy - t_eyx > 0);
 4348              		.loc 4 358 55 discriminator 1 view .LVU1007
 4349 041c 76EE473A 		vsub.f32	s7, s12, s14
ARM GAS  /var/folders/fb/yfxt3z4538j6z0vjt03w70vc0000gn/T//ccrD3Rdr.s 			page 129


 358:../../../lib/pd2dsy/libdaisy/src/hid/disp/display.h ****                     d2 = (t_sxy - t_syx < 0 && t_exy - t_eyx > 0);
 4350              		.loc 4 358 46 discriminator 1 view .LVU1008
 4351 0420 F5EEC03A 		vcmpe.f32	s7, #0
 4352 0424 F1EE10FA 		vmrs	APSR_nzcv, FPSCR
 4353 0428 CCBF     		ite	gt
 4354 042a 0122     		movgt	r2, #1
 4355 042c 0022     		movle	r2, #0
 4356 042e 77E7     		b	.L233
 4357              	.LVL339:
 4358              	.L258:
 354:../../../lib/pd2dsy/libdaisy/src/hid/disp/display.h ****                 }
 4359              		.loc 4 354 47 view .LVU1009
 4360 0430 0124     		movs	r4, #1
 4361              	.LVL340:
 365:../../../lib/pd2dsy/libdaisy/src/hid/disp/display.h ****                 ((ChildType*)(this))
 4362              		.loc 4 365 13 view .LVU1010
 4363 0432 002A     		cmp	r2, #0
 4364 0434 3FF4C1AE 		beq	.L240
 365:../../../lib/pd2dsy/libdaisy/src/hid/disp/display.h ****                 ((ChildType*)(this))
 4365              		.loc 4 365 13 view .LVU1011
 4366 0438 49E7     		b	.L289
 4367              	.LVL341:
 4368              	.L255:
 352:../../../lib/pd2dsy/libdaisy/src/hid/disp/display.h ****                     d3 = (t_sxny - t_syx < 0 || t_exny - t_eyx > 0);
 4369              		.loc 4 352 33 view .LVU1012
 4370 043a 74EEC54A 		vsub.f32	s9, s9, s10
 4371              	.LVL342:
 351:../../../lib/pd2dsy/libdaisy/src/hid/disp/display.h ****                     d2 = (t_sxy - t_syx < 0 || t_exy - t_eyx > 0);
 4372              		.loc 4 351 46 view .LVU1013
 4373 043e 0122     		movs	r2, #1
 4374              	.LVL343:
 352:../../../lib/pd2dsy/libdaisy/src/hid/disp/display.h ****                     d3 = (t_sxny - t_syx < 0 || t_exny - t_eyx > 0);
 4375              		.loc 4 352 45 view .LVU1014
 4376 0440 F5EEC04A 		vcmpe.f32	s9, #0
 4377 0444 F1EE10FA 		vmrs	APSR_nzcv, FPSCR
 4378 0448 7FF589AE 		bpl	.L298
 4379              	.L256:
 353:../../../lib/pd2dsy/libdaisy/src/hid/disp/display.h ****                     d4 = (t_sxny - t_synx < 0 || t_exny - t_eynx > 0);
 4380              		.loc 4 353 34 view .LVU1015
 4381 044c 35EEC55A 		vsub.f32	s10, s11, s10
 4382              	.LVL344:
 352:../../../lib/pd2dsy/libdaisy/src/hid/disp/display.h ****                     d3 = (t_sxny - t_syx < 0 || t_exny - t_eyx > 0);
 4383              		.loc 4 352 45 view .LVU1016
 4384 0450 0121     		movs	r1, #1
 4385              	.LVL345:
 353:../../../lib/pd2dsy/libdaisy/src/hid/disp/display.h ****                     d4 = (t_sxny - t_synx < 0 || t_exny - t_eynx > 0);
 4386              		.loc 4 353 46 view .LVU1017
 4387 0452 B5EEC05A 		vcmpe.f32	s10, #0
 4388 0456 F1EE10FA 		vmrs	APSR_nzcv, FPSCR
 4389 045a 7FF591AE 		bpl	.L299
 4390              	.LVL346:
 4391              	.L257:
 353:../../../lib/pd2dsy/libdaisy/src/hid/disp/display.h ****                     d4 = (t_sxny - t_synx < 0 || t_exny - t_eynx > 0);
 4392              		.loc 4 353 46 view .LVU1018
 4393 045e 0127     		movs	r7, #1
 4394              	.LVL347:
 353:../../../lib/pd2dsy/libdaisy/src/hid/disp/display.h ****                     d4 = (t_sxny - t_synx < 0 || t_exny - t_eynx > 0);
ARM GAS  /var/folders/fb/yfxt3z4538j6z0vjt03w70vc0000gn/T//ccrD3Rdr.s 			page 130


 4395              		.loc 4 353 46 view .LVU1019
 4396 0460 97E6     		b	.L232
 4397              	.LVL348:
 4398              	.L224:
 308:../../../lib/pd2dsy/libdaisy/src/hid/disp/display.h ****             sweep = -sweep;
 4399              		.loc 4 308 25 view .LVU1020
 4400 0462 DDE91223 		ldrd	r2, r3, [sp, #72]
 4401              	.LVL349:
 308:../../../lib/pd2dsy/libdaisy/src/hid/disp/display.h ****             sweep = -sweep;
 4402              		.loc 4 308 25 view .LVU1021
 4403 0466 1344     		add	r3, r3, r2
 4404              	.LVL350:
 308:../../../lib/pd2dsy/libdaisy/src/hid/disp/display.h ****             sweep = -sweep;
 4405              		.loc 4 308 25 view .LVU1022
 4406 0468 06EE102A 		vmov	s12, r2	@ int
 4407 046c 1293     		str	r3, [sp, #72]
 4408 046e 139B     		ldr	r3, [sp, #76]
 4409              	.LVL351:
 308:../../../lib/pd2dsy/libdaisy/src/hid/disp/display.h ****             sweep = -sweep;
 4410              		.loc 4 308 25 view .LVU1023
 4411 0470 5B42     		rsbs	r3, r3, #0
 4412 0472 1393     		str	r3, [sp, #76]
 4413              	.LVL352:
 308:../../../lib/pd2dsy/libdaisy/src/hid/disp/display.h ****             sweep = -sweep;
 4414              		.loc 4 308 25 view .LVU1024
 4415 0474 D8E5     		b	.L225
 4416              		.cfi_endproc
 4417              	.LFE3078:
 4419 0476 00BF     		.section	.text._ZN5daisy25OneBitGraphicsDisplayImplINS_11OledDisplayINS_13SSD130xDriverILj128ELj64
 4420              		.align	1
 4421              		.p2align 2,,3
 4422              		.weak	_ZN5daisy25OneBitGraphicsDisplayImplINS_11OledDisplayINS_13SSD130xDriverILj128ELj64ENS_24SSD
 4423              		.syntax unified
 4424              		.thumb
 4425              		.thumb_func
 4427              	_ZN5daisy25OneBitGraphicsDisplayImplINS_11OledDisplayINS_13SSD130xDriverILj128ELj64ENS_24SSD130x4Wi
 4428              	.LVL353:
 4429              	.LFB3077:
 257:../../../lib/pd2dsy/libdaisy/src/hid/disp/display.h ****                   uint_fast8_t y1,
 4430              		.loc 4 257 10 is_stmt 1 view -0
 4431              		.cfi_startproc
 4432              		@ args = 12, pretend = 0, frame = 24
 4433              		@ frame_needed = 0, uses_anonymous_args = 0
 257:../../../lib/pd2dsy/libdaisy/src/hid/disp/display.h ****                   uint_fast8_t y1,
 4434              		.loc 4 257 10 is_stmt 0 view .LVU1026
 4435 0000 2DE9F04F 		push	{r4, r5, r6, r7, r8, r9, r10, fp, lr}
 4436              		.cfi_def_cfa_offset 36
 4437              		.cfi_offset 4, -36
 4438              		.cfi_offset 5, -32
 4439              		.cfi_offset 6, -28
 4440              		.cfi_offset 7, -24
 4441              		.cfi_offset 8, -20
 4442              		.cfi_offset 9, -16
 4443              		.cfi_offset 10, -12
 4444              		.cfi_offset 11, -8
 4445              		.cfi_offset 14, -4
 4446 0004 87B0     		sub	sp, sp, #28
ARM GAS  /var/folders/fb/yfxt3z4538j6z0vjt03w70vc0000gn/T//ccrD3Rdr.s 			page 131


 4447              		.cfi_def_cfa_offset 64
 257:../../../lib/pd2dsy/libdaisy/src/hid/disp/display.h ****                   uint_fast8_t y1,
 4448              		.loc 4 257 10 view .LVU1027
 4449 0006 9DF84850 		ldrb	r5, [sp, #72]	@ zero_extendqisi2
 4450 000a 109C     		ldr	r4, [sp, #64]
 4451 000c 2E46     		mov	r6, r5
 4452 000e 0195     		str	r5, [sp, #4]
 4453 0010 9DF84450 		ldrb	r5, [sp, #68]	@ zero_extendqisi2
 4454              	.LBB1327:
 264:../../../lib/pd2dsy/libdaisy/src/hid/disp/display.h ****         {
 4455              		.loc 4 264 9 view .LVU1028
 4456 0014 9EB3     		cbz	r6, .L303
 4457              	.LVL354:
 264:../../../lib/pd2dsy/libdaisy/src/hid/disp/display.h ****         {
 4458              		.loc 4 264 9 view .LVU1029
 4459              	.LBE1327:
 4460              	.LBB1449:
 4461              	.LBB1450:
 266:../../../lib/pd2dsy/libdaisy/src/hid/disp/display.h ****             {
 4462              		.loc 4 266 40 is_stmt 1 view .LVU1030
 4463 0016 9942     		cmp	r1, r3
 4464 0018 2ED8     		bhi	.L302
 4465 001a 9946     		mov	r9, r3
 4466              	.LVL355:
 4467              	.L306:
 4468              	.LBB1451:
 268:../../../lib/pd2dsy/libdaisy/src/hid/disp/display.h ****                 {
 4469              		.loc 4 268 44 view .LVU1031
 4470 001c A242     		cmp	r2, r4
 4471 001e 28D8     		bhi	.L309
 4472              	.LBB1452:
 4473              	.LBB1453:
 4474              	.LBB1454:
 254:../../../lib/pd2dsy/libdaisy/src/dev/oled_ssd130x.h ****             return;
 4475              		.loc 3 254 14 is_stmt 0 view .LVU1032
 4476 0020 7F29     		cmp	r1, #127
 4477 0022 1646     		mov	r6, r2
 4478 0024 94BF     		ite	ls
 4479 0026 0023     		movls	r3, #0
 4480 0028 0123     		movhi	r3, #1
 4481 002a 08E0     		b	.L310
 4482              	.LVL356:
 4483              	.L393:
 257:../../../lib/pd2dsy/libdaisy/src/dev/oled_ssd130x.h ****         else
 4484              		.loc 3 257 42 view .LVU1033
 4485 002c 9CF81480 		ldrb	r8, [ip, #20]	@ zero_extendqisi2
 4486 0030 4EEA080E 		orr	lr, lr, r8
 4487 0034 8CF814E0 		strb	lr, [ip, #20]
 4488              	.LVL357:
 4489              	.L307:
 257:../../../lib/pd2dsy/libdaisy/src/dev/oled_ssd130x.h ****         else
 4490              		.loc 3 257 42 view .LVU1034
 4491              	.LBE1454:
 4492              	.LBE1453:
 4493              	.LBE1452:
 268:../../../lib/pd2dsy/libdaisy/src/hid/disp/display.h ****                 {
 4494              		.loc 4 268 17 is_stmt 1 view .LVU1035
ARM GAS  /var/folders/fb/yfxt3z4538j6z0vjt03w70vc0000gn/T//ccrD3Rdr.s 			page 132


 4495 0038 0136     		adds	r6, r6, #1
 4496              	.LVL358:
 268:../../../lib/pd2dsy/libdaisy/src/hid/disp/display.h ****                 {
 4497              		.loc 4 268 44 view .LVU1036
 4498 003a B442     		cmp	r4, r6
 4499 003c 19D3     		bcc	.L309
 4500              	.L310:
 4501              	.LVL359:
 4502              	.LBB1468:
 4503              	.LBI1452:
  42:../../../lib/pd2dsy/libdaisy/src/hid/disp/oled_display.h ****     {
 4504              		.loc 2 42 10 view .LVU1037
 4505              	.LBB1465:
 4506              	.LBI1453:
 252:../../../lib/pd2dsy/libdaisy/src/dev/oled_ssd130x.h ****     {
 4507              		.loc 3 252 10 view .LVU1038
 4508              	.LBB1462:
 254:../../../lib/pd2dsy/libdaisy/src/dev/oled_ssd130x.h ****             return;
 4509              		.loc 3 254 9 is_stmt 0 view .LVU1039
 4510 003e 3F2E     		cmp	r6, #63
 4511 0040 FAD8     		bhi	.L307
 254:../../../lib/pd2dsy/libdaisy/src/dev/oled_ssd130x.h ****             return;
 4512              		.loc 3 254 9 view .LVU1040
 4513 0042 002B     		cmp	r3, #0
 4514 0044 F8D1     		bne	.L307
 4515              	.LVL360:
 4516              	.LBB1455:
 4517              	.LBI1455:
 252:../../../lib/pd2dsy/libdaisy/src/dev/oled_ssd130x.h ****     {
 4518              		.loc 3 252 10 is_stmt 1 view .LVU1041
 252:../../../lib/pd2dsy/libdaisy/src/dev/oled_ssd130x.h ****     {
 4519              		.loc 3 252 10 is_stmt 0 view .LVU1042
 4520              	.LBE1455:
 257:../../../lib/pd2dsy/libdaisy/src/dev/oled_ssd130x.h ****         else
 4521              		.loc 3 257 28 view .LVU1043
 4522 0046 4FEAD60C 		lsr	ip, r6, #3
 257:../../../lib/pd2dsy/libdaisy/src/dev/oled_ssd130x.h ****         else
 4523              		.loc 3 257 54 view .LVU1044
 4524 004a 06F0070E 		and	lr, r6, #7
 257:../../../lib/pd2dsy/libdaisy/src/dev/oled_ssd130x.h ****         else
 4525              		.loc 3 257 48 view .LVU1045
 4526 004e 4FF00108 		mov	r8, #1
 257:../../../lib/pd2dsy/libdaisy/src/dev/oled_ssd130x.h ****         else
 4527              		.loc 3 257 42 view .LVU1046
 4528 0052 01EBCC1C 		add	ip, r1, ip, lsl #7
 257:../../../lib/pd2dsy/libdaisy/src/dev/oled_ssd130x.h ****         else
 4529              		.loc 3 257 48 view .LVU1047
 4530 0056 08FA0EFE 		lsl	lr, r8, lr
 257:../../../lib/pd2dsy/libdaisy/src/dev/oled_ssd130x.h ****         else
 4531              		.loc 3 257 42 view .LVU1048
 4532 005a 8444     		add	ip, ip, r0
 256:../../../lib/pd2dsy/libdaisy/src/dev/oled_ssd130x.h ****             buffer_[x + (y / 8) * width] |= (1 << (y % 8));
 4533              		.loc 3 256 9 view .LVU1049
 4534 005c 002D     		cmp	r5, #0
 4535 005e E5D1     		bne	.L393
 4536              	.LBB1459:
 4537              	.LBB1456:
ARM GAS  /var/folders/fb/yfxt3z4538j6z0vjt03w70vc0000gn/T//ccrD3Rdr.s 			page 133


 259:../../../lib/pd2dsy/libdaisy/src/dev/oled_ssd130x.h ****     }
 4538              		.loc 3 259 42 view .LVU1050
 4539 0060 9CF814B0 		ldrb	fp, [ip, #20]	@ zero_extendqisi2
 4540              	.LBE1456:
 4541              	.LBE1459:
 4542              	.LBE1462:
 4543              	.LBE1465:
 4544              	.LBE1468:
 268:../../../lib/pd2dsy/libdaisy/src/hid/disp/display.h ****                 {
 4545              		.loc 4 268 17 view .LVU1051
 4546 0064 0136     		adds	r6, r6, #1
 4547              	.LVL361:
 4548              	.LBB1469:
 4549              	.LBB1466:
 4550              	.LBB1463:
 4551              	.LBB1460:
 4552              	.LBB1457:
 259:../../../lib/pd2dsy/libdaisy/src/dev/oled_ssd130x.h ****     }
 4553              		.loc 3 259 42 view .LVU1052
 4554 0066 2BEA0E0A 		bic	r10, fp, lr
 4555              	.LBE1457:
 4556              	.LBE1460:
 4557              	.LBE1463:
 4558              	.LBE1466:
 4559              	.LBE1469:
 268:../../../lib/pd2dsy/libdaisy/src/hid/disp/display.h ****                 {
 4560              		.loc 4 268 44 view .LVU1053
 4561 006a B442     		cmp	r4, r6
 4562              	.LBB1470:
 4563              	.LBB1467:
 4564              	.LBB1464:
 4565              	.LBB1461:
 4566              	.LBB1458:
 259:../../../lib/pd2dsy/libdaisy/src/dev/oled_ssd130x.h ****     }
 4567              		.loc 3 259 42 view .LVU1054
 4568 006c 8CF814A0 		strb	r10, [ip, #20]
 4569              	.LVL362:
 259:../../../lib/pd2dsy/libdaisy/src/dev/oled_ssd130x.h ****     }
 4570              		.loc 3 259 42 view .LVU1055
 4571              	.LBE1458:
 4572              	.LBE1461:
 4573              	.LBE1464:
 4574              	.LBE1467:
 4575              	.LBE1470:
 268:../../../lib/pd2dsy/libdaisy/src/hid/disp/display.h ****                 {
 4576              		.loc 4 268 17 is_stmt 1 view .LVU1056
 268:../../../lib/pd2dsy/libdaisy/src/hid/disp/display.h ****                 {
 4577              		.loc 4 268 44 view .LVU1057
 4578 0070 E5D2     		bcs	.L310
 4579              	.LVL363:
 4580              	.L309:
 268:../../../lib/pd2dsy/libdaisy/src/hid/disp/display.h ****                 {
 4581              		.loc 4 268 44 is_stmt 0 view .LVU1058
 4582              	.LBE1451:
 266:../../../lib/pd2dsy/libdaisy/src/hid/disp/display.h ****             {
 4583              		.loc 4 266 13 is_stmt 1 view .LVU1059
 4584 0072 0131     		adds	r1, r1, #1
ARM GAS  /var/folders/fb/yfxt3z4538j6z0vjt03w70vc0000gn/T//ccrD3Rdr.s 			page 134


 4585              	.LVL364:
 266:../../../lib/pd2dsy/libdaisy/src/hid/disp/display.h ****             {
 4586              		.loc 4 266 40 view .LVU1060
 4587 0074 8945     		cmp	r9, r1
 4588 0076 D1D2     		bcs	.L306
 4589              	.LVL365:
 4590              	.L302:
 266:../../../lib/pd2dsy/libdaisy/src/hid/disp/display.h ****             {
 4591              		.loc 4 266 40 is_stmt 0 view .LVU1061
 4592              	.LBE1450:
 4593              	.LBE1449:
 281:../../../lib/pd2dsy/libdaisy/src/hid/disp/display.h **** 
 4594              		.loc 4 281 5 view .LVU1062
 4595 0078 07B0     		add	sp, sp, #28
 4596              		.cfi_remember_state
 4597              		.cfi_def_cfa_offset 36
 4598              		@ sp needed
 4599 007a BDE8F08F 		pop	{r4, r5, r6, r7, r8, r9, r10, fp, pc}
 4600              	.LVL366:
 4601              	.L303:
 4602              		.cfi_restore_state
 4603              	.LBB1471:
 4604              	.LBB1328:
 4605              	.LBI1328:
 221:../../../lib/pd2dsy/libdaisy/src/hid/disp/display.h ****                   uint_fast8_t y1,
 4606              		.loc 4 221 10 is_stmt 1 view .LVU1063
 4607              	.LBB1329:
 227:../../../lib/pd2dsy/libdaisy/src/hid/disp/display.h ****         int_fast16_t deltaY = abs((int_fast16_t)y2 - (int_fast16_t)y1);
 4608              		.loc 4 227 52 is_stmt 0 view .LVU1064
 4609 007e A3EB0108 		sub	r8, r3, r1
 227:../../../lib/pd2dsy/libdaisy/src/hid/disp/display.h ****         int_fast16_t deltaY = abs((int_fast16_t)y2 - (int_fast16_t)y1);
 4610              		.loc 4 227 22 view .LVU1065
 4611 0082 B8F1000F 		cmp	r8, #0
 4612 0086 B8BF     		it	lt
 4613 0088 C8F10008 		rsblt	r8, r8, #0
 4614              	.LVL367:
 229:../../../lib/pd2dsy/libdaisy/src/hid/disp/display.h ****         int_fast16_t signY  = ((y1 < y2) ? 1 : -1);
 4615              		.loc 4 229 42 view .LVU1066
 4616 008c 9942     		cmp	r1, r3
 4617 008e C0F04E81 		bcc	.L311
 4618              	.LVL368:
 4619              	.LBB1330:
 4620              	.LBI1330:
  42:../../../lib/pd2dsy/libdaisy/src/hid/disp/oled_display.h ****     {
 4621              		.loc 2 42 10 is_stmt 1 view .LVU1067
 4622              	.LBB1331:
 4623              	.LBI1331:
 252:../../../lib/pd2dsy/libdaisy/src/dev/oled_ssd130x.h ****     {
 4624              		.loc 3 252 10 view .LVU1068
 4625              	.LBB1332:
 254:../../../lib/pd2dsy/libdaisy/src/dev/oled_ssd130x.h ****             return;
 4626              		.loc 3 254 14 is_stmt 0 view .LVU1069
 4627 0092 7F2B     		cmp	r3, #127
 4628              	.LBE1332:
 4629              	.LBE1331:
 4630              	.LBE1330:
 229:../../../lib/pd2dsy/libdaisy/src/hid/disp/display.h ****         int_fast16_t signY  = ((y1 < y2) ? 1 : -1);
ARM GAS  /var/folders/fb/yfxt3z4538j6z0vjt03w70vc0000gn/T//ccrD3Rdr.s 			page 135


 4631              		.loc 4 229 42 view .LVU1070
 4632 0094 4FF0FF3A 		mov	r10, #-1
 4633              	.LBB1343:
 4634              	.LBB1339:
 4635              	.LBB1335:
 254:../../../lib/pd2dsy/libdaisy/src/dev/oled_ssd130x.h ****             return;
 4636              		.loc 3 254 14 view .LVU1071
 4637 0098 94BF     		ite	ls
 4638 009a 0026     		movls	r6, #0
 4639 009c 0126     		movhi	r6, #1
 254:../../../lib/pd2dsy/libdaisy/src/dev/oled_ssd130x.h ****             return;
 4640              		.loc 3 254 28 view .LVU1072
 4641 009e 3F2A     		cmp	r2, #63
 254:../../../lib/pd2dsy/libdaisy/src/dev/oled_ssd130x.h ****             return;
 4642              		.loc 3 254 14 view .LVU1073
 4643 00a0 0096     		str	r6, [sp]
 254:../../../lib/pd2dsy/libdaisy/src/dev/oled_ssd130x.h ****             return;
 4644              		.loc 3 254 28 view .LVU1074
 4645 00a2 94BF     		ite	ls
 4646 00a4 0027     		movls	r7, #0
 4647 00a6 0127     		movhi	r7, #1
 4648 00a8 0297     		str	r7, [sp, #8]
 254:../../../lib/pd2dsy/libdaisy/src/dev/oled_ssd130x.h ****             return;
 4649              		.loc 3 254 9 view .LVU1075
 4650 00aa A6B9     		cbnz	r6, .L312
 4651 00ac 9FB9     		cbnz	r7, .L312
 4652              	.LVL369:
 4653              	.L353:
 257:../../../lib/pd2dsy/libdaisy/src/dev/oled_ssd130x.h ****         else
 4654              		.loc 3 257 28 view .LVU1076
 4655 00ae D608     		lsrs	r6, r2, #3
 257:../../../lib/pd2dsy/libdaisy/src/dev/oled_ssd130x.h ****         else
 4656              		.loc 3 257 54 view .LVU1077
 4657 00b0 02F0070C 		and	ip, r2, #7
 257:../../../lib/pd2dsy/libdaisy/src/dev/oled_ssd130x.h ****         else
 4658              		.loc 3 257 48 view .LVU1078
 4659 00b4 0127     		movs	r7, #1
 257:../../../lib/pd2dsy/libdaisy/src/dev/oled_ssd130x.h ****         else
 4660              		.loc 3 257 42 view .LVU1079
 4661 00b6 03EBC616 		add	r6, r3, r6, lsl #7
 4662 00ba 0644     		add	r6, r6, r0
 256:../../../lib/pd2dsy/libdaisy/src/dev/oled_ssd130x.h ****             buffer_[x + (y / 8) * width] |= (1 << (y % 8));
 4663              		.loc 3 256 9 view .LVU1080
 4664 00bc 002D     		cmp	r5, #0
 4665 00be 00F09481 		beq	.L313
 257:../../../lib/pd2dsy/libdaisy/src/dev/oled_ssd130x.h ****         else
 4666              		.loc 3 257 48 view .LVU1081
 4667 00c2 07FA0CF7 		lsl	r7, r7, ip
 257:../../../lib/pd2dsy/libdaisy/src/dev/oled_ssd130x.h ****         else
 4668              		.loc 3 257 42 view .LVU1082
 4669 00c6 96F814C0 		ldrb	ip, [r6, #20]	@ zero_extendqisi2
 4670 00ca 47EA0C07 		orr	r7, r7, ip
 4671 00ce 3775     		strb	r7, [r6, #20]
 4672 00d0 0026     		movs	r6, #0
 4673 00d2 0296     		str	r6, [sp, #8]
 4674 00d4 0096     		str	r6, [sp]
 4675              	.L312:
ARM GAS  /var/folders/fb/yfxt3z4538j6z0vjt03w70vc0000gn/T//ccrD3Rdr.s 			page 136


 4676              	.LVL370:
 257:../../../lib/pd2dsy/libdaisy/src/dev/oled_ssd130x.h ****         else
 4677              		.loc 3 257 42 view .LVU1083
 4678              	.LBE1335:
 4679              	.LBE1339:
 4680              	.LBE1343:
 239:../../../lib/pd2dsy/libdaisy/src/hid/disp/display.h ****         {
 4681              		.loc 4 239 26 is_stmt 1 view .LVU1084
 4682 00d6 9942     		cmp	r1, r3
 4683 00d8 00F09781 		beq	.L394
 4684              	.L315:
 4685              	.LVL371:
 227:../../../lib/pd2dsy/libdaisy/src/hid/disp/display.h ****         int_fast16_t deltaY = abs((int_fast16_t)y2 - (int_fast16_t)y1);
 4686              		.loc 4 227 22 is_stmt 0 view .LVU1085
 4687 00dc 4646     		mov	r6, r8
 4688 00de 9446     		mov	ip, r2
 4689 00e0 8E46     		mov	lr, r1
 4690              	.LVL372:
 4691              	.L317:
 4692              	.LBB1344:
 4693              	.LBI1344:
  42:../../../lib/pd2dsy/libdaisy/src/hid/disp/oled_display.h ****     {
 4694              		.loc 2 42 10 is_stmt 1 view .LVU1086
 4695              	.LBB1345:
 4696              	.LBI1345:
 252:../../../lib/pd2dsy/libdaisy/src/dev/oled_ssd130x.h ****     {
 4697              		.loc 3 252 10 view .LVU1087
 4698              	.LBB1346:
 254:../../../lib/pd2dsy/libdaisy/src/dev/oled_ssd130x.h ****             return;
 4699              		.loc 3 254 9 is_stmt 0 view .LVU1088
 4700 00e2 BEF17F0F 		cmp	lr, #127
 4701 00e6 16D8     		bhi	.L318
 4702 00e8 BCF13F0F 		cmp	ip, #63
 4703 00ec 13D8     		bhi	.L318
 257:../../../lib/pd2dsy/libdaisy/src/dev/oled_ssd130x.h ****         else
 4704              		.loc 3 257 28 view .LVU1089
 4705 00ee 4FEADC07 		lsr	r7, ip, #3
 257:../../../lib/pd2dsy/libdaisy/src/dev/oled_ssd130x.h ****         else
 4706              		.loc 3 257 54 view .LVU1090
 4707 00f2 0CF0070B 		and	fp, ip, #7
 257:../../../lib/pd2dsy/libdaisy/src/dev/oled_ssd130x.h ****         else
 4708              		.loc 3 257 48 view .LVU1091
 4709 00f6 4FF00109 		mov	r9, #1
 257:../../../lib/pd2dsy/libdaisy/src/dev/oled_ssd130x.h ****         else
 4710              		.loc 3 257 42 view .LVU1092
 4711 00fa 0EEBC717 		add	r7, lr, r7, lsl #7
 4712 00fe 0744     		add	r7, r7, r0
 256:../../../lib/pd2dsy/libdaisy/src/dev/oled_ssd130x.h ****             buffer_[x + (y / 8) * width] |= (1 << (y % 8));
 4713              		.loc 3 256 9 view .LVU1093
 4714 0100 002D     		cmp	r5, #0
 4715 0102 00F03981 		beq	.L319
 257:../../../lib/pd2dsy/libdaisy/src/dev/oled_ssd130x.h ****         else
 4716              		.loc 3 257 48 view .LVU1094
 4717 0106 09FA0BF9 		lsl	r9, r9, fp
 257:../../../lib/pd2dsy/libdaisy/src/dev/oled_ssd130x.h ****         else
 4718              		.loc 3 257 42 view .LVU1095
 4719 010a 97F814B0 		ldrb	fp, [r7, #20]	@ zero_extendqisi2
ARM GAS  /var/folders/fb/yfxt3z4538j6z0vjt03w70vc0000gn/T//ccrD3Rdr.s 			page 137


 4720 010e 49EA0B09 		orr	r9, r9, fp
 4721 0112 87F81490 		strb	r9, [r7, #20]
 4722              	.L318:
 4723              	.LVL373:
 257:../../../lib/pd2dsy/libdaisy/src/dev/oled_ssd130x.h ****         else
 4724              		.loc 3 257 42 view .LVU1096
 4725              	.LBE1346:
 4726              	.LBE1345:
 4727              	.LBE1344:
 243:../../../lib/pd2dsy/libdaisy/src/hid/disp/display.h ****             {
 4728              		.loc 4 243 13 view .LVU1097
 4729 0116 7700     		lsls	r7, r6, #1
 4730              	.LVL374:
 246:../../../lib/pd2dsy/libdaisy/src/hid/disp/display.h ****             }
 4731              		.loc 4 246 20 view .LVU1098
 4732 0118 18BF     		it	ne
 4733 011a D644     		addne	lr, lr, r10
 4734              	.LVL375:
 249:../../../lib/pd2dsy/libdaisy/src/hid/disp/display.h ****             {
 4735              		.loc 4 249 13 view .LVU1099
 4736 011c B845     		cmp	r8, r7
 4737 011e 02DD     		ble	.L321
 251:../../../lib/pd2dsy/libdaisy/src/hid/disp/display.h ****                 y1 += signY;
 4738              		.loc 4 251 23 view .LVU1100
 4739 0120 4644     		add	r6, r6, r8
 4740              	.LVL376:
 252:../../../lib/pd2dsy/libdaisy/src/hid/disp/display.h ****             }
 4741              		.loc 4 252 20 view .LVU1101
 4742 0122 0CF1FF3C 		add	ip, ip, #-1
 4743              	.LVL377:
 4744              	.L321:
 239:../../../lib/pd2dsy/libdaisy/src/hid/disp/display.h ****         {
 4745              		.loc 4 239 26 is_stmt 1 view .LVU1102
 4746 0126 7345     		cmp	r3, lr
 4747 0128 DBD1     		bne	.L317
 239:../../../lib/pd2dsy/libdaisy/src/hid/disp/display.h ****         {
 4748              		.loc 4 239 26 is_stmt 0 view .LVU1103
 4749 012a 6245     		cmp	r2, ip
 4750 012c D9D1     		bne	.L317
 4751 012e 0026     		movs	r6, #0
 4752              	.LVL378:
 239:../../../lib/pd2dsy/libdaisy/src/hid/disp/display.h ****         {
 4753              		.loc 4 239 26 view .LVU1104
 4754 0130 0496     		str	r6, [sp, #16]
 4755              	.LVL379:
 4756              	.L314:
 239:../../../lib/pd2dsy/libdaisy/src/hid/disp/display.h ****         {
 4757              		.loc 4 239 26 view .LVU1105
 4758              	.LBE1329:
 4759              	.LBE1328:
 4760              	.LBB1359:
 4761              	.LBI1359:
 221:../../../lib/pd2dsy/libdaisy/src/hid/disp/display.h ****                   uint_fast8_t y1,
 4762              		.loc 4 221 10 is_stmt 1 view .LVU1106
 4763              	.LBB1360:
 228:../../../lib/pd2dsy/libdaisy/src/hid/disp/display.h ****         int_fast16_t signX  = ((x1 < x2) ? 1 : -1);
 4764              		.loc 4 228 52 is_stmt 0 view .LVU1107
ARM GAS  /var/folders/fb/yfxt3z4538j6z0vjt03w70vc0000gn/T//ccrD3Rdr.s 			page 138


 4765 0132 A4EB0209 		sub	r9, r4, r2
 4766              	.LBB1361:
 4767              	.LBB1362:
 4768              	.LBB1363:
 254:../../../lib/pd2dsy/libdaisy/src/dev/oled_ssd130x.h ****             return;
 4769              		.loc 3 254 9 view .LVU1108
 4770 0136 009F     		ldr	r7, [sp]
 4771              	.LBE1363:
 4772              	.LBE1362:
 4773              	.LBE1361:
 228:../../../lib/pd2dsy/libdaisy/src/hid/disp/display.h ****         int_fast16_t signX  = ((x1 < x2) ? 1 : -1);
 4774              		.loc 4 228 22 view .LVU1109
 4775 0138 B9F1000F 		cmp	r9, #0
 4776 013c B8BF     		it	lt
 4777 013e C9F10009 		rsblt	r9, r9, #0
 4778              	.LVL380:
 4779              	.LBB1378:
 4780              	.LBB1372:
 4781              	.LBB1366:
 254:../../../lib/pd2dsy/libdaisy/src/dev/oled_ssd130x.h ****             return;
 4782              		.loc 3 254 28 view .LVU1110
 4783 0142 3F2C     		cmp	r4, #63
 4784 0144 94BF     		ite	ls
 4785 0146 0026     		movls	r6, #0
 4786 0148 0126     		movhi	r6, #1
 4787              	.LBE1366:
 4788              	.LBE1372:
 4789              	.LBE1378:
 230:../../../lib/pd2dsy/libdaisy/src/hid/disp/display.h ****         int_fast16_t error  = deltaX - deltaY;
 4790              		.loc 4 230 42 view .LVU1111
 4791 014a A242     		cmp	r2, r4
 231:../../../lib/pd2dsy/libdaisy/src/hid/disp/display.h ****         int_fast16_t error2;
 4792              		.loc 4 231 22 view .LVU1112
 4793 014c C9F10008 		rsb	r8, r9, #0
 4794              	.LVL381:
 4795              	.LBB1379:
 4796              	.LBI1361:
  42:../../../lib/pd2dsy/libdaisy/src/hid/disp/oled_display.h ****     {
 4797              		.loc 2 42 10 is_stmt 1 view .LVU1113
 4798              	.LBB1373:
 4799              	.LBI1362:
 252:../../../lib/pd2dsy/libdaisy/src/dev/oled_ssd130x.h ****     {
 4800              		.loc 3 252 10 view .LVU1114
 4801              	.LBB1367:
 254:../../../lib/pd2dsy/libdaisy/src/dev/oled_ssd130x.h ****             return;
 4802              		.loc 3 254 28 is_stmt 0 view .LVU1115
 4803 0150 0396     		str	r6, [sp, #12]
 4804              	.LBE1367:
 4805              	.LBE1373:
 4806              	.LBE1379:
 230:../../../lib/pd2dsy/libdaisy/src/hid/disp/display.h ****         int_fast16_t error  = deltaX - deltaY;
 4807              		.loc 4 230 42 view .LVU1116
 4808 0152 C0F02381 		bcc	.L322
 4809              	.LVL382:
 4810              	.LBB1380:
 4811              	.LBB1374:
 4812              	.LBB1368:
ARM GAS  /var/folders/fb/yfxt3z4538j6z0vjt03w70vc0000gn/T//ccrD3Rdr.s 			page 139


 254:../../../lib/pd2dsy/libdaisy/src/dev/oled_ssd130x.h ****             return;
 4813              		.loc 3 254 9 view .LVU1117
 4814 0156 002F     		cmp	r7, #0
 4815 0158 40F05081 		bne	.L357
 4816 015c 002E     		cmp	r6, #0
 4817 015e 40F04D81 		bne	.L357
 4818              	.LBE1368:
 4819              	.LBE1374:
 4820              	.LBE1380:
 230:../../../lib/pd2dsy/libdaisy/src/hid/disp/display.h ****         int_fast16_t error  = deltaX - deltaY;
 4821              		.loc 4 230 42 view .LVU1118
 4822 0162 4FF0FF36 		mov	r6, #-1
 4823 0166 0096     		str	r6, [sp]
 4824              	.LBB1381:
 4825              	.LBB1375:
 4826              	.LBB1369:
 257:../../../lib/pd2dsy/libdaisy/src/dev/oled_ssd130x.h ****         else
 4827              		.loc 3 257 28 view .LVU1119
 4828 0168 E608     		lsrs	r6, r4, #3
 257:../../../lib/pd2dsy/libdaisy/src/dev/oled_ssd130x.h ****         else
 4829              		.loc 3 257 42 view .LVU1120
 4830 016a 03EBC616 		add	r6, r3, r6, lsl #7
 4831 016e 0644     		add	r6, r6, r0
 256:../../../lib/pd2dsy/libdaisy/src/dev/oled_ssd130x.h ****             buffer_[x + (y / 8) * width] |= (1 << (y % 8));
 4832              		.loc 3 256 9 view .LVU1121
 4833 0170 002D     		cmp	r5, #0
 4834 0172 00F01E81 		beq	.L324
 4835              	.LVL383:
 4836              	.L396:
 257:../../../lib/pd2dsy/libdaisy/src/dev/oled_ssd130x.h ****         else
 4837              		.loc 3 257 48 view .LVU1122
 4838 0176 4FF0010C 		mov	ip, #1
 257:../../../lib/pd2dsy/libdaisy/src/dev/oled_ssd130x.h ****         else
 4839              		.loc 3 257 54 view .LVU1123
 4840 017a 04F00707 		and	r7, r4, #7
 257:../../../lib/pd2dsy/libdaisy/src/dev/oled_ssd130x.h ****         else
 4841              		.loc 3 257 48 view .LVU1124
 4842 017e 0CFA07F7 		lsl	r7, ip, r7
 257:../../../lib/pd2dsy/libdaisy/src/dev/oled_ssd130x.h ****         else
 4843              		.loc 3 257 42 view .LVU1125
 4844 0182 96F814C0 		ldrb	ip, [r6, #20]	@ zero_extendqisi2
 4845 0186 47EA0C07 		orr	r7, r7, ip
 4846 018a 3775     		strb	r7, [r6, #20]
 4847 018c 0026     		movs	r6, #0
 4848 018e 0396     		str	r6, [sp, #12]
 4849              	.L323:
 4850              	.LVL384:
 257:../../../lib/pd2dsy/libdaisy/src/dev/oled_ssd130x.h ****         else
 4851              		.loc 3 257 42 view .LVU1126
 4852              	.LBE1369:
 4853              	.LBE1375:
 4854              	.LBE1381:
 239:../../../lib/pd2dsy/libdaisy/src/hid/disp/display.h ****         {
 4855              		.loc 4 239 26 is_stmt 1 view .LVU1127
 4856 0190 A242     		cmp	r2, r4
 4857 0192 00F03D81 		beq	.L395
 4858              	.L326:
ARM GAS  /var/folders/fb/yfxt3z4538j6z0vjt03w70vc0000gn/T//ccrD3Rdr.s 			page 140


 4859              	.LVL385:
 230:../../../lib/pd2dsy/libdaisy/src/hid/disp/display.h ****         int_fast16_t error  = deltaX - deltaY;
 4860              		.loc 4 230 42 is_stmt 0 view .LVU1128
 4861 0196 C446     		mov	ip, r8
 4862 0198 1646     		mov	r6, r2
 4863 019a 1F46     		mov	r7, r3
 4864 019c 0592     		str	r2, [sp, #20]
 4865              	.LVL386:
 4866              	.L328:
 4867              	.LBB1382:
 4868              	.LBI1382:
  42:../../../lib/pd2dsy/libdaisy/src/hid/disp/oled_display.h ****     {
 4869              		.loc 2 42 10 is_stmt 1 view .LVU1129
 4870              	.LBB1383:
 4871              	.LBI1383:
 252:../../../lib/pd2dsy/libdaisy/src/dev/oled_ssd130x.h ****     {
 4872              		.loc 3 252 10 view .LVU1130
 4873              	.LBB1384:
 254:../../../lib/pd2dsy/libdaisy/src/dev/oled_ssd130x.h ****             return;
 4874              		.loc 3 254 9 is_stmt 0 view .LVU1131
 4875 019e 7F2F     		cmp	r7, #127
 4876 01a0 15D8     		bhi	.L329
 4877 01a2 3F2E     		cmp	r6, #63
 4878 01a4 13D8     		bhi	.L329
 257:../../../lib/pd2dsy/libdaisy/src/dev/oled_ssd130x.h ****         else
 4879              		.loc 3 257 28 view .LVU1132
 4880 01a6 4FEAD60E 		lsr	lr, r6, #3
 257:../../../lib/pd2dsy/libdaisy/src/dev/oled_ssd130x.h ****         else
 4881              		.loc 3 257 54 view .LVU1133
 4882 01aa 06F0070B 		and	fp, r6, #7
 257:../../../lib/pd2dsy/libdaisy/src/dev/oled_ssd130x.h ****         else
 4883              		.loc 3 257 48 view .LVU1134
 4884 01ae 4FF0010A 		mov	r10, #1
 257:../../../lib/pd2dsy/libdaisy/src/dev/oled_ssd130x.h ****         else
 4885              		.loc 3 257 42 view .LVU1135
 4886 01b2 07EBCE1E 		add	lr, r7, lr, lsl #7
 4887 01b6 8644     		add	lr, lr, r0
 256:../../../lib/pd2dsy/libdaisy/src/dev/oled_ssd130x.h ****             buffer_[x + (y / 8) * width] |= (1 << (y % 8));
 4888              		.loc 3 256 9 view .LVU1136
 4889 01b8 002D     		cmp	r5, #0
 4890 01ba 00F0E680 		beq	.L330
 257:../../../lib/pd2dsy/libdaisy/src/dev/oled_ssd130x.h ****         else
 4891              		.loc 3 257 48 view .LVU1137
 4892 01be 0AFA0BFA 		lsl	r10, r10, fp
 257:../../../lib/pd2dsy/libdaisy/src/dev/oled_ssd130x.h ****         else
 4893              		.loc 3 257 42 view .LVU1138
 4894 01c2 9EF814B0 		ldrb	fp, [lr, #20]	@ zero_extendqisi2
 4895 01c6 4AEA0B0A 		orr	r10, r10, fp
 4896 01ca 8EF814A0 		strb	r10, [lr, #20]
 4897              	.L329:
 4898              	.LVL387:
 257:../../../lib/pd2dsy/libdaisy/src/dev/oled_ssd130x.h ****         else
 4899              		.loc 3 257 42 view .LVU1139
 4900              	.LBE1384:
 4901              	.LBE1383:
 4902              	.LBE1382:
 243:../../../lib/pd2dsy/libdaisy/src/hid/disp/display.h ****             {
ARM GAS  /var/folders/fb/yfxt3z4538j6z0vjt03w70vc0000gn/T//ccrD3Rdr.s 			page 141


 4903              		.loc 4 243 13 view .LVU1140
 4904 01ce B8EB4C0F 		cmp	r8, ip, lsl #1
 242:../../../lib/pd2dsy/libdaisy/src/hid/disp/display.h ****             if(error2 > -deltaY)
 4905              		.loc 4 242 20 view .LVU1141
 4906 01d2 4FEA4C0E 		lsl	lr, ip, #1
 4907              	.LVL388:
 243:../../../lib/pd2dsy/libdaisy/src/hid/disp/display.h ****             {
 4908              		.loc 4 243 13 view .LVU1142
 4909 01d6 02DA     		bge	.L331
 245:../../../lib/pd2dsy/libdaisy/src/hid/disp/display.h ****                 x1 += signX;
 4910              		.loc 4 245 23 view .LVU1143
 4911 01d8 ACEB090C 		sub	ip, ip, r9
 4912              	.LVL389:
 246:../../../lib/pd2dsy/libdaisy/src/hid/disp/display.h ****             }
 4913              		.loc 4 246 20 view .LVU1144
 4914 01dc 013F     		subs	r7, r7, #1
 4915              	.LVL390:
 4916              	.L331:
 249:../../../lib/pd2dsy/libdaisy/src/hid/disp/display.h ****             {
 4917              		.loc 4 249 13 view .LVU1145
 4918 01de BEF1000F 		cmp	lr, #0
 4919 01e2 01D0     		beq	.L332
 252:../../../lib/pd2dsy/libdaisy/src/hid/disp/display.h ****             }
 4920              		.loc 4 252 20 view .LVU1146
 4921 01e4 009A     		ldr	r2, [sp]
 4922 01e6 1644     		add	r6, r6, r2
 4923              	.LVL391:
 4924              	.L332:
 239:../../../lib/pd2dsy/libdaisy/src/hid/disp/display.h ****         {
 4925              		.loc 4 239 26 is_stmt 1 view .LVU1147
 4926 01e8 BB42     		cmp	r3, r7
 4927 01ea D8D1     		bne	.L328
 239:../../../lib/pd2dsy/libdaisy/src/hid/disp/display.h ****         {
 4928              		.loc 4 239 26 is_stmt 0 view .LVU1148
 4929 01ec B442     		cmp	r4, r6
 4930 01ee D6D1     		bne	.L328
 4931 01f0 059A     		ldr	r2, [sp, #20]
 4932              	.LVL392:
 4933              	.L325:
 239:../../../lib/pd2dsy/libdaisy/src/hid/disp/display.h ****         {
 4934              		.loc 4 239 26 view .LVU1149
 4935              	.LBE1360:
 4936              	.LBE1359:
 4937              	.LBB1395:
 4938              	.LBI1395:
 221:../../../lib/pd2dsy/libdaisy/src/hid/disp/display.h ****                   uint_fast8_t y1,
 4939              		.loc 4 221 10 is_stmt 1 view .LVU1150
 4940              	.LBB1396:
 227:../../../lib/pd2dsy/libdaisy/src/hid/disp/display.h ****         int_fast16_t deltaY = abs((int_fast16_t)y2 - (int_fast16_t)y1);
 4941              		.loc 4 227 52 is_stmt 0 view .LVU1151
 4942 01f2 A1EB030E 		sub	lr, r1, r3
 227:../../../lib/pd2dsy/libdaisy/src/hid/disp/display.h ****         int_fast16_t deltaY = abs((int_fast16_t)y2 - (int_fast16_t)y1);
 4943              		.loc 4 227 22 view .LVU1152
 4944 01f6 BEF1000F 		cmp	lr, #0
 4945 01fa B8BF     		it	lt
 4946 01fc CEF1000E 		rsblt	lr, lr, #0
 4947              	.LVL393:
ARM GAS  /var/folders/fb/yfxt3z4538j6z0vjt03w70vc0000gn/T//ccrD3Rdr.s 			page 142


 4948              	.LBB1397:
 4949              	.LBB1398:
 4950              	.LBB1399:
 254:../../../lib/pd2dsy/libdaisy/src/dev/oled_ssd130x.h ****             return;
 4951              		.loc 3 254 14 view .LVU1153
 4952 0200 7F29     		cmp	r1, #127
 4953 0202 94BF     		ite	ls
 4954 0204 4FF0000A 		movls	r10, #0
 4955 0208 4FF0010A 		movhi	r10, #1
 4956              	.LBE1399:
 4957              	.LBE1398:
 4958              	.LBE1397:
 229:../../../lib/pd2dsy/libdaisy/src/hid/disp/display.h ****         int_fast16_t signY  = ((y1 < y2) ? 1 : -1);
 4959              		.loc 4 229 42 view .LVU1154
 4960 020c 9942     		cmp	r1, r3
 4961 020e 8CBF     		ite	hi
 4962 0210 4FF00109 		movhi	r9, #1
 4963 0214 4FF0FF39 		movls	r9, #-1
 4964              	.LVL394:
 4965              	.LBB1406:
 4966              	.LBI1397:
  42:../../../lib/pd2dsy/libdaisy/src/hid/disp/oled_display.h ****     {
 4967              		.loc 2 42 10 is_stmt 1 view .LVU1155
 4968              	.LBB1404:
 4969              	.LBI1398:
 252:../../../lib/pd2dsy/libdaisy/src/dev/oled_ssd130x.h ****     {
 4970              		.loc 3 252 10 view .LVU1156
 4971              	.LBB1402:
 254:../../../lib/pd2dsy/libdaisy/src/dev/oled_ssd130x.h ****             return;
 4972              		.loc 3 254 9 is_stmt 0 view .LVU1157
 4973 0218 BAF1000F 		cmp	r10, #0
 4974 021c 13D1     		bne	.L334
 4975 021e 039E     		ldr	r6, [sp, #12]
 4976 0220 8EB9     		cbnz	r6, .L334
 257:../../../lib/pd2dsy/libdaisy/src/dev/oled_ssd130x.h ****         else
 4977              		.loc 3 257 28 view .LVU1158
 4978 0222 E608     		lsrs	r6, r4, #3
 257:../../../lib/pd2dsy/libdaisy/src/dev/oled_ssd130x.h ****         else
 4979              		.loc 3 257 42 view .LVU1159
 4980 0224 01EBC616 		add	r6, r1, r6, lsl #7
 4981 0228 0644     		add	r6, r6, r0
 256:../../../lib/pd2dsy/libdaisy/src/dev/oled_ssd130x.h ****             buffer_[x + (y / 8) * width] |= (1 << (y % 8));
 4982              		.loc 3 256 9 view .LVU1160
 4983 022a 002D     		cmp	r5, #0
 4984 022c 00F0D380 		beq	.L335
 257:../../../lib/pd2dsy/libdaisy/src/dev/oled_ssd130x.h ****         else
 4985              		.loc 3 257 48 view .LVU1161
 4986 0230 4FF0010C 		mov	ip, #1
 257:../../../lib/pd2dsy/libdaisy/src/dev/oled_ssd130x.h ****         else
 4987              		.loc 3 257 54 view .LVU1162
 4988 0234 04F00707 		and	r7, r4, #7
 257:../../../lib/pd2dsy/libdaisy/src/dev/oled_ssd130x.h ****         else
 4989              		.loc 3 257 48 view .LVU1163
 4990 0238 0CFA07F7 		lsl	r7, ip, r7
 257:../../../lib/pd2dsy/libdaisy/src/dev/oled_ssd130x.h ****         else
 4991              		.loc 3 257 42 view .LVU1164
 4992 023c 96F814C0 		ldrb	ip, [r6, #20]	@ zero_extendqisi2
ARM GAS  /var/folders/fb/yfxt3z4538j6z0vjt03w70vc0000gn/T//ccrD3Rdr.s 			page 143


 4993 0240 47EA0C07 		orr	r7, r7, ip
 4994 0244 3775     		strb	r7, [r6, #20]
 4995              	.L334:
 4996              	.LVL395:
 257:../../../lib/pd2dsy/libdaisy/src/dev/oled_ssd130x.h ****         else
 4997              		.loc 3 257 42 view .LVU1165
 4998              	.LBE1402:
 4999              	.LBE1404:
 5000              	.LBE1406:
 239:../../../lib/pd2dsy/libdaisy/src/hid/disp/display.h ****         {
 5001              		.loc 4 239 26 is_stmt 1 view .LVU1166
 5002 0246 049E     		ldr	r6, [sp, #16]
 5003 0248 26BB     		cbnz	r6, .L336
 227:../../../lib/pd2dsy/libdaisy/src/hid/disp/display.h ****         int_fast16_t deltaY = abs((int_fast16_t)y2 - (int_fast16_t)y1);
 5004              		.loc 4 227 22 is_stmt 0 view .LVU1167
 5005 024a 7746     		mov	r7, lr
 239:../../../lib/pd2dsy/libdaisy/src/hid/disp/display.h ****         {
 5006              		.loc 4 239 26 view .LVU1168
 5007 024c 2646     		mov	r6, r4
 5008              	.LVL396:
 5009              	.L337:
 5010              	.LBB1407:
 5011              	.LBI1407:
  42:../../../lib/pd2dsy/libdaisy/src/hid/disp/oled_display.h ****     {
 5012              		.loc 2 42 10 is_stmt 1 view .LVU1169
 5013              	.LBB1408:
 5014              	.LBI1408:
 252:../../../lib/pd2dsy/libdaisy/src/dev/oled_ssd130x.h ****     {
 5015              		.loc 3 252 10 view .LVU1170
 5016              	.LBB1409:
 254:../../../lib/pd2dsy/libdaisy/src/dev/oled_ssd130x.h ****             return;
 5017              		.loc 3 254 9 is_stmt 0 view .LVU1171
 5018 024e 7F2B     		cmp	r3, #127
 5019 0250 14D8     		bhi	.L339
 254:../../../lib/pd2dsy/libdaisy/src/dev/oled_ssd130x.h ****             return;
 5020              		.loc 3 254 9 view .LVU1172
 5021 0252 3F2E     		cmp	r6, #63
 5022 0254 12D8     		bhi	.L339
 257:../../../lib/pd2dsy/libdaisy/src/dev/oled_ssd130x.h ****         else
 5023              		.loc 3 257 28 view .LVU1173
 5024 0256 4FEAD60C 		lsr	ip, r6, #3
 257:../../../lib/pd2dsy/libdaisy/src/dev/oled_ssd130x.h ****         else
 5025              		.loc 3 257 54 view .LVU1174
 5026 025a 06F0070B 		and	fp, r6, #7
 257:../../../lib/pd2dsy/libdaisy/src/dev/oled_ssd130x.h ****         else
 5027              		.loc 3 257 48 view .LVU1175
 5028 025e 4FF00108 		mov	r8, #1
 257:../../../lib/pd2dsy/libdaisy/src/dev/oled_ssd130x.h ****         else
 5029              		.loc 3 257 42 view .LVU1176
 5030 0262 03EBCC1C 		add	ip, r3, ip, lsl #7
 5031 0266 8444     		add	ip, ip, r0
 256:../../../lib/pd2dsy/libdaisy/src/dev/oled_ssd130x.h ****             buffer_[x + (y / 8) * width] |= (1 << (y % 8));
 5032              		.loc 3 256 9 view .LVU1177
 5033 0268 002D     		cmp	r5, #0
 5034 026a 73D0     		beq	.L340
 257:../../../lib/pd2dsy/libdaisy/src/dev/oled_ssd130x.h ****         else
 5035              		.loc 3 257 48 view .LVU1178
ARM GAS  /var/folders/fb/yfxt3z4538j6z0vjt03w70vc0000gn/T//ccrD3Rdr.s 			page 144


 5036 026c 08FA0BF8 		lsl	r8, r8, fp
 257:../../../lib/pd2dsy/libdaisy/src/dev/oled_ssd130x.h ****         else
 5037              		.loc 3 257 42 view .LVU1179
 5038 0270 9CF814B0 		ldrb	fp, [ip, #20]	@ zero_extendqisi2
 5039 0274 48EA0B08 		orr	r8, r8, fp
 5040 0278 8CF81480 		strb	r8, [ip, #20]
 5041              	.L339:
 5042              	.LVL397:
 257:../../../lib/pd2dsy/libdaisy/src/dev/oled_ssd130x.h ****         else
 5043              		.loc 3 257 42 view .LVU1180
 5044              	.LBE1409:
 5045              	.LBE1408:
 5046              	.LBE1407:
 243:../../../lib/pd2dsy/libdaisy/src/hid/disp/display.h ****             {
 5047              		.loc 4 243 13 view .LVU1181
 5048 027c 5FEA470C 		lsls	ip, r7, #1
 5049              	.LVL398:
 246:../../../lib/pd2dsy/libdaisy/src/hid/disp/display.h ****             }
 5050              		.loc 4 246 20 view .LVU1182
 5051 0280 18BF     		it	ne
 5052 0282 4B44     		addne	r3, r3, r9
 5053              	.LVL399:
 249:../../../lib/pd2dsy/libdaisy/src/hid/disp/display.h ****             {
 5054              		.loc 4 249 13 view .LVU1183
 5055 0284 E645     		cmp	lr, ip
 5056 0286 01DD     		ble	.L342
 251:../../../lib/pd2dsy/libdaisy/src/hid/disp/display.h ****                 y1 += signY;
 5057              		.loc 4 251 23 view .LVU1184
 5058 0288 7744     		add	r7, r7, lr
 5059              	.LVL400:
 252:../../../lib/pd2dsy/libdaisy/src/hid/disp/display.h ****             }
 5060              		.loc 4 252 20 view .LVU1185
 5061 028a 013E     		subs	r6, r6, #1
 5062              	.LVL401:
 5063              	.L342:
 239:../../../lib/pd2dsy/libdaisy/src/hid/disp/display.h ****         {
 5064              		.loc 4 239 26 is_stmt 1 view .LVU1186
 5065 028c 9942     		cmp	r1, r3
 5066 028e DED1     		bne	.L337
 239:../../../lib/pd2dsy/libdaisy/src/hid/disp/display.h ****         {
 5067              		.loc 4 239 26 is_stmt 0 view .LVU1187
 5068 0290 B442     		cmp	r4, r6
 5069 0292 DCD1     		bne	.L337
 5070              	.LVL402:
 5071              	.L336:
 239:../../../lib/pd2dsy/libdaisy/src/hid/disp/display.h ****         {
 5072              		.loc 4 239 26 view .LVU1188
 5073              	.LBE1396:
 5074              	.LBE1395:
 5075              	.LBB1418:
 5076              	.LBI1418:
 221:../../../lib/pd2dsy/libdaisy/src/hid/disp/display.h ****                   uint_fast8_t y1,
 5077              		.loc 4 221 10 is_stmt 1 view .LVU1189
 5078              	.LBB1419:
 228:../../../lib/pd2dsy/libdaisy/src/hid/disp/display.h ****         int_fast16_t signX  = ((x1 < x2) ? 1 : -1);
 5079              		.loc 4 228 52 is_stmt 0 view .LVU1190
 5080 0294 A2EB040E 		sub	lr, r2, r4
ARM GAS  /var/folders/fb/yfxt3z4538j6z0vjt03w70vc0000gn/T//ccrD3Rdr.s 			page 145


 228:../../../lib/pd2dsy/libdaisy/src/hid/disp/display.h ****         int_fast16_t signX  = ((x1 < x2) ? 1 : -1);
 5081              		.loc 4 228 22 view .LVU1191
 5082 0298 BEF1000F 		cmp	lr, #0
 5083 029c B8BF     		it	lt
 5084 029e CEF1000E 		rsblt	lr, lr, #0
 5085              	.LVL403:
 230:../../../lib/pd2dsy/libdaisy/src/hid/disp/display.h ****         int_fast16_t error  = deltaX - deltaY;
 5086              		.loc 4 230 42 view .LVU1192
 5087 02a2 A242     		cmp	r2, r4
 5088 02a4 8CBF     		ite	hi
 5089 02a6 4FF00108 		movhi	r8, #1
 5090 02aa 4FF0FF38 		movls	r8, #-1
 5091              	.LVL404:
 231:../../../lib/pd2dsy/libdaisy/src/hid/disp/display.h ****         int_fast16_t error2;
 5092              		.loc 4 231 22 view .LVU1193
 5093 02ae CEF1000C 		rsb	ip, lr, #0
 5094              	.LVL405:
 5095              	.LBB1420:
 5096              	.LBI1420:
  42:../../../lib/pd2dsy/libdaisy/src/hid/disp/oled_display.h ****     {
 5097              		.loc 2 42 10 is_stmt 1 view .LVU1194
 5098              	.LBB1421:
 5099              	.LBI1421:
 252:../../../lib/pd2dsy/libdaisy/src/dev/oled_ssd130x.h ****     {
 5100              		.loc 3 252 10 view .LVU1195
 5101              	.LBB1422:
 254:../../../lib/pd2dsy/libdaisy/src/dev/oled_ssd130x.h ****             return;
 5102              		.loc 3 254 9 is_stmt 0 view .LVU1196
 5103 02b2 BAF1000F 		cmp	r10, #0
 5104 02b6 0ED1     		bne	.L344
 5105 02b8 029B     		ldr	r3, [sp, #8]
 5106 02ba 63B9     		cbnz	r3, .L344
 257:../../../lib/pd2dsy/libdaisy/src/dev/oled_ssd130x.h ****         else
 5107              		.loc 3 257 28 view .LVU1197
 5108 02bc D308     		lsrs	r3, r2, #3
 257:../../../lib/pd2dsy/libdaisy/src/dev/oled_ssd130x.h ****         else
 5109              		.loc 3 257 54 view .LVU1198
 5110 02be 02F00707 		and	r7, r2, #7
 257:../../../lib/pd2dsy/libdaisy/src/dev/oled_ssd130x.h ****         else
 5111              		.loc 3 257 48 view .LVU1199
 5112 02c2 0126     		movs	r6, #1
 257:../../../lib/pd2dsy/libdaisy/src/dev/oled_ssd130x.h ****         else
 5113              		.loc 3 257 42 view .LVU1200
 5114 02c4 01EBC313 		add	r3, r1, r3, lsl #7
 5115 02c8 0344     		add	r3, r3, r0
 256:../../../lib/pd2dsy/libdaisy/src/dev/oled_ssd130x.h ****             buffer_[x + (y / 8) * width] |= (1 << (y % 8));
 5116              		.loc 3 256 9 view .LVU1201
 5117 02ca 002D     		cmp	r5, #0
 5118 02cc 7CD0     		beq	.L345
 257:../../../lib/pd2dsy/libdaisy/src/dev/oled_ssd130x.h ****         else
 5119              		.loc 3 257 48 view .LVU1202
 5120 02ce BE40     		lsls	r6, r6, r7
 257:../../../lib/pd2dsy/libdaisy/src/dev/oled_ssd130x.h ****         else
 5121              		.loc 3 257 42 view .LVU1203
 5122 02d0 1F7D     		ldrb	r7, [r3, #20]	@ zero_extendqisi2
 5123 02d2 3E43     		orrs	r6, r6, r7
 5124 02d4 1E75     		strb	r6, [r3, #20]
ARM GAS  /var/folders/fb/yfxt3z4538j6z0vjt03w70vc0000gn/T//ccrD3Rdr.s 			page 146


 5125              	.L344:
 5126              	.LVL406:
 257:../../../lib/pd2dsy/libdaisy/src/dev/oled_ssd130x.h ****         else
 5127              		.loc 3 257 42 view .LVU1204
 5128              	.LBE1422:
 5129              	.LBE1421:
 5130              	.LBE1420:
 239:../../../lib/pd2dsy/libdaisy/src/hid/disp/display.h ****         {
 5131              		.loc 4 239 26 is_stmt 1 view .LVU1205
 5132 02d6 019B     		ldr	r3, [sp, #4]
 5133 02d8 002B     		cmp	r3, #0
 5134 02da 7FF4CDAE 		bne	.L302
 5135 02de 6646     		mov	r6, ip
 5136 02e0 0B46     		mov	r3, r1
 5137              	.LVL407:
 5138              	.L346:
 5139              	.LBB1427:
 5140              	.LBI1427:
  42:../../../lib/pd2dsy/libdaisy/src/hid/disp/oled_display.h ****     {
 5141              		.loc 2 42 10 view .LVU1206
 5142              	.LBB1428:
 5143              	.LBI1428:
 252:../../../lib/pd2dsy/libdaisy/src/dev/oled_ssd130x.h ****     {
 5144              		.loc 3 252 10 view .LVU1207
 5145              	.LBB1429:
 254:../../../lib/pd2dsy/libdaisy/src/dev/oled_ssd130x.h ****             return;
 5146              		.loc 3 254 9 is_stmt 0 view .LVU1208
 5147 02e2 7F2B     		cmp	r3, #127
 5148 02e4 12D8     		bhi	.L348
 254:../../../lib/pd2dsy/libdaisy/src/dev/oled_ssd130x.h ****             return;
 5149              		.loc 3 254 9 view .LVU1209
 5150 02e6 3F2C     		cmp	r4, #63
 5151 02e8 10D8     		bhi	.L348
 257:../../../lib/pd2dsy/libdaisy/src/dev/oled_ssd130x.h ****         else
 5152              		.loc 3 257 28 view .LVU1210
 5153 02ea E708     		lsrs	r7, r4, #3
 257:../../../lib/pd2dsy/libdaisy/src/dev/oled_ssd130x.h ****         else
 5154              		.loc 3 257 54 view .LVU1211
 5155 02ec 04F0070A 		and	r10, r4, #7
 257:../../../lib/pd2dsy/libdaisy/src/dev/oled_ssd130x.h ****         else
 5156              		.loc 3 257 48 view .LVU1212
 5157 02f0 4FF00109 		mov	r9, #1
 257:../../../lib/pd2dsy/libdaisy/src/dev/oled_ssd130x.h ****         else
 5158              		.loc 3 257 42 view .LVU1213
 5159 02f4 03EBC717 		add	r7, r3, r7, lsl #7
 5160 02f8 0744     		add	r7, r7, r0
 256:../../../lib/pd2dsy/libdaisy/src/dev/oled_ssd130x.h ****             buffer_[x + (y / 8) * width] |= (1 << (y % 8));
 5161              		.loc 3 256 9 view .LVU1214
 5162 02fa A5B3     		cbz	r5, .L349
 257:../../../lib/pd2dsy/libdaisy/src/dev/oled_ssd130x.h ****         else
 5163              		.loc 3 257 48 view .LVU1215
 5164 02fc 09FA0AF9 		lsl	r9, r9, r10
 257:../../../lib/pd2dsy/libdaisy/src/dev/oled_ssd130x.h ****         else
 5165              		.loc 3 257 42 view .LVU1216
 5166 0300 97F814A0 		ldrb	r10, [r7, #20]	@ zero_extendqisi2
 5167 0304 49EA0A09 		orr	r9, r9, r10
 5168 0308 87F81490 		strb	r9, [r7, #20]
ARM GAS  /var/folders/fb/yfxt3z4538j6z0vjt03w70vc0000gn/T//ccrD3Rdr.s 			page 147


 5169              	.L348:
 5170              	.LVL408:
 257:../../../lib/pd2dsy/libdaisy/src/dev/oled_ssd130x.h ****         else
 5171              		.loc 3 257 42 view .LVU1217
 5172              	.LBE1429:
 5173              	.LBE1428:
 5174              	.LBE1427:
 243:../../../lib/pd2dsy/libdaisy/src/hid/disp/display.h ****             {
 5175              		.loc 4 243 13 view .LVU1218
 5176 030c BCEB460F 		cmp	ip, r6, lsl #1
 242:../../../lib/pd2dsy/libdaisy/src/hid/disp/display.h ****             if(error2 > -deltaY)
 5177              		.loc 4 242 20 view .LVU1219
 5178 0310 4FEA4607 		lsl	r7, r6, #1
 5179              	.LVL409:
 243:../../../lib/pd2dsy/libdaisy/src/hid/disp/display.h ****             {
 5180              		.loc 4 243 13 view .LVU1220
 5181 0314 02DA     		bge	.L350
 245:../../../lib/pd2dsy/libdaisy/src/hid/disp/display.h ****                 x1 += signX;
 5182              		.loc 4 245 23 view .LVU1221
 5183 0316 A6EB0E06 		sub	r6, r6, lr
 5184              	.LVL410:
 246:../../../lib/pd2dsy/libdaisy/src/hid/disp/display.h ****             }
 5185              		.loc 4 246 20 view .LVU1222
 5186 031a 013B     		subs	r3, r3, #1
 5187              	.LVL411:
 5188              	.L350:
 249:../../../lib/pd2dsy/libdaisy/src/hid/disp/display.h ****             {
 5189              		.loc 4 249 13 view .LVU1223
 5190 031c 07B1     		cbz	r7, .L351
 252:../../../lib/pd2dsy/libdaisy/src/hid/disp/display.h ****             }
 5191              		.loc 4 252 20 view .LVU1224
 5192 031e 4444     		add	r4, r4, r8
 5193              	.LVL412:
 5194              	.L351:
 239:../../../lib/pd2dsy/libdaisy/src/hid/disp/display.h ****         {
 5195              		.loc 4 239 26 is_stmt 1 view .LVU1225
 5196 0320 9942     		cmp	r1, r3
 5197 0322 DED1     		bne	.L346
 239:../../../lib/pd2dsy/libdaisy/src/hid/disp/display.h ****         {
 5198              		.loc 4 239 26 is_stmt 0 view .LVU1226
 5199 0324 A242     		cmp	r2, r4
 5200 0326 DCD1     		bne	.L346
 5201              	.LBE1419:
 5202              	.LBE1418:
 5203              	.LBE1471:
 281:../../../lib/pd2dsy/libdaisy/src/hid/disp/display.h **** 
 5204              		.loc 4 281 5 view .LVU1227
 5205 0328 07B0     		add	sp, sp, #28
 5206              		.cfi_remember_state
 5207              		.cfi_def_cfa_offset 36
 5208              		@ sp needed
 5209 032a BDE8F08F 		pop	{r4, r5, r6, r7, r8, r9, r10, fp, pc}
 5210              	.LVL413:
 5211              	.L311:
 5212              		.cfi_restore_state
 5213              	.LBB1472:
 5214              	.LBB1438:
ARM GAS  /var/folders/fb/yfxt3z4538j6z0vjt03w70vc0000gn/T//ccrD3Rdr.s 			page 148


 5215              	.LBB1355:
 5216              	.LBB1351:
  42:../../../lib/pd2dsy/libdaisy/src/hid/disp/oled_display.h ****     {
 5217              		.loc 2 42 10 is_stmt 1 view .LVU1228
 5218              	.LBB1340:
 252:../../../lib/pd2dsy/libdaisy/src/dev/oled_ssd130x.h ****     {
 5219              		.loc 3 252 10 view .LVU1229
 5220              	.LBB1336:
 254:../../../lib/pd2dsy/libdaisy/src/dev/oled_ssd130x.h ****             return;
 5221              		.loc 3 254 28 is_stmt 0 view .LVU1230
 5222 032e 3F2A     		cmp	r2, #63
 5223              	.LBE1336:
 5224              	.LBE1340:
 5225              	.LBE1351:
 229:../../../lib/pd2dsy/libdaisy/src/hid/disp/display.h ****         int_fast16_t signY  = ((y1 < y2) ? 1 : -1);
 5226              		.loc 4 229 42 view .LVU1231
 5227 0330 4FF0010A 		mov	r10, #1
 5228              	.LBB1352:
 5229              	.LBB1341:
 5230              	.LBB1337:
 254:../../../lib/pd2dsy/libdaisy/src/dev/oled_ssd130x.h ****             return;
 5231              		.loc 3 254 28 view .LVU1232
 5232 0334 94BF     		ite	ls
 5233 0336 0026     		movls	r6, #0
 5234 0338 0126     		movhi	r6, #1
 254:../../../lib/pd2dsy/libdaisy/src/dev/oled_ssd130x.h ****             return;
 5235              		.loc 3 254 14 view .LVU1233
 5236 033a 7F2B     		cmp	r3, #127
 254:../../../lib/pd2dsy/libdaisy/src/dev/oled_ssd130x.h ****             return;
 5237              		.loc 3 254 28 view .LVU1234
 5238 033c 0296     		str	r6, [sp, #8]
 254:../../../lib/pd2dsy/libdaisy/src/dev/oled_ssd130x.h ****             return;
 5239              		.loc 3 254 14 view .LVU1235
 5240 033e 94BF     		ite	ls
 5241 0340 0027     		movls	r7, #0
 5242 0342 0127     		movhi	r7, #1
 5243 0344 0097     		str	r7, [sp]
 254:../../../lib/pd2dsy/libdaisy/src/dev/oled_ssd130x.h ****             return;
 5244              		.loc 3 254 9 view .LVU1236
 5245 0346 002E     		cmp	r6, #0
 5246 0348 7FF4C8AE 		bne	.L315
 5247 034c 002F     		cmp	r7, #0
 5248 034e 3FF4AEAE 		beq	.L353
 5249 0352 C3E6     		b	.L315
 5250              	.LVL414:
 5251              	.L340:
 254:../../../lib/pd2dsy/libdaisy/src/dev/oled_ssd130x.h ****             return;
 5252              		.loc 3 254 9 view .LVU1237
 5253              	.LBE1337:
 5254              	.LBE1341:
 5255              	.LBE1352:
 5256              	.LBE1355:
 5257              	.LBE1438:
 5258              	.LBB1439:
 5259              	.LBB1416:
 5260              	.LBB1414:
 5261              	.LBB1413:
ARM GAS  /var/folders/fb/yfxt3z4538j6z0vjt03w70vc0000gn/T//ccrD3Rdr.s 			page 149


 5262              	.LBB1412:
 5263              	.LBB1410:
 5264              	.LBI1410:
 252:../../../lib/pd2dsy/libdaisy/src/dev/oled_ssd130x.h ****     {
 5265              		.loc 3 252 10 is_stmt 1 view .LVU1238
 5266              	.LBB1411:
 259:../../../lib/pd2dsy/libdaisy/src/dev/oled_ssd130x.h ****     }
 5267              		.loc 3 259 49 is_stmt 0 view .LVU1239
 5268 0354 08FA0BFB 		lsl	fp, r8, fp
 259:../../../lib/pd2dsy/libdaisy/src/dev/oled_ssd130x.h ****     }
 5269              		.loc 3 259 42 view .LVU1240
 5270 0358 9CF81480 		ldrb	r8, [ip, #20]	@ zero_extendqisi2
 5271 035c 28EA0B08 		bic	r8, r8, fp
 5272 0360 8CF81480 		strb	r8, [ip, #20]
 5273 0364 8AE7     		b	.L339
 5274              	.LVL415:
 5275              	.L349:
 259:../../../lib/pd2dsy/libdaisy/src/dev/oled_ssd130x.h ****     }
 5276              		.loc 3 259 42 view .LVU1241
 5277              	.LBE1411:
 5278              	.LBE1410:
 5279              	.LBE1412:
 5280              	.LBE1413:
 5281              	.LBE1414:
 5282              	.LBE1416:
 5283              	.LBE1439:
 5284              	.LBB1440:
 5285              	.LBB1436:
 5286              	.LBB1434:
 5287              	.LBB1433:
 5288              	.LBB1432:
 5289              	.LBB1430:
 5290              	.LBI1430:
 252:../../../lib/pd2dsy/libdaisy/src/dev/oled_ssd130x.h ****     {
 5291              		.loc 3 252 10 is_stmt 1 view .LVU1242
 5292              	.LBB1431:
 259:../../../lib/pd2dsy/libdaisy/src/dev/oled_ssd130x.h ****     }
 5293              		.loc 3 259 49 is_stmt 0 view .LVU1243
 5294 0366 09FA0AFA 		lsl	r10, r9, r10
 259:../../../lib/pd2dsy/libdaisy/src/dev/oled_ssd130x.h ****     }
 5295              		.loc 3 259 42 view .LVU1244
 5296 036a 97F81490 		ldrb	r9, [r7, #20]	@ zero_extendqisi2
 5297 036e 29EA0A09 		bic	r9, r9, r10
 5298 0372 87F81490 		strb	r9, [r7, #20]
 5299 0376 C9E7     		b	.L348
 5300              	.LVL416:
 5301              	.L319:
 259:../../../lib/pd2dsy/libdaisy/src/dev/oled_ssd130x.h ****     }
 5302              		.loc 3 259 42 view .LVU1245
 5303              	.LBE1431:
 5304              	.LBE1430:
 5305              	.LBE1432:
 5306              	.LBE1433:
 5307              	.LBE1434:
 5308              	.LBE1436:
 5309              	.LBE1440:
 5310              	.LBB1441:
ARM GAS  /var/folders/fb/yfxt3z4538j6z0vjt03w70vc0000gn/T//ccrD3Rdr.s 			page 150


 5311              	.LBB1356:
 5312              	.LBB1353:
 5313              	.LBB1350:
 5314              	.LBB1349:
 5315              	.LBB1347:
 5316              	.LBI1347:
 252:../../../lib/pd2dsy/libdaisy/src/dev/oled_ssd130x.h ****     {
 5317              		.loc 3 252 10 is_stmt 1 view .LVU1246
 5318              	.LBB1348:
 259:../../../lib/pd2dsy/libdaisy/src/dev/oled_ssd130x.h ****     }
 5319              		.loc 3 259 49 is_stmt 0 view .LVU1247
 5320 0378 09FA0BFB 		lsl	fp, r9, fp
 259:../../../lib/pd2dsy/libdaisy/src/dev/oled_ssd130x.h ****     }
 5321              		.loc 3 259 42 view .LVU1248
 5322 037c 97F81490 		ldrb	r9, [r7, #20]	@ zero_extendqisi2
 5323 0380 29EA0B09 		bic	r9, r9, fp
 5324 0384 87F81490 		strb	r9, [r7, #20]
 5325 0388 C5E6     		b	.L318
 5326              	.LVL417:
 5327              	.L330:
 259:../../../lib/pd2dsy/libdaisy/src/dev/oled_ssd130x.h ****     }
 5328              		.loc 3 259 42 view .LVU1249
 5329              	.LBE1348:
 5330              	.LBE1347:
 5331              	.LBE1349:
 5332              	.LBE1350:
 5333              	.LBE1353:
 5334              	.LBE1356:
 5335              	.LBE1441:
 5336              	.LBB1442:
 5337              	.LBB1392:
 5338              	.LBB1389:
 5339              	.LBB1388:
 5340              	.LBB1387:
 5341              	.LBB1385:
 5342              	.LBI1385:
 252:../../../lib/pd2dsy/libdaisy/src/dev/oled_ssd130x.h ****     {
 5343              		.loc 3 252 10 is_stmt 1 view .LVU1250
 5344              	.LBB1386:
 259:../../../lib/pd2dsy/libdaisy/src/dev/oled_ssd130x.h ****     }
 5345              		.loc 3 259 49 is_stmt 0 view .LVU1251
 5346 038a 0AFA0BFB 		lsl	fp, r10, fp
 259:../../../lib/pd2dsy/libdaisy/src/dev/oled_ssd130x.h ****     }
 5347              		.loc 3 259 42 view .LVU1252
 5348 038e 9EF814A0 		ldrb	r10, [lr, #20]	@ zero_extendqisi2
 5349 0392 2AEA0B0A 		bic	r10, r10, fp
 5350 0396 8EF814A0 		strb	r10, [lr, #20]
 5351 039a 18E7     		b	.L329
 5352              	.LVL418:
 5353              	.L322:
 259:../../../lib/pd2dsy/libdaisy/src/dev/oled_ssd130x.h ****     }
 5354              		.loc 3 259 42 view .LVU1253
 5355              	.LBE1386:
 5356              	.LBE1385:
 5357              	.LBE1387:
 5358              	.LBE1388:
 5359              	.LBE1389:
ARM GAS  /var/folders/fb/yfxt3z4538j6z0vjt03w70vc0000gn/T//ccrD3Rdr.s 			page 151


 5360              	.LBB1390:
 5361              	.LBB1376:
 5362              	.LBB1370:
 254:../../../lib/pd2dsy/libdaisy/src/dev/oled_ssd130x.h ****             return;
 5363              		.loc 3 254 9 view .LVU1254
 5364 039c 97BB     		cbnz	r7, .L361
 5365 039e 8EBB     		cbnz	r6, .L361
 5366              	.LBE1370:
 5367              	.LBE1376:
 5368              	.LBE1390:
 230:../../../lib/pd2dsy/libdaisy/src/hid/disp/display.h ****         int_fast16_t error  = deltaX - deltaY;
 5369              		.loc 4 230 42 view .LVU1255
 5370 03a0 0126     		movs	r6, #1
 5371 03a2 0096     		str	r6, [sp]
 5372              	.LBB1391:
 5373              	.LBB1377:
 5374              	.LBB1371:
 257:../../../lib/pd2dsy/libdaisy/src/dev/oled_ssd130x.h ****         else
 5375              		.loc 3 257 28 view .LVU1256
 5376 03a4 E608     		lsrs	r6, r4, #3
 257:../../../lib/pd2dsy/libdaisy/src/dev/oled_ssd130x.h ****         else
 5377              		.loc 3 257 42 view .LVU1257
 5378 03a6 03EBC616 		add	r6, r3, r6, lsl #7
 5379 03aa 0644     		add	r6, r6, r0
 256:../../../lib/pd2dsy/libdaisy/src/dev/oled_ssd130x.h ****             buffer_[x + (y / 8) * width] |= (1 << (y % 8));
 5380              		.loc 3 256 9 view .LVU1258
 5381 03ac 002D     		cmp	r5, #0
 5382 03ae 7FF4E2AE 		bne	.L396
 5383              	.LVL419:
 5384              	.L324:
 5385              	.LBB1364:
 5386              	.LBI1364:
 252:../../../lib/pd2dsy/libdaisy/src/dev/oled_ssd130x.h ****     {
 5387              		.loc 3 252 10 is_stmt 1 view .LVU1259
 5388              	.LBB1365:
 259:../../../lib/pd2dsy/libdaisy/src/dev/oled_ssd130x.h ****     }
 5389              		.loc 3 259 49 is_stmt 0 view .LVU1260
 5390 03b2 0127     		movs	r7, #1
 259:../../../lib/pd2dsy/libdaisy/src/dev/oled_ssd130x.h ****     }
 5391              		.loc 3 259 55 view .LVU1261
 5392 03b4 04F0070C 		and	ip, r4, #7
 259:../../../lib/pd2dsy/libdaisy/src/dev/oled_ssd130x.h ****     }
 5393              		.loc 3 259 42 view .LVU1262
 5394 03b8 0395     		str	r5, [sp, #12]
 259:../../../lib/pd2dsy/libdaisy/src/dev/oled_ssd130x.h ****     }
 5395              		.loc 3 259 49 view .LVU1263
 5396 03ba 07FA0CFC 		lsl	ip, r7, ip
 259:../../../lib/pd2dsy/libdaisy/src/dev/oled_ssd130x.h ****     }
 5397              		.loc 3 259 42 view .LVU1264
 5398 03be 377D     		ldrb	r7, [r6, #20]	@ zero_extendqisi2
 5399 03c0 27EA0C07 		bic	r7, r7, ip
 5400 03c4 3775     		strb	r7, [r6, #20]
 5401 03c6 E3E6     		b	.L323
 5402              	.LVL420:
 5403              	.L345:
 259:../../../lib/pd2dsy/libdaisy/src/dev/oled_ssd130x.h ****     }
 5404              		.loc 3 259 42 view .LVU1265
ARM GAS  /var/folders/fb/yfxt3z4538j6z0vjt03w70vc0000gn/T//ccrD3Rdr.s 			page 152


 5405              	.LBE1365:
 5406              	.LBE1364:
 5407              	.LBE1371:
 5408              	.LBE1377:
 5409              	.LBE1391:
 5410              	.LBE1392:
 5411              	.LBE1442:
 5412              	.LBB1443:
 5413              	.LBB1437:
 5414              	.LBB1435:
 5415              	.LBB1426:
 5416              	.LBB1425:
 5417              	.LBB1423:
 5418              	.LBI1423:
 252:../../../lib/pd2dsy/libdaisy/src/dev/oled_ssd130x.h ****     {
 5419              		.loc 3 252 10 is_stmt 1 view .LVU1266
 5420              	.LBB1424:
 259:../../../lib/pd2dsy/libdaisy/src/dev/oled_ssd130x.h ****     }
 5421              		.loc 3 259 49 is_stmt 0 view .LVU1267
 5422 03c8 06FA07F7 		lsl	r7, r6, r7
 259:../../../lib/pd2dsy/libdaisy/src/dev/oled_ssd130x.h ****     }
 5423              		.loc 3 259 42 view .LVU1268
 5424 03cc 1E7D     		ldrb	r6, [r3, #20]	@ zero_extendqisi2
 5425 03ce 26EA0706 		bic	r6, r6, r7
 5426 03d2 1E75     		strb	r6, [r3, #20]
 5427 03d4 7FE7     		b	.L344
 5428              	.LVL421:
 5429              	.L335:
 259:../../../lib/pd2dsy/libdaisy/src/dev/oled_ssd130x.h ****     }
 5430              		.loc 3 259 42 view .LVU1269
 5431              	.LBE1424:
 5432              	.LBE1423:
 5433              	.LBE1425:
 5434              	.LBE1426:
 5435              	.LBE1435:
 5436              	.LBE1437:
 5437              	.LBE1443:
 5438              	.LBB1444:
 5439              	.LBB1417:
 5440              	.LBB1415:
 5441              	.LBB1405:
 5442              	.LBB1403:
 5443              	.LBB1400:
 5444              	.LBI1400:
 252:../../../lib/pd2dsy/libdaisy/src/dev/oled_ssd130x.h ****     {
 5445              		.loc 3 252 10 is_stmt 1 view .LVU1270
 5446              	.LBB1401:
 259:../../../lib/pd2dsy/libdaisy/src/dev/oled_ssd130x.h ****     }
 5447              		.loc 3 259 49 is_stmt 0 view .LVU1271
 5448 03d6 0127     		movs	r7, #1
 259:../../../lib/pd2dsy/libdaisy/src/dev/oled_ssd130x.h ****     }
 5449              		.loc 3 259 55 view .LVU1272
 5450 03d8 04F0070C 		and	ip, r4, #7
 259:../../../lib/pd2dsy/libdaisy/src/dev/oled_ssd130x.h ****     }
 5451              		.loc 3 259 49 view .LVU1273
 5452 03dc 07FA0CFC 		lsl	ip, r7, ip
 259:../../../lib/pd2dsy/libdaisy/src/dev/oled_ssd130x.h ****     }
ARM GAS  /var/folders/fb/yfxt3z4538j6z0vjt03w70vc0000gn/T//ccrD3Rdr.s 			page 153


 5453              		.loc 3 259 42 view .LVU1274
 5454 03e0 377D     		ldrb	r7, [r6, #20]	@ zero_extendqisi2
 5455 03e2 27EA0C07 		bic	r7, r7, ip
 5456 03e6 3775     		strb	r7, [r6, #20]
 5457 03e8 2DE7     		b	.L334
 5458              	.LVL422:
 5459              	.L313:
 259:../../../lib/pd2dsy/libdaisy/src/dev/oled_ssd130x.h ****     }
 5460              		.loc 3 259 42 view .LVU1275
 5461              	.LBE1401:
 5462              	.LBE1400:
 5463              	.LBE1403:
 5464              	.LBE1405:
 5465              	.LBE1415:
 5466              	.LBE1417:
 5467              	.LBE1444:
 5468              	.LBB1445:
 5469              	.LBB1357:
 5470              	.LBB1354:
 5471              	.LBB1342:
 5472              	.LBB1338:
 5473              	.LBB1333:
 5474              	.LBI1333:
 252:../../../lib/pd2dsy/libdaisy/src/dev/oled_ssd130x.h ****     {
 5475              		.loc 3 252 10 is_stmt 1 view .LVU1276
 5476              	.LBB1334:
 259:../../../lib/pd2dsy/libdaisy/src/dev/oled_ssd130x.h ****     }
 5477              		.loc 3 259 49 is_stmt 0 view .LVU1277
 5478 03ea 07FA0CFC 		lsl	ip, r7, ip
 259:../../../lib/pd2dsy/libdaisy/src/dev/oled_ssd130x.h ****     }
 5479              		.loc 3 259 42 view .LVU1278
 5480 03ee 377D     		ldrb	r7, [r6, #20]	@ zero_extendqisi2
 5481 03f0 0295     		str	r5, [sp, #8]
 5482 03f2 27EA0C07 		bic	r7, r7, ip
 5483 03f6 0095     		str	r5, [sp]
 5484 03f8 3775     		strb	r7, [r6, #20]
 5485 03fa 6CE6     		b	.L312
 5486              	.LVL423:
 5487              	.L357:
 259:../../../lib/pd2dsy/libdaisy/src/dev/oled_ssd130x.h ****     }
 5488              		.loc 3 259 42 view .LVU1279
 5489              	.LBE1334:
 5490              	.LBE1333:
 5491              	.LBE1338:
 5492              	.LBE1342:
 5493              	.LBE1354:
 5494              	.LBE1357:
 5495              	.LBE1445:
 5496              	.LBB1446:
 5497              	.LBB1393:
 230:../../../lib/pd2dsy/libdaisy/src/hid/disp/display.h ****         int_fast16_t error  = deltaX - deltaY;
 5498              		.loc 4 230 42 view .LVU1280
 5499 03fc 4FF0FF36 		mov	r6, #-1
 5500 0400 0096     		str	r6, [sp]
 5501 0402 C5E6     		b	.L323
 5502              	.LVL424:
 5503              	.L361:
ARM GAS  /var/folders/fb/yfxt3z4538j6z0vjt03w70vc0000gn/T//ccrD3Rdr.s 			page 154


 230:../../../lib/pd2dsy/libdaisy/src/hid/disp/display.h ****         int_fast16_t error  = deltaX - deltaY;
 5504              		.loc 4 230 42 view .LVU1281
 5505 0404 0126     		movs	r6, #1
 5506 0406 0096     		str	r6, [sp]
 5507 0408 C5E6     		b	.L326
 5508              	.LVL425:
 5509              	.L394:
 230:../../../lib/pd2dsy/libdaisy/src/hid/disp/display.h ****         int_fast16_t error  = deltaX - deltaY;
 5510              		.loc 4 230 42 view .LVU1282
 5511              	.LBE1393:
 5512              	.LBE1446:
 5513              	.LBB1447:
 5514              	.LBB1358:
 239:../../../lib/pd2dsy/libdaisy/src/hid/disp/display.h ****         {
 5515              		.loc 4 239 19 view .LVU1283
 5516 040a 0126     		movs	r6, #1
 5517 040c 0496     		str	r6, [sp, #16]
 5518 040e 90E6     		b	.L314
 5519              	.LVL426:
 5520              	.L395:
 239:../../../lib/pd2dsy/libdaisy/src/hid/disp/display.h ****         {
 5521              		.loc 4 239 19 view .LVU1284
 5522              	.LBE1358:
 5523              	.LBE1447:
 5524              	.LBB1448:
 5525              	.LBB1394:
 239:../../../lib/pd2dsy/libdaisy/src/hid/disp/display.h ****         {
 5526              		.loc 4 239 33 view .LVU1285
 5527 0410 0126     		movs	r6, #1
 5528 0412 0196     		str	r6, [sp, #4]
 5529 0414 EDE6     		b	.L325
 5530              	.LBE1394:
 5531              	.LBE1448:
 5532              	.LBE1472:
 5533              		.cfi_endproc
 5534              	.LFE3077:
 5536 0416 00BF     		.section	.text._Z11LoopWriteInR27Heavy_grillosychicharrasosc,"ax",%progbits
 5537              		.align	1
 5538              		.p2align 2,,3
 5539              		.global	_Z11LoopWriteInR27Heavy_grillosychicharrasosc
 5540              		.syntax unified
 5541              		.thumb
 5542              		.thumb_func
 5544              	_Z11LoopWriteInR27Heavy_grillosychicharrasosc:
 5545              	.LVL427:
 5546              	.LFB3006:
  86:HeavyDaisy_grillosychicharrasosc.cpp **** 
  87:HeavyDaisy_grillosychicharrasosc.cpp **** /** Sends signals from the Daisy hardware to the PD patch via the receive objects during the main l
  88:HeavyDaisy_grillosychicharrasosc.cpp ****  * 
  89:HeavyDaisy_grillosychicharrasosc.cpp ****  */
  90:HeavyDaisy_grillosychicharrasosc.cpp **** void LoopWriteIn(Heavy_grillosychicharrasosc& hv)
  91:HeavyDaisy_grillosychicharrasosc.cpp **** {
 5547              		.loc 1 91 1 is_stmt 1 view -0
 5548              		.cfi_startproc
 5549              		@ args = 0, pretend = 0, frame = 0
 5550              		@ frame_needed = 0, uses_anonymous_args = 0
 5551              		@ link register save eliminated.
ARM GAS  /var/folders/fb/yfxt3z4538j6z0vjt03w70vc0000gn/T//ccrD3Rdr.s 			page 155


  92:HeavyDaisy_grillosychicharrasosc.cpp **** }
 5552              		.loc 1 92 1 is_stmt 0 view .LVU1287
 5553 0000 7047     		bx	lr
 5554              		.cfi_endproc
 5555              	.LFE3006:
 5557 0002 00BF     		.section	.text._Z15CallbackWriteInR27Heavy_grillosychicharrasosc,"ax",%progbits
 5558              		.align	1
 5559              		.p2align 2,,3
 5560              		.global	_Z15CallbackWriteInR27Heavy_grillosychicharrasosc
 5561              		.syntax unified
 5562              		.thumb
 5563              		.thumb_func
 5565              	_Z15CallbackWriteInR27Heavy_grillosychicharrasosc:
 5566              	.LVL428:
 5567              	.LFB3007:
  93:HeavyDaisy_grillosychicharrasosc.cpp **** 
  94:HeavyDaisy_grillosychicharrasosc.cpp **** /** Sends signals from the Daisy hardware to the PD patch via the receive objects during the audio 
  95:HeavyDaisy_grillosychicharrasosc.cpp ****  * 
  96:HeavyDaisy_grillosychicharrasosc.cpp ****  */
  97:HeavyDaisy_grillosychicharrasosc.cpp **** void CallbackWriteIn(Heavy_grillosychicharrasosc& hv)
  98:HeavyDaisy_grillosychicharrasosc.cpp **** {
 5568              		.loc 1 98 1 is_stmt 1 view -0
 5569              		.cfi_startproc
 5570              		@ args = 0, pretend = 0, frame = 0
 5571              		@ frame_needed = 0, uses_anonymous_args = 0
 5572              		@ link register save eliminated.
  99:HeavyDaisy_grillosychicharrasosc.cpp ****  
 100:HeavyDaisy_grillosychicharrasosc.cpp ****   if ((hardware.sw1.RisingEdge()?1.f:0.f))
 5573              		.loc 1 100 3 view .LVU1289
 5574              	.LBB1481:
 5575              	.LBI1481:
  43:../../../lib/pd2dsy/libdaisy/src/hid/switch.h **** 
  44:../../../lib/pd2dsy/libdaisy/src/hid/switch.h ****     /** 
  45:../../../lib/pd2dsy/libdaisy/src/hid/switch.h ****     Initializes the switch object with a given port/pin combo.
  46:../../../lib/pd2dsy/libdaisy/src/hid/switch.h ****     \param pin port/pin object to tell the switch which hardware pin to use.
  47:../../../lib/pd2dsy/libdaisy/src/hid/switch.h ****     \param update_rate Does nothing. Backwards compatibility until next breaking update.
  48:../../../lib/pd2dsy/libdaisy/src/hid/switch.h ****     \param t switch type -- Default: TYPE_MOMENTARY
  49:../../../lib/pd2dsy/libdaisy/src/hid/switch.h ****     \param pol switch polarity -- Default: POLARITY_INVERTED
  50:../../../lib/pd2dsy/libdaisy/src/hid/switch.h ****     \param pu switch pull up/down -- Default: PULL_UP
  51:../../../lib/pd2dsy/libdaisy/src/hid/switch.h ****     */
  52:../../../lib/pd2dsy/libdaisy/src/hid/switch.h ****     void
  53:../../../lib/pd2dsy/libdaisy/src/hid/switch.h ****     Init(dsy_gpio_pin pin, float update_rate, Type t, Polarity pol, Pull pu);
  54:../../../lib/pd2dsy/libdaisy/src/hid/switch.h **** 
  55:../../../lib/pd2dsy/libdaisy/src/hid/switch.h ****     /**
  56:../../../lib/pd2dsy/libdaisy/src/hid/switch.h ****        Simplified Init.
  57:../../../lib/pd2dsy/libdaisy/src/hid/switch.h ****        \param pin port/pin object to tell the switch which hardware pin to use.
  58:../../../lib/pd2dsy/libdaisy/src/hid/switch.h ****        \param update_rate Left for backwards compatibility until next breaking change.
  59:../../../lib/pd2dsy/libdaisy/src/hid/switch.h ****     */
  60:../../../lib/pd2dsy/libdaisy/src/hid/switch.h ****     void Init(dsy_gpio_pin pin, float update_rate = 0.f);
  61:../../../lib/pd2dsy/libdaisy/src/hid/switch.h **** 
  62:../../../lib/pd2dsy/libdaisy/src/hid/switch.h ****     /** 
  63:../../../lib/pd2dsy/libdaisy/src/hid/switch.h ****     Called at update_rate to debounce and handle timing for the switch.
  64:../../../lib/pd2dsy/libdaisy/src/hid/switch.h ****     In order for events not to be missed, its important that the Edge/Pressed checks
  65:../../../lib/pd2dsy/libdaisy/src/hid/switch.h ****     be made at the same rate as the debounce function is being called.
  66:../../../lib/pd2dsy/libdaisy/src/hid/switch.h ****     */
  67:../../../lib/pd2dsy/libdaisy/src/hid/switch.h ****     void Debounce();
  68:../../../lib/pd2dsy/libdaisy/src/hid/switch.h **** 
ARM GAS  /var/folders/fb/yfxt3z4538j6z0vjt03w70vc0000gn/T//ccrD3Rdr.s 			page 156


  69:../../../lib/pd2dsy/libdaisy/src/hid/switch.h ****     /** \return true if a button was just pressed. */
  70:../../../lib/pd2dsy/libdaisy/src/hid/switch.h ****     inline bool RisingEdge() const { return updated_ ? state_ == 0x7f : false; }
 5576              		.loc 6 70 17 view .LVU1290
 5577              	.LBB1482:
 5578              		.loc 6 70 38 view .LVU1291
 5579              		.loc 6 70 45 is_stmt 0 view .LVU1292
 5580 0000 064A     		ldr	r2, .L404
 5581              		.loc 6 70 54 view .LVU1293
 5582 0002 92F8C810 		ldrb	r1, [r2, #200]	@ zero_extendqisi2
 5583 0006 39B1     		cbz	r1, .L398
 5584              	.LVL429:
 5585              		.loc 6 70 54 view .LVU1294
 5586              	.LBE1482:
 5587              	.LBE1481:
 5588              		.loc 1 100 33 view .LVU1295
 5589 0008 92F8CE20 		ldrb	r2, [r2, #206]	@ zero_extendqisi2
 5590 000c 7F2A     		cmp	r2, #127
 5591 000e 03D1     		bne	.L398
 5592              	.LVL430:
 5593              	.LBB1483:
 5594              	.LBI1483:
  97:HeavyDaisy_grillosychicharrasosc.cpp **** {
 5595              		.loc 1 97 6 is_stmt 1 view .LVU1296
 5596              	.LBB1484:
 101:HeavyDaisy_grillosychicharrasosc.cpp ****     hv.sendBangToReceiver((uint32_t) HV_GRILLOSYCHICHARRASOSC_PARAM_IN_BUTTON1); 
 5597              		.loc 1 101 5 view .LVU1297
 5598              		.loc 1 101 79 is_stmt 0 view .LVU1298
 5599 0010 0368     		ldr	r3, [r0]
 5600              		.loc 1 101 26 view .LVU1299
 5601 0012 0349     		ldr	r1, .L404+4
 5602 0014 9B6D     		ldr	r3, [r3, #88]
 5603 0016 1847     		bx	r3
 5604              	.LVL431:
 5605              	.L398:
 5606              		.loc 1 101 26 view .LVU1300
 5607              	.LBE1484:
 5608              	.LBE1483:
 102:HeavyDaisy_grillosychicharrasosc.cpp **** }
 5609              		.loc 1 102 1 view .LVU1301
 5610 0018 7047     		bx	lr
 5611              	.L405:
 5612 001a 00BF     		.align	2
 5613              	.L404:
 5614 001c 00000000 		.word	.LANCHOR0
 5615 0020 B6C52DFB 		.word	-80886346
 5616              		.cfi_endproc
 5617              	.LFE3007:
 5619              		.section	.text._Z12LoopWriteOutv,"ax",%progbits
 5620              		.align	1
 5621              		.p2align 2,,3
 5622              		.global	_Z12LoopWriteOutv
 5623              		.syntax unified
 5624              		.thumb
 5625              		.thumb_func
 5627              	_Z12LoopWriteOutv:
 5628              	.LFB3092:
 5629              		.cfi_startproc
ARM GAS  /var/folders/fb/yfxt3z4538j6z0vjt03w70vc0000gn/T//ccrD3Rdr.s 			page 157


 5630              		@ args = 0, pretend = 0, frame = 0
 5631              		@ frame_needed = 0, uses_anonymous_args = 0
 5632              		@ link register save eliminated.
 5633 0000 7047     		bx	lr
 5634              		.cfi_endproc
 5635              	.LFE3092:
 5637 0002 00BF     		.section	.text._Z16CallbackWriteOutv,"ax",%progbits
 5638              		.align	1
 5639              		.p2align 2,,3
 5640              		.global	_Z16CallbackWriteOutv
 5641              		.syntax unified
 5642              		.thumb
 5643              		.thumb_func
 5645              	_Z16CallbackWriteOutv:
 5646              	.LFB3009:
 103:HeavyDaisy_grillosychicharrasosc.cpp **** 
 104:HeavyDaisy_grillosychicharrasosc.cpp **** /** Writes the values sent to PD's receive objects to the Daisy hardware during the main loop
 105:HeavyDaisy_grillosychicharrasosc.cpp ****  * 
 106:HeavyDaisy_grillosychicharrasosc.cpp ****  */
 107:HeavyDaisy_grillosychicharrasosc.cpp **** void LoopWriteOut() {
 108:HeavyDaisy_grillosychicharrasosc.cpp **** }
 109:HeavyDaisy_grillosychicharrasosc.cpp **** 
 110:HeavyDaisy_grillosychicharrasosc.cpp **** /** Writes the values sent to PD's receive objects to the Daisy hardware during the audio callback
 111:HeavyDaisy_grillosychicharrasosc.cpp ****  * 
 112:HeavyDaisy_grillosychicharrasosc.cpp ****  */
 113:HeavyDaisy_grillosychicharrasosc.cpp **** void CallbackWriteOut() {
 5647              		.loc 1 113 25 is_stmt 1 view -0
 5648              		.cfi_startproc
 5649              		@ args = 0, pretend = 0, frame = 0
 5650              		@ frame_needed = 0, uses_anonymous_args = 0
 5651              		@ link register save eliminated.
 114:HeavyDaisy_grillosychicharrasosc.cpp **** }
 5652              		.loc 1 114 1 is_stmt 0 view .LVU1303
 5653 0000 7047     		bx	lr
 5654              		.cfi_endproc
 5655              	.LFE3009:
 5657 0002 00BF     		.section	.text._Z7Displayv,"ax",%progbits
 5658              		.align	1
 5659              		.p2align 2,,3
 5660              		.global	_Z7Displayv
 5661              		.syntax unified
 5662              		.thumb
 5663              		.thumb_func
 5665              	_Z7Displayv:
 5666              	.LFB3094:
 5667              		.cfi_startproc
 5668              		@ args = 0, pretend = 0, frame = 0
 5669              		@ frame_needed = 0, uses_anonymous_args = 0
 5670              		@ link register save eliminated.
 5671 0000 7047     		bx	lr
 5672              		.cfi_endproc
 5673              	.LFE3094:
 5675 0002 00BF     		.section	.text._ZN5daisy13SSD130xDriverILj128ELj64ENS_24SSD130x4WireSpiTransportEE4InitENS2_6Confi
 5676              		.align	1
 5677              		.p2align 2,,3
 5678              		.weak	_ZN5daisy13SSD130xDriverILj128ELj64ENS_24SSD130x4WireSpiTransportEE4InitENS2_6ConfigE
 5679              		.syntax unified
ARM GAS  /var/folders/fb/yfxt3z4538j6z0vjt03w70vc0000gn/T//ccrD3Rdr.s 			page 158


 5680              		.thumb
 5681              		.thumb_func
 5683              	_ZN5daisy13SSD130xDriverILj128ELj64ENS_24SSD130x4WireSpiTransportEE4InitENS2_6ConfigE:
 5684              	.LVL432:
 5685              	.LFB3058:
 153:../../../lib/pd2dsy/libdaisy/src/dev/oled_ssd130x.h ****     {
 5686              		.loc 3 153 10 is_stmt 1 view -0
 5687              		.cfi_startproc
 5688              		@ args = 48, pretend = 16, frame = 8
 5689              		@ frame_needed = 0, uses_anonymous_args = 0
 153:../../../lib/pd2dsy/libdaisy/src/dev/oled_ssd130x.h ****     {
 5690              		.loc 3 153 10 is_stmt 0 view .LVU1305
 5691 0000 84B0     		sub	sp, sp, #16
 5692              		.cfi_def_cfa_offset 16
 5693 0002 2DE9F041 		push	{r4, r5, r6, r7, r8, lr}
 5694              		.cfi_def_cfa_offset 40
 5695              		.cfi_offset 4, -40
 5696              		.cfi_offset 5, -36
 5697              		.cfi_offset 6, -32
 5698              		.cfi_offset 7, -28
 5699              		.cfi_offset 8, -24
 5700              		.cfi_offset 14, -20
 5701 0006 82B0     		sub	sp, sp, #8
 5702              		.cfi_def_cfa_offset 48
 5703              	.LBB1533:
 5704              	.LBB1534:
 106:../../../lib/pd2dsy/libdaisy/src/dev/oled_ssd130x.h ****         pin_dc_.pin  = config.pin_config.dc;
 5705              		.loc 3 106 22 view .LVU1306
 5706 0008 0125     		movs	r5, #1
 107:../../../lib/pd2dsy/libdaisy/src/dev/oled_ssd130x.h ****         dsy_gpio_init(&pin_dc_);
 5707              		.loc 3 107 22 view .LVU1307
 5708 000a 0646     		mov	r6, r0
 5709              	.LBE1534:
 5710              	.LBE1533:
 153:../../../lib/pd2dsy/libdaisy/src/dev/oled_ssd130x.h ****     {
 5711              		.loc 3 153 10 view .LVU1308
 5712 000c 0446     		mov	r4, r0
 5713              	.LVL433:
 5714              	.LBB1538:
 5715              	.LBI1533:
 103:../../../lib/pd2dsy/libdaisy/src/dev/oled_ssd130x.h ****     {
 5716              		.loc 3 103 10 is_stmt 1 view .LVU1309
 5717              	.LBB1535:
 106:../../../lib/pd2dsy/libdaisy/src/dev/oled_ssd130x.h ****         pin_dc_.pin  = config.pin_config.dc;
 5718              		.loc 3 106 9 view .LVU1310
 5719              	.LBE1535:
 5720              	.LBE1538:
 153:../../../lib/pd2dsy/libdaisy/src/dev/oled_ssd130x.h ****     {
 5721              		.loc 3 153 10 is_stmt 0 view .LVU1311
 5722 000e 0DF12408 		add	r8, sp, #36
 5723              	.LBB1539:
 5724              	.LBB1536:
 106:../../../lib/pd2dsy/libdaisy/src/dev/oled_ssd130x.h ****         pin_dc_.pin  = config.pin_config.dc;
 5725              		.loc 3 106 22 view .LVU1312
 5726 0012 8572     		strb	r5, [r0, #10]
 107:../../../lib/pd2dsy/libdaisy/src/dev/oled_ssd130x.h ****         dsy_gpio_init(&pin_dc_);
 5727              		.loc 3 107 9 is_stmt 1 view .LVU1313
ARM GAS  /var/folders/fb/yfxt3z4538j6z0vjt03w70vc0000gn/T//ccrD3Rdr.s 			page 159


 110:../../../lib/pd2dsy/libdaisy/src/dev/oled_ssd130x.h ****         dsy_gpio_init(&pin_reset_);
 5728              		.loc 3 110 25 is_stmt 0 view .LVU1314
 5729 0014 2746     		mov	r7, r4
 5730              	.LBE1536:
 5731              	.LBE1539:
 153:../../../lib/pd2dsy/libdaisy/src/dev/oled_ssd130x.h ****     {
 5732              		.loc 3 153 10 view .LVU1315
 5733 0016 88E80E00 		stm	r8, {r1, r2, r3}
 5734              	.LBB1540:
 5735              	.LBB1537:
 107:../../../lib/pd2dsy/libdaisy/src/dev/oled_ssd130x.h ****         dsy_gpio_init(&pin_dc_);
 5736              		.loc 3 107 22 view .LVU1316
 5737 001a BDF84C30 		ldrh	r3, [sp, #76]
 5738 001e 26F8083F 		strh	r3, [r6, #8]!	@ movhi
 108:../../../lib/pd2dsy/libdaisy/src/dev/oled_ssd130x.h ****         pin_reset_.mode = DSY_GPIO_MODE_OUTPUT_PP;
 5739              		.loc 3 108 9 is_stmt 1 view .LVU1317
 108:../../../lib/pd2dsy/libdaisy/src/dev/oled_ssd130x.h ****         pin_reset_.mode = DSY_GPIO_MODE_OUTPUT_PP;
 5740              		.loc 3 108 22 is_stmt 0 view .LVU1318
 5741 0022 3046     		mov	r0, r6
 5742              	.LVL434:
 108:../../../lib/pd2dsy/libdaisy/src/dev/oled_ssd130x.h ****         pin_reset_.mode = DSY_GPIO_MODE_OUTPUT_PP;
 5743              		.loc 3 108 22 view .LVU1319
 5744 0024 FFF7FEFF 		bl	dsy_gpio_init
 5745              	.LVL435:
 109:../../../lib/pd2dsy/libdaisy/src/dev/oled_ssd130x.h ****         pin_reset_.pin  = config.pin_config.reset;
 5746              		.loc 3 109 9 is_stmt 1 view .LVU1320
 110:../../../lib/pd2dsy/libdaisy/src/dev/oled_ssd130x.h ****         dsy_gpio_init(&pin_reset_);
 5747              		.loc 3 110 25 is_stmt 0 view .LVU1321
 5748 0028 BDF84E30 		ldrh	r3, [sp, #78]
 109:../../../lib/pd2dsy/libdaisy/src/dev/oled_ssd130x.h ****         pin_reset_.pin  = config.pin_config.reset;
 5749              		.loc 3 109 25 view .LVU1322
 5750 002c A571     		strb	r5, [r4, #6]
 110:../../../lib/pd2dsy/libdaisy/src/dev/oled_ssd130x.h ****         dsy_gpio_init(&pin_reset_);
 5751              		.loc 3 110 9 is_stmt 1 view .LVU1323
 110:../../../lib/pd2dsy/libdaisy/src/dev/oled_ssd130x.h ****         dsy_gpio_init(&pin_reset_);
 5752              		.loc 3 110 25 is_stmt 0 view .LVU1324
 5753 002e 27F8043F 		strh	r3, [r7, #4]!	@ movhi
 111:../../../lib/pd2dsy/libdaisy/src/dev/oled_ssd130x.h **** 
 5754              		.loc 3 111 9 is_stmt 1 view .LVU1325
 111:../../../lib/pd2dsy/libdaisy/src/dev/oled_ssd130x.h **** 
 5755              		.loc 3 111 22 is_stmt 0 view .LVU1326
 5756 0032 3846     		mov	r0, r7
 5757 0034 FFF7FEFF 		bl	dsy_gpio_init
 5758              	.LVL436:
 114:../../../lib/pd2dsy/libdaisy/src/dev/oled_ssd130x.h **** 
 5759              		.loc 3 114 9 is_stmt 1 view .LVU1327
 114:../../../lib/pd2dsy/libdaisy/src/dev/oled_ssd130x.h **** 
 5760              		.loc 3 114 18 is_stmt 0 view .LVU1328
 5761 0038 4146     		mov	r1, r8
 5762 003a 2046     		mov	r0, r4
 5763 003c FFF7FEFF 		bl	_ZN5daisy9SpiHandle4InitERKNS0_6ConfigE
 5764              	.LVL437:
 117:../../../lib/pd2dsy/libdaisy/src/dev/oled_ssd130x.h ****         System::Delay(10);
 5765              		.loc 3 117 9 is_stmt 1 view .LVU1329
 117:../../../lib/pd2dsy/libdaisy/src/dev/oled_ssd130x.h ****         System::Delay(10);
 5766              		.loc 3 117 23 is_stmt 0 view .LVU1330
 5767 0040 0021     		movs	r1, #0
ARM GAS  /var/folders/fb/yfxt3z4538j6z0vjt03w70vc0000gn/T//ccrD3Rdr.s 			page 160


 5768 0042 3846     		mov	r0, r7
 5769 0044 FFF7FEFF 		bl	dsy_gpio_write
 5770              	.LVL438:
 118:../../../lib/pd2dsy/libdaisy/src/dev/oled_ssd130x.h ****         dsy_gpio_write(&pin_reset_, 1);
 5771              		.loc 3 118 9 is_stmt 1 view .LVU1331
 118:../../../lib/pd2dsy/libdaisy/src/dev/oled_ssd130x.h ****         dsy_gpio_write(&pin_reset_, 1);
 5772              		.loc 3 118 22 is_stmt 0 view .LVU1332
 5773 0048 0A20     		movs	r0, #10
 5774 004a FFF7FEFF 		bl	_ZN5daisy6System5DelayEm
 5775              	.LVL439:
 119:../../../lib/pd2dsy/libdaisy/src/dev/oled_ssd130x.h ****         System::Delay(10);
 5776              		.loc 3 119 9 is_stmt 1 view .LVU1333
 119:../../../lib/pd2dsy/libdaisy/src/dev/oled_ssd130x.h ****         System::Delay(10);
 5777              		.loc 3 119 23 is_stmt 0 view .LVU1334
 5778 004e 2946     		mov	r1, r5
 5779 0050 3846     		mov	r0, r7
 5780 0052 FFF7FEFF 		bl	dsy_gpio_write
 5781              	.LVL440:
 120:../../../lib/pd2dsy/libdaisy/src/dev/oled_ssd130x.h ****     };
 5782              		.loc 3 120 9 is_stmt 1 view .LVU1335
 120:../../../lib/pd2dsy/libdaisy/src/dev/oled_ssd130x.h ****     };
 5783              		.loc 3 120 22 is_stmt 0 view .LVU1336
 5784 0056 0A20     		movs	r0, #10
 5785 0058 FFF7FEFF 		bl	_ZN5daisy6System5DelayEm
 5786              	.LVL441:
 120:../../../lib/pd2dsy/libdaisy/src/dev/oled_ssd130x.h ****     };
 5787              		.loc 3 120 22 view .LVU1337
 5788 005c AE23     		movs	r3, #174
 5789              	.LBE1537:
 5790              	.LBE1540:
 5791              	.LBB1541:
 5792              	.LBB1542:
 124:../../../lib/pd2dsy/libdaisy/src/dev/oled_ssd130x.h ****         spi_.BlockingTransmit(&cmd, 1);
 5793              		.loc 3 124 23 view .LVU1338
 5794 005e 3046     		mov	r0, r6
 5795 0060 0021     		movs	r1, #0
 5796 0062 8DF80730 		strb	r3, [sp, #7]
 5797              	.LVL442:
 124:../../../lib/pd2dsy/libdaisy/src/dev/oled_ssd130x.h ****         spi_.BlockingTransmit(&cmd, 1);
 5798              		.loc 3 124 23 view .LVU1339
 5799              	.LBE1542:
 5800              	.LBI1541:
 122:../../../lib/pd2dsy/libdaisy/src/dev/oled_ssd130x.h ****     {
 5801              		.loc 3 122 10 is_stmt 1 view .LVU1340
 5802              	.LBB1543:
 124:../../../lib/pd2dsy/libdaisy/src/dev/oled_ssd130x.h ****         spi_.BlockingTransmit(&cmd, 1);
 5803              		.loc 3 124 9 view .LVU1341
 124:../../../lib/pd2dsy/libdaisy/src/dev/oled_ssd130x.h ****         spi_.BlockingTransmit(&cmd, 1);
 5804              		.loc 3 124 23 is_stmt 0 view .LVU1342
 5805 0066 FFF7FEFF 		bl	dsy_gpio_write
 5806              	.LVL443:
 125:../../../lib/pd2dsy/libdaisy/src/dev/oled_ssd130x.h ****     };
 5807              		.loc 3 125 9 is_stmt 1 view .LVU1343
 125:../../../lib/pd2dsy/libdaisy/src/dev/oled_ssd130x.h ****     };
 5808              		.loc 3 125 30 is_stmt 0 view .LVU1344
 5809 006a 2A46     		mov	r2, r5
 5810 006c 0DF10701 		add	r1, sp, #7
ARM GAS  /var/folders/fb/yfxt3z4538j6z0vjt03w70vc0000gn/T//ccrD3Rdr.s 			page 161


 5811 0070 6423     		movs	r3, #100
 5812 0072 2046     		mov	r0, r4
 5813 0074 FFF7FEFF 		bl	_ZN5daisy9SpiHandle16BlockingTransmitEPhjm
 5814              	.LVL444:
 125:../../../lib/pd2dsy/libdaisy/src/dev/oled_ssd130x.h ****     };
 5815              		.loc 3 125 30 view .LVU1345
 5816 0078 D523     		movs	r3, #213
 5817              	.LBE1543:
 5818              	.LBE1541:
 5819              	.LBB1544:
 5820              	.LBB1545:
 124:../../../lib/pd2dsy/libdaisy/src/dev/oled_ssd130x.h ****         spi_.BlockingTransmit(&cmd, 1);
 5821              		.loc 3 124 23 view .LVU1346
 5822 007a 3046     		mov	r0, r6
 5823 007c 0021     		movs	r1, #0
 5824 007e 8DF80730 		strb	r3, [sp, #7]
 5825              	.LVL445:
 124:../../../lib/pd2dsy/libdaisy/src/dev/oled_ssd130x.h ****         spi_.BlockingTransmit(&cmd, 1);
 5826              		.loc 3 124 23 view .LVU1347
 5827              	.LBE1545:
 5828              	.LBI1544:
 122:../../../lib/pd2dsy/libdaisy/src/dev/oled_ssd130x.h ****     {
 5829              		.loc 3 122 10 is_stmt 1 view .LVU1348
 5830              	.LBB1546:
 124:../../../lib/pd2dsy/libdaisy/src/dev/oled_ssd130x.h ****         spi_.BlockingTransmit(&cmd, 1);
 5831              		.loc 3 124 9 view .LVU1349
 124:../../../lib/pd2dsy/libdaisy/src/dev/oled_ssd130x.h ****         spi_.BlockingTransmit(&cmd, 1);
 5832              		.loc 3 124 23 is_stmt 0 view .LVU1350
 5833 0082 FFF7FEFF 		bl	dsy_gpio_write
 5834              	.LVL446:
 125:../../../lib/pd2dsy/libdaisy/src/dev/oled_ssd130x.h ****     };
 5835              		.loc 3 125 9 is_stmt 1 view .LVU1351
 125:../../../lib/pd2dsy/libdaisy/src/dev/oled_ssd130x.h ****     };
 5836              		.loc 3 125 30 is_stmt 0 view .LVU1352
 5837 0086 2A46     		mov	r2, r5
 5838 0088 0DF10701 		add	r1, sp, #7
 5839 008c 6423     		movs	r3, #100
 5840 008e 2046     		mov	r0, r4
 5841 0090 FFF7FEFF 		bl	_ZN5daisy9SpiHandle16BlockingTransmitEPhjm
 5842              	.LVL447:
 125:../../../lib/pd2dsy/libdaisy/src/dev/oled_ssd130x.h ****     };
 5843              		.loc 3 125 30 view .LVU1353
 5844 0094 8023     		movs	r3, #128
 5845              	.LBE1546:
 5846              	.LBE1544:
 5847              	.LBB1547:
 5848              	.LBB1548:
 124:../../../lib/pd2dsy/libdaisy/src/dev/oled_ssd130x.h ****         spi_.BlockingTransmit(&cmd, 1);
 5849              		.loc 3 124 23 view .LVU1354
 5850 0096 3046     		mov	r0, r6
 5851 0098 0021     		movs	r1, #0
 5852 009a 8DF80730 		strb	r3, [sp, #7]
 5853              	.LVL448:
 124:../../../lib/pd2dsy/libdaisy/src/dev/oled_ssd130x.h ****         spi_.BlockingTransmit(&cmd, 1);
 5854              		.loc 3 124 23 view .LVU1355
 5855              	.LBE1548:
 5856              	.LBI1547:
ARM GAS  /var/folders/fb/yfxt3z4538j6z0vjt03w70vc0000gn/T//ccrD3Rdr.s 			page 162


 122:../../../lib/pd2dsy/libdaisy/src/dev/oled_ssd130x.h ****     {
 5857              		.loc 3 122 10 is_stmt 1 view .LVU1356
 5858              	.LBB1549:
 124:../../../lib/pd2dsy/libdaisy/src/dev/oled_ssd130x.h ****         spi_.BlockingTransmit(&cmd, 1);
 5859              		.loc 3 124 9 view .LVU1357
 124:../../../lib/pd2dsy/libdaisy/src/dev/oled_ssd130x.h ****         spi_.BlockingTransmit(&cmd, 1);
 5860              		.loc 3 124 23 is_stmt 0 view .LVU1358
 5861 009e FFF7FEFF 		bl	dsy_gpio_write
 5862              	.LVL449:
 125:../../../lib/pd2dsy/libdaisy/src/dev/oled_ssd130x.h ****     };
 5863              		.loc 3 125 9 is_stmt 1 view .LVU1359
 125:../../../lib/pd2dsy/libdaisy/src/dev/oled_ssd130x.h ****     };
 5864              		.loc 3 125 30 is_stmt 0 view .LVU1360
 5865 00a2 2A46     		mov	r2, r5
 5866 00a4 0DF10701 		add	r1, sp, #7
 5867 00a8 6423     		movs	r3, #100
 5868 00aa 2046     		mov	r0, r4
 5869 00ac FFF7FEFF 		bl	_ZN5daisy9SpiHandle16BlockingTransmitEPhjm
 5870              	.LVL450:
 125:../../../lib/pd2dsy/libdaisy/src/dev/oled_ssd130x.h ****     };
 5871              		.loc 3 125 30 view .LVU1361
 5872 00b0 A823     		movs	r3, #168
 5873              	.LBE1549:
 5874              	.LBE1547:
 5875              	.LBB1550:
 5876              	.LBB1551:
 124:../../../lib/pd2dsy/libdaisy/src/dev/oled_ssd130x.h ****         spi_.BlockingTransmit(&cmd, 1);
 5877              		.loc 3 124 23 view .LVU1362
 5878 00b2 3046     		mov	r0, r6
 5879 00b4 0021     		movs	r1, #0
 5880 00b6 8DF80730 		strb	r3, [sp, #7]
 5881              	.LVL451:
 124:../../../lib/pd2dsy/libdaisy/src/dev/oled_ssd130x.h ****         spi_.BlockingTransmit(&cmd, 1);
 5882              		.loc 3 124 23 view .LVU1363
 5883              	.LBE1551:
 5884              	.LBI1550:
 122:../../../lib/pd2dsy/libdaisy/src/dev/oled_ssd130x.h ****     {
 5885              		.loc 3 122 10 is_stmt 1 view .LVU1364
 5886              	.LBB1552:
 124:../../../lib/pd2dsy/libdaisy/src/dev/oled_ssd130x.h ****         spi_.BlockingTransmit(&cmd, 1);
 5887              		.loc 3 124 9 view .LVU1365
 124:../../../lib/pd2dsy/libdaisy/src/dev/oled_ssd130x.h ****         spi_.BlockingTransmit(&cmd, 1);
 5888              		.loc 3 124 23 is_stmt 0 view .LVU1366
 5889 00ba FFF7FEFF 		bl	dsy_gpio_write
 5890              	.LVL452:
 125:../../../lib/pd2dsy/libdaisy/src/dev/oled_ssd130x.h ****     };
 5891              		.loc 3 125 9 is_stmt 1 view .LVU1367
 125:../../../lib/pd2dsy/libdaisy/src/dev/oled_ssd130x.h ****     };
 5892              		.loc 3 125 30 is_stmt 0 view .LVU1368
 5893 00be 2A46     		mov	r2, r5
 5894 00c0 0DF10701 		add	r1, sp, #7
 5895 00c4 6423     		movs	r3, #100
 5896 00c6 2046     		mov	r0, r4
 5897 00c8 FFF7FEFF 		bl	_ZN5daisy9SpiHandle16BlockingTransmitEPhjm
 5898              	.LVL453:
 125:../../../lib/pd2dsy/libdaisy/src/dev/oled_ssd130x.h ****     };
 5899              		.loc 3 125 30 view .LVU1369
ARM GAS  /var/folders/fb/yfxt3z4538j6z0vjt03w70vc0000gn/T//ccrD3Rdr.s 			page 163


 5900 00cc 3F23     		movs	r3, #63
 5901              	.LBE1552:
 5902              	.LBE1550:
 5903              	.LBB1553:
 5904              	.LBB1554:
 124:../../../lib/pd2dsy/libdaisy/src/dev/oled_ssd130x.h ****         spi_.BlockingTransmit(&cmd, 1);
 5905              		.loc 3 124 23 view .LVU1370
 5906 00ce 3046     		mov	r0, r6
 5907 00d0 0021     		movs	r1, #0
 5908 00d2 8DF80730 		strb	r3, [sp, #7]
 5909              	.LVL454:
 124:../../../lib/pd2dsy/libdaisy/src/dev/oled_ssd130x.h ****         spi_.BlockingTransmit(&cmd, 1);
 5910              		.loc 3 124 23 view .LVU1371
 5911              	.LBE1554:
 5912              	.LBI1553:
 122:../../../lib/pd2dsy/libdaisy/src/dev/oled_ssd130x.h ****     {
 5913              		.loc 3 122 10 is_stmt 1 view .LVU1372
 5914              	.LBB1555:
 124:../../../lib/pd2dsy/libdaisy/src/dev/oled_ssd130x.h ****         spi_.BlockingTransmit(&cmd, 1);
 5915              		.loc 3 124 9 view .LVU1373
 124:../../../lib/pd2dsy/libdaisy/src/dev/oled_ssd130x.h ****         spi_.BlockingTransmit(&cmd, 1);
 5916              		.loc 3 124 23 is_stmt 0 view .LVU1374
 5917 00d6 FFF7FEFF 		bl	dsy_gpio_write
 5918              	.LVL455:
 125:../../../lib/pd2dsy/libdaisy/src/dev/oled_ssd130x.h ****     };
 5919              		.loc 3 125 9 is_stmt 1 view .LVU1375
 125:../../../lib/pd2dsy/libdaisy/src/dev/oled_ssd130x.h ****     };
 5920              		.loc 3 125 30 is_stmt 0 view .LVU1376
 5921 00da 2A46     		mov	r2, r5
 5922 00dc 0DF10701 		add	r1, sp, #7
 5923 00e0 6423     		movs	r3, #100
 5924 00e2 2046     		mov	r0, r4
 5925 00e4 FFF7FEFF 		bl	_ZN5daisy9SpiHandle16BlockingTransmitEPhjm
 5926              	.LVL456:
 125:../../../lib/pd2dsy/libdaisy/src/dev/oled_ssd130x.h ****     };
 5927              		.loc 3 125 30 view .LVU1377
 5928 00e8 DA23     		movs	r3, #218
 5929              	.LBE1555:
 5930              	.LBE1553:
 5931              	.LBB1556:
 5932              	.LBB1557:
 124:../../../lib/pd2dsy/libdaisy/src/dev/oled_ssd130x.h ****         spi_.BlockingTransmit(&cmd, 1);
 5933              		.loc 3 124 23 view .LVU1378
 5934 00ea 3046     		mov	r0, r6
 5935 00ec 0021     		movs	r1, #0
 5936 00ee 8DF80730 		strb	r3, [sp, #7]
 5937              	.LVL457:
 124:../../../lib/pd2dsy/libdaisy/src/dev/oled_ssd130x.h ****         spi_.BlockingTransmit(&cmd, 1);
 5938              		.loc 3 124 23 view .LVU1379
 5939              	.LBE1557:
 5940              	.LBI1556:
 122:../../../lib/pd2dsy/libdaisy/src/dev/oled_ssd130x.h ****     {
 5941              		.loc 3 122 10 is_stmt 1 view .LVU1380
 5942              	.LBB1558:
 124:../../../lib/pd2dsy/libdaisy/src/dev/oled_ssd130x.h ****         spi_.BlockingTransmit(&cmd, 1);
 5943              		.loc 3 124 9 view .LVU1381
 124:../../../lib/pd2dsy/libdaisy/src/dev/oled_ssd130x.h ****         spi_.BlockingTransmit(&cmd, 1);
ARM GAS  /var/folders/fb/yfxt3z4538j6z0vjt03w70vc0000gn/T//ccrD3Rdr.s 			page 164


 5944              		.loc 3 124 23 is_stmt 0 view .LVU1382
 5945 00f2 FFF7FEFF 		bl	dsy_gpio_write
 5946              	.LVL458:
 125:../../../lib/pd2dsy/libdaisy/src/dev/oled_ssd130x.h ****     };
 5947              		.loc 3 125 9 is_stmt 1 view .LVU1383
 125:../../../lib/pd2dsy/libdaisy/src/dev/oled_ssd130x.h ****     };
 5948              		.loc 3 125 30 is_stmt 0 view .LVU1384
 5949 00f6 2A46     		mov	r2, r5
 5950 00f8 0DF10701 		add	r1, sp, #7
 5951 00fc 6423     		movs	r3, #100
 5952 00fe 2046     		mov	r0, r4
 5953 0100 FFF7FEFF 		bl	_ZN5daisy9SpiHandle16BlockingTransmitEPhjm
 5954              	.LVL459:
 125:../../../lib/pd2dsy/libdaisy/src/dev/oled_ssd130x.h ****     };
 5955              		.loc 3 125 30 view .LVU1385
 5956 0104 1223     		movs	r3, #18
 5957              	.LBE1558:
 5958              	.LBE1556:
 5959              	.LBB1559:
 5960              	.LBB1560:
 124:../../../lib/pd2dsy/libdaisy/src/dev/oled_ssd130x.h ****         spi_.BlockingTransmit(&cmd, 1);
 5961              		.loc 3 124 23 view .LVU1386
 5962 0106 3046     		mov	r0, r6
 5963 0108 0021     		movs	r1, #0
 5964 010a 8DF80730 		strb	r3, [sp, #7]
 5965              	.LVL460:
 124:../../../lib/pd2dsy/libdaisy/src/dev/oled_ssd130x.h ****         spi_.BlockingTransmit(&cmd, 1);
 5966              		.loc 3 124 23 view .LVU1387
 5967              	.LBE1560:
 5968              	.LBI1559:
 122:../../../lib/pd2dsy/libdaisy/src/dev/oled_ssd130x.h ****     {
 5969              		.loc 3 122 10 is_stmt 1 view .LVU1388
 5970              	.LBB1561:
 124:../../../lib/pd2dsy/libdaisy/src/dev/oled_ssd130x.h ****         spi_.BlockingTransmit(&cmd, 1);
 5971              		.loc 3 124 9 view .LVU1389
 124:../../../lib/pd2dsy/libdaisy/src/dev/oled_ssd130x.h ****         spi_.BlockingTransmit(&cmd, 1);
 5972              		.loc 3 124 23 is_stmt 0 view .LVU1390
 5973 010e FFF7FEFF 		bl	dsy_gpio_write
 5974              	.LVL461:
 125:../../../lib/pd2dsy/libdaisy/src/dev/oled_ssd130x.h ****     };
 5975              		.loc 3 125 9 is_stmt 1 view .LVU1391
 125:../../../lib/pd2dsy/libdaisy/src/dev/oled_ssd130x.h ****     };
 5976              		.loc 3 125 30 is_stmt 0 view .LVU1392
 5977 0112 2A46     		mov	r2, r5
 5978 0114 0DF10701 		add	r1, sp, #7
 5979 0118 6423     		movs	r3, #100
 5980 011a 2046     		mov	r0, r4
 5981 011c FFF7FEFF 		bl	_ZN5daisy9SpiHandle16BlockingTransmitEPhjm
 5982              	.LVL462:
 125:../../../lib/pd2dsy/libdaisy/src/dev/oled_ssd130x.h ****     };
 5983              		.loc 3 125 30 view .LVU1393
 5984              	.LBE1561:
 5985              	.LBE1559:
 5986              	.LBB1562:
 5987              	.LBB1563:
 124:../../../lib/pd2dsy/libdaisy/src/dev/oled_ssd130x.h ****         spi_.BlockingTransmit(&cmd, 1);
 5988              		.loc 3 124 23 view .LVU1394
ARM GAS  /var/folders/fb/yfxt3z4538j6z0vjt03w70vc0000gn/T//ccrD3Rdr.s 			page 165


 5989 0120 0021     		movs	r1, #0
 5990 0122 D323     		movs	r3, #211
 5991 0124 3046     		mov	r0, r6
 5992 0126 0F46     		mov	r7, r1
 5993 0128 8DF80730 		strb	r3, [sp, #7]
 5994              	.LVL463:
 124:../../../lib/pd2dsy/libdaisy/src/dev/oled_ssd130x.h ****         spi_.BlockingTransmit(&cmd, 1);
 5995              		.loc 3 124 23 view .LVU1395
 5996              	.LBE1563:
 5997              	.LBI1562:
 122:../../../lib/pd2dsy/libdaisy/src/dev/oled_ssd130x.h ****     {
 5998              		.loc 3 122 10 is_stmt 1 view .LVU1396
 5999              	.LBB1564:
 124:../../../lib/pd2dsy/libdaisy/src/dev/oled_ssd130x.h ****         spi_.BlockingTransmit(&cmd, 1);
 6000              		.loc 3 124 9 view .LVU1397
 124:../../../lib/pd2dsy/libdaisy/src/dev/oled_ssd130x.h ****         spi_.BlockingTransmit(&cmd, 1);
 6001              		.loc 3 124 23 is_stmt 0 view .LVU1398
 6002 012c FFF7FEFF 		bl	dsy_gpio_write
 6003              	.LVL464:
 125:../../../lib/pd2dsy/libdaisy/src/dev/oled_ssd130x.h ****     };
 6004              		.loc 3 125 9 is_stmt 1 view .LVU1399
 125:../../../lib/pd2dsy/libdaisy/src/dev/oled_ssd130x.h ****     };
 6005              		.loc 3 125 30 is_stmt 0 view .LVU1400
 6006 0130 2A46     		mov	r2, r5
 6007 0132 6423     		movs	r3, #100
 6008 0134 0DF10701 		add	r1, sp, #7
 6009 0138 2046     		mov	r0, r4
 6010 013a FFF7FEFF 		bl	_ZN5daisy9SpiHandle16BlockingTransmitEPhjm
 6011              	.LVL465:
 125:../../../lib/pd2dsy/libdaisy/src/dev/oled_ssd130x.h ****     };
 6012              		.loc 3 125 30 view .LVU1401
 6013              	.LBE1564:
 6014              	.LBE1562:
 6015              	.LBB1565:
 6016              	.LBB1566:
 124:../../../lib/pd2dsy/libdaisy/src/dev/oled_ssd130x.h ****         spi_.BlockingTransmit(&cmd, 1);
 6017              		.loc 3 124 23 view .LVU1402
 6018 013e 3946     		mov	r1, r7
 6019 0140 3046     		mov	r0, r6
 6020 0142 8DF80770 		strb	r7, [sp, #7]
 6021              	.LVL466:
 124:../../../lib/pd2dsy/libdaisy/src/dev/oled_ssd130x.h ****         spi_.BlockingTransmit(&cmd, 1);
 6022              		.loc 3 124 23 view .LVU1403
 6023              	.LBE1566:
 6024              	.LBI1565:
 122:../../../lib/pd2dsy/libdaisy/src/dev/oled_ssd130x.h ****     {
 6025              		.loc 3 122 10 is_stmt 1 view .LVU1404
 6026              	.LBB1567:
 124:../../../lib/pd2dsy/libdaisy/src/dev/oled_ssd130x.h ****         spi_.BlockingTransmit(&cmd, 1);
 6027              		.loc 3 124 9 view .LVU1405
 124:../../../lib/pd2dsy/libdaisy/src/dev/oled_ssd130x.h ****         spi_.BlockingTransmit(&cmd, 1);
 6028              		.loc 3 124 23 is_stmt 0 view .LVU1406
 6029 0146 FFF7FEFF 		bl	dsy_gpio_write
 6030              	.LVL467:
 125:../../../lib/pd2dsy/libdaisy/src/dev/oled_ssd130x.h ****     };
 6031              		.loc 3 125 9 is_stmt 1 view .LVU1407
 125:../../../lib/pd2dsy/libdaisy/src/dev/oled_ssd130x.h ****     };
ARM GAS  /var/folders/fb/yfxt3z4538j6z0vjt03w70vc0000gn/T//ccrD3Rdr.s 			page 166


 6032              		.loc 3 125 30 is_stmt 0 view .LVU1408
 6033 014a 2A46     		mov	r2, r5
 6034 014c 0DF10701 		add	r1, sp, #7
 6035 0150 6423     		movs	r3, #100
 6036 0152 2046     		mov	r0, r4
 6037 0154 FFF7FEFF 		bl	_ZN5daisy9SpiHandle16BlockingTransmitEPhjm
 6038              	.LVL468:
 125:../../../lib/pd2dsy/libdaisy/src/dev/oled_ssd130x.h ****     };
 6039              		.loc 3 125 30 view .LVU1409
 6040 0158 4023     		movs	r3, #64
 6041              	.LBE1567:
 6042              	.LBE1565:
 6043              	.LBB1568:
 6044              	.LBB1569:
 124:../../../lib/pd2dsy/libdaisy/src/dev/oled_ssd130x.h ****         spi_.BlockingTransmit(&cmd, 1);
 6045              		.loc 3 124 23 view .LVU1410
 6046 015a 3946     		mov	r1, r7
 6047 015c 3046     		mov	r0, r6
 6048 015e 8DF80730 		strb	r3, [sp, #7]
 6049              	.LVL469:
 124:../../../lib/pd2dsy/libdaisy/src/dev/oled_ssd130x.h ****         spi_.BlockingTransmit(&cmd, 1);
 6050              		.loc 3 124 23 view .LVU1411
 6051              	.LBE1569:
 6052              	.LBI1568:
 122:../../../lib/pd2dsy/libdaisy/src/dev/oled_ssd130x.h ****     {
 6053              		.loc 3 122 10 is_stmt 1 view .LVU1412
 6054              	.LBB1570:
 124:../../../lib/pd2dsy/libdaisy/src/dev/oled_ssd130x.h ****         spi_.BlockingTransmit(&cmd, 1);
 6055              		.loc 3 124 9 view .LVU1413
 124:../../../lib/pd2dsy/libdaisy/src/dev/oled_ssd130x.h ****         spi_.BlockingTransmit(&cmd, 1);
 6056              		.loc 3 124 23 is_stmt 0 view .LVU1414
 6057 0162 FFF7FEFF 		bl	dsy_gpio_write
 6058              	.LVL470:
 125:../../../lib/pd2dsy/libdaisy/src/dev/oled_ssd130x.h ****     };
 6059              		.loc 3 125 9 is_stmt 1 view .LVU1415
 125:../../../lib/pd2dsy/libdaisy/src/dev/oled_ssd130x.h ****     };
 6060              		.loc 3 125 30 is_stmt 0 view .LVU1416
 6061 0166 2A46     		mov	r2, r5
 6062 0168 0DF10701 		add	r1, sp, #7
 6063 016c 6423     		movs	r3, #100
 6064 016e 2046     		mov	r0, r4
 6065 0170 FFF7FEFF 		bl	_ZN5daisy9SpiHandle16BlockingTransmitEPhjm
 6066              	.LVL471:
 125:../../../lib/pd2dsy/libdaisy/src/dev/oled_ssd130x.h ****     };
 6067              		.loc 3 125 30 view .LVU1417
 6068 0174 A623     		movs	r3, #166
 6069              	.LBE1570:
 6070              	.LBE1568:
 6071              	.LBB1571:
 6072              	.LBB1572:
 124:../../../lib/pd2dsy/libdaisy/src/dev/oled_ssd130x.h ****         spi_.BlockingTransmit(&cmd, 1);
 6073              		.loc 3 124 23 view .LVU1418
 6074 0176 3946     		mov	r1, r7
 6075 0178 3046     		mov	r0, r6
 6076 017a 8DF80730 		strb	r3, [sp, #7]
 6077              	.LVL472:
 124:../../../lib/pd2dsy/libdaisy/src/dev/oled_ssd130x.h ****         spi_.BlockingTransmit(&cmd, 1);
ARM GAS  /var/folders/fb/yfxt3z4538j6z0vjt03w70vc0000gn/T//ccrD3Rdr.s 			page 167


 6078              		.loc 3 124 23 view .LVU1419
 6079              	.LBE1572:
 6080              	.LBI1571:
 122:../../../lib/pd2dsy/libdaisy/src/dev/oled_ssd130x.h ****     {
 6081              		.loc 3 122 10 is_stmt 1 view .LVU1420
 6082              	.LBB1573:
 124:../../../lib/pd2dsy/libdaisy/src/dev/oled_ssd130x.h ****         spi_.BlockingTransmit(&cmd, 1);
 6083              		.loc 3 124 9 view .LVU1421
 124:../../../lib/pd2dsy/libdaisy/src/dev/oled_ssd130x.h ****         spi_.BlockingTransmit(&cmd, 1);
 6084              		.loc 3 124 23 is_stmt 0 view .LVU1422
 6085 017e FFF7FEFF 		bl	dsy_gpio_write
 6086              	.LVL473:
 125:../../../lib/pd2dsy/libdaisy/src/dev/oled_ssd130x.h ****     };
 6087              		.loc 3 125 9 is_stmt 1 view .LVU1423
 125:../../../lib/pd2dsy/libdaisy/src/dev/oled_ssd130x.h ****     };
 6088              		.loc 3 125 30 is_stmt 0 view .LVU1424
 6089 0182 2A46     		mov	r2, r5
 6090 0184 0DF10701 		add	r1, sp, #7
 6091 0188 6423     		movs	r3, #100
 6092 018a 2046     		mov	r0, r4
 6093 018c FFF7FEFF 		bl	_ZN5daisy9SpiHandle16BlockingTransmitEPhjm
 6094              	.LVL474:
 125:../../../lib/pd2dsy/libdaisy/src/dev/oled_ssd130x.h ****     };
 6095              		.loc 3 125 30 view .LVU1425
 6096 0190 A423     		movs	r3, #164
 6097              	.LBE1573:
 6098              	.LBE1571:
 6099              	.LBB1574:
 6100              	.LBB1575:
 124:../../../lib/pd2dsy/libdaisy/src/dev/oled_ssd130x.h ****         spi_.BlockingTransmit(&cmd, 1);
 6101              		.loc 3 124 23 view .LVU1426
 6102 0192 3946     		mov	r1, r7
 6103 0194 3046     		mov	r0, r6
 6104 0196 8DF80730 		strb	r3, [sp, #7]
 6105              	.LVL475:
 124:../../../lib/pd2dsy/libdaisy/src/dev/oled_ssd130x.h ****         spi_.BlockingTransmit(&cmd, 1);
 6106              		.loc 3 124 23 view .LVU1427
 6107              	.LBE1575:
 6108              	.LBI1574:
 122:../../../lib/pd2dsy/libdaisy/src/dev/oled_ssd130x.h ****     {
 6109              		.loc 3 122 10 is_stmt 1 view .LVU1428
 6110              	.LBB1576:
 124:../../../lib/pd2dsy/libdaisy/src/dev/oled_ssd130x.h ****         spi_.BlockingTransmit(&cmd, 1);
 6111              		.loc 3 124 9 view .LVU1429
 124:../../../lib/pd2dsy/libdaisy/src/dev/oled_ssd130x.h ****         spi_.BlockingTransmit(&cmd, 1);
 6112              		.loc 3 124 23 is_stmt 0 view .LVU1430
 6113 019a FFF7FEFF 		bl	dsy_gpio_write
 6114              	.LVL476:
 125:../../../lib/pd2dsy/libdaisy/src/dev/oled_ssd130x.h ****     };
 6115              		.loc 3 125 9 is_stmt 1 view .LVU1431
 125:../../../lib/pd2dsy/libdaisy/src/dev/oled_ssd130x.h ****     };
 6116              		.loc 3 125 30 is_stmt 0 view .LVU1432
 6117 019e 2A46     		mov	r2, r5
 6118 01a0 0DF10701 		add	r1, sp, #7
 6119 01a4 6423     		movs	r3, #100
 6120 01a6 2046     		mov	r0, r4
 6121 01a8 FFF7FEFF 		bl	_ZN5daisy9SpiHandle16BlockingTransmitEPhjm
ARM GAS  /var/folders/fb/yfxt3z4538j6z0vjt03w70vc0000gn/T//ccrD3Rdr.s 			page 168


 6122              	.LVL477:
 125:../../../lib/pd2dsy/libdaisy/src/dev/oled_ssd130x.h ****     };
 6123              		.loc 3 125 30 view .LVU1433
 6124 01ac 8D23     		movs	r3, #141
 6125              	.LBE1576:
 6126              	.LBE1574:
 6127              	.LBB1577:
 6128              	.LBB1578:
 124:../../../lib/pd2dsy/libdaisy/src/dev/oled_ssd130x.h ****         spi_.BlockingTransmit(&cmd, 1);
 6129              		.loc 3 124 23 view .LVU1434
 6130 01ae 3946     		mov	r1, r7
 6131 01b0 3046     		mov	r0, r6
 6132 01b2 8DF80730 		strb	r3, [sp, #7]
 6133              	.LVL478:
 124:../../../lib/pd2dsy/libdaisy/src/dev/oled_ssd130x.h ****         spi_.BlockingTransmit(&cmd, 1);
 6134              		.loc 3 124 23 view .LVU1435
 6135              	.LBE1578:
 6136              	.LBI1577:
 122:../../../lib/pd2dsy/libdaisy/src/dev/oled_ssd130x.h ****     {
 6137              		.loc 3 122 10 is_stmt 1 view .LVU1436
 6138              	.LBB1579:
 124:../../../lib/pd2dsy/libdaisy/src/dev/oled_ssd130x.h ****         spi_.BlockingTransmit(&cmd, 1);
 6139              		.loc 3 124 9 view .LVU1437
 124:../../../lib/pd2dsy/libdaisy/src/dev/oled_ssd130x.h ****         spi_.BlockingTransmit(&cmd, 1);
 6140              		.loc 3 124 23 is_stmt 0 view .LVU1438
 6141 01b6 FFF7FEFF 		bl	dsy_gpio_write
 6142              	.LVL479:
 125:../../../lib/pd2dsy/libdaisy/src/dev/oled_ssd130x.h ****     };
 6143              		.loc 3 125 9 is_stmt 1 view .LVU1439
 125:../../../lib/pd2dsy/libdaisy/src/dev/oled_ssd130x.h ****     };
 6144              		.loc 3 125 30 is_stmt 0 view .LVU1440
 6145 01ba 2A46     		mov	r2, r5
 6146 01bc 0DF10701 		add	r1, sp, #7
 6147 01c0 6423     		movs	r3, #100
 6148 01c2 2046     		mov	r0, r4
 6149 01c4 FFF7FEFF 		bl	_ZN5daisy9SpiHandle16BlockingTransmitEPhjm
 6150              	.LVL480:
 125:../../../lib/pd2dsy/libdaisy/src/dev/oled_ssd130x.h ****     };
 6151              		.loc 3 125 30 view .LVU1441
 6152 01c8 1423     		movs	r3, #20
 6153              	.LBE1579:
 6154              	.LBE1577:
 6155              	.LBB1580:
 6156              	.LBB1581:
 124:../../../lib/pd2dsy/libdaisy/src/dev/oled_ssd130x.h ****         spi_.BlockingTransmit(&cmd, 1);
 6157              		.loc 3 124 23 view .LVU1442
 6158 01ca 3946     		mov	r1, r7
 6159 01cc 3046     		mov	r0, r6
 6160 01ce 8DF80730 		strb	r3, [sp, #7]
 6161              	.LVL481:
 124:../../../lib/pd2dsy/libdaisy/src/dev/oled_ssd130x.h ****         spi_.BlockingTransmit(&cmd, 1);
 6162              		.loc 3 124 23 view .LVU1443
 6163              	.LBE1581:
 6164              	.LBI1580:
 122:../../../lib/pd2dsy/libdaisy/src/dev/oled_ssd130x.h ****     {
 6165              		.loc 3 122 10 is_stmt 1 view .LVU1444
 6166              	.LBB1582:
ARM GAS  /var/folders/fb/yfxt3z4538j6z0vjt03w70vc0000gn/T//ccrD3Rdr.s 			page 169


 124:../../../lib/pd2dsy/libdaisy/src/dev/oled_ssd130x.h ****         spi_.BlockingTransmit(&cmd, 1);
 6167              		.loc 3 124 9 view .LVU1445
 124:../../../lib/pd2dsy/libdaisy/src/dev/oled_ssd130x.h ****         spi_.BlockingTransmit(&cmd, 1);
 6168              		.loc 3 124 23 is_stmt 0 view .LVU1446
 6169 01d2 FFF7FEFF 		bl	dsy_gpio_write
 6170              	.LVL482:
 125:../../../lib/pd2dsy/libdaisy/src/dev/oled_ssd130x.h ****     };
 6171              		.loc 3 125 9 is_stmt 1 view .LVU1447
 125:../../../lib/pd2dsy/libdaisy/src/dev/oled_ssd130x.h ****     };
 6172              		.loc 3 125 30 is_stmt 0 view .LVU1448
 6173 01d6 2A46     		mov	r2, r5
 6174 01d8 0DF10701 		add	r1, sp, #7
 6175 01dc 6423     		movs	r3, #100
 6176 01de 2046     		mov	r0, r4
 6177 01e0 FFF7FEFF 		bl	_ZN5daisy9SpiHandle16BlockingTransmitEPhjm
 6178              	.LVL483:
 125:../../../lib/pd2dsy/libdaisy/src/dev/oled_ssd130x.h ****     };
 6179              		.loc 3 125 30 view .LVU1449
 6180 01e4 A123     		movs	r3, #161
 6181              	.LBE1582:
 6182              	.LBE1580:
 6183              	.LBB1583:
 6184              	.LBB1584:
 124:../../../lib/pd2dsy/libdaisy/src/dev/oled_ssd130x.h ****         spi_.BlockingTransmit(&cmd, 1);
 6185              		.loc 3 124 23 view .LVU1450
 6186 01e6 3946     		mov	r1, r7
 6187 01e8 3046     		mov	r0, r6
 6188 01ea 8DF80730 		strb	r3, [sp, #7]
 6189              	.LVL484:
 124:../../../lib/pd2dsy/libdaisy/src/dev/oled_ssd130x.h ****         spi_.BlockingTransmit(&cmd, 1);
 6190              		.loc 3 124 23 view .LVU1451
 6191              	.LBE1584:
 6192              	.LBI1583:
 122:../../../lib/pd2dsy/libdaisy/src/dev/oled_ssd130x.h ****     {
 6193              		.loc 3 122 10 is_stmt 1 view .LVU1452
 6194              	.LBB1585:
 124:../../../lib/pd2dsy/libdaisy/src/dev/oled_ssd130x.h ****         spi_.BlockingTransmit(&cmd, 1);
 6195              		.loc 3 124 9 view .LVU1453
 124:../../../lib/pd2dsy/libdaisy/src/dev/oled_ssd130x.h ****         spi_.BlockingTransmit(&cmd, 1);
 6196              		.loc 3 124 23 is_stmt 0 view .LVU1454
 6197 01ee FFF7FEFF 		bl	dsy_gpio_write
 6198              	.LVL485:
 125:../../../lib/pd2dsy/libdaisy/src/dev/oled_ssd130x.h ****     };
 6199              		.loc 3 125 9 is_stmt 1 view .LVU1455
 125:../../../lib/pd2dsy/libdaisy/src/dev/oled_ssd130x.h ****     };
 6200              		.loc 3 125 30 is_stmt 0 view .LVU1456
 6201 01f2 2A46     		mov	r2, r5
 6202 01f4 0DF10701 		add	r1, sp, #7
 6203 01f8 6423     		movs	r3, #100
 6204 01fa 2046     		mov	r0, r4
 6205 01fc FFF7FEFF 		bl	_ZN5daisy9SpiHandle16BlockingTransmitEPhjm
 6206              	.LVL486:
 125:../../../lib/pd2dsy/libdaisy/src/dev/oled_ssd130x.h ****     };
 6207              		.loc 3 125 30 view .LVU1457
 6208 0200 C823     		movs	r3, #200
 6209              	.LBE1585:
 6210              	.LBE1583:
ARM GAS  /var/folders/fb/yfxt3z4538j6z0vjt03w70vc0000gn/T//ccrD3Rdr.s 			page 170


 6211              	.LBB1586:
 6212              	.LBB1587:
 124:../../../lib/pd2dsy/libdaisy/src/dev/oled_ssd130x.h ****         spi_.BlockingTransmit(&cmd, 1);
 6213              		.loc 3 124 23 view .LVU1458
 6214 0202 3946     		mov	r1, r7
 6215 0204 3046     		mov	r0, r6
 6216 0206 8DF80730 		strb	r3, [sp, #7]
 6217              	.LVL487:
 124:../../../lib/pd2dsy/libdaisy/src/dev/oled_ssd130x.h ****         spi_.BlockingTransmit(&cmd, 1);
 6218              		.loc 3 124 23 view .LVU1459
 6219              	.LBE1587:
 6220              	.LBI1586:
 122:../../../lib/pd2dsy/libdaisy/src/dev/oled_ssd130x.h ****     {
 6221              		.loc 3 122 10 is_stmt 1 view .LVU1460
 6222              	.LBB1588:
 124:../../../lib/pd2dsy/libdaisy/src/dev/oled_ssd130x.h ****         spi_.BlockingTransmit(&cmd, 1);
 6223              		.loc 3 124 9 view .LVU1461
 124:../../../lib/pd2dsy/libdaisy/src/dev/oled_ssd130x.h ****         spi_.BlockingTransmit(&cmd, 1);
 6224              		.loc 3 124 23 is_stmt 0 view .LVU1462
 6225 020a FFF7FEFF 		bl	dsy_gpio_write
 6226              	.LVL488:
 125:../../../lib/pd2dsy/libdaisy/src/dev/oled_ssd130x.h ****     };
 6227              		.loc 3 125 9 is_stmt 1 view .LVU1463
 125:../../../lib/pd2dsy/libdaisy/src/dev/oled_ssd130x.h ****     };
 6228              		.loc 3 125 30 is_stmt 0 view .LVU1464
 6229 020e 2A46     		mov	r2, r5
 6230 0210 0DF10701 		add	r1, sp, #7
 6231 0214 6423     		movs	r3, #100
 6232 0216 2046     		mov	r0, r4
 6233 0218 FFF7FEFF 		bl	_ZN5daisy9SpiHandle16BlockingTransmitEPhjm
 6234              	.LVL489:
 125:../../../lib/pd2dsy/libdaisy/src/dev/oled_ssd130x.h ****     };
 6235              		.loc 3 125 30 view .LVU1465
 6236 021c 8123     		movs	r3, #129
 6237              	.LBE1588:
 6238              	.LBE1586:
 6239              	.LBB1589:
 6240              	.LBB1590:
 124:../../../lib/pd2dsy/libdaisy/src/dev/oled_ssd130x.h ****         spi_.BlockingTransmit(&cmd, 1);
 6241              		.loc 3 124 23 view .LVU1466
 6242 021e 3946     		mov	r1, r7
 6243 0220 3046     		mov	r0, r6
 6244 0222 8DF80730 		strb	r3, [sp, #7]
 6245              	.LVL490:
 124:../../../lib/pd2dsy/libdaisy/src/dev/oled_ssd130x.h ****         spi_.BlockingTransmit(&cmd, 1);
 6246              		.loc 3 124 23 view .LVU1467
 6247              	.LBE1590:
 6248              	.LBI1589:
 122:../../../lib/pd2dsy/libdaisy/src/dev/oled_ssd130x.h ****     {
 6249              		.loc 3 122 10 is_stmt 1 view .LVU1468
 6250              	.LBB1591:
 124:../../../lib/pd2dsy/libdaisy/src/dev/oled_ssd130x.h ****         spi_.BlockingTransmit(&cmd, 1);
 6251              		.loc 3 124 9 view .LVU1469
 124:../../../lib/pd2dsy/libdaisy/src/dev/oled_ssd130x.h ****         spi_.BlockingTransmit(&cmd, 1);
 6252              		.loc 3 124 23 is_stmt 0 view .LVU1470
 6253 0226 FFF7FEFF 		bl	dsy_gpio_write
 6254              	.LVL491:
ARM GAS  /var/folders/fb/yfxt3z4538j6z0vjt03w70vc0000gn/T//ccrD3Rdr.s 			page 171


 125:../../../lib/pd2dsy/libdaisy/src/dev/oled_ssd130x.h ****     };
 6255              		.loc 3 125 9 is_stmt 1 view .LVU1471
 125:../../../lib/pd2dsy/libdaisy/src/dev/oled_ssd130x.h ****     };
 6256              		.loc 3 125 30 is_stmt 0 view .LVU1472
 6257 022a 2A46     		mov	r2, r5
 6258 022c 0DF10701 		add	r1, sp, #7
 6259 0230 6423     		movs	r3, #100
 6260 0232 2046     		mov	r0, r4
 6261 0234 FFF7FEFF 		bl	_ZN5daisy9SpiHandle16BlockingTransmitEPhjm
 6262              	.LVL492:
 125:../../../lib/pd2dsy/libdaisy/src/dev/oled_ssd130x.h ****     };
 6263              		.loc 3 125 30 view .LVU1473
 6264 0238 8F23     		movs	r3, #143
 6265              	.LBE1591:
 6266              	.LBE1589:
 6267              	.LBB1592:
 6268              	.LBB1593:
 124:../../../lib/pd2dsy/libdaisy/src/dev/oled_ssd130x.h ****         spi_.BlockingTransmit(&cmd, 1);
 6269              		.loc 3 124 23 view .LVU1474
 6270 023a 3946     		mov	r1, r7
 6271 023c 3046     		mov	r0, r6
 6272 023e 8DF80730 		strb	r3, [sp, #7]
 6273              	.LVL493:
 124:../../../lib/pd2dsy/libdaisy/src/dev/oled_ssd130x.h ****         spi_.BlockingTransmit(&cmd, 1);
 6274              		.loc 3 124 23 view .LVU1475
 6275              	.LBE1593:
 6276              	.LBI1592:
 122:../../../lib/pd2dsy/libdaisy/src/dev/oled_ssd130x.h ****     {
 6277              		.loc 3 122 10 is_stmt 1 view .LVU1476
 6278              	.LBB1594:
 124:../../../lib/pd2dsy/libdaisy/src/dev/oled_ssd130x.h ****         spi_.BlockingTransmit(&cmd, 1);
 6279              		.loc 3 124 9 view .LVU1477
 124:../../../lib/pd2dsy/libdaisy/src/dev/oled_ssd130x.h ****         spi_.BlockingTransmit(&cmd, 1);
 6280              		.loc 3 124 23 is_stmt 0 view .LVU1478
 6281 0242 FFF7FEFF 		bl	dsy_gpio_write
 6282              	.LVL494:
 125:../../../lib/pd2dsy/libdaisy/src/dev/oled_ssd130x.h ****     };
 6283              		.loc 3 125 9 is_stmt 1 view .LVU1479
 125:../../../lib/pd2dsy/libdaisy/src/dev/oled_ssd130x.h ****     };
 6284              		.loc 3 125 30 is_stmt 0 view .LVU1480
 6285 0246 2A46     		mov	r2, r5
 6286 0248 0DF10701 		add	r1, sp, #7
 6287 024c 6423     		movs	r3, #100
 6288 024e 2046     		mov	r0, r4
 6289 0250 FFF7FEFF 		bl	_ZN5daisy9SpiHandle16BlockingTransmitEPhjm
 6290              	.LVL495:
 125:../../../lib/pd2dsy/libdaisy/src/dev/oled_ssd130x.h ****     };
 6291              		.loc 3 125 30 view .LVU1481
 6292 0254 D923     		movs	r3, #217
 6293              	.LBE1594:
 6294              	.LBE1592:
 6295              	.LBB1595:
 6296              	.LBB1596:
 124:../../../lib/pd2dsy/libdaisy/src/dev/oled_ssd130x.h ****         spi_.BlockingTransmit(&cmd, 1);
 6297              		.loc 3 124 23 view .LVU1482
 6298 0256 3946     		mov	r1, r7
 6299 0258 3046     		mov	r0, r6
ARM GAS  /var/folders/fb/yfxt3z4538j6z0vjt03w70vc0000gn/T//ccrD3Rdr.s 			page 172


 6300 025a 8DF80730 		strb	r3, [sp, #7]
 6301              	.LVL496:
 124:../../../lib/pd2dsy/libdaisy/src/dev/oled_ssd130x.h ****         spi_.BlockingTransmit(&cmd, 1);
 6302              		.loc 3 124 23 view .LVU1483
 6303              	.LBE1596:
 6304              	.LBI1595:
 122:../../../lib/pd2dsy/libdaisy/src/dev/oled_ssd130x.h ****     {
 6305              		.loc 3 122 10 is_stmt 1 view .LVU1484
 6306              	.LBB1597:
 124:../../../lib/pd2dsy/libdaisy/src/dev/oled_ssd130x.h ****         spi_.BlockingTransmit(&cmd, 1);
 6307              		.loc 3 124 9 view .LVU1485
 124:../../../lib/pd2dsy/libdaisy/src/dev/oled_ssd130x.h ****         spi_.BlockingTransmit(&cmd, 1);
 6308              		.loc 3 124 23 is_stmt 0 view .LVU1486
 6309 025e FFF7FEFF 		bl	dsy_gpio_write
 6310              	.LVL497:
 125:../../../lib/pd2dsy/libdaisy/src/dev/oled_ssd130x.h ****     };
 6311              		.loc 3 125 9 is_stmt 1 view .LVU1487
 125:../../../lib/pd2dsy/libdaisy/src/dev/oled_ssd130x.h ****     };
 6312              		.loc 3 125 30 is_stmt 0 view .LVU1488
 6313 0262 2A46     		mov	r2, r5
 6314 0264 0DF10701 		add	r1, sp, #7
 6315 0268 6423     		movs	r3, #100
 6316 026a 2046     		mov	r0, r4
 6317 026c FFF7FEFF 		bl	_ZN5daisy9SpiHandle16BlockingTransmitEPhjm
 6318              	.LVL498:
 125:../../../lib/pd2dsy/libdaisy/src/dev/oled_ssd130x.h ****     };
 6319              		.loc 3 125 30 view .LVU1489
 6320 0270 2523     		movs	r3, #37
 6321              	.LBE1597:
 6322              	.LBE1595:
 6323              	.LBB1598:
 6324              	.LBB1599:
 124:../../../lib/pd2dsy/libdaisy/src/dev/oled_ssd130x.h ****         spi_.BlockingTransmit(&cmd, 1);
 6325              		.loc 3 124 23 view .LVU1490
 6326 0272 3946     		mov	r1, r7
 6327 0274 3046     		mov	r0, r6
 6328 0276 8DF80730 		strb	r3, [sp, #7]
 6329              	.LVL499:
 124:../../../lib/pd2dsy/libdaisy/src/dev/oled_ssd130x.h ****         spi_.BlockingTransmit(&cmd, 1);
 6330              		.loc 3 124 23 view .LVU1491
 6331              	.LBE1599:
 6332              	.LBI1598:
 122:../../../lib/pd2dsy/libdaisy/src/dev/oled_ssd130x.h ****     {
 6333              		.loc 3 122 10 is_stmt 1 view .LVU1492
 6334              	.LBB1600:
 124:../../../lib/pd2dsy/libdaisy/src/dev/oled_ssd130x.h ****         spi_.BlockingTransmit(&cmd, 1);
 6335              		.loc 3 124 9 view .LVU1493
 124:../../../lib/pd2dsy/libdaisy/src/dev/oled_ssd130x.h ****         spi_.BlockingTransmit(&cmd, 1);
 6336              		.loc 3 124 23 is_stmt 0 view .LVU1494
 6337 027a FFF7FEFF 		bl	dsy_gpio_write
 6338              	.LVL500:
 125:../../../lib/pd2dsy/libdaisy/src/dev/oled_ssd130x.h ****     };
 6339              		.loc 3 125 9 is_stmt 1 view .LVU1495
 125:../../../lib/pd2dsy/libdaisy/src/dev/oled_ssd130x.h ****     };
 6340              		.loc 3 125 30 is_stmt 0 view .LVU1496
 6341 027e 2A46     		mov	r2, r5
 6342 0280 0DF10701 		add	r1, sp, #7
ARM GAS  /var/folders/fb/yfxt3z4538j6z0vjt03w70vc0000gn/T//ccrD3Rdr.s 			page 173


 6343 0284 6423     		movs	r3, #100
 6344 0286 2046     		mov	r0, r4
 6345 0288 FFF7FEFF 		bl	_ZN5daisy9SpiHandle16BlockingTransmitEPhjm
 6346              	.LVL501:
 125:../../../lib/pd2dsy/libdaisy/src/dev/oled_ssd130x.h ****     };
 6347              		.loc 3 125 30 view .LVU1497
 6348 028c DB23     		movs	r3, #219
 6349              	.LBE1600:
 6350              	.LBE1598:
 6351              	.LBB1601:
 6352              	.LBB1602:
 124:../../../lib/pd2dsy/libdaisy/src/dev/oled_ssd130x.h ****         spi_.BlockingTransmit(&cmd, 1);
 6353              		.loc 3 124 23 view .LVU1498
 6354 028e 3946     		mov	r1, r7
 6355 0290 3046     		mov	r0, r6
 6356 0292 8DF80730 		strb	r3, [sp, #7]
 6357              	.LVL502:
 124:../../../lib/pd2dsy/libdaisy/src/dev/oled_ssd130x.h ****         spi_.BlockingTransmit(&cmd, 1);
 6358              		.loc 3 124 23 view .LVU1499
 6359              	.LBE1602:
 6360              	.LBI1601:
 122:../../../lib/pd2dsy/libdaisy/src/dev/oled_ssd130x.h ****     {
 6361              		.loc 3 122 10 is_stmt 1 view .LVU1500
 6362              	.LBB1603:
 124:../../../lib/pd2dsy/libdaisy/src/dev/oled_ssd130x.h ****         spi_.BlockingTransmit(&cmd, 1);
 6363              		.loc 3 124 9 view .LVU1501
 124:../../../lib/pd2dsy/libdaisy/src/dev/oled_ssd130x.h ****         spi_.BlockingTransmit(&cmd, 1);
 6364              		.loc 3 124 23 is_stmt 0 view .LVU1502
 6365 0296 FFF7FEFF 		bl	dsy_gpio_write
 6366              	.LVL503:
 125:../../../lib/pd2dsy/libdaisy/src/dev/oled_ssd130x.h ****     };
 6367              		.loc 3 125 9 is_stmt 1 view .LVU1503
 125:../../../lib/pd2dsy/libdaisy/src/dev/oled_ssd130x.h ****     };
 6368              		.loc 3 125 30 is_stmt 0 view .LVU1504
 6369 029a 2A46     		mov	r2, r5
 6370 029c 0DF10701 		add	r1, sp, #7
 6371 02a0 6423     		movs	r3, #100
 6372 02a2 2046     		mov	r0, r4
 6373 02a4 FFF7FEFF 		bl	_ZN5daisy9SpiHandle16BlockingTransmitEPhjm
 6374              	.LVL504:
 125:../../../lib/pd2dsy/libdaisy/src/dev/oled_ssd130x.h ****     };
 6375              		.loc 3 125 30 view .LVU1505
 6376 02a8 3423     		movs	r3, #52
 6377              	.LBE1603:
 6378              	.LBE1601:
 6379              	.LBB1604:
 6380              	.LBB1605:
 124:../../../lib/pd2dsy/libdaisy/src/dev/oled_ssd130x.h ****         spi_.BlockingTransmit(&cmd, 1);
 6381              		.loc 3 124 23 view .LVU1506
 6382 02aa 3946     		mov	r1, r7
 6383 02ac 3046     		mov	r0, r6
 6384 02ae 8DF80730 		strb	r3, [sp, #7]
 6385              	.LVL505:
 124:../../../lib/pd2dsy/libdaisy/src/dev/oled_ssd130x.h ****         spi_.BlockingTransmit(&cmd, 1);
 6386              		.loc 3 124 23 view .LVU1507
 6387              	.LBE1605:
 6388              	.LBI1604:
ARM GAS  /var/folders/fb/yfxt3z4538j6z0vjt03w70vc0000gn/T//ccrD3Rdr.s 			page 174


 122:../../../lib/pd2dsy/libdaisy/src/dev/oled_ssd130x.h ****     {
 6389              		.loc 3 122 10 is_stmt 1 view .LVU1508
 6390              	.LBB1606:
 124:../../../lib/pd2dsy/libdaisy/src/dev/oled_ssd130x.h ****         spi_.BlockingTransmit(&cmd, 1);
 6391              		.loc 3 124 9 view .LVU1509
 124:../../../lib/pd2dsy/libdaisy/src/dev/oled_ssd130x.h ****         spi_.BlockingTransmit(&cmd, 1);
 6392              		.loc 3 124 23 is_stmt 0 view .LVU1510
 6393 02b2 FFF7FEFF 		bl	dsy_gpio_write
 6394              	.LVL506:
 125:../../../lib/pd2dsy/libdaisy/src/dev/oled_ssd130x.h ****     };
 6395              		.loc 3 125 9 is_stmt 1 view .LVU1511
 125:../../../lib/pd2dsy/libdaisy/src/dev/oled_ssd130x.h ****     };
 6396              		.loc 3 125 30 is_stmt 0 view .LVU1512
 6397 02b6 2A46     		mov	r2, r5
 6398 02b8 0DF10701 		add	r1, sp, #7
 6399 02bc 6423     		movs	r3, #100
 6400 02be 2046     		mov	r0, r4
 6401 02c0 FFF7FEFF 		bl	_ZN5daisy9SpiHandle16BlockingTransmitEPhjm
 6402              	.LVL507:
 125:../../../lib/pd2dsy/libdaisy/src/dev/oled_ssd130x.h ****     };
 6403              		.loc 3 125 30 view .LVU1513
 6404 02c4 AF23     		movs	r3, #175
 6405              	.LBE1606:
 6406              	.LBE1604:
 6407              	.LBB1607:
 6408              	.LBB1608:
 124:../../../lib/pd2dsy/libdaisy/src/dev/oled_ssd130x.h ****         spi_.BlockingTransmit(&cmd, 1);
 6409              		.loc 3 124 23 view .LVU1514
 6410 02c6 3946     		mov	r1, r7
 6411 02c8 3046     		mov	r0, r6
 6412 02ca 8DF80730 		strb	r3, [sp, #7]
 6413              	.LVL508:
 124:../../../lib/pd2dsy/libdaisy/src/dev/oled_ssd130x.h ****         spi_.BlockingTransmit(&cmd, 1);
 6414              		.loc 3 124 23 view .LVU1515
 6415              	.LBE1608:
 6416              	.LBI1607:
 122:../../../lib/pd2dsy/libdaisy/src/dev/oled_ssd130x.h ****     {
 6417              		.loc 3 122 10 is_stmt 1 view .LVU1516
 6418              	.LBB1609:
 124:../../../lib/pd2dsy/libdaisy/src/dev/oled_ssd130x.h ****         spi_.BlockingTransmit(&cmd, 1);
 6419              		.loc 3 124 9 view .LVU1517
 124:../../../lib/pd2dsy/libdaisy/src/dev/oled_ssd130x.h ****         spi_.BlockingTransmit(&cmd, 1);
 6420              		.loc 3 124 23 is_stmt 0 view .LVU1518
 6421 02ce FFF7FEFF 		bl	dsy_gpio_write
 6422              	.LVL509:
 125:../../../lib/pd2dsy/libdaisy/src/dev/oled_ssd130x.h ****     };
 6423              		.loc 3 125 9 is_stmt 1 view .LVU1519
 125:../../../lib/pd2dsy/libdaisy/src/dev/oled_ssd130x.h ****     };
 6424              		.loc 3 125 30 is_stmt 0 view .LVU1520
 6425 02d2 6423     		movs	r3, #100
 6426 02d4 2A46     		mov	r2, r5
 6427 02d6 0DF10701 		add	r1, sp, #7
 6428 02da 2046     		mov	r0, r4
 6429 02dc FFF7FEFF 		bl	_ZN5daisy9SpiHandle16BlockingTransmitEPhjm
 6430              	.LVL510:
 125:../../../lib/pd2dsy/libdaisy/src/dev/oled_ssd130x.h ****     };
 6431              		.loc 3 125 30 view .LVU1521
ARM GAS  /var/folders/fb/yfxt3z4538j6z0vjt03w70vc0000gn/T//ccrD3Rdr.s 			page 175


 6432              	.LBE1609:
 6433              	.LBE1607:
 247:../../../lib/pd2dsy/libdaisy/src/dev/oled_ssd130x.h **** 
 6434              		.loc 3 247 5 view .LVU1522
 6435 02e0 02B0     		add	sp, sp, #8
 6436              		.cfi_def_cfa_offset 40
 6437              		@ sp needed
 6438 02e2 BDE8F041 		pop	{r4, r5, r6, r7, r8, lr}
 6439              		.cfi_restore 14
 6440              		.cfi_restore 8
 6441              		.cfi_restore 7
 6442              		.cfi_restore 6
 6443              		.cfi_restore 5
 6444              		.cfi_restore 4
 6445              		.cfi_def_cfa_offset 16
 6446              	.LVL511:
 247:../../../lib/pd2dsy/libdaisy/src/dev/oled_ssd130x.h **** 
 6447              		.loc 3 247 5 view .LVU1523
 6448 02e6 04B0     		add	sp, sp, #16
 6449              		.cfi_def_cfa_offset 0
 6450 02e8 7047     		bx	lr
 6451              		.cfi_endproc
 6452              	.LFE3058:
 6454 02ea 00BF     		.section	.text._ZN10json2daisy8DaisyPod4InitEb,"axG",%progbits,_ZN10json2daisy8DaisyPod4InitEb,com
 6455              		.align	1
 6456              		.p2align 2,,3
 6457              		.weak	_ZN10json2daisy8DaisyPod4InitEb
 6458              		.syntax unified
 6459              		.thumb
 6460              		.thumb_func
 6462              	_ZN10json2daisy8DaisyPod4InitEb:
 6463              	.LVL512:
 6464              	.LFB2987:
  40:source/HeavyDaisy_grillosychicharrasosc.hpp **** 
  41:source/HeavyDaisy_grillosychicharrasosc.hpp ****   /** Initializes the board according to the JSON board description
  42:source/HeavyDaisy_grillosychicharrasosc.hpp ****    *  \param boost boosts the clock speed from 400 to 480 MHz
  43:source/HeavyDaisy_grillosychicharrasosc.hpp ****    */
  44:source/HeavyDaisy_grillosychicharrasosc.hpp ****   void Init(bool boost=true) 
 6465              		.loc 5 44 8 is_stmt 1 view -0
 6466              		.cfi_startproc
 6467              		@ args = 0, pretend = 0, frame = 120
 6468              		@ frame_needed = 0, uses_anonymous_args = 0
  45:source/HeavyDaisy_grillosychicharrasosc.hpp ****   {
  46:source/HeavyDaisy_grillosychicharrasosc.hpp ****     som.Configure();
 6469              		.loc 5 46 5 view .LVU1525
  44:source/HeavyDaisy_grillosychicharrasosc.hpp ****   {
 6470              		.loc 5 44 8 is_stmt 0 view .LVU1526
 6471 0000 2DE9F04F 		push	{r4, r5, r6, r7, r8, r9, r10, fp, lr}
 6472              		.cfi_def_cfa_offset 36
 6473              		.cfi_offset 4, -36
 6474              		.cfi_offset 5, -32
 6475              		.cfi_offset 6, -28
 6476              		.cfi_offset 7, -24
 6477              		.cfi_offset 8, -20
 6478              		.cfi_offset 9, -16
 6479              		.cfi_offset 10, -12
 6480              		.cfi_offset 11, -8
ARM GAS  /var/folders/fb/yfxt3z4538j6z0vjt03w70vc0000gn/T//ccrD3Rdr.s 			page 176


 6481              		.cfi_offset 14, -4
 6482 0004 0546     		mov	r5, r0
 6483 0006 A7B0     		sub	sp, sp, #156
 6484              		.cfi_def_cfa_offset 192
  47:source/HeavyDaisy_grillosychicharrasosc.hpp ****     som.Init(boost);
  48:source/HeavyDaisy_grillosychicharrasosc.hpp ****  
  49:source/HeavyDaisy_grillosychicharrasosc.hpp **** 
  50:source/HeavyDaisy_grillosychicharrasosc.hpp ****     // Switches
  51:source/HeavyDaisy_grillosychicharrasosc.hpp ****     sw1.Init(som.GetPin(27), som.AudioCallbackRate(), daisy::Switch::TYPE_MOMENTARY, daisy::Switch:
 6485              		.loc 5 51 13 view .LVU1527
 6486 0008 4FF00009 		mov	r9, #0
  44:source/HeavyDaisy_grillosychicharrasosc.hpp ****   {
 6487              		.loc 5 44 8 view .LVU1528
 6488 000c 0891     		str	r1, [sp, #32]
  46:source/HeavyDaisy_grillosychicharrasosc.hpp ****     som.Init(boost);
 6489              		.loc 5 46 18 view .LVU1529
 6490 000e FFF7FEFF 		bl	_ZN5daisy9DaisySeed9ConfigureEv
 6491              	.LVL513:
  47:source/HeavyDaisy_grillosychicharrasosc.hpp ****     som.Init(boost);
 6492              		.loc 5 47 5 is_stmt 1 view .LVU1530
  47:source/HeavyDaisy_grillosychicharrasosc.hpp ****     som.Init(boost);
 6493              		.loc 5 47 13 is_stmt 0 view .LVU1531
 6494 0012 0899     		ldr	r1, [sp, #32]
 6495 0014 2846     		mov	r0, r5
 6496 0016 FFF7FEFF 		bl	_ZN5daisy9DaisySeed4InitEb
 6497              	.LVL514:
 6498              		.loc 5 51 5 is_stmt 1 view .LVU1532
 6499              		.loc 5 51 13 is_stmt 0 view .LVU1533
 6500 001a 1B20     		movs	r0, #27
 6501 001c FFF7FEFF 		bl	_ZN5daisy9DaisySeed6GetPinEh
 6502              	.LVL515:
 6503 0020 0346     		mov	r3, r0	@ movhi
 6504 0022 2846     		mov	r0, r5
  52:source/HeavyDaisy_grillosychicharrasosc.hpp ****  
  53:source/HeavyDaisy_grillosychicharrasosc.hpp **** 
  54:source/HeavyDaisy_grillosychicharrasosc.hpp ****     // Single channel ADC initialization
  55:source/HeavyDaisy_grillosychicharrasosc.hpp ****     cfg[0].InitSingle(som.GetPin(21)); 
 6505              		.loc 5 55 22 view .LVU1534
 6506 0024 05F13C04 		add	r4, r5, #60
  51:source/HeavyDaisy_grillosychicharrasosc.hpp ****  
 6507              		.loc 5 51 13 view .LVU1535
 6508 0028 ADF82C30 		strh	r3, [sp, #44]	@ movhi
 6509 002c FFF7FEFF 		bl	_ZNK5daisy9DaisySeed17AudioCallbackRateEv
 6510              	.LVL516:
 6511 0030 0123     		movs	r3, #1
 6512 0032 0B99     		ldr	r1, [sp, #44]
 6513 0034 05F1C400 		add	r0, r5, #196
 6514 0038 CDF80090 		str	r9, [sp]
 6515 003c 1A46     		mov	r2, r3
  56:source/HeavyDaisy_grillosychicharrasosc.hpp ****     som.adc.Init(cfg, ANALOG_COUNT);
 6516              		.loc 5 56 17 view .LVU1536
 6517 003e 05F1180A 		add	r10, r5, #24
  51:source/HeavyDaisy_grillosychicharrasosc.hpp ****  
 6518              		.loc 5 51 13 view .LVU1537
 6519 0042 FFF7FEFF 		bl	_ZN5daisy6Switch4InitE12dsy_gpio_pinfNS0_4TypeENS0_8PolarityENS0_4PullE
 6520              	.LVL517:
  55:source/HeavyDaisy_grillosychicharrasosc.hpp ****     som.adc.Init(cfg, ANALOG_COUNT);
ARM GAS  /var/folders/fb/yfxt3z4538j6z0vjt03w70vc0000gn/T//ccrD3Rdr.s 			page 177


 6521              		.loc 5 55 5 is_stmt 1 view .LVU1538
  55:source/HeavyDaisy_grillosychicharrasosc.hpp ****     som.adc.Init(cfg, ANALOG_COUNT);
 6522              		.loc 5 55 22 is_stmt 0 view .LVU1539
 6523 0046 1520     		movs	r0, #21
 6524 0048 FFF7FEFF 		bl	_ZN5daisy9DaisySeed6GetPinEh
 6525              	.LVL518:
 6526 004c ADF83000 		strh	r0, [sp, #48]	@ movhi
 6527 0050 0C99     		ldr	r1, [sp, #48]
 6528 0052 2046     		mov	r0, r4
 6529 0054 FFF7FEFF 		bl	_ZN5daisy16AdcChannelConfig10InitSingleE12dsy_gpio_pin
 6530              	.LVL519:
 6531              		.loc 5 56 5 is_stmt 1 view .LVU1540
 6532              		.loc 5 56 17 is_stmt 0 view .LVU1541
 6533 0058 0423     		movs	r3, #4
 6534 005a 0122     		movs	r2, #1
 6535 005c 2146     		mov	r1, r4
 6536 005e 5046     		mov	r0, r10
  57:source/HeavyDaisy_grillosychicharrasosc.hpp ****  
  58:source/HeavyDaisy_grillosychicharrasosc.hpp **** 
  59:source/HeavyDaisy_grillosychicharrasosc.hpp ****     // AnalogControl objects
  60:source/HeavyDaisy_grillosychicharrasosc.hpp ****     knob1.Init(som.adc.GetPtr(0), som.AudioCallbackRate(), false, false); 
  61:source/HeavyDaisy_grillosychicharrasosc.hpp **** 
  62:source/HeavyDaisy_grillosychicharrasosc.hpp ****     // RBG LEDs 
  63:source/HeavyDaisy_grillosychicharrasosc.hpp ****     led1.Init(som.GetPin(20), som.GetPin(19), som.GetPin(18), true);
 6537              		.loc 5 63 14 view .LVU1542
 6538 0060 05F17006 		add	r6, r5, #112
  56:source/HeavyDaisy_grillosychicharrasosc.hpp ****  
 6539              		.loc 5 56 17 view .LVU1543
 6540 0064 FFF7FEFF 		bl	_ZN5daisy9AdcHandle4InitEPNS_16AdcChannelConfigEjNS0_12OverSamplingE
 6541              	.LVL520:
  60:source/HeavyDaisy_grillosychicharrasosc.hpp **** 
 6542              		.loc 5 60 5 is_stmt 1 view .LVU1544
  60:source/HeavyDaisy_grillosychicharrasosc.hpp **** 
 6543              		.loc 5 60 15 is_stmt 0 view .LVU1545
 6544 0068 4946     		mov	r1, r9
 6545 006a 5046     		mov	r0, r10
 6546              		.loc 5 63 14 view .LVU1546
 6547 006c 0124     		movs	r4, #1
  60:source/HeavyDaisy_grillosychicharrasosc.hpp **** 
 6548              		.loc 5 60 15 view .LVU1547
 6549 006e FFF7FEFF 		bl	_ZNK5daisy9AdcHandle6GetPtrEh
 6550              	.LVL521:
 6551 0072 0146     		mov	r1, r0
 6552 0074 2846     		mov	r0, r5
 6553              	.LBB1639:
 6554              	.LBB1640:
  25:../../../lib/pd2dsy/libdaisy/src/hid/disp/oled_display.h **** 
 6555              		.loc 2 25 44 view .LVU1548
 6556 0076 EB46     		mov	fp, sp
 6557              	.LBE1640:
 6558              	.LBE1639:
  60:source/HeavyDaisy_grillosychicharrasosc.hpp **** 
 6559              		.loc 5 60 15 view .LVU1549
 6560 0078 0891     		str	r1, [sp, #32]
 6561 007a FFF7FEFF 		bl	_ZNK5daisy9DaisySeed17AudioCallbackRateEv
 6562              	.LVL522:
 6563 007e DFED540A 		vldr.32	s1, .L415
ARM GAS  /var/folders/fb/yfxt3z4538j6z0vjt03w70vc0000gn/T//ccrD3Rdr.s 			page 178


 6564 0082 4A46     		mov	r2, r9
 6565 0084 0899     		ldr	r1, [sp, #32]
 6566 0086 4B46     		mov	r3, r9
 6567 0088 05F15000 		add	r0, r5, #80
 6568 008c FFF7FEFF 		bl	_ZN5daisy13AnalogControl4InitEPtfbbf
 6569              	.LVL523:
 6570              		.loc 5 63 5 is_stmt 1 view .LVU1550
 6571              		.loc 5 63 14 is_stmt 0 view .LVU1551
 6572 0090 1420     		movs	r0, #20
 6573 0092 FFF7FEFF 		bl	_ZN5daisy9DaisySeed6GetPinEh
 6574              	.LVL524:
 6575 0096 0346     		mov	r3, r0	@ movhi
 6576 0098 1320     		movs	r0, #19
 6577 009a ADF83430 		strh	r3, [sp, #52]	@ movhi
 6578 009e FFF7FEFF 		bl	_ZN5daisy9DaisySeed6GetPinEh
 6579              	.LVL525:
 6580 00a2 ADF83800 		strh	r0, [sp, #56]	@ movhi
 6581 00a6 1220     		movs	r0, #18
 6582 00a8 FFF7FEFF 		bl	_ZN5daisy9DaisySeed6GetPinEh
 6583              	.LVL526:
 6584 00ac 0D99     		ldr	r1, [sp, #52]
 6585 00ae ADF83C00 		strh	r0, [sp, #60]	@ movhi
 6586 00b2 3046     		mov	r0, r6
 6587 00b4 0094     		str	r4, [sp]
 6588 00b6 DDE90E23 		ldrd	r2, r3, [sp, #56]
 6589 00ba FFF7FEFF 		bl	_ZN5daisy6RgbLed4InitE12dsy_gpio_pinS1_S1_b
 6590              	.LVL527:
  64:source/HeavyDaisy_grillosychicharrasosc.hpp ****     led1.Set(0.0f, 0.0f, 0.0f); 
 6591              		.loc 5 64 5 is_stmt 1 view .LVU1552
 6592              		.loc 5 64 13 is_stmt 0 view .LVU1553
 6593 00be 9FED451A 		vldr.32	s2, .L415+4
 6594 00c2 3046     		mov	r0, r6
 6595              	.LBB1645:
 6596              	.LBB1641:
  25:../../../lib/pd2dsy/libdaisy/src/hid/disp/oled_display.h **** 
 6597              		.loc 2 25 44 view .LVU1554
 6598 00c4 05F1DC06 		add	r6, r5, #220
 6599              	.LBE1641:
 6600              	.LBE1645:
 6601              		.loc 5 64 13 view .LVU1555
 6602 00c8 F0EE410A 		vmov.f32	s1, s2
 6603 00cc B0EE410A 		vmov.f32	s0, s2
 6604 00d0 FFF7FEFF 		bl	_ZN5daisy6RgbLed3SetEfff
 6605              	.LVL528:
  65:source/HeavyDaisy_grillosychicharrasosc.hpp **** 
  66:source/HeavyDaisy_grillosychicharrasosc.hpp ****     // Display
  67:source/HeavyDaisy_grillosychicharrasosc.hpp ****     
  68:source/HeavyDaisy_grillosychicharrasosc.hpp ****     daisy::OledDisplay<daisy::SSD130x4WireSpi128x64Driver>::Config display_config;
 6606              		.loc 5 68 5 is_stmt 1 view .LVU1556
 6607              	.LBB1646:
 6608              	.LBI1646:
  20:../../../lib/pd2dsy/libdaisy/src/hid/disp/oled_display.h ****     {
 6609              		.loc 2 20 12 view .LVU1557
 6610              	.LBB1647:
 6611              	.LBI1647:
 148:../../../lib/pd2dsy/libdaisy/src/dev/oled_ssd130x.h ****     {
 6612              		.loc 3 148 12 view .LVU1558
ARM GAS  /var/folders/fb/yfxt3z4538j6z0vjt03w70vc0000gn/T//ccrD3Rdr.s 			page 179


 6613              	.LBB1648:
 6614              	.LBI1648:
  70:../../../lib/pd2dsy/libdaisy/src/dev/oled_ssd130x.h ****         {
 6615              		.loc 3 70 9 view .LVU1559
 6616              	.LBB1649:
 6617              	.LBB1650:
 6618              	.LBI1650:
 6619              		.file 17 "../../../lib/pd2dsy/libdaisy/src/per/spi.h"
   1:../../../lib/pd2dsy/libdaisy/src/per/spi.h **** #pragma once
   2:../../../lib/pd2dsy/libdaisy/src/per/spi.h **** #ifndef DSY_SPI_H
   3:../../../lib/pd2dsy/libdaisy/src/per/spi.h **** #define DSY_SPI_H
   4:../../../lib/pd2dsy/libdaisy/src/per/spi.h **** 
   5:../../../lib/pd2dsy/libdaisy/src/per/spi.h **** #include "daisy_core.h"
   6:../../../lib/pd2dsy/libdaisy/src/per/spi.h **** 
   7:../../../lib/pd2dsy/libdaisy/src/per/spi.h **** /* TODO:
   8:../../../lib/pd2dsy/libdaisy/src/per/spi.h **** - Add documentation
   9:../../../lib/pd2dsy/libdaisy/src/per/spi.h **** - Add IT
  10:../../../lib/pd2dsy/libdaisy/src/per/spi.h **** */
  11:../../../lib/pd2dsy/libdaisy/src/per/spi.h **** 
  12:../../../lib/pd2dsy/libdaisy/src/per/spi.h **** namespace daisy
  13:../../../lib/pd2dsy/libdaisy/src/per/spi.h **** {
  14:../../../lib/pd2dsy/libdaisy/src/per/spi.h **** /** @addtogroup serial
  15:../../../lib/pd2dsy/libdaisy/src/per/spi.h **** @{
  16:../../../lib/pd2dsy/libdaisy/src/per/spi.h **** */
  17:../../../lib/pd2dsy/libdaisy/src/per/spi.h **** 
  18:../../../lib/pd2dsy/libdaisy/src/per/spi.h **** /**  Handler for serial peripheral interface */
  19:../../../lib/pd2dsy/libdaisy/src/per/spi.h **** class SpiHandle
  20:../../../lib/pd2dsy/libdaisy/src/per/spi.h **** {
  21:../../../lib/pd2dsy/libdaisy/src/per/spi.h ****   public:
  22:../../../lib/pd2dsy/libdaisy/src/per/spi.h ****     struct Config
  23:../../../lib/pd2dsy/libdaisy/src/per/spi.h ****     {
  24:../../../lib/pd2dsy/libdaisy/src/per/spi.h ****         enum class Peripheral
  25:../../../lib/pd2dsy/libdaisy/src/per/spi.h ****         {
  26:../../../lib/pd2dsy/libdaisy/src/per/spi.h ****             SPI_1,
  27:../../../lib/pd2dsy/libdaisy/src/per/spi.h ****             SPI_2,
  28:../../../lib/pd2dsy/libdaisy/src/per/spi.h ****             SPI_3,
  29:../../../lib/pd2dsy/libdaisy/src/per/spi.h ****             SPI_4,
  30:../../../lib/pd2dsy/libdaisy/src/per/spi.h ****             SPI_5,
  31:../../../lib/pd2dsy/libdaisy/src/per/spi.h ****             SPI_6,
  32:../../../lib/pd2dsy/libdaisy/src/per/spi.h ****         };
  33:../../../lib/pd2dsy/libdaisy/src/per/spi.h **** 
  34:../../../lib/pd2dsy/libdaisy/src/per/spi.h ****         enum class Mode
  35:../../../lib/pd2dsy/libdaisy/src/per/spi.h ****         {
  36:../../../lib/pd2dsy/libdaisy/src/per/spi.h ****             MASTER,
  37:../../../lib/pd2dsy/libdaisy/src/per/spi.h ****             SLAVE,
  38:../../../lib/pd2dsy/libdaisy/src/per/spi.h ****         };
  39:../../../lib/pd2dsy/libdaisy/src/per/spi.h **** 
  40:../../../lib/pd2dsy/libdaisy/src/per/spi.h ****         enum class Direction
  41:../../../lib/pd2dsy/libdaisy/src/per/spi.h ****         {
  42:../../../lib/pd2dsy/libdaisy/src/per/spi.h ****             TWO_LINES,
  43:../../../lib/pd2dsy/libdaisy/src/per/spi.h ****             TWO_LINES_TX_ONLY,
  44:../../../lib/pd2dsy/libdaisy/src/per/spi.h ****             TWO_LINES_RX_ONLY,
  45:../../../lib/pd2dsy/libdaisy/src/per/spi.h ****             ONE_LINE,
  46:../../../lib/pd2dsy/libdaisy/src/per/spi.h ****         };
  47:../../../lib/pd2dsy/libdaisy/src/per/spi.h **** 
  48:../../../lib/pd2dsy/libdaisy/src/per/spi.h ****         enum class ClockPolarity
  49:../../../lib/pd2dsy/libdaisy/src/per/spi.h ****         {
ARM GAS  /var/folders/fb/yfxt3z4538j6z0vjt03w70vc0000gn/T//ccrD3Rdr.s 			page 180


  50:../../../lib/pd2dsy/libdaisy/src/per/spi.h ****             LOW,
  51:../../../lib/pd2dsy/libdaisy/src/per/spi.h ****             HIGH,
  52:../../../lib/pd2dsy/libdaisy/src/per/spi.h ****         };
  53:../../../lib/pd2dsy/libdaisy/src/per/spi.h **** 
  54:../../../lib/pd2dsy/libdaisy/src/per/spi.h ****         enum class ClockPhase
  55:../../../lib/pd2dsy/libdaisy/src/per/spi.h ****         {
  56:../../../lib/pd2dsy/libdaisy/src/per/spi.h ****             ONE_EDGE,
  57:../../../lib/pd2dsy/libdaisy/src/per/spi.h ****             TWO_EDGE,
  58:../../../lib/pd2dsy/libdaisy/src/per/spi.h ****         };
  59:../../../lib/pd2dsy/libdaisy/src/per/spi.h **** 
  60:../../../lib/pd2dsy/libdaisy/src/per/spi.h ****         enum class NSS
  61:../../../lib/pd2dsy/libdaisy/src/per/spi.h ****         {
  62:../../../lib/pd2dsy/libdaisy/src/per/spi.h ****             SOFT,
  63:../../../lib/pd2dsy/libdaisy/src/per/spi.h ****             HARD_INPUT,
  64:../../../lib/pd2dsy/libdaisy/src/per/spi.h ****             HARD_OUTPUT,
  65:../../../lib/pd2dsy/libdaisy/src/per/spi.h ****         };
  66:../../../lib/pd2dsy/libdaisy/src/per/spi.h **** 
  67:../../../lib/pd2dsy/libdaisy/src/per/spi.h ****         enum class BaudPrescaler
  68:../../../lib/pd2dsy/libdaisy/src/per/spi.h ****         {
  69:../../../lib/pd2dsy/libdaisy/src/per/spi.h ****             PS_2,
  70:../../../lib/pd2dsy/libdaisy/src/per/spi.h ****             PS_4,
  71:../../../lib/pd2dsy/libdaisy/src/per/spi.h ****             PS_8,
  72:../../../lib/pd2dsy/libdaisy/src/per/spi.h ****             PS_16,
  73:../../../lib/pd2dsy/libdaisy/src/per/spi.h ****             PS_32,
  74:../../../lib/pd2dsy/libdaisy/src/per/spi.h ****             PS_64,
  75:../../../lib/pd2dsy/libdaisy/src/per/spi.h ****             PS_128,
  76:../../../lib/pd2dsy/libdaisy/src/per/spi.h ****             PS_256,
  77:../../../lib/pd2dsy/libdaisy/src/per/spi.h ****         };
  78:../../../lib/pd2dsy/libdaisy/src/per/spi.h **** 
  79:../../../lib/pd2dsy/libdaisy/src/per/spi.h ****         struct
  80:../../../lib/pd2dsy/libdaisy/src/per/spi.h ****         {
  81:../../../lib/pd2dsy/libdaisy/src/per/spi.h ****             dsy_gpio_pin sclk; /**< & */
  82:../../../lib/pd2dsy/libdaisy/src/per/spi.h ****             dsy_gpio_pin miso; /**< & */
  83:../../../lib/pd2dsy/libdaisy/src/per/spi.h ****             dsy_gpio_pin mosi; /**< & */
  84:../../../lib/pd2dsy/libdaisy/src/per/spi.h ****             dsy_gpio_pin nss;  /**< & */
  85:../../../lib/pd2dsy/libdaisy/src/per/spi.h ****         } pin_config;
  86:../../../lib/pd2dsy/libdaisy/src/per/spi.h **** 
  87:../../../lib/pd2dsy/libdaisy/src/per/spi.h ****         Config()
 6620              		.loc 17 87 9 view .LVU1560
 6621              	.LBE1650:
 6622              	.LBE1649:
 6623              	.LBE1648:
 6624              	.LBE1647:
 6625              	.LBE1646:
  88:../../../lib/pd2dsy/libdaisy/src/per/spi.h ****         {
  89:../../../lib/pd2dsy/libdaisy/src/per/spi.h ****             // user must specify periph, mode, direction, nss, and pin_config
  90:../../../lib/pd2dsy/libdaisy/src/per/spi.h ****             datasize       = 8;
 6626              		.loc 17 90 13 view .LVU1561
  91:../../../lib/pd2dsy/libdaisy/src/per/spi.h ****             clock_polarity = ClockPolarity::LOW;
 6627              		.loc 17 91 13 view .LVU1562
  92:../../../lib/pd2dsy/libdaisy/src/per/spi.h ****             clock_phase    = ClockPhase::ONE_EDGE;
 6628              		.loc 17 92 13 view .LVU1563
  93:../../../lib/pd2dsy/libdaisy/src/per/spi.h ****             baud_prescaler = BaudPrescaler::PS_8;
 6629              		.loc 17 93 13 view .LVU1564
  73:../../../lib/pd2dsy/libdaisy/src/dev/oled_ssd130x.h ****         }
 6630              		.loc 3 73 13 view .LVU1565
 6631              	.LBB1664:
ARM GAS  /var/folders/fb/yfxt3z4538j6z0vjt03w70vc0000gn/T//ccrD3Rdr.s 			page 181


 6632              	.LBB1660:
 6633              	.LBB1656:
 6634              	.LBB1652:
 6635              	.LBB1651:
 6636              	.LBI1651:
  81:../../../lib/pd2dsy/libdaisy/src/dev/oled_ssd130x.h ****         {
 6637              		.loc 3 81 14 view .LVU1566
 6638              	.LBE1651:
 6639              	.LBE1652:
 6640              	.LBE1656:
 6641              	.LBE1660:
 6642              	.LBE1664:
  84:../../../lib/pd2dsy/libdaisy/src/dev/oled_ssd130x.h ****             spi_config.mode   = SpiHandle::Config::Mode::MASTER;
 6643              		.loc 3 84 13 view .LVU1567
  85:../../../lib/pd2dsy/libdaisy/src/dev/oled_ssd130x.h ****             spi_config.direction
 6644              		.loc 3 85 13 view .LVU1568
  86:../../../lib/pd2dsy/libdaisy/src/dev/oled_ssd130x.h ****                 = SpiHandle::Config::Direction::TWO_LINES_TX_ONLY;
 6645              		.loc 3 86 13 view .LVU1569
  88:../../../lib/pd2dsy/libdaisy/src/dev/oled_ssd130x.h ****             spi_config.clock_polarity = SpiHandle::Config::ClockPolarity::LOW;
 6646              		.loc 3 88 13 view .LVU1570
  89:../../../lib/pd2dsy/libdaisy/src/dev/oled_ssd130x.h ****             spi_config.clock_phase    = SpiHandle::Config::ClockPhase::ONE_EDGE;
 6647              		.loc 3 89 13 view .LVU1571
  90:../../../lib/pd2dsy/libdaisy/src/dev/oled_ssd130x.h ****             spi_config.nss            = SpiHandle::Config::NSS::HARD_OUTPUT;
 6648              		.loc 3 90 13 view .LVU1572
  91:../../../lib/pd2dsy/libdaisy/src/dev/oled_ssd130x.h ****             spi_config.baud_prescaler = SpiHandle::Config::BaudPrescaler::PS_8;
 6649              		.loc 3 91 13 view .LVU1573
  92:../../../lib/pd2dsy/libdaisy/src/dev/oled_ssd130x.h ****             // SPI pin config
 6650              		.loc 3 92 13 view .LVU1574
  94:../../../lib/pd2dsy/libdaisy/src/dev/oled_ssd130x.h ****             spi_config.pin_config.miso = {DSY_GPIOX, 0};
 6651              		.loc 3 94 13 view .LVU1575
  95:../../../lib/pd2dsy/libdaisy/src/dev/oled_ssd130x.h ****             spi_config.pin_config.mosi = {DSY_GPIOB, 5};
 6652              		.loc 3 95 13 view .LVU1576
  96:../../../lib/pd2dsy/libdaisy/src/dev/oled_ssd130x.h ****             spi_config.pin_config.nss  = {DSY_GPIOG, 10};
 6653              		.loc 3 96 13 view .LVU1577
  97:../../../lib/pd2dsy/libdaisy/src/dev/oled_ssd130x.h ****             // SSD130x control pin config
 6654              		.loc 3 97 13 view .LVU1578
  99:../../../lib/pd2dsy/libdaisy/src/dev/oled_ssd130x.h ****             pin_config.reset = {DSY_GPIOB, 15};
 6655              		.loc 3 99 13 view .LVU1579
 100:../../../lib/pd2dsy/libdaisy/src/dev/oled_ssd130x.h ****         }
 6656              		.loc 3 100 13 view .LVU1580
  69:source/HeavyDaisy_grillosychicharrasosc.hpp ****     display_config.driver_config.transport_config.Defaults();
 6657              		.loc 5 69 5 view .LVU1581
  84:../../../lib/pd2dsy/libdaisy/src/dev/oled_ssd130x.h ****             spi_config.mode   = SpiHandle::Config::Mode::MASTER;
 6658              		.loc 3 84 13 view .LVU1582
  85:../../../lib/pd2dsy/libdaisy/src/dev/oled_ssd130x.h ****             spi_config.direction
 6659              		.loc 3 85 13 view .LVU1583
  86:../../../lib/pd2dsy/libdaisy/src/dev/oled_ssd130x.h ****                 = SpiHandle::Config::Direction::TWO_LINES_TX_ONLY;
 6660              		.loc 3 86 13 view .LVU1584
  88:../../../lib/pd2dsy/libdaisy/src/dev/oled_ssd130x.h ****             spi_config.clock_polarity = SpiHandle::Config::ClockPolarity::LOW;
 6661              		.loc 3 88 13 view .LVU1585
  89:../../../lib/pd2dsy/libdaisy/src/dev/oled_ssd130x.h ****             spi_config.clock_phase    = SpiHandle::Config::ClockPhase::ONE_EDGE;
 6662              		.loc 3 89 13 view .LVU1586
  90:../../../lib/pd2dsy/libdaisy/src/dev/oled_ssd130x.h ****             spi_config.nss            = SpiHandle::Config::NSS::HARD_OUTPUT;
 6663              		.loc 3 90 13 view .LVU1587
  91:../../../lib/pd2dsy/libdaisy/src/dev/oled_ssd130x.h ****             spi_config.baud_prescaler = SpiHandle::Config::BaudPrescaler::PS_8;
 6664              		.loc 3 91 13 view .LVU1588
  92:../../../lib/pd2dsy/libdaisy/src/dev/oled_ssd130x.h ****             // SPI pin config
ARM GAS  /var/folders/fb/yfxt3z4538j6z0vjt03w70vc0000gn/T//ccrD3Rdr.s 			page 182


 6665              		.loc 3 92 13 view .LVU1589
  94:../../../lib/pd2dsy/libdaisy/src/dev/oled_ssd130x.h ****             spi_config.pin_config.miso = {DSY_GPIOX, 0};
 6666              		.loc 3 94 13 view .LVU1590
  95:../../../lib/pd2dsy/libdaisy/src/dev/oled_ssd130x.h ****             spi_config.pin_config.mosi = {DSY_GPIOB, 5};
 6667              		.loc 3 95 13 view .LVU1591
  96:../../../lib/pd2dsy/libdaisy/src/dev/oled_ssd130x.h ****             spi_config.pin_config.nss  = {DSY_GPIOG, 10};
 6668              		.loc 3 96 13 view .LVU1592
  97:../../../lib/pd2dsy/libdaisy/src/dev/oled_ssd130x.h ****             // SSD130x control pin config
 6669              		.loc 3 97 13 view .LVU1593
  99:../../../lib/pd2dsy/libdaisy/src/dev/oled_ssd130x.h ****             pin_config.reset = {DSY_GPIOB, 15};
 6670              		.loc 3 99 13 view .LVU1594
 100:../../../lib/pd2dsy/libdaisy/src/dev/oled_ssd130x.h ****         }
 6671              		.loc 3 100 13 view .LVU1595
  70:source/HeavyDaisy_grillosychicharrasosc.hpp ****     
  71:source/HeavyDaisy_grillosychicharrasosc.hpp ****     display.Init(display_config);
 6672              		.loc 5 71 5 view .LVU1596
 6673              		.loc 5 71 5 is_stmt 0 view .LVU1597
 6674 00d4 0823     		movs	r3, #8
 6675              	.LBB1665:
 6676              	.LBB1661:
 6677              	.LBB1657:
 6678              	.LBB1653:
  71:../../../lib/pd2dsy/libdaisy/src/dev/oled_ssd130x.h ****             // Initialize using defaults
 6679              		.loc 3 71 9 view .LVU1598
 6680 00d6 404A     		ldr	r2, .L415+8
 6681 00d8 0DF1400E 		add	lr, sp, #64
 6682 00dc 1593     		str	r3, [sp, #84]
 6683 00de 0223     		movs	r3, #2
 6684 00e0 1092     		str	r2, [sp, #64]
 6685 00e2 0DF16C0C 		add	ip, sp, #108
 6686 00e6 3D4A     		ldr	r2, .L415+12
 6687 00e8 1494     		str	r4, [sp, #80]
 6688              	.LBE1653:
 6689              	.LBE1657:
 6690              	.LBE1661:
 6691              	.LBE1665:
 6692              	.LBB1666:
 6693              	.LBB1642:
  25:../../../lib/pd2dsy/libdaisy/src/hid/disp/oled_display.h **** 
 6694              		.loc 2 25 44 view .LVU1599
 6695 00ea 6746     		mov	r7, ip
 6696              	.LBE1642:
 6697              	.LBE1666:
 6698              	.LBB1667:
 6699              	.LBB1662:
 6700              	.LBB1658:
 6701              	.LBB1654:
  71:../../../lib/pd2dsy/libdaisy/src/dev/oled_ssd130x.h ****             // Initialize using defaults
 6702              		.loc 3 71 9 view .LVU1600
 6703 00ec 1192     		str	r2, [sp, #68]
 6704 00ee 05F1E802 		add	r2, r5, #232
 6705 00f2 CDF85890 		str	r9, [sp, #88]
 6706              	.LBE1654:
 6707              	.LBE1658:
 6708              	.LBE1662:
 6709              	.LBE1667:
 6710              	.LBB1668:
ARM GAS  /var/folders/fb/yfxt3z4538j6z0vjt03w70vc0000gn/T//ccrD3Rdr.s 			page 183


 6711              	.LBB1669:
 6712              	.LBB1670:
 6713              	.LBB1671:
 6714              	.LBB1672:
 124:../../../lib/pd2dsy/libdaisy/src/dev/oled_ssd130x.h ****         spi_.BlockingTransmit(&cmd, 1);
 6715              		.loc 3 124 24 view .LVU1601
 6716 00f6 E435     		adds	r5, r5, #228
 6717              	.LVL529:
 124:../../../lib/pd2dsy/libdaisy/src/dev/oled_ssd130x.h ****         spi_.BlockingTransmit(&cmd, 1);
 6718              		.loc 3 124 24 view .LVU1602
 6719 00f8 CDF85C90 		str	r9, [sp, #92]
 6720 00fc 9046     		mov	r8, r2
 6721 00fe CDF84890 		str	r9, [sp, #72]
 6722 0102 CDF84C90 		str	r9, [sp, #76]
 6723 0106 0992     		str	r2, [sp, #36]
 6724 0108 CDE91833 		strd	r3, r3, [sp, #96]
 6725              	.LBE1672:
 6726              	.LBE1671:
 6727              	.LBE1670:
 6728              	.LBE1669:
 6729              	.LBE1668:
 6730              	.LBB1696:
 6731              	.LBB1663:
 6732              	.LBB1659:
 6733              	.LBB1655:
  71:../../../lib/pd2dsy/libdaisy/src/dev/oled_ssd130x.h ****             // Initialize using defaults
 6734              		.loc 3 71 9 view .LVU1603
 6735 010c 344B     		ldr	r3, .L415+16
 6736 010e 1A93     		str	r3, [sp, #104]
 6737              	.LBE1655:
 6738              	.LBE1659:
 6739              	.LBE1663:
 6740              	.LBE1696:
 6741              	.LBB1697:
 6742              	.LBB1643:
  25:../../../lib/pd2dsy/libdaisy/src/hid/disp/oled_display.h **** 
 6743              		.loc 2 25 44 view .LVU1604
 6744 0110 1EAB     		add	r3, sp, #120
 6745 0112 1C46     		mov	r4, r3
 6746              	.LBE1643:
 6747              	.LBE1697:
 6748              	.LBB1698:
 6749              	.LBB1694:
 6750              	.LBB1692:
 6751              	.LBB1678:
 6752              	.LBB1673:
 124:../../../lib/pd2dsy/libdaisy/src/dev/oled_ssd130x.h ****         spi_.BlockingTransmit(&cmd, 1);
 6753              		.loc 3 124 24 view .LVU1605
 6754 0114 B023     		movs	r3, #176
 6755 0116 0893     		str	r3, [sp, #32]
 6756 0118 BEE80F00 		ldmia	lr!, {r0, r1, r2, r3}
 6757 011c ACE80F00 		stmia	ip!, {r0, r1, r2, r3}
 6758 0120 BEE80F00 		ldmia	lr!, {r0, r1, r2, r3}
 6759 0124 ACE80F00 		stmia	ip!, {r0, r1, r2, r3}
 6760 0128 9EE80700 		ldm	lr, {r0, r1, r2}
 6761 012c 8CE80700 		stm	ip, {r0, r1, r2}
 6762              	.LBE1673:
ARM GAS  /var/folders/fb/yfxt3z4538j6z0vjt03w70vc0000gn/T//ccrD3Rdr.s 			page 184


 6763              	.LBE1678:
 6764              	.LBE1692:
 6765              	.LBE1694:
 6766              	.LBE1698:
 6767              	.LBB1699:
 6768              	.LBI1639:
  25:../../../lib/pd2dsy/libdaisy/src/hid/disp/oled_display.h **** 
 6769              		.loc 2 25 10 is_stmt 1 view .LVU1606
 6770              	.LBB1644:
  25:../../../lib/pd2dsy/libdaisy/src/hid/disp/oled_display.h **** 
 6771              		.loc 2 25 44 is_stmt 0 view .LVU1607
 6772 0130 0FCC     		ldmia	r4!, {r0, r1, r2, r3}
 6773 0132 ABE80F00 		stmia	fp!, {r0, r1, r2, r3}
 6774 0136 94E80F00 		ldm	r4, {r0, r1, r2, r3}
 6775 013a 8BE80F00 		stm	fp, {r0, r1, r2, r3}
 6776 013e 3046     		mov	r0, r6
 6777 0140 97E80E00 		ldm	r7, {r1, r2, r3}
 6778 0144 FFF7FEFF 		bl	_ZN5daisy13SSD130xDriverILj128ELj64ENS_24SSD130x4WireSpiTransportEE4InitENS2_6ConfigE
 6779              	.LVL530:
  25:../../../lib/pd2dsy/libdaisy/src/hid/disp/oled_display.h **** 
 6780              		.loc 2 25 44 view .LVU1608
 6781              	.LBE1644:
 6782              	.LBE1699:
  72:source/HeavyDaisy_grillosychicharrasosc.hpp ****       display.Fill(0);
 6783              		.loc 5 72 7 is_stmt 1 view .LVU1609
 6784              	.LBB1700:
 6785              	.LBI1700:
  34:../../../lib/pd2dsy/libdaisy/src/hid/disp/oled_display.h **** 
 6786              		.loc 2 34 10 view .LVU1610
 6787              	.LBB1701:
 6788              	.LBB1702:
 264:../../../lib/pd2dsy/libdaisy/src/dev/oled_ssd130x.h ****         {
 6789              		.loc 3 264 29 view .LVU1611
 266:../../../lib/pd2dsy/libdaisy/src/dev/oled_ssd130x.h ****         }
 6790              		.loc 3 266 24 is_stmt 0 view .LVU1612
 6791 0148 4946     		mov	r1, r9
 6792 014a 0998     		ldr	r0, [sp, #36]
 6793 014c 4FF48062 		mov	r2, #1024
 6794 0150 FFF7FEFF 		bl	memset
 6795              	.LVL531:
 266:../../../lib/pd2dsy/libdaisy/src/dev/oled_ssd130x.h ****         }
 6796              		.loc 3 266 24 view .LVU1613
 6797 0154 089C     		ldr	r4, [sp, #32]
 6798              	.LVL532:
 6799              	.L412:
 266:../../../lib/pd2dsy/libdaisy/src/dev/oled_ssd130x.h ****         }
 6800              		.loc 3 266 24 view .LVU1614
 6801 0156 4FF00009 		mov	r9, #0
 6802              	.LBE1702:
 6803              	.LBE1701:
 6804              	.LBE1700:
 6805              	.LBB1703:
 6806              	.LBB1695:
 6807              	.LBB1693:
 6808              	.LBB1679:
 6809              	.LBB1674:
 124:../../../lib/pd2dsy/libdaisy/src/dev/oled_ssd130x.h ****         spi_.BlockingTransmit(&cmd, 1);
ARM GAS  /var/folders/fb/yfxt3z4538j6z0vjt03w70vc0000gn/T//ccrD3Rdr.s 			page 185


 6810              		.loc 3 124 23 view .LVU1615
 6811 015a 2846     		mov	r0, r5
 6812 015c 8DF86C40 		strb	r4, [sp, #108]
 6813              	.LVL533:
 124:../../../lib/pd2dsy/libdaisy/src/dev/oled_ssd130x.h ****         spi_.BlockingTransmit(&cmd, 1);
 6814              		.loc 3 124 23 view .LVU1616
 6815              	.LBE1674:
 6816              	.LBI1671:
 122:../../../lib/pd2dsy/libdaisy/src/dev/oled_ssd130x.h ****     {
 6817              		.loc 3 122 10 is_stmt 1 view .LVU1617
 6818              	.LBB1675:
 124:../../../lib/pd2dsy/libdaisy/src/dev/oled_ssd130x.h ****         spi_.BlockingTransmit(&cmd, 1);
 6819              		.loc 3 124 9 view .LVU1618
 6820              	.LBE1675:
 6821              	.LBE1679:
 6822              		.loc 3 283 22 is_stmt 0 view .LVU1619
 6823 0160 0134     		adds	r4, r4, #1
 6824              	.LVL534:
 6825              	.LBB1680:
 6826              	.LBB1676:
 124:../../../lib/pd2dsy/libdaisy/src/dev/oled_ssd130x.h ****         spi_.BlockingTransmit(&cmd, 1);
 6827              		.loc 3 124 23 view .LVU1620
 6828 0162 4946     		mov	r1, r9
 6829 0164 FFF7FEFF 		bl	dsy_gpio_write
 6830              	.LVL535:
 125:../../../lib/pd2dsy/libdaisy/src/dev/oled_ssd130x.h ****     };
 6831              		.loc 3 125 9 is_stmt 1 view .LVU1621
 125:../../../lib/pd2dsy/libdaisy/src/dev/oled_ssd130x.h ****     };
 6832              		.loc 3 125 30 is_stmt 0 view .LVU1622
 6833 0168 6423     		movs	r3, #100
 6834 016a 0122     		movs	r2, #1
 6835 016c 3946     		mov	r1, r7
 6836 016e 3046     		mov	r0, r6
 6837              	.LBE1676:
 6838              	.LBE1680:
 6839              		.loc 3 283 22 view .LVU1623
 6840 0170 E4B2     		uxtb	r4, r4
 6841              	.LBB1681:
 6842              	.LBB1677:
 125:../../../lib/pd2dsy/libdaisy/src/dev/oled_ssd130x.h ****     };
 6843              		.loc 3 125 30 view .LVU1624
 6844 0172 FFF7FEFF 		bl	_ZN5daisy9SpiHandle16BlockingTransmitEPhjm
 6845              	.LVL536:
 125:../../../lib/pd2dsy/libdaisy/src/dev/oled_ssd130x.h ****     };
 6846              		.loc 3 125 30 view .LVU1625
 6847              	.LBE1677:
 6848              	.LBE1681:
 6849              	.LBB1682:
 6850              	.LBB1683:
 124:../../../lib/pd2dsy/libdaisy/src/dev/oled_ssd130x.h ****         spi_.BlockingTransmit(&cmd, 1);
 6851              		.loc 3 124 23 view .LVU1626
 6852 0176 4946     		mov	r1, r9
 6853 0178 2846     		mov	r0, r5
 6854 017a 8DF86C90 		strb	r9, [sp, #108]
 6855              	.LVL537:
 124:../../../lib/pd2dsy/libdaisy/src/dev/oled_ssd130x.h ****         spi_.BlockingTransmit(&cmd, 1);
 6856              		.loc 3 124 23 view .LVU1627
ARM GAS  /var/folders/fb/yfxt3z4538j6z0vjt03w70vc0000gn/T//ccrD3Rdr.s 			page 186


 6857              	.LBE1683:
 6858              	.LBI1682:
 122:../../../lib/pd2dsy/libdaisy/src/dev/oled_ssd130x.h ****     {
 6859              		.loc 3 122 10 is_stmt 1 view .LVU1628
 6860              	.LBB1684:
 124:../../../lib/pd2dsy/libdaisy/src/dev/oled_ssd130x.h ****         spi_.BlockingTransmit(&cmd, 1);
 6861              		.loc 3 124 9 view .LVU1629
 124:../../../lib/pd2dsy/libdaisy/src/dev/oled_ssd130x.h ****         spi_.BlockingTransmit(&cmd, 1);
 6862              		.loc 3 124 23 is_stmt 0 view .LVU1630
 6863 017e FFF7FEFF 		bl	dsy_gpio_write
 6864              	.LVL538:
 125:../../../lib/pd2dsy/libdaisy/src/dev/oled_ssd130x.h ****     };
 6865              		.loc 3 125 9 is_stmt 1 view .LVU1631
 125:../../../lib/pd2dsy/libdaisy/src/dev/oled_ssd130x.h ****     };
 6866              		.loc 3 125 30 is_stmt 0 view .LVU1632
 6867 0182 0122     		movs	r2, #1
 6868 0184 6423     		movs	r3, #100
 6869 0186 3946     		mov	r1, r7
 6870 0188 3046     		mov	r0, r6
 6871 018a FFF7FEFF 		bl	_ZN5daisy9SpiHandle16BlockingTransmitEPhjm
 6872              	.LVL539:
 125:../../../lib/pd2dsy/libdaisy/src/dev/oled_ssd130x.h ****     };
 6873              		.loc 3 125 30 view .LVU1633
 6874 018e 1023     		movs	r3, #16
 6875              	.LBE1684:
 6876              	.LBE1682:
 6877              	.LBB1685:
 6878              	.LBB1686:
 124:../../../lib/pd2dsy/libdaisy/src/dev/oled_ssd130x.h ****         spi_.BlockingTransmit(&cmd, 1);
 6879              		.loc 3 124 23 view .LVU1634
 6880 0190 4946     		mov	r1, r9
 6881 0192 2846     		mov	r0, r5
 6882 0194 8DF86C30 		strb	r3, [sp, #108]
 6883              	.LVL540:
 124:../../../lib/pd2dsy/libdaisy/src/dev/oled_ssd130x.h ****         spi_.BlockingTransmit(&cmd, 1);
 6884              		.loc 3 124 23 view .LVU1635
 6885              	.LBE1686:
 6886              	.LBI1685:
 122:../../../lib/pd2dsy/libdaisy/src/dev/oled_ssd130x.h ****     {
 6887              		.loc 3 122 10 is_stmt 1 view .LVU1636
 6888              	.LBB1687:
 124:../../../lib/pd2dsy/libdaisy/src/dev/oled_ssd130x.h ****         spi_.BlockingTransmit(&cmd, 1);
 6889              		.loc 3 124 9 view .LVU1637
 124:../../../lib/pd2dsy/libdaisy/src/dev/oled_ssd130x.h ****         spi_.BlockingTransmit(&cmd, 1);
 6890              		.loc 3 124 23 is_stmt 0 view .LVU1638
 6891 0198 FFF7FEFF 		bl	dsy_gpio_write
 6892              	.LVL541:
 125:../../../lib/pd2dsy/libdaisy/src/dev/oled_ssd130x.h ****     };
 6893              		.loc 3 125 9 is_stmt 1 view .LVU1639
 125:../../../lib/pd2dsy/libdaisy/src/dev/oled_ssd130x.h ****     };
 6894              		.loc 3 125 30 is_stmt 0 view .LVU1640
 6895 019c 6423     		movs	r3, #100
 6896 019e 0122     		movs	r2, #1
 6897 01a0 3946     		mov	r1, r7
 6898 01a2 3046     		mov	r0, r6
 6899 01a4 FFF7FEFF 		bl	_ZN5daisy9SpiHandle16BlockingTransmitEPhjm
 6900              	.LVL542:
ARM GAS  /var/folders/fb/yfxt3z4538j6z0vjt03w70vc0000gn/T//ccrD3Rdr.s 			page 187


 125:../../../lib/pd2dsy/libdaisy/src/dev/oled_ssd130x.h ****     };
 6901              		.loc 3 125 30 view .LVU1641
 6902              	.LBE1687:
 6903              	.LBE1685:
 6904              	.LBB1688:
 6905              	.LBI1688:
 128:../../../lib/pd2dsy/libdaisy/src/dev/oled_ssd130x.h ****     {
 6906              		.loc 3 128 10 is_stmt 1 view .LVU1642
 6907              	.LBB1689:
 130:../../../lib/pd2dsy/libdaisy/src/dev/oled_ssd130x.h ****         spi_.BlockingTransmit(buff, size);
 6908              		.loc 3 130 9 view .LVU1643
 130:../../../lib/pd2dsy/libdaisy/src/dev/oled_ssd130x.h ****         spi_.BlockingTransmit(buff, size);
 6909              		.loc 3 130 23 is_stmt 0 view .LVU1644
 6910 01a8 0121     		movs	r1, #1
 6911 01aa 2846     		mov	r0, r5
 6912 01ac FFF7FEFF 		bl	dsy_gpio_write
 6913              	.LVL543:
 131:../../../lib/pd2dsy/libdaisy/src/dev/oled_ssd130x.h ****     };
 6914              		.loc 3 131 9 is_stmt 1 view .LVU1645
 131:../../../lib/pd2dsy/libdaisy/src/dev/oled_ssd130x.h ****     };
 6915              		.loc 3 131 30 is_stmt 0 view .LVU1646
 6916 01b0 8022     		movs	r2, #128
 6917 01b2 4146     		mov	r1, r8
 6918 01b4 6423     		movs	r3, #100
 6919 01b6 3046     		mov	r0, r6
 6920              	.LBE1689:
 6921              	.LBE1688:
 6922              		.loc 3 283 22 view .LVU1647
 6923 01b8 9044     		add	r8, r8, r2
 6924              	.LVL544:
 6925              	.LBB1691:
 6926              	.LBB1690:
 131:../../../lib/pd2dsy/libdaisy/src/dev/oled_ssd130x.h ****     };
 6927              		.loc 3 131 30 view .LVU1648
 6928 01ba FFF7FEFF 		bl	_ZN5daisy9SpiHandle16BlockingTransmitEPhjm
 6929              	.LVL545:
 131:../../../lib/pd2dsy/libdaisy/src/dev/oled_ssd130x.h ****     };
 6930              		.loc 3 131 30 view .LVU1649
 6931              	.LBE1690:
 6932              	.LBE1691:
 6933              		.loc 3 283 9 is_stmt 1 view .LVU1650
 6934              		.loc 3 283 22 view .LVU1651
 6935 01be B82C     		cmp	r4, #184
 6936 01c0 C9D1     		bne	.L412
 6937              	.LBE1693:
 6938              	.LBE1695:
 6939              	.LBE1703:
  73:source/HeavyDaisy_grillosychicharrasosc.hpp ****       display.Update();
  74:source/HeavyDaisy_grillosychicharrasosc.hpp ****      
  75:source/HeavyDaisy_grillosychicharrasosc.hpp **** 
  76:source/HeavyDaisy_grillosychicharrasosc.hpp ****     som.adc.Start();
 6940              		.loc 5 76 5 view .LVU1652
 6941              		.loc 5 76 18 is_stmt 0 view .LVU1653
 6942 01c2 5046     		mov	r0, r10
  77:source/HeavyDaisy_grillosychicharrasosc.hpp ****   }
 6943              		.loc 5 77 3 view .LVU1654
 6944 01c4 27B0     		add	sp, sp, #156
ARM GAS  /var/folders/fb/yfxt3z4538j6z0vjt03w70vc0000gn/T//ccrD3Rdr.s 			page 188


 6945              		.cfi_def_cfa_offset 36
 6946              		@ sp needed
 6947 01c6 BDE8F04F 		pop	{r4, r5, r6, r7, r8, r9, r10, fp, lr}
 6948              		.cfi_restore 14
 6949              		.cfi_restore 11
 6950              		.cfi_restore 10
 6951              		.cfi_restore 9
 6952              		.cfi_restore 8
 6953              		.cfi_restore 7
 6954              		.cfi_restore 6
 6955              		.cfi_restore 5
 6956              		.cfi_restore 4
 6957              		.cfi_def_cfa_offset 0
 6958              	.LVL546:
  76:source/HeavyDaisy_grillosychicharrasosc.hpp ****   }
 6959              		.loc 5 76 18 view .LVU1655
 6960 01ca FFF7FEBF 		b	_ZN5daisy9AdcHandle5StartEv
 6961              	.LVL547:
 6962              	.L416:
 6963 01ce 00BF     		.align	2
 6964              	.L415:
 6965 01d0 6F12033B 		.word	990057071
 6966 01d4 00000000 		.word	0
 6967 01d8 060B0B00 		.word	723718
 6968 01dc 0105060A 		.word	168166657
 6969 01e0 0104010F 		.word	251724801
 6970              		.cfi_endproc
 6971              	.LFE2987:
 6973              		.section	.text.startup.main,"ax",%progbits
 6974              		.align	1
 6975              		.p2align 2,,3
 6976              		.global	main
 6977              		.syntax unified
 6978              		.thumb
 6979              		.thumb_func
 6981              	main:
 6982              	.LFB3003:
  56:HeavyDaisy_grillosychicharrasosc.cpp ****   hardware.Init(true);
 6983              		.loc 1 56 1 is_stmt 1 view -0
 6984              		.cfi_startproc
 6985              		@ Volatile: function does not return.
 6986              		@ args = 0, pretend = 0, frame = 0
 6987              		@ frame_needed = 0, uses_anonymous_args = 0
  57:HeavyDaisy_grillosychicharrasosc.cpp ****   hardware.StartAudio(audiocallback);
 6988              		.loc 1 57 3 view .LVU1657
  56:HeavyDaisy_grillosychicharrasosc.cpp ****   hardware.Init(true);
 6989              		.loc 1 56 1 is_stmt 0 view .LVU1658
 6990 0000 08B5     		push	{r3, lr}
 6991              		.cfi_def_cfa_offset 8
 6992              		.cfi_offset 3, -8
 6993              		.cfi_offset 14, -4
  57:HeavyDaisy_grillosychicharrasosc.cpp ****   hardware.StartAudio(audiocallback);
 6994              		.loc 1 57 16 view .LVU1659
 6995 0002 0121     		movs	r1, #1
 6996 0004 0548     		ldr	r0, .L420
 6997 0006 FFF7FEFF 		bl	_ZN10json2daisy8DaisyPod4InitEb
 6998              	.LVL548:
ARM GAS  /var/folders/fb/yfxt3z4538j6z0vjt03w70vc0000gn/T//ccrD3Rdr.s 			page 189


  58:HeavyDaisy_grillosychicharrasosc.cpp **** 
 6999              		.loc 1 58 3 is_stmt 1 view .LVU1660
 7000              	.LBB1704:
 7001              	.LBI1704:
  78:source/HeavyDaisy_grillosychicharrasosc.hpp **** 
  79:source/HeavyDaisy_grillosychicharrasosc.hpp ****   /** Handles all the controls processing that needs to occur at the block rate
  80:source/HeavyDaisy_grillosychicharrasosc.hpp ****    * 
  81:source/HeavyDaisy_grillosychicharrasosc.hpp ****    */
  82:source/HeavyDaisy_grillosychicharrasosc.hpp ****   void ProcessAllControls() 
  83:source/HeavyDaisy_grillosychicharrasosc.hpp ****   {
  84:source/HeavyDaisy_grillosychicharrasosc.hpp ****  
  85:source/HeavyDaisy_grillosychicharrasosc.hpp ****     knob1.Process();
  86:source/HeavyDaisy_grillosychicharrasosc.hpp ****     sw1.Debounce(); 
  87:source/HeavyDaisy_grillosychicharrasosc.hpp ****   }
  88:source/HeavyDaisy_grillosychicharrasosc.hpp **** 
  89:source/HeavyDaisy_grillosychicharrasosc.hpp ****   /** Handles all the maintenance processing. This should be run last within the audio callback.
  90:source/HeavyDaisy_grillosychicharrasosc.hpp ****    * 
  91:source/HeavyDaisy_grillosychicharrasosc.hpp ****    */
  92:source/HeavyDaisy_grillosychicharrasosc.hpp ****   void PostProcess()
  93:source/HeavyDaisy_grillosychicharrasosc.hpp ****   {
  94:source/HeavyDaisy_grillosychicharrasosc.hpp ****     led1.Update();
  95:source/HeavyDaisy_grillosychicharrasosc.hpp ****   }
  96:source/HeavyDaisy_grillosychicharrasosc.hpp **** 
  97:source/HeavyDaisy_grillosychicharrasosc.hpp ****   /** Handles processing that shouldn't occur in the audio block, such as blocking transfers
  98:source/HeavyDaisy_grillosychicharrasosc.hpp ****    * 
  99:source/HeavyDaisy_grillosychicharrasosc.hpp ****    */
 100:source/HeavyDaisy_grillosychicharrasosc.hpp ****   void LoopProcess()
 101:source/HeavyDaisy_grillosychicharrasosc.hpp ****   {
 102:source/HeavyDaisy_grillosychicharrasosc.hpp ****     
 103:source/HeavyDaisy_grillosychicharrasosc.hpp ****   }
 104:source/HeavyDaisy_grillosychicharrasosc.hpp **** 
 105:source/HeavyDaisy_grillosychicharrasosc.hpp ****   /** Sets the audio sample rate
 106:source/HeavyDaisy_grillosychicharrasosc.hpp ****    *  \param sample_rate the new sample rate in Hz
 107:source/HeavyDaisy_grillosychicharrasosc.hpp ****    */
 108:source/HeavyDaisy_grillosychicharrasosc.hpp ****   void SetAudioSampleRate(size_t sample_rate) 
 109:source/HeavyDaisy_grillosychicharrasosc.hpp ****   {
 110:source/HeavyDaisy_grillosychicharrasosc.hpp ****     daisy::SaiHandle::Config::SampleRate enum_rate;
 111:source/HeavyDaisy_grillosychicharrasosc.hpp ****     if (sample_rate >= 96000)
 112:source/HeavyDaisy_grillosychicharrasosc.hpp ****       enum_rate = daisy::SaiHandle::Config::SampleRate::SAI_96KHZ;
 113:source/HeavyDaisy_grillosychicharrasosc.hpp ****     else if (sample_rate >= 48000)
 114:source/HeavyDaisy_grillosychicharrasosc.hpp ****       enum_rate = daisy::SaiHandle::Config::SampleRate::SAI_48KHZ;
 115:source/HeavyDaisy_grillosychicharrasosc.hpp ****     else if (sample_rate >= 32000)
 116:source/HeavyDaisy_grillosychicharrasosc.hpp ****       enum_rate = daisy::SaiHandle::Config::SampleRate::SAI_32KHZ;
 117:source/HeavyDaisy_grillosychicharrasosc.hpp ****     else if (sample_rate >= 16000)
 118:source/HeavyDaisy_grillosychicharrasosc.hpp ****       enum_rate = daisy::SaiHandle::Config::SampleRate::SAI_16KHZ;
 119:source/HeavyDaisy_grillosychicharrasosc.hpp ****     else
 120:source/HeavyDaisy_grillosychicharrasosc.hpp ****       enum_rate = daisy::SaiHandle::Config::SampleRate::SAI_8KHZ;
 121:source/HeavyDaisy_grillosychicharrasosc.hpp ****     som.SetAudioSampleRate(enum_rate);
 122:source/HeavyDaisy_grillosychicharrasosc.hpp ****     knob1.SetSampleRate(som.AudioCallbackRate());
 123:source/HeavyDaisy_grillosychicharrasosc.hpp ****     sw1.SetUpdateRate(som.AudioCallbackRate());
 124:source/HeavyDaisy_grillosychicharrasosc.hpp ****   }
 125:source/HeavyDaisy_grillosychicharrasosc.hpp **** 
 126:source/HeavyDaisy_grillosychicharrasosc.hpp ****   /** Sets the audio block size
 127:source/HeavyDaisy_grillosychicharrasosc.hpp ****    *  \param block_size the new block size in words
 128:source/HeavyDaisy_grillosychicharrasosc.hpp ****    */
 129:source/HeavyDaisy_grillosychicharrasosc.hpp ****   inline void SetAudioBlockSize(size_t block_size) 
 130:source/HeavyDaisy_grillosychicharrasosc.hpp ****   {
ARM GAS  /var/folders/fb/yfxt3z4538j6z0vjt03w70vc0000gn/T//ccrD3Rdr.s 			page 190


 131:source/HeavyDaisy_grillosychicharrasosc.hpp ****     som.SetAudioBlockSize(block_size);
 132:source/HeavyDaisy_grillosychicharrasosc.hpp ****   }
 133:source/HeavyDaisy_grillosychicharrasosc.hpp **** 
 134:source/HeavyDaisy_grillosychicharrasosc.hpp ****   /** Starts up the audio callback process with the given callback
 135:source/HeavyDaisy_grillosychicharrasosc.hpp ****    * 
 136:source/HeavyDaisy_grillosychicharrasosc.hpp ****    */
 137:source/HeavyDaisy_grillosychicharrasosc.hpp ****   inline void StartAudio(daisy::AudioHandle::AudioCallback cb)
 7002              		.loc 5 137 15 view .LVU1661
 7003              	.LBB1705:
 138:source/HeavyDaisy_grillosychicharrasosc.hpp ****   {
 139:source/HeavyDaisy_grillosychicharrasosc.hpp ****     som.StartAudio(cb);
 7004              		.loc 5 139 5 view .LVU1662
 7005              		.loc 5 139 19 is_stmt 0 view .LVU1663
 7006 000a 0549     		ldr	r1, .L420+4
 7007 000c 0348     		ldr	r0, .L420
 7008 000e FFF7FEFF 		bl	_ZN5daisy9DaisySeed10StartAudioEPFvPKPKfPPfjE
 7009              	.LVL549:
 7010              		.loc 5 139 19 view .LVU1664
 7011              	.LBE1705:
 7012              	.LBE1704:
  60:HeavyDaisy_grillosychicharrasosc.cpp **** 
 7013              		.loc 1 60 3 is_stmt 1 view .LVU1665
 7014              	.LBB1706:
 7015              	.LBI1706:
 7016              		.file 18 "source/HeavyContext.hpp"
   1:source/HeavyContext.hpp **** /**
   2:source/HeavyContext.hpp ****  * Copyright (c) 2014-2018 Enzien Audio Ltd.
   3:source/HeavyContext.hpp ****  *
   4:source/HeavyContext.hpp ****  * Permission to use, copy, modify, and/or distribute this software for any
   5:source/HeavyContext.hpp ****  * purpose with or without fee is hereby granted, provided that the above
   6:source/HeavyContext.hpp ****  * copyright notice and this permission notice appear in all copies.
   7:source/HeavyContext.hpp ****  *
   8:source/HeavyContext.hpp ****  * THE SOFTWARE IS PROVIDED "AS IS" AND THE AUTHOR DISCLAIMS ALL WARRANTIES WITH
   9:source/HeavyContext.hpp ****  * REGARD TO THIS SOFTWARE INCLUDING ALL IMPLIED WARRANTIES OF MERCHANTABILITY
  10:source/HeavyContext.hpp ****  * AND FITNESS. IN NO EVENT SHALL THE AUTHOR BE LIABLE FOR ANY SPECIAL, DIRECT,
  11:source/HeavyContext.hpp ****  * INDIRECT, OR CONSEQUENTIAL DAMAGES OR ANY DAMAGES WHATSOEVER RESULTING FROM
  12:source/HeavyContext.hpp ****  * LOSS OF USE, DATA OR PROFITS, WHETHER IN AN ACTION OF CONTRACT, NEGLIGENCE OR
  13:source/HeavyContext.hpp ****  * OTHER TORTIOUS ACTION, ARISING OUT OF OR IN CONNECTION WITH THE USE OR
  14:source/HeavyContext.hpp ****  * PERFORMANCE OF THIS SOFTWARE.
  15:source/HeavyContext.hpp ****  */
  16:source/HeavyContext.hpp **** 
  17:source/HeavyContext.hpp **** #ifndef _HEAVY_CONTEXT_H_
  18:source/HeavyContext.hpp **** #define _HEAVY_CONTEXT_H_
  19:source/HeavyContext.hpp **** 
  20:source/HeavyContext.hpp **** #include "HeavyContextInterface.hpp"
  21:source/HeavyContext.hpp **** #include "HvLightPipe.h"
  22:source/HeavyContext.hpp **** #include "HvMessageQueue.h"
  23:source/HeavyContext.hpp **** #include "HvMath.h"
  24:source/HeavyContext.hpp **** 
  25:source/HeavyContext.hpp **** struct HvTable;
  26:source/HeavyContext.hpp **** 
  27:source/HeavyContext.hpp **** class HeavyContext : public HeavyContextInterface {
  28:source/HeavyContext.hpp **** 
  29:source/HeavyContext.hpp ****  public:
  30:source/HeavyContext.hpp ****   HeavyContext(double sampleRate, int poolKb=10, int inQueueKb=2, int outQueueKb=0);
  31:source/HeavyContext.hpp ****   virtual ~HeavyContext();
  32:source/HeavyContext.hpp **** 
ARM GAS  /var/folders/fb/yfxt3z4538j6z0vjt03w70vc0000gn/T//ccrD3Rdr.s 			page 191


  33:source/HeavyContext.hpp ****   int getSize() override { return (int) numBytes; }
  34:source/HeavyContext.hpp **** 
  35:source/HeavyContext.hpp ****   double getSampleRate() override { return sampleRate; }
  36:source/HeavyContext.hpp **** 
  37:source/HeavyContext.hpp ****   hv_uint32_t getCurrentSample() override { return blockStartTimestamp; }
  38:source/HeavyContext.hpp ****   float samplesToMilliseconds(hv_uint32_t numSamples) override { return (float) (1000.0*numSamples/
  39:source/HeavyContext.hpp ****   hv_uint32_t millisecondsToSamples(float ms) override { return (hv_uint32_t) (hv_max_f(0.0f,ms)*sa
  40:source/HeavyContext.hpp **** 
  41:source/HeavyContext.hpp ****   void setUserData(void *x) override { userData = x; }
  42:source/HeavyContext.hpp ****   void *getUserData() override { return userData; }
  43:source/HeavyContext.hpp **** 
  44:source/HeavyContext.hpp ****   // hook management
  45:source/HeavyContext.hpp ****   void setSendHook(HvSendHook_t *f) override { sendHook = f; }
 7017              		.loc 18 45 8 view .LVU1666
 7018              	.LBB1707:
 7019              		.loc 18 45 48 view .LVU1667
 7020              		.loc 18 45 57 is_stmt 0 view .LVU1668
 7021 0012 044B     		ldr	r3, .L420+8
 7022 0014 044A     		ldr	r2, .L420+12
 7023 0016 1A65     		str	r2, [r3, #80]
 7024              	.LVL550:
 7025              	.L418:
 7026              		.loc 18 45 57 view .LVU1669
 7027              	.LBE1707:
 7028              	.LBE1706:
  62:HeavyDaisy_grillosychicharrasosc.cpp ****   {
 7029              		.loc 1 62 3 is_stmt 1 discriminator 1 view .LVU1670
  64:HeavyDaisy_grillosychicharrasosc.cpp ****     Display();
 7030              		.loc 1 64 5 discriminator 1 view .LVU1671
  62:HeavyDaisy_grillosychicharrasosc.cpp ****   {
 7031              		.loc 1 62 3 discriminator 1 view .LVU1672
  64:HeavyDaisy_grillosychicharrasosc.cpp ****     Display();
 7032              		.loc 1 64 5 discriminator 1 view .LVU1673
  64:HeavyDaisy_grillosychicharrasosc.cpp ****     Display();
 7033              		.loc 1 64 5 is_stmt 0 discriminator 1 view .LVU1674
 7034 0018 FEE7     		b	.L418
 7035              	.L421:
 7036 001a 00BF     		.align	2
 7037              	.L420:
 7038 001c 00000000 		.word	.LANCHOR0
 7039 0020 00000000 		.word	_Z13audiocallbackPKPKfPPfj
 7040 0024 00000000 		.word	.LANCHOR1
 7041 0028 00000000 		.word	_ZL8sendHookP21HeavyContextInterfacePKcmPK9HvMessage
 7042              		.cfi_endproc
 7043              	.LFE3003:
 7045              		.section	.text.startup._GLOBAL__sub_I_hardware,"ax",%progbits
 7046              		.align	1
 7047              		.p2align 2,,3
 7048              		.syntax unified
 7049              		.thumb
 7050              		.thumb_func
 7052              	_GLOBAL__sub_I_hardware:
 7053              	.LFB3087:
 115:HeavyDaisy_grillosychicharrasosc.cpp **** 
 116:HeavyDaisy_grillosychicharrasosc.cpp **** /** Handles the display code if the hardware defines a display
 117:HeavyDaisy_grillosychicharrasosc.cpp ****  * 
 118:HeavyDaisy_grillosychicharrasosc.cpp ****  */
ARM GAS  /var/folders/fb/yfxt3z4538j6z0vjt03w70vc0000gn/T//ccrD3Rdr.s 			page 192


 119:HeavyDaisy_grillosychicharrasosc.cpp **** void Display() {
 120:HeavyDaisy_grillosychicharrasosc.cpp ****   
 121:HeavyDaisy_grillosychicharrasosc.cpp **** }...
 7054              		.loc 1 121 1 is_stmt 1 view -0
 7055              		.cfi_startproc
 7056              		@ args = 0, pretend = 0, frame = 0
 7057              		@ frame_needed = 0, uses_anonymous_args = 0
 7058              	.LBB1750:
 7059              	.LBI1750:
 7060              		.loc 1 121 1 view .LVU1676
 7061              	.LVL551:
 7062              	.LBB1751:
 7063              	.LBB1752:
 7064              	.LBI1752:
  39:source/HeavyDaisy_grillosychicharrasosc.hpp **** 
 7065              		.loc 5 39 8 view .LVU1677
 7066              	.LBB1753:
 7067              	.LBI1753:
  21:../../../lib/pd2dsy/libdaisy/src/daisy_seed.h ****     ~DaisySeed() {}
 7068              		.loc 10 21 5 view .LVU1678
 7069              	.LBB1754:
 7070              	.LBB1755:
 7071              	.LBI1755:
 7072              		.file 19 "../../../lib/pd2dsy/libdaisy/src/per/qspi.h"
   1:../../../lib/pd2dsy/libdaisy/src/per/qspi.h **** #ifndef DSY_QSPI
   2:../../../lib/pd2dsy/libdaisy/src/per/qspi.h **** #define DSY_QSPI /**< Macro */
   3:../../../lib/pd2dsy/libdaisy/src/per/qspi.h **** 
   4:../../../lib/pd2dsy/libdaisy/src/per/qspi.h **** #ifndef UNIT_TEST // for unit tests, a dummy implementation
   5:../../../lib/pd2dsy/libdaisy/src/per/qspi.h **** 
   6:../../../lib/pd2dsy/libdaisy/src/per/qspi.h **** #include <cstdint>
   7:../../../lib/pd2dsy/libdaisy/src/per/qspi.h **** #include "daisy_core.h" // Added for dsy_gpio_pin typedef
   8:../../../lib/pd2dsy/libdaisy/src/per/qspi.h **** 
   9:../../../lib/pd2dsy/libdaisy/src/per/qspi.h **** #define DSY_QSPI_TEXT       \
  10:../../../lib/pd2dsy/libdaisy/src/per/qspi.h ****     __attribute__((section( \
  11:../../../lib/pd2dsy/libdaisy/src/per/qspi.h ****         ".qspiflash_text"))) /**< used for reading memory in memory_mapped mode. */
  12:../../../lib/pd2dsy/libdaisy/src/per/qspi.h **** #define DSY_QSPI_DATA       \
  13:../../../lib/pd2dsy/libdaisy/src/per/qspi.h ****     __attribute__((section( \
  14:../../../lib/pd2dsy/libdaisy/src/per/qspi.h ****         ".qspiflash_data"))) /**< used for reading memory in memory_mapped mode. */
  15:../../../lib/pd2dsy/libdaisy/src/per/qspi.h **** #define DSY_QSPI_BSS        \
  16:../../../lib/pd2dsy/libdaisy/src/per/qspi.h ****     __attribute__((section( \
  17:../../../lib/pd2dsy/libdaisy/src/per/qspi.h ****         ".qspiflash_bss"))) /**< used for reading memory in memory_mapped mode. */
  18:../../../lib/pd2dsy/libdaisy/src/per/qspi.h **** 
  19:../../../lib/pd2dsy/libdaisy/src/per/qspi.h **** namespace daisy
  20:../../../lib/pd2dsy/libdaisy/src/per/qspi.h **** {
  21:../../../lib/pd2dsy/libdaisy/src/per/qspi.h **** /** @addtogroup serial
  22:../../../lib/pd2dsy/libdaisy/src/per/qspi.h **** @{
  23:../../../lib/pd2dsy/libdaisy/src/per/qspi.h **** */
  24:../../../lib/pd2dsy/libdaisy/src/per/qspi.h **** 
  25:../../../lib/pd2dsy/libdaisy/src/per/qspi.h **** /** 
  26:../../../lib/pd2dsy/libdaisy/src/per/qspi.h ****  Driver for QSPI peripheral to interface with external flash memory. \n 
  27:../../../lib/pd2dsy/libdaisy/src/per/qspi.h ****     Currently supported QSPI Devices: \n 
  28:../../../lib/pd2dsy/libdaisy/src/per/qspi.h ****     * IS25LP080D
  29:../../../lib/pd2dsy/libdaisy/src/per/qspi.h **** */
  30:../../../lib/pd2dsy/libdaisy/src/per/qspi.h **** class QSPIHandle
  31:../../../lib/pd2dsy/libdaisy/src/per/qspi.h **** {
  32:../../../lib/pd2dsy/libdaisy/src/per/qspi.h ****   public:
  33:../../../lib/pd2dsy/libdaisy/src/per/qspi.h ****     enum Result
ARM GAS  /var/folders/fb/yfxt3z4538j6z0vjt03w70vc0000gn/T//ccrD3Rdr.s 			page 193


  34:../../../lib/pd2dsy/libdaisy/src/per/qspi.h ****     {
  35:../../../lib/pd2dsy/libdaisy/src/per/qspi.h ****         OK = 0,
  36:../../../lib/pd2dsy/libdaisy/src/per/qspi.h ****         ERR
  37:../../../lib/pd2dsy/libdaisy/src/per/qspi.h ****     };
  38:../../../lib/pd2dsy/libdaisy/src/per/qspi.h **** 
  39:../../../lib/pd2dsy/libdaisy/src/per/qspi.h ****     /** Indicates the current status of the module. 
  40:../../../lib/pd2dsy/libdaisy/src/per/qspi.h ****          *  Warnings are indicated by a leading W.
  41:../../../lib/pd2dsy/libdaisy/src/per/qspi.h ****          *  Errors are indicated by a leading E and cause an immediate exit.
  42:../../../lib/pd2dsy/libdaisy/src/per/qspi.h ****          * 
  43:../../../lib/pd2dsy/libdaisy/src/per/qspi.h ****          *  \param GOOD - No errors have been reported.
  44:../../../lib/pd2dsy/libdaisy/src/per/qspi.h ****          *  \param E_HAL_ERROR - HAL code did not return HAL_OK.
  45:../../../lib/pd2dsy/libdaisy/src/per/qspi.h ****          *  \param E_SWITCHING_MODES - An error was encountered while switching QSPI peripheral mod
  46:../../../lib/pd2dsy/libdaisy/src/per/qspi.h ****          *  \param E_INVALID_MODE - QSPI should not be written to while the program is executing fr
  47:../../../lib/pd2dsy/libdaisy/src/per/qspi.h ****          */
  48:../../../lib/pd2dsy/libdaisy/src/per/qspi.h ****     enum Status
  49:../../../lib/pd2dsy/libdaisy/src/per/qspi.h ****     {
  50:../../../lib/pd2dsy/libdaisy/src/per/qspi.h ****         GOOD = 0,
  51:../../../lib/pd2dsy/libdaisy/src/per/qspi.h ****         E_HAL_ERROR,
  52:../../../lib/pd2dsy/libdaisy/src/per/qspi.h ****         E_SWITCHING_MODES,
  53:../../../lib/pd2dsy/libdaisy/src/per/qspi.h ****         E_INVALID_MODE,
  54:../../../lib/pd2dsy/libdaisy/src/per/qspi.h ****     };
  55:../../../lib/pd2dsy/libdaisy/src/per/qspi.h **** 
  56:../../../lib/pd2dsy/libdaisy/src/per/qspi.h ****     /** Configuration structure for interfacing with QSPI Driver */
  57:../../../lib/pd2dsy/libdaisy/src/per/qspi.h ****     struct Config
  58:../../../lib/pd2dsy/libdaisy/src/per/qspi.h ****     {
  59:../../../lib/pd2dsy/libdaisy/src/per/qspi.h ****         /** Flash Devices supported. (Both of these are more-or-less the same, just different sizes
  60:../../../lib/pd2dsy/libdaisy/src/per/qspi.h ****         enum Device
  61:../../../lib/pd2dsy/libdaisy/src/per/qspi.h ****         {
  62:../../../lib/pd2dsy/libdaisy/src/per/qspi.h ****             IS25LP080D,  /**< & */
  63:../../../lib/pd2dsy/libdaisy/src/per/qspi.h ****             IS25LP064A,  /**< & */
  64:../../../lib/pd2dsy/libdaisy/src/per/qspi.h ****             DEVICE_LAST, /**< & */
  65:../../../lib/pd2dsy/libdaisy/src/per/qspi.h ****         };
  66:../../../lib/pd2dsy/libdaisy/src/per/qspi.h **** 
  67:../../../lib/pd2dsy/libdaisy/src/per/qspi.h ****         /** 
  68:../../../lib/pd2dsy/libdaisy/src/per/qspi.h ****         Modes of operation.
  69:../../../lib/pd2dsy/libdaisy/src/per/qspi.h ****         Memory Mapped mode: QSPI configured so that the QSPI can be
  70:../../../lib/pd2dsy/libdaisy/src/per/qspi.h ****         read from starting address 0x90000000. Writing is not
  71:../../../lib/pd2dsy/libdaisy/src/per/qspi.h ****         possible in this mode. \n 
  72:../../../lib/pd2dsy/libdaisy/src/per/qspi.h ****         Indirect Polling mode: Device driver enabled. 
  73:../../../lib/pd2dsy/libdaisy/src/per/qspi.h ****         */
  74:../../../lib/pd2dsy/libdaisy/src/per/qspi.h ****         enum Mode
  75:../../../lib/pd2dsy/libdaisy/src/per/qspi.h ****         {
  76:../../../lib/pd2dsy/libdaisy/src/per/qspi.h ****             MEMORY_MAPPED,    /**< & */
  77:../../../lib/pd2dsy/libdaisy/src/per/qspi.h ****             INDIRECT_POLLING, /**< & */
  78:../../../lib/pd2dsy/libdaisy/src/per/qspi.h ****             MODE_LAST,
  79:../../../lib/pd2dsy/libdaisy/src/per/qspi.h ****         };
  80:../../../lib/pd2dsy/libdaisy/src/per/qspi.h **** 
  81:../../../lib/pd2dsy/libdaisy/src/per/qspi.h ****         //SCK,  CE# (active low)
  82:../../../lib/pd2dsy/libdaisy/src/per/qspi.h ****         struct
  83:../../../lib/pd2dsy/libdaisy/src/per/qspi.h ****         {
  84:../../../lib/pd2dsy/libdaisy/src/per/qspi.h ****             dsy_gpio_pin io0; /**< & */
  85:../../../lib/pd2dsy/libdaisy/src/per/qspi.h ****             dsy_gpio_pin io1; /**< & */
  86:../../../lib/pd2dsy/libdaisy/src/per/qspi.h ****             dsy_gpio_pin io2; /**< & */
  87:../../../lib/pd2dsy/libdaisy/src/per/qspi.h ****             dsy_gpio_pin io3; /**< & */
  88:../../../lib/pd2dsy/libdaisy/src/per/qspi.h ****             dsy_gpio_pin clk; /**< & */
  89:../../../lib/pd2dsy/libdaisy/src/per/qspi.h ****             dsy_gpio_pin ncs; /**< & */
  90:../../../lib/pd2dsy/libdaisy/src/per/qspi.h ****         } pin_config;
ARM GAS  /var/folders/fb/yfxt3z4538j6z0vjt03w70vc0000gn/T//ccrD3Rdr.s 			page 194


  91:../../../lib/pd2dsy/libdaisy/src/per/qspi.h **** 
  92:../../../lib/pd2dsy/libdaisy/src/per/qspi.h ****         Device device;
  93:../../../lib/pd2dsy/libdaisy/src/per/qspi.h ****         Mode   mode;
  94:../../../lib/pd2dsy/libdaisy/src/per/qspi.h ****     };
  95:../../../lib/pd2dsy/libdaisy/src/per/qspi.h **** 
  96:../../../lib/pd2dsy/libdaisy/src/per/qspi.h ****     /** 
  97:../../../lib/pd2dsy/libdaisy/src/per/qspi.h ****         Initializes QSPI peripheral, and Resets, and prepares memory for access.
  98:../../../lib/pd2dsy/libdaisy/src/per/qspi.h ****         \param config should be populated with the mode, device and pin_config before calling this 
  99:../../../lib/pd2dsy/libdaisy/src/per/qspi.h ****         \return Result::OK or Result::ERR
 100:../../../lib/pd2dsy/libdaisy/src/per/qspi.h ****         */
 101:../../../lib/pd2dsy/libdaisy/src/per/qspi.h ****     Result Init(const Config& config);
 102:../../../lib/pd2dsy/libdaisy/src/per/qspi.h **** 
 103:../../../lib/pd2dsy/libdaisy/src/per/qspi.h ****     /** Returns the current config. */
 104:../../../lib/pd2dsy/libdaisy/src/per/qspi.h ****     const Config& GetConfig() const;
 105:../../../lib/pd2dsy/libdaisy/src/per/qspi.h **** 
 106:../../../lib/pd2dsy/libdaisy/src/per/qspi.h ****     // Couldn't this just be called before anything else in init? That
 107:../../../lib/pd2dsy/libdaisy/src/per/qspi.h ****     // would make manually calling it unnecessary.
 108:../../../lib/pd2dsy/libdaisy/src/per/qspi.h ****     /** 
 109:../../../lib/pd2dsy/libdaisy/src/per/qspi.h ****         Deinitializes the peripheral
 110:../../../lib/pd2dsy/libdaisy/src/per/qspi.h ****         This should be called before reinitializing QSPI in a different mode.
 111:../../../lib/pd2dsy/libdaisy/src/per/qspi.h ****         \return Result::OK or Result::ERR
 112:../../../lib/pd2dsy/libdaisy/src/per/qspi.h ****         */
 113:../../../lib/pd2dsy/libdaisy/src/per/qspi.h ****     Result DeInit();
 114:../../../lib/pd2dsy/libdaisy/src/per/qspi.h **** 
 115:../../../lib/pd2dsy/libdaisy/src/per/qspi.h ****     /** 
 116:../../../lib/pd2dsy/libdaisy/src/per/qspi.h ****         Writes a single page to to the specified address on the QSPI chip.
 117:../../../lib/pd2dsy/libdaisy/src/per/qspi.h ****         For IS25LP*, page size is 256 bytes.
 118:../../../lib/pd2dsy/libdaisy/src/per/qspi.h ****         \param address Address to write to
 119:../../../lib/pd2dsy/libdaisy/src/per/qspi.h ****         \param size Buffer size
 120:../../../lib/pd2dsy/libdaisy/src/per/qspi.h ****         \param buffer Buffer to write
 121:../../../lib/pd2dsy/libdaisy/src/per/qspi.h ****         \return Result::OK or Result::ERR
 122:../../../lib/pd2dsy/libdaisy/src/per/qspi.h ****         */
 123:../../../lib/pd2dsy/libdaisy/src/per/qspi.h ****     Result WritePage(uint32_t address, uint32_t size, uint8_t* buffer);
 124:../../../lib/pd2dsy/libdaisy/src/per/qspi.h **** 
 125:../../../lib/pd2dsy/libdaisy/src/per/qspi.h ****     /** 
 126:../../../lib/pd2dsy/libdaisy/src/per/qspi.h ****         Writes data in buffer to to the QSPI. Starting at address to address+size 
 127:../../../lib/pd2dsy/libdaisy/src/per/qspi.h ****         \param address Address to write to
 128:../../../lib/pd2dsy/libdaisy/src/per/qspi.h ****         \param size Buffer size
 129:../../../lib/pd2dsy/libdaisy/src/per/qspi.h ****         \param buffer Buffer to write
 130:../../../lib/pd2dsy/libdaisy/src/per/qspi.h ****         \return Result::OK or Result::ERR
 131:../../../lib/pd2dsy/libdaisy/src/per/qspi.h ****         */
 132:../../../lib/pd2dsy/libdaisy/src/per/qspi.h ****     Result Write(uint32_t address, uint32_t size, uint8_t* buffer);
 133:../../../lib/pd2dsy/libdaisy/src/per/qspi.h **** 
 134:../../../lib/pd2dsy/libdaisy/src/per/qspi.h ****     /** 
 135:../../../lib/pd2dsy/libdaisy/src/per/qspi.h ****         Erases the area specified on the chip.
 136:../../../lib/pd2dsy/libdaisy/src/per/qspi.h ****         Erasures will happen by 4K, 32K or 64K increments.
 137:../../../lib/pd2dsy/libdaisy/src/per/qspi.h ****         Smallest erase possible is 4kB at a time. (on IS25LP*)
 138:../../../lib/pd2dsy/libdaisy/src/per/qspi.h ****         \param start_addr Address to begin erasing from
 139:../../../lib/pd2dsy/libdaisy/src/per/qspi.h ****         \param end_addr  Address to stop erasing at
 140:../../../lib/pd2dsy/libdaisy/src/per/qspi.h ****         \return Result::OK or Result::ERR
 141:../../../lib/pd2dsy/libdaisy/src/per/qspi.h ****         */
 142:../../../lib/pd2dsy/libdaisy/src/per/qspi.h ****     Result Erase(uint32_t start_addr, uint32_t end_addr);
 143:../../../lib/pd2dsy/libdaisy/src/per/qspi.h **** 
 144:../../../lib/pd2dsy/libdaisy/src/per/qspi.h ****     /**  
 145:../../../lib/pd2dsy/libdaisy/src/per/qspi.h ****          Erases a single sector of the chip.  
 146:../../../lib/pd2dsy/libdaisy/src/per/qspi.h ****         TODO: Document the size of this function. 
 147:../../../lib/pd2dsy/libdaisy/src/per/qspi.h ****         \param address Address of sector to erase
ARM GAS  /var/folders/fb/yfxt3z4538j6z0vjt03w70vc0000gn/T//ccrD3Rdr.s 			page 195


 148:../../../lib/pd2dsy/libdaisy/src/per/qspi.h ****         \return Result::OK or Result::ERR
 149:../../../lib/pd2dsy/libdaisy/src/per/qspi.h ****         */
 150:../../../lib/pd2dsy/libdaisy/src/per/qspi.h ****     Result EraseSector(uint32_t address);
 151:../../../lib/pd2dsy/libdaisy/src/per/qspi.h **** 
 152:../../../lib/pd2dsy/libdaisy/src/per/qspi.h ****     /** Returns the current class status. Useful for debugging.
 153:../../../lib/pd2dsy/libdaisy/src/per/qspi.h ****      *  \returns Status
 154:../../../lib/pd2dsy/libdaisy/src/per/qspi.h ****      */
 155:../../../lib/pd2dsy/libdaisy/src/per/qspi.h ****     Status GetStatus();
 156:../../../lib/pd2dsy/libdaisy/src/per/qspi.h **** 
 157:../../../lib/pd2dsy/libdaisy/src/per/qspi.h ****     /** Returns a pointer to the actual memory used 
 158:../../../lib/pd2dsy/libdaisy/src/per/qspi.h ****      *  The memory at this address is read-only
 159:../../../lib/pd2dsy/libdaisy/src/per/qspi.h ****      *  to write to it use the Write function.
 160:../../../lib/pd2dsy/libdaisy/src/per/qspi.h ****      * 
 161:../../../lib/pd2dsy/libdaisy/src/per/qspi.h ****      *  \param offset returns the pointer starting this 
 162:../../../lib/pd2dsy/libdaisy/src/per/qspi.h ****      *                many bytes into the memory
 163:../../../lib/pd2dsy/libdaisy/src/per/qspi.h ****     */
 164:../../../lib/pd2dsy/libdaisy/src/per/qspi.h ****     void* GetData(uint32_t offset = 0);
 165:../../../lib/pd2dsy/libdaisy/src/per/qspi.h **** 
 166:../../../lib/pd2dsy/libdaisy/src/per/qspi.h ****     QSPIHandle() : pimpl_(nullptr) {}
 7073              		.loc 19 166 5 view .LVU1679
 7074              	.LBE1755:
 7075              	.LBE1754:
 7076              	.LBE1753:
 7077              	.LBE1752:
 7078              	.LBE1751:
 7079              	.LBE1750:
 7080              		.loc 1 121 1 is_stmt 0 view .LVU1680
 7081 0000 70B5     		push	{r4, r5, r6, lr}
 7082              		.cfi_def_cfa_offset 16
 7083              		.cfi_offset 4, -16
 7084              		.cfi_offset 5, -12
 7085              		.cfi_offset 6, -8
 7086              		.cfi_offset 14, -4
 7087              	.LBB1800:
 7088              	.LBB1798:
 7089              	.LBB1795:
 7090              	.LBB1773:
 7091              	.LBB1771:
 7092              	.LBB1760:
 7093              	.LBB1756:
 7094              	.LBB1757:
 7095              		.loc 19 166 34 view .LVU1681
 7096 0002 1148     		ldr	r0, .L424+8
 7097 0004 0024     		movs	r4, #0
 7098              	.LBE1757:
 7099              	.LBE1756:
 7100              	.LBE1760:
 7101              	.LBE1771:
 7102              	.LBE1773:
 7103              	.LBE1795:
  41:HeavyDaisy_grillosychicharrasosc.cpp **** json2daisy::DaisyPod hardware;
 7104              		.loc 1 41 22 view .LVU1682
 7105 0006 114E     		ldr	r6, .L424+12
 7106              	.LBB1796:
 7107              	.LBB1774:
 7108              	.LBB1775:
 7109              	.LBB1776:
ARM GAS  /var/folders/fb/yfxt3z4538j6z0vjt03w70vc0000gn/T//ccrD3Rdr.s 			page 196


  17:../../../lib/pd2dsy/libdaisy/src/hid/disp/oled_display.h ****     virtual ~OledDisplay() {}
 7110              		.loc 2 17 19 view .LVU1683
 7111 0008 114B     		ldr	r3, .L424+16
 7112              	.LBE1776:
 7113              	.LBE1775:
 7114              	.LBE1774:
 7115              	.LBE1796:
  43:HeavyDaisy_grillosychicharrasosc.cpp **** Heavy_grillosychicharrasosc hv(SAMPLE_RATE);
 7116              		.loc 1 43 43 view .LVU1684
 7117 000a 124D     		ldr	r5, .L424+20
  41:HeavyDaisy_grillosychicharrasosc.cpp **** json2daisy::DaisyPod hardware;
 7118              		.loc 1 41 22 view .LVU1685
 7119 000c 3246     		mov	r2, r6
 7120 000e 1249     		ldr	r1, .L424+24
 7121              	.LBB1797:
 7122              	.LBB1786:
 7123              	.LBB1772:
 7124              	.LBB1761:
 7125              	.LBB1759:
 7126              	.LBB1758:
 7127              		.loc 19 166 34 view .LVU1686
 7128 0010 0460     		str	r4, [r0]
 7129              	.LVL552:
 7130              		.loc 19 166 34 view .LVU1687
 7131              	.LBE1758:
 7132              	.LBE1759:
 7133              	.LBE1761:
 7134              	.LBB1762:
 7135              	.LBI1762:
  95:../../../lib/pd2dsy/libdaisy/src/hid/audio.h ****     ~AudioHandle() {}
 7136              		.loc 14 95 5 is_stmt 1 view .LVU1688
 7137              	.LBB1763:
 7138              	.LBB1764:
  95:../../../lib/pd2dsy/libdaisy/src/hid/audio.h ****     ~AudioHandle() {}
 7139              		.loc 14 95 35 is_stmt 0 view .LVU1689
 7140 0012 4461     		str	r4, [r0, #20]
 7141              	.LVL553:
  95:../../../lib/pd2dsy/libdaisy/src/hid/audio.h ****     ~AudioHandle() {}
 7142              		.loc 14 95 35 view .LVU1690
 7143              	.LBE1764:
 7144              	.LBE1763:
 7145              	.LBE1762:
 7146              	.LBB1765:
 7147              	.LBI1765:
  92:../../../lib/pd2dsy/libdaisy/src/per/adc.h ****     ~AdcHandle() {}
 7148              		.loc 13 92 5 is_stmt 1 view .LVU1691
  92:../../../lib/pd2dsy/libdaisy/src/per/adc.h ****     ~AdcHandle() {}
 7149              		.loc 13 92 5 is_stmt 0 view .LVU1692
 7150              	.LBE1765:
 7151              	.LBB1766:
 7152              	.LBI1766:
 7153              		.file 20 "../../../lib/pd2dsy/libdaisy/src/per/dac.h"
   1:../../../lib/pd2dsy/libdaisy/src/per/dac.h **** #pragma once
   2:../../../lib/pd2dsy/libdaisy/src/per/dac.h **** #ifndef DSY_DAC_H
   3:../../../lib/pd2dsy/libdaisy/src/per/dac.h **** #define DSY_DAC_H
   4:../../../lib/pd2dsy/libdaisy/src/per/dac.h **** 
   5:../../../lib/pd2dsy/libdaisy/src/per/dac.h **** #include "daisy_core.h"
ARM GAS  /var/folders/fb/yfxt3z4538j6z0vjt03w70vc0000gn/T//ccrD3Rdr.s 			page 197


   6:../../../lib/pd2dsy/libdaisy/src/per/dac.h **** 
   7:../../../lib/pd2dsy/libdaisy/src/per/dac.h **** namespace daisy
   8:../../../lib/pd2dsy/libdaisy/src/per/dac.h **** {
   9:../../../lib/pd2dsy/libdaisy/src/per/dac.h **** /** @brief DAC handle for Built-in DAC Peripheral 
  10:../../../lib/pd2dsy/libdaisy/src/per/dac.h ****  *  @ingroup per_analog
  11:../../../lib/pd2dsy/libdaisy/src/per/dac.h ****  ** 
  12:../../../lib/pd2dsy/libdaisy/src/per/dac.h ****  ** For now only Normal Mode is supported,
  13:../../../lib/pd2dsy/libdaisy/src/per/dac.h ****  ** Sample and hold mode provides reduced power consumption, but requires a bit more setup.
  14:../../../lib/pd2dsy/libdaisy/src/per/dac.h ****  **
  15:../../../lib/pd2dsy/libdaisy/src/per/dac.h ****  ** For now connecting the DAC through other internal peripherals is also not supported.
  16:../../../lib/pd2dsy/libdaisy/src/per/dac.h ****  **
  17:../../../lib/pd2dsy/libdaisy/src/per/dac.h ****  ** Since the DAC channels have dedicated pins we don't need to pass in a pin config like with
  18:../../../lib/pd2dsy/libdaisy/src/per/dac.h ****  ** other modules. However, it is still important to not try to use the DAC pins for anything else.
  19:../../../lib/pd2dsy/libdaisy/src/per/dac.h ****  ** DAC Channel 1 is on PA4, and DAC Channel 2 is on PA5
  20:../../../lib/pd2dsy/libdaisy/src/per/dac.h ****  ***/
  21:../../../lib/pd2dsy/libdaisy/src/per/dac.h **** class DacHandle
  22:../../../lib/pd2dsy/libdaisy/src/per/dac.h **** {
  23:../../../lib/pd2dsy/libdaisy/src/per/dac.h ****   public:
  24:../../../lib/pd2dsy/libdaisy/src/per/dac.h ****     /** Return Values for the DacHandle class */
  25:../../../lib/pd2dsy/libdaisy/src/per/dac.h ****     enum class Result
  26:../../../lib/pd2dsy/libdaisy/src/per/dac.h ****     {
  27:../../../lib/pd2dsy/libdaisy/src/per/dac.h ****         OK,
  28:../../../lib/pd2dsy/libdaisy/src/per/dac.h ****         ERR,
  29:../../../lib/pd2dsy/libdaisy/src/per/dac.h ****     };
  30:../../../lib/pd2dsy/libdaisy/src/per/dac.h **** 
  31:../../../lib/pd2dsy/libdaisy/src/per/dac.h ****     /** Selects which channel(s) will be configured for use. */
  32:../../../lib/pd2dsy/libdaisy/src/per/dac.h ****     enum class Channel
  33:../../../lib/pd2dsy/libdaisy/src/per/dac.h ****     {
  34:../../../lib/pd2dsy/libdaisy/src/per/dac.h ****         ONE,
  35:../../../lib/pd2dsy/libdaisy/src/per/dac.h ****         TWO,
  36:../../../lib/pd2dsy/libdaisy/src/per/dac.h ****         BOTH,
  37:../../../lib/pd2dsy/libdaisy/src/per/dac.h ****     };
  38:../../../lib/pd2dsy/libdaisy/src/per/dac.h **** 
  39:../../../lib/pd2dsy/libdaisy/src/per/dac.h ****     /** Sets the Mode for the DAC channels.
  40:../../../lib/pd2dsy/libdaisy/src/per/dac.h ****      **
  41:../../../lib/pd2dsy/libdaisy/src/per/dac.h ****      ** Polling mode uses the blocking mode to transmit a single value at a time.
  42:../../../lib/pd2dsy/libdaisy/src/per/dac.h ****      **
  43:../../../lib/pd2dsy/libdaisy/src/per/dac.h ****      ** DMA mode uses a buffer, and periodically transmits it triggering a 
  44:../../../lib/pd2dsy/libdaisy/src/per/dac.h ****      ** callback to fill the buffer when it is ready for more samples.
  45:../../../lib/pd2dsy/libdaisy/src/per/dac.h ****      ***/
  46:../../../lib/pd2dsy/libdaisy/src/per/dac.h ****     enum class Mode
  47:../../../lib/pd2dsy/libdaisy/src/per/dac.h ****     {
  48:../../../lib/pd2dsy/libdaisy/src/per/dac.h ****         POLLING,
  49:../../../lib/pd2dsy/libdaisy/src/per/dac.h ****         DMA,
  50:../../../lib/pd2dsy/libdaisy/src/per/dac.h ****     };
  51:../../../lib/pd2dsy/libdaisy/src/per/dac.h **** 
  52:../../../lib/pd2dsy/libdaisy/src/per/dac.h ****     /** Sets the number of bits per sample transmitted out of the DAC.
  53:../../../lib/pd2dsy/libdaisy/src/per/dac.h ****      ** The output range will be: 0V - VDDA
  54:../../../lib/pd2dsy/libdaisy/src/per/dac.h ****      ** The resolution will be roughly: bitdepth / (VDDA - 0V) 
  55:../../../lib/pd2dsy/libdaisy/src/per/dac.h ****      ***/
  56:../../../lib/pd2dsy/libdaisy/src/per/dac.h ****     enum class BitDepth
  57:../../../lib/pd2dsy/libdaisy/src/per/dac.h ****     {
  58:../../../lib/pd2dsy/libdaisy/src/per/dac.h ****         BITS_8,
  59:../../../lib/pd2dsy/libdaisy/src/per/dac.h ****         BITS_12
  60:../../../lib/pd2dsy/libdaisy/src/per/dac.h ****     };
  61:../../../lib/pd2dsy/libdaisy/src/per/dac.h **** 
  62:../../../lib/pd2dsy/libdaisy/src/per/dac.h ****     /** Sets whether the DAC output is buffered for higher drive ability. */
ARM GAS  /var/folders/fb/yfxt3z4538j6z0vjt03w70vc0000gn/T//ccrD3Rdr.s 			page 198


  63:../../../lib/pd2dsy/libdaisy/src/per/dac.h ****     enum class BufferState
  64:../../../lib/pd2dsy/libdaisy/src/per/dac.h ****     {
  65:../../../lib/pd2dsy/libdaisy/src/per/dac.h ****         ENABLED,
  66:../../../lib/pd2dsy/libdaisy/src/per/dac.h ****         DISABLED,
  67:../../../lib/pd2dsy/libdaisy/src/per/dac.h ****     };
  68:../../../lib/pd2dsy/libdaisy/src/per/dac.h **** 
  69:../../../lib/pd2dsy/libdaisy/src/per/dac.h ****     /** Configuration structure for initializing the DAC structure. */
  70:../../../lib/pd2dsy/libdaisy/src/per/dac.h ****     struct Config
  71:../../../lib/pd2dsy/libdaisy/src/per/dac.h ****     {
  72:../../../lib/pd2dsy/libdaisy/src/per/dac.h ****         /** Target Samplerate in Hz used to configure the internal 
  73:../../../lib/pd2dsy/libdaisy/src/per/dac.h ****          ** timebase for DMA mode. Does nothing in POLLING mode.
  74:../../../lib/pd2dsy/libdaisy/src/per/dac.h ****          ** If the value is 0 at Init time this will default to 48000Hz 
  75:../../../lib/pd2dsy/libdaisy/src/per/dac.h ****          ** otherwise the driver will attempt meet the target.*/
  76:../../../lib/pd2dsy/libdaisy/src/per/dac.h ****         uint32_t target_samplerate;
  77:../../../lib/pd2dsy/libdaisy/src/per/dac.h **** 
  78:../../../lib/pd2dsy/libdaisy/src/per/dac.h ****         Channel     chn;
  79:../../../lib/pd2dsy/libdaisy/src/per/dac.h ****         Mode        mode;
  80:../../../lib/pd2dsy/libdaisy/src/per/dac.h ****         BitDepth    bitdepth;
  81:../../../lib/pd2dsy/libdaisy/src/per/dac.h ****         BufferState buff_state;
  82:../../../lib/pd2dsy/libdaisy/src/per/dac.h ****     };
  83:../../../lib/pd2dsy/libdaisy/src/per/dac.h **** 
  84:../../../lib/pd2dsy/libdaisy/src/per/dac.h ****     DacHandle() : pimpl_(nullptr) {}
 7154              		.loc 20 84 5 is_stmt 1 view .LVU1693
 7155              	.LBB1767:
 7156              	.LBB1768:
 7157              		.loc 20 84 33 is_stmt 0 view .LVU1694
 7158 0014 0462     		str	r4, [r0, #32]
 7159              	.LVL554:
 7160              		.loc 20 84 33 view .LVU1695
 7161              	.LBE1768:
 7162              	.LBE1767:
 7163              	.LBE1766:
 7164              	.LBB1769:
 7165              	.LBI1769:
  40:../../../lib/pd2dsy/libdaisy/src/hid/usb.h **** 
 7166              		.loc 12 40 5 is_stmt 1 view .LVU1696
  40:../../../lib/pd2dsy/libdaisy/src/hid/usb.h **** 
 7167              		.loc 12 40 5 is_stmt 0 view .LVU1697
 7168              	.LBE1769:
 7169              	.LBB1770:
 7170              	.LBI1770:
  77:../../../lib/pd2dsy/libdaisy/src/sys/system.h ****     ~System() {}
 7171              		.loc 11 77 5 is_stmt 1 view .LVU1698
  77:../../../lib/pd2dsy/libdaisy/src/sys/system.h ****     ~System() {}
 7172              		.loc 11 77 5 is_stmt 0 view .LVU1699
 7173              	.LBE1770:
 7174              	.LBE1772:
 7175              	.LBE1786:
 7176              	.LBB1787:
 7177              	.LBI1787:
  21:../../../lib/pd2dsy/libdaisy/src/hid/ctrl.h ****     /** destructor */
 7178              		.loc 9 21 5 is_stmt 1 view .LVU1700
  21:../../../lib/pd2dsy/libdaisy/src/hid/ctrl.h ****     /** destructor */
 7179              		.loc 9 21 5 is_stmt 0 view .LVU1701
 7180              	.LBE1787:
 7181              	.LBB1788:
 7182              	.LBI1788:
ARM GAS  /var/folders/fb/yfxt3z4538j6z0vjt03w70vc0000gn/T//ccrD3Rdr.s 			page 199


  17:../../../lib/pd2dsy/libdaisy/src/hid/rgb_led.h ****     ~RgbLed() {}
 7183              		.loc 7 17 5 is_stmt 1 view .LVU1702
 7184              	.LBB1789:
 7185              	.LBB1790:
 7186              	.LBI1790:
  24:../../../lib/pd2dsy/libdaisy/src/hid/led.h ****     ~Led() {}
 7187              		.loc 8 24 5 view .LVU1703
  24:../../../lib/pd2dsy/libdaisy/src/hid/led.h ****     ~Led() {}
 7188              		.loc 8 24 5 is_stmt 0 view .LVU1704
 7189              	.LBE1790:
 7190              	.LBB1791:
 7191              	.LBI1791:
  24:../../../lib/pd2dsy/libdaisy/src/hid/led.h ****     ~Led() {}
 7192              		.loc 8 24 5 is_stmt 1 view .LVU1705
  24:../../../lib/pd2dsy/libdaisy/src/hid/led.h ****     ~Led() {}
 7193              		.loc 8 24 5 is_stmt 0 view .LVU1706
 7194              	.LBE1791:
 7195              	.LBB1792:
 7196              	.LBI1792:
  24:../../../lib/pd2dsy/libdaisy/src/hid/led.h ****     ~Led() {}
 7197              		.loc 8 24 5 is_stmt 1 view .LVU1707
  24:../../../lib/pd2dsy/libdaisy/src/hid/led.h ****     ~Led() {}
 7198              		.loc 8 24 5 is_stmt 0 view .LVU1708
 7199              	.LBE1792:
 7200              	.LBE1789:
 7201              	.LBE1788:
 7202              	.LBB1793:
 7203              	.LBI1793:
  41:../../../lib/pd2dsy/libdaisy/src/hid/switch.h ****     ~Switch() {}
 7204              		.loc 6 41 5 is_stmt 1 view .LVU1709
  41:../../../lib/pd2dsy/libdaisy/src/hid/switch.h ****     ~Switch() {}
 7205              		.loc 6 41 5 is_stmt 0 view .LVU1710
 7206              	.LBE1793:
 7207              	.LBB1794:
 7208              	.LBI1774:
  17:../../../lib/pd2dsy/libdaisy/src/hid/disp/oled_display.h ****     virtual ~OledDisplay() {}
 7209              		.loc 2 17 5 is_stmt 1 view .LVU1711
 7210              	.LBB1785:
 7211              	.LBB1784:
 7212              	.LBB1777:
 7213              	.LBI1777:
 218:../../../lib/pd2dsy/libdaisy/src/hid/disp/display.h ****     virtual ~OneBitGraphicsDisplayImpl() {}
 7214              		.loc 4 218 5 view .LVU1712
 7215              	.LBB1778:
 7216              	.LBI1778:
  22:../../../lib/pd2dsy/libdaisy/src/hid/disp/display.h ****     virtual ~OneBitGraphicsDisplay() {}
 7217              		.loc 4 22 5 view .LVU1713
  22:../../../lib/pd2dsy/libdaisy/src/hid/disp/display.h ****     virtual ~OneBitGraphicsDisplay() {}
 7218              		.loc 4 22 5 is_stmt 0 view .LVU1714
 7219              	.LBE1778:
 7220              	.LBE1777:
  17:../../../lib/pd2dsy/libdaisy/src/hid/disp/oled_display.h ****     virtual ~OledDisplay() {}
 7221              		.loc 2 17 19 view .LVU1715
 7222 0016 C0F8D430 		str	r3, [r0, #212]
 7223              	.LVL555:
 7224              	.LBB1779:
 7225              	.LBI1779:
ARM GAS  /var/folders/fb/yfxt3z4538j6z0vjt03w70vc0000gn/T//ccrD3Rdr.s 			page 200


 145:../../../lib/pd2dsy/libdaisy/src/dev/oled_ssd130x.h **** {
 7226              		.loc 3 145 7 is_stmt 1 view .LVU1716
 7227              	.LBB1780:
 7228              	.LBI1780:
  65:../../../lib/pd2dsy/libdaisy/src/dev/oled_ssd130x.h **** {
 7229              		.loc 3 65 7 view .LVU1717
 7230              	.LBB1781:
 7231              	.LBI1781:
  94:../../../lib/pd2dsy/libdaisy/src/per/spi.h ****         }
  95:../../../lib/pd2dsy/libdaisy/src/per/spi.h **** 
  96:../../../lib/pd2dsy/libdaisy/src/per/spi.h ****         Peripheral    periph;
  97:../../../lib/pd2dsy/libdaisy/src/per/spi.h ****         Mode          mode;
  98:../../../lib/pd2dsy/libdaisy/src/per/spi.h ****         Direction     direction;
  99:../../../lib/pd2dsy/libdaisy/src/per/spi.h ****         unsigned long datasize;
 100:../../../lib/pd2dsy/libdaisy/src/per/spi.h ****         ClockPolarity clock_polarity;
 101:../../../lib/pd2dsy/libdaisy/src/per/spi.h ****         ClockPhase    clock_phase;
 102:../../../lib/pd2dsy/libdaisy/src/per/spi.h ****         NSS           nss;
 103:../../../lib/pd2dsy/libdaisy/src/per/spi.h ****         BaudPrescaler baud_prescaler;
 104:../../../lib/pd2dsy/libdaisy/src/per/spi.h ****     };
 105:../../../lib/pd2dsy/libdaisy/src/per/spi.h **** 
 106:../../../lib/pd2dsy/libdaisy/src/per/spi.h ****     SpiHandle() : pimpl_(nullptr) {}
 7232              		.loc 17 106 5 view .LVU1718
 7233              	.LBB1782:
 7234              	.LBB1783:
 7235              		.loc 17 106 33 is_stmt 0 view .LVU1719
 7236 001a C0F8DC40 		str	r4, [r0, #220]
 7237              	.LVL556:
 7238              		.loc 17 106 33 view .LVU1720
 7239              	.LBE1783:
 7240              	.LBE1782:
 7241              	.LBE1781:
 7242              	.LBE1780:
 7243              	.LBE1779:
 7244              	.LBE1784:
 7245              	.LBE1785:
 7246              	.LBE1794:
 7247              	.LBE1797:
  41:HeavyDaisy_grillosychicharrasosc.cpp **** json2daisy::DaisyPod hardware;
 7248              		.loc 1 41 22 view .LVU1721
 7249 001e FFF7FEFF 		bl	__aeabi_atexit
 7250              	.LVL557:
  43:HeavyDaisy_grillosychicharrasosc.cpp **** Heavy_grillosychicharrasosc hv(SAMPLE_RATE);
 7251              		.loc 1 43 43 view .LVU1722
 7252 0022 0A21     		movs	r1, #10
 7253 0024 2346     		mov	r3, r4
 7254 0026 0222     		movs	r2, #2
 7255 0028 2846     		mov	r0, r5
 7256 002a 9FED050B 		vldr.64	d0, .L424
 7257 002e FFF7FEFF 		bl	_ZN27Heavy_grillosychicharrasoscC1Ediii
 7258              	.LVL558:
  43:HeavyDaisy_grillosychicharrasosc.cpp **** Heavy_grillosychicharrasosc hv(SAMPLE_RATE);
 7259              		.loc 1 43 29 view .LVU1723
 7260 0032 3246     		mov	r2, r6
 7261 0034 2846     		mov	r0, r5
 7262 0036 0949     		ldr	r1, .L424+28
 7263              	.LBE1798:
 7264              	.LBE1800:
ARM GAS  /var/folders/fb/yfxt3z4538j6z0vjt03w70vc0000gn/T//ccrD3Rdr.s 			page 201


 7265              		.loc 1 121 1 view .LVU1724
 7266 0038 BDE87040 		pop	{r4, r5, r6, lr}
 7267              		.cfi_restore 14
 7268              		.cfi_restore 6
 7269              		.cfi_restore 5
 7270              		.cfi_restore 4
 7271              		.cfi_def_cfa_offset 0
 7272              	.LBB1801:
 7273              	.LBB1799:
  43:HeavyDaisy_grillosychicharrasosc.cpp **** Heavy_grillosychicharrasosc hv(SAMPLE_RATE);
 7274              		.loc 1 43 29 view .LVU1725
 7275 003c FFF7FEBF 		b	__aeabi_atexit
 7276              	.LVL559:
 7277              	.L425:
 7278              		.align	3
 7279              	.L424:
 7280 0040 00000000 		.word	0
 7281 0044 0070E740 		.word	1088909312
 7282 0048 00000000 		.word	.LANCHOR0
 7283 004c 00000000 		.word	__dso_handle
 7284 0050 08000000 		.word	_ZTVN5daisy11OledDisplayINS_13SSD130xDriverILj128ELj64ENS_24SSD130x4WireSpiTransportEEEEE+8
 7285 0054 00000000 		.word	.LANCHOR1
 7286 0058 00000000 		.word	_ZN10json2daisy8DaisyPodD1Ev
 7287 005c 00000000 		.word	_ZN27Heavy_grillosychicharrasoscD1Ev
 7288              	.LBE1799:
 7289              	.LBE1801:
 7290              		.cfi_endproc
 7291              	.LFE3087:
 7293              		.section	.init_array,"aw",%init_array
 7294              		.align	2
 7295 0000 00000000 		.word	_GLOBAL__sub_I_hardware(target1)
 7296              		.section	.text._Z13audiocallbackPKPKfPPfj,"ax",%progbits
 7297              		.align	1
 7298              		.p2align 2,,3
 7299              		.global	_Z13audiocallbackPKPKfPPfj
 7300              		.syntax unified
 7301              		.thumb
 7302              		.thumb_func
 7304              	_Z13audiocallbackPKPKfPPfj:
 7305              	.LVL560:
 7306              	.LFB3004:
  73:HeavyDaisy_grillosychicharrasosc.cpp **** {
 7307              		.loc 1 73 1 is_stmt 1 view -0
 7308              		.cfi_startproc
 7309              		@ args = 0, pretend = 0, frame = 8
 7310              		@ frame_needed = 0, uses_anonymous_args = 0
  74:HeavyDaisy_grillosychicharrasosc.cpp ****   hardware.ProcessAllControls();
 7311              		.loc 1 74 3 view .LVU1727
 7312              	.LBB1814:
 7313              	.LBI1814:
  82:source/HeavyDaisy_grillosychicharrasosc.hpp ****   {
 7314              		.loc 5 82 8 view .LVU1728
 7315              	.LBB1815:
  85:source/HeavyDaisy_grillosychicharrasosc.hpp ****     sw1.Debounce(); 
 7316              		.loc 5 85 5 view .LVU1729
 7317              	.LBE1815:
 7318              	.LBE1814:
ARM GAS  /var/folders/fb/yfxt3z4538j6z0vjt03w70vc0000gn/T//ccrD3Rdr.s 			page 202


  73:HeavyDaisy_grillosychicharrasosc.cpp **** {
 7319              		.loc 1 73 1 is_stmt 0 view .LVU1730
 7320 0000 70B5     		push	{r4, r5, r6, lr}
 7321              		.cfi_def_cfa_offset 16
 7322              		.cfi_offset 4, -16
 7323              		.cfi_offset 5, -12
 7324              		.cfi_offset 6, -8
 7325              		.cfi_offset 14, -4
 7326              	.LBB1819:
 7327              	.LBB1816:
  85:source/HeavyDaisy_grillosychicharrasosc.hpp ****     sw1.Debounce(); 
 7328              		.loc 5 85 18 view .LVU1731
 7329 0002 134C     		ldr	r4, .L433
 7330              	.LBE1816:
 7331              	.LBE1819:
  73:HeavyDaisy_grillosychicharrasosc.cpp **** {
 7332              		.loc 1 73 1 view .LVU1732
 7333 0004 82B0     		sub	sp, sp, #8
 7334              		.cfi_def_cfa_offset 24
  73:HeavyDaisy_grillosychicharrasosc.cpp **** {
 7335              		.loc 1 73 1 view .LVU1733
 7336 0006 0546     		mov	r5, r0
 7337 0008 0E46     		mov	r6, r1
 7338              	.LBB1820:
 7339              	.LBB1817:
  85:source/HeavyDaisy_grillosychicharrasosc.hpp ****     sw1.Debounce(); 
 7340              		.loc 5 85 18 view .LVU1734
 7341 000a 04F15000 		add	r0, r4, #80
 7342              	.LVL561:
  85:source/HeavyDaisy_grillosychicharrasosc.hpp ****     sw1.Debounce(); 
 7343              		.loc 5 85 18 view .LVU1735
 7344              	.LBE1817:
 7345              	.LBE1820:
  73:HeavyDaisy_grillosychicharrasosc.cpp **** {
 7346              		.loc 1 73 1 view .LVU1736
 7347 000e 0192     		str	r2, [sp, #4]
 7348              	.LBB1821:
 7349              	.LBB1818:
  85:source/HeavyDaisy_grillosychicharrasosc.hpp ****     sw1.Debounce(); 
 7350              		.loc 5 85 18 view .LVU1737
 7351 0010 FFF7FEFF 		bl	_ZN5daisy13AnalogControl7ProcessEv
 7352              	.LVL562:
  86:source/HeavyDaisy_grillosychicharrasosc.hpp ****   }
 7353              		.loc 5 86 5 is_stmt 1 view .LVU1738
  86:source/HeavyDaisy_grillosychicharrasosc.hpp ****   }
 7354              		.loc 5 86 17 is_stmt 0 view .LVU1739
 7355 0014 04F1C400 		add	r0, r4, #196
 7356 0018 FFF7FEFF 		bl	_ZN5daisy6Switch8DebounceEv
 7357              	.LVL563:
  86:source/HeavyDaisy_grillosychicharrasosc.hpp ****   }
 7358              		.loc 5 86 17 view .LVU1740
 7359              	.LBE1818:
 7360              	.LBE1821:
  75:HeavyDaisy_grillosychicharrasosc.cpp ****   CallbackWriteIn(hv);
 7361              		.loc 1 75 3 is_stmt 1 view .LVU1741
 7362              	.LBB1822:
 7363              	.LBI1822:
ARM GAS  /var/folders/fb/yfxt3z4538j6z0vjt03w70vc0000gn/T//ccrD3Rdr.s 			page 203


  97:HeavyDaisy_grillosychicharrasosc.cpp **** void CallbackWriteIn(Heavy_grillosychicharrasosc& hv)
 7364              		.loc 1 97 6 view .LVU1742
 7365              	.LBB1823:
 100:HeavyDaisy_grillosychicharrasosc.cpp ****   if ((hardware.sw1.RisingEdge()?1.f:0.f))
 7366              		.loc 1 100 3 view .LVU1743
 7367              	.LBB1824:
 7368              	.LBI1824:
 7369              		.loc 6 70 17 view .LVU1744
 7370              	.LBB1825:
 7371              		.loc 6 70 38 view .LVU1745
 7372              		.loc 6 70 54 is_stmt 0 view .LVU1746
 7373 001c 94F8C820 		ldrb	r2, [r4, #200]	@ zero_extendqisi2
 7374 0020 019B     		ldr	r3, [sp, #4]
 7375 0022 4AB1     		cbz	r2, .L427
 7376              	.LVL564:
 7377              		.loc 6 70 54 view .LVU1747
 7378              	.LBE1825:
 7379              	.LBE1824:
 100:HeavyDaisy_grillosychicharrasosc.cpp ****   if ((hardware.sw1.RisingEdge()?1.f:0.f))
 7380              		.loc 1 100 33 view .LVU1748
 7381 0024 94F8CE20 		ldrb	r2, [r4, #206]	@ zero_extendqisi2
 7382 0028 7F2A     		cmp	r2, #127
 7383 002a 05D1     		bne	.L427
 7384              	.LBB1826:
 7385              	.LBB1827:
 101:HeavyDaisy_grillosychicharrasosc.cpp ****     hv.sendBangToReceiver((uint32_t) HV_GRILLOSYCHICHARRASOSC_PARAM_IN_BUTTON1); 
 7386              		.loc 1 101 26 view .LVU1749
 7387 002c 0949     		ldr	r1, .L433+4
 7388 002e 0A48     		ldr	r0, .L433+8
 7389 0030 0193     		str	r3, [sp, #4]
 7390              	.LVL565:
 101:HeavyDaisy_grillosychicharrasosc.cpp ****     hv.sendBangToReceiver((uint32_t) HV_GRILLOSYCHICHARRASOSC_PARAM_IN_BUTTON1); 
 7391              		.loc 1 101 26 view .LVU1750
 7392              	.LBE1827:
 7393              	.LBI1826:
  97:HeavyDaisy_grillosychicharrasosc.cpp **** void CallbackWriteIn(Heavy_grillosychicharrasosc& hv)
 7394              		.loc 1 97 6 is_stmt 1 view .LVU1751
 7395              	.LBB1828:
 101:HeavyDaisy_grillosychicharrasosc.cpp ****     hv.sendBangToReceiver((uint32_t) HV_GRILLOSYCHICHARRASOSC_PARAM_IN_BUTTON1); 
 7396              		.loc 1 101 5 view .LVU1752
 101:HeavyDaisy_grillosychicharrasosc.cpp ****     hv.sendBangToReceiver((uint32_t) HV_GRILLOSYCHICHARRASOSC_PARAM_IN_BUTTON1); 
 7397              		.loc 1 101 26 is_stmt 0 view .LVU1753
 7398 0032 FFF7FEFF 		bl	_ZN12HeavyContext18sendBangToReceiverEm
 7399              	.LVL566:
 102:HeavyDaisy_grillosychicharrasosc.cpp **** }
 7400              		.loc 1 102 1 view .LVU1754
 7401 0036 019B     		ldr	r3, [sp, #4]
 7402              	.LVL567:
 7403              	.L427:
 102:HeavyDaisy_grillosychicharrasosc.cpp **** }
 7404              		.loc 1 102 1 view .LVU1755
 7405              	.LBE1828:
 7406              	.LBE1826:
 7407              	.LBE1823:
 7408              	.LBE1822:
  76:HeavyDaisy_grillosychicharrasosc.cpp ****   hv.process((float**)in, (float**)out, size);
 7409              		.loc 1 76 3 is_stmt 1 view .LVU1756
ARM GAS  /var/folders/fb/yfxt3z4538j6z0vjt03w70vc0000gn/T//ccrD3Rdr.s 			page 204


  76:HeavyDaisy_grillosychicharrasosc.cpp ****   hv.process((float**)in, (float**)out, size);
 7410              		.loc 1 76 13 is_stmt 0 view .LVU1757
 7411 0038 3246     		mov	r2, r6
 7412 003a 2946     		mov	r1, r5
 7413 003c 0648     		ldr	r0, .L433+8
 7414 003e FFF7FEFF 		bl	_ZN27Heavy_grillosychicharrasosc7processEPPfS1_i
 7415              	.LVL568:
  77:HeavyDaisy_grillosychicharrasosc.cpp ****   hardware.PostProcess();
 7416              		.loc 1 77 3 is_stmt 1 view .LVU1758
 7417              	.LBB1829:
 7418              	.LBI1829:
  92:source/HeavyDaisy_grillosychicharrasosc.hpp ****   {
 7419              		.loc 5 92 8 view .LVU1759
 7420              	.LBB1830:
  94:source/HeavyDaisy_grillosychicharrasosc.hpp ****   }
 7421              		.loc 5 94 5 view .LVU1760
  94:source/HeavyDaisy_grillosychicharrasosc.hpp ****   }
 7422              		.loc 5 94 16 is_stmt 0 view .LVU1761
 7423 0042 0648     		ldr	r0, .L433+12
 7424              	.LBE1830:
 7425              	.LBE1829:
  78:HeavyDaisy_grillosychicharrasosc.cpp **** }
 7426              		.loc 1 78 1 view .LVU1762
 7427 0044 02B0     		add	sp, sp, #8
 7428              		.cfi_def_cfa_offset 16
 7429              		@ sp needed
 7430 0046 BDE87040 		pop	{r4, r5, r6, lr}
 7431              		.cfi_restore 14
 7432              		.cfi_restore 6
 7433              		.cfi_restore 5
 7434              		.cfi_restore 4
 7435              		.cfi_def_cfa_offset 0
 7436              	.LVL569:
 7437              	.LBB1832:
 7438              	.LBB1831:
  94:source/HeavyDaisy_grillosychicharrasosc.hpp ****   }
 7439              		.loc 5 94 16 view .LVU1763
 7440 004a FFF7FEBF 		b	_ZN5daisy6RgbLed6UpdateEv
 7441              	.LVL570:
 7442              	.L434:
 7443 004e 00BF     		.align	2
 7444              	.L433:
 7445 0050 00000000 		.word	.LANCHOR0
 7446 0054 B6C52DFB 		.word	-80886346
 7447 0058 00000000 		.word	.LANCHOR1
 7448 005c 70000000 		.word	.LANCHOR0+112
 7449              	.LBE1831:
 7450              	.LBE1832:
 7451              		.cfi_endproc
 7452              	.LFE3004:
 7454              		.weak	_ZTVN5daisy11OledDisplayINS_13SSD130xDriverILj128ELj64ENS_24SSD130x4WireSpiTransportEEEEE
 7455              		.section	.rodata._ZTVN5daisy11OledDisplayINS_13SSD130xDriverILj128ELj64ENS_24SSD130x4WireSpiTransp
 7456              		.align	2
 7459              	_ZTVN5daisy11OledDisplayINS_13SSD130xDriverILj128ELj64ENS_24SSD130x4WireSpiTransportEEEEE:
 7460 0000 00000000 		.word	0
 7461 0004 00000000 		.word	0
 7462 0008 00000000 		.word	_ZN5daisy11OledDisplayINS_13SSD130xDriverILj128ELj64ENS_24SSD130x4WireSpiTransportEEEED1Ev
ARM GAS  /var/folders/fb/yfxt3z4538j6z0vjt03w70vc0000gn/T//ccrD3Rdr.s 			page 205


 7463 000c 00000000 		.word	_ZN5daisy11OledDisplayINS_13SSD130xDriverILj128ELj64ENS_24SSD130x4WireSpiTransportEEEED0Ev
 7464 0010 00000000 		.word	_ZNK5daisy11OledDisplayINS_13SSD130xDriverILj128ELj64ENS_24SSD130x4WireSpiTransportEEEE6Heig
 7465 0014 00000000 		.word	_ZNK5daisy11OledDisplayINS_13SSD130xDriverILj128ELj64ENS_24SSD130x4WireSpiTransportEEEE5Widt
 7466 0018 00000000 		.word	_ZN5daisy11OledDisplayINS_13SSD130xDriverILj128ELj64ENS_24SSD130x4WireSpiTransportEEEE4FillE
 7467 001c 00000000 		.word	_ZN5daisy11OledDisplayINS_13SSD130xDriverILj128ELj64ENS_24SSD130x4WireSpiTransportEEEE9DrawP
 7468 0020 00000000 		.word	_ZN5daisy25OneBitGraphicsDisplayImplINS_11OledDisplayINS_13SSD130xDriverILj128ELj64ENS_24SSD
 7469 0024 00000000 		.word	_ZN5daisy25OneBitGraphicsDisplayImplINS_11OledDisplayINS_13SSD130xDriverILj128ELj64ENS_24SSD
 7470 0028 00000000 		.word	_ZN5daisy25OneBitGraphicsDisplayImplINS_11OledDisplayINS_13SSD130xDriverILj128ELj64ENS_24SSD
 7471 002c 00000000 		.word	_ZN5daisy25OneBitGraphicsDisplayImplINS_11OledDisplayINS_13SSD130xDriverILj128ELj64ENS_24SSD
 7472 0030 00000000 		.word	_ZN5daisy25OneBitGraphicsDisplayImplINS_11OledDisplayINS_13SSD130xDriverILj128ELj64ENS_24SSD
 7473 0034 00000000 		.word	_ZN5daisy25OneBitGraphicsDisplayImplINS_11OledDisplayINS_13SSD130xDriverILj128ELj64ENS_24SSD
 7474 0038 00000000 		.word	_ZN5daisy11OledDisplayINS_13SSD130xDriverILj128ELj64ENS_24SSD130x4WireSpiTransportEEEE6Updat
 7475              		.global	hv
 7476              		.global	hardware
 7477              		.section	.bss.hardware,"aw",%nobits
 7478              		.align	2
 7479              		.set	.LANCHOR0,. + 0
 7482              	hardware:
 7483 0000 00000000 		.space	1256
 7483      00000000 
 7483      00000000 
 7483      00000000 
 7483      00000000 
 7484              		.section	.bss.hv,"aw",%nobits
 7485              		.align	3
 7486              		.set	.LANCHOR1,. + 0
 7489              	hv:
 7490 0000 00000000 		.space	2512
 7490      00000000 
 7490      00000000 
 7490      00000000 
 7490      00000000 
 7491              		.text
 7492              	.Letext0:
 7493              		.file 21 "/Library/DaisyToolchain/0.2.0/arm/arm-none-eabi/include/machine/_default_types.h"
 7494              		.file 22 "/Library/DaisyToolchain/0.2.0/arm/arm-none-eabi/include/sys/_stdint.h"
 7495              		.file 23 "/Library/DaisyToolchain/0.2.0/arm/arm-none-eabi/include/stdint.h"
 7496              		.file 24 "/Library/DaisyToolchain/0.2.0/arm/lib/gcc/arm-none-eabi/10.3.1/include/stddef.h"
 7497              		.file 25 "/Library/DaisyToolchain/0.2.0/arm/arm-none-eabi/include/c++/10.3.1/bits/std_abs.h"
 7498              		.file 26 "/Library/DaisyToolchain/0.2.0/arm/arm-none-eabi/include/c++/10.3.1/cstdlib"
 7499              		.file 27 "/Library/DaisyToolchain/0.2.0/arm/arm-none-eabi/include/c++/10.3.1/type_traits"
 7500              		.file 28 "/Library/DaisyToolchain/0.2.0/arm/arm-none-eabi/include/c++/10.3.1/cstdint"
 7501              		.file 29 "/Library/DaisyToolchain/0.2.0/arm/arm-none-eabi/include/c++/10.3.1/debug/debug.h"
 7502              		.file 30 "/Library/DaisyToolchain/0.2.0/arm/arm-none-eabi/include/c++/10.3.1/arm-none-eabi/thumb/v
 7503              		.file 31 "/Library/DaisyToolchain/0.2.0/arm/arm-none-eabi/include/c++/10.3.1/bits/algorithmfwd.h"
 7504              		.file 32 "/Library/DaisyToolchain/0.2.0/arm/arm-none-eabi/include/c++/10.3.1/bits/stl_pair.h"
 7505              		.file 33 "/Library/DaisyToolchain/0.2.0/arm/arm-none-eabi/include/c++/10.3.1/bits/exception_ptr.h"
 7506              		.file 34 "/Library/DaisyToolchain/0.2.0/arm/arm-none-eabi/include/c++/10.3.1/cstdarg"
 7507              		.file 35 "/Library/DaisyToolchain/0.2.0/arm/arm-none-eabi/include/c++/10.3.1/cstdio"
 7508              		.file 36 "/Library/DaisyToolchain/0.2.0/arm/arm-none-eabi/include/c++/10.3.1/cstring"
 7509              		.file 37 "/Library/DaisyToolchain/0.2.0/arm/arm-none-eabi/include/c++/10.3.1/bits/predefined_ops.h
 7510              		.file 38 "/Library/DaisyToolchain/0.2.0/arm/arm-none-eabi/include/sys/_types.h"
 7511              		.file 39 "/Library/DaisyToolchain/0.2.0/arm/arm-none-eabi/include/sys/reent.h"
 7512              		.file 40 "/Library/DaisyToolchain/0.2.0/arm/arm-none-eabi/include/sys/lock.h"
 7513              		.file 41 "/Library/DaisyToolchain/0.2.0/arm/arm-none-eabi/include/math.h"
 7514              		.file 42 "/Library/DaisyToolchain/0.2.0/arm/arm-none-eabi/include/stdlib.h"
 7515              		.file 43 "/Library/DaisyToolchain/0.2.0/arm/arm-none-eabi/include/c++/10.3.1/math.h"
ARM GAS  /var/folders/fb/yfxt3z4538j6z0vjt03w70vc0000gn/T//ccrD3Rdr.s 			page 206


 7516              		.file 44 "/Library/DaisyToolchain/0.2.0/arm/lib/gcc/arm-none-eabi/10.3.1/include/stdarg.h"
 7517              		.file 45 "/Library/DaisyToolchain/0.2.0/arm/arm-none-eabi/include/stdio.h"
 7518              		.file 46 "/Library/DaisyToolchain/0.2.0/arm/arm-none-eabi/include/c++/10.3.1/stdlib.h"
 7519              		.file 47 "source/HvHeavy.h"
 7520              		.file 48 "source/HvMessage.h"
 7521              		.file 49 "source/HeavyContextInterface.hpp"
 7522              		.file 50 "source/Heavy_grillosychicharrasosc.h"
 7523              		.file 51 "../../../lib/pd2dsy/libdaisy/src/daisy_core.h"
 7524              		.file 52 "../../../lib/pd2dsy/libdaisy/src/per/tim.h"
 7525              		.file 53 "../../../lib/pd2dsy/libdaisy/src/per/sai.h"
 7526              		.file 54 "../../../lib/pd2dsy/libdaisy/src/util/wav_format.h"
 7527              		.file 55 "../../../lib/pd2dsy/libdaisy/src/util/color.h"
 7528              		.file 56 "../../../lib/pd2dsy/libdaisy/src/dev/max11300.h"
 7529              		.file 57 "../../../lib/pd2dsy/libdaisy/src/per/gpio.h"
 7530              		.file 58 "../../../lib/pd2dsy/libdaisy/src/dev/sdram.h"
 7531              		.file 59 "../../../lib/pd2dsy/libdaisy/src/util/oled_fonts.h"
 7532              		.file 60 "/Library/DaisyToolchain/0.2.0/arm/arm-none-eabi/include/string.h"
 7533              		.file 61 "source/Heavy_grillosychicharrasosc.hpp"
 7534              		.file 62 "/Library/DaisyToolchain/0.2.0/arm/arm-none-eabi/include/c++/10.3.1/new"
 7535              		.file 63 "<built-in>"
 7536              		.file 64 "../../../lib/pd2dsy/libdaisy/src/dev/sr_595.h"
ARM GAS  /var/folders/fb/yfxt3z4538j6z0vjt03w70vc0000gn/T//ccrD3Rdr.s 			page 207


DEFINED SYMBOLS
                            *ABS*:0000000000000000 HeavyDaisy_grillosychicharrasosc.cpp
/var/folders/fb/yfxt3z4538j6z0vjt03w70vc0000gn/T//ccrD3Rdr.s:19     .text._ZL8sendHookP21HeavyContextInterfacePKcmPK9HvMessage:0000000000000000 $t
/var/folders/fb/yfxt3z4538j6z0vjt03w70vc0000gn/T//ccrD3Rdr.s:25     .text._ZL8sendHookP21HeavyContextInterfacePKcmPK9HvMessage:0000000000000000 _ZL8sendHookP21HeavyContextInterfacePKcmPK9HvMessage
/var/folders/fb/yfxt3z4538j6z0vjt03w70vc0000gn/T//ccrD3Rdr.s:40     .text._ZN5daisy11OledDisplayINS_13SSD130xDriverILj128ELj64ENS_24SSD130x4WireSpiTransportEEEE4FillEb:0000000000000000 $t
/var/folders/fb/yfxt3z4538j6z0vjt03w70vc0000gn/T//ccrD3Rdr.s:47     .text._ZN5daisy11OledDisplayINS_13SSD130xDriverILj128ELj64ENS_24SSD130x4WireSpiTransportEEEE4FillEb:0000000000000000 _ZN5daisy11OledDisplayINS_13SSD130xDriverILj128ELj64ENS_24SSD130x4WireSpiTransportEEEE4FillEb
/var/folders/fb/yfxt3z4538j6z0vjt03w70vc0000gn/T//ccrD3Rdr.s:80     .text._ZN5daisy11OledDisplayINS_13SSD130xDriverILj128ELj64ENS_24SSD130x4WireSpiTransportEEEED2Ev:0000000000000000 $t
/var/folders/fb/yfxt3z4538j6z0vjt03w70vc0000gn/T//ccrD3Rdr.s:87     .text._ZN5daisy11OledDisplayINS_13SSD130xDriverILj128ELj64ENS_24SSD130x4WireSpiTransportEEEED2Ev:0000000000000000 _ZN5daisy11OledDisplayINS_13SSD130xDriverILj128ELj64ENS_24SSD130x4WireSpiTransportEEEED2Ev
/var/folders/fb/yfxt3z4538j6z0vjt03w70vc0000gn/T//ccrD3Rdr.s:87     .text._ZN5daisy11OledDisplayINS_13SSD130xDriverILj128ELj64ENS_24SSD130x4WireSpiTransportEEEED2Ev:0000000000000000 _ZN5daisy11OledDisplayINS_13SSD130xDriverILj128ELj64ENS_24SSD130x4WireSpiTransportEEEED1Ev
/var/folders/fb/yfxt3z4538j6z0vjt03w70vc0000gn/T//ccrD3Rdr.s:113    .text._ZN10json2daisy8DaisyPodD2Ev:0000000000000000 $t
/var/folders/fb/yfxt3z4538j6z0vjt03w70vc0000gn/T//ccrD3Rdr.s:120    .text._ZN10json2daisy8DaisyPodD2Ev:0000000000000000 _ZN10json2daisy8DaisyPodD2Ev
/var/folders/fb/yfxt3z4538j6z0vjt03w70vc0000gn/T//ccrD3Rdr.s:120    .text._ZN10json2daisy8DaisyPodD2Ev:0000000000000000 _ZN10json2daisy8DaisyPodD1Ev
/var/folders/fb/yfxt3z4538j6z0vjt03w70vc0000gn/T//ccrD3Rdr.s:212    .text._ZNK5daisy11OledDisplayINS_13SSD130xDriverILj128ELj64ENS_24SSD130x4WireSpiTransportEEEE6HeightEv:0000000000000000 $t
/var/folders/fb/yfxt3z4538j6z0vjt03w70vc0000gn/T//ccrD3Rdr.s:219    .text._ZNK5daisy11OledDisplayINS_13SSD130xDriverILj128ELj64ENS_24SSD130x4WireSpiTransportEEEE6HeightEv:0000000000000000 _ZNK5daisy11OledDisplayINS_13SSD130xDriverILj128ELj64ENS_24SSD130x4WireSpiTransportEEEE6HeightEv
/var/folders/fb/yfxt3z4538j6z0vjt03w70vc0000gn/T//ccrD3Rdr.s:236    .text._ZNK5daisy11OledDisplayINS_13SSD130xDriverILj128ELj64ENS_24SSD130x4WireSpiTransportEEEE5WidthEv:0000000000000000 $t
/var/folders/fb/yfxt3z4538j6z0vjt03w70vc0000gn/T//ccrD3Rdr.s:243    .text._ZNK5daisy11OledDisplayINS_13SSD130xDriverILj128ELj64ENS_24SSD130x4WireSpiTransportEEEE5WidthEv:0000000000000000 _ZNK5daisy11OledDisplayINS_13SSD130xDriverILj128ELj64ENS_24SSD130x4WireSpiTransportEEEE5WidthEv
/var/folders/fb/yfxt3z4538j6z0vjt03w70vc0000gn/T//ccrD3Rdr.s:260    .text._ZN5daisy11OledDisplayINS_13SSD130xDriverILj128ELj64ENS_24SSD130x4WireSpiTransportEEEED0Ev:0000000000000000 $t
/var/folders/fb/yfxt3z4538j6z0vjt03w70vc0000gn/T//ccrD3Rdr.s:267    .text._ZN5daisy11OledDisplayINS_13SSD130xDriverILj128ELj64ENS_24SSD130x4WireSpiTransportEEEED0Ev:0000000000000000 _ZN5daisy11OledDisplayINS_13SSD130xDriverILj128ELj64ENS_24SSD130x4WireSpiTransportEEEED0Ev
/var/folders/fb/yfxt3z4538j6z0vjt03w70vc0000gn/T//ccrD3Rdr.s:307    .text._ZN5daisy11OledDisplayINS_13SSD130xDriverILj128ELj64ENS_24SSD130x4WireSpiTransportEEEE6UpdateEv:0000000000000000 $t
/var/folders/fb/yfxt3z4538j6z0vjt03w70vc0000gn/T//ccrD3Rdr.s:314    .text._ZN5daisy11OledDisplayINS_13SSD130xDriverILj128ELj64ENS_24SSD130x4WireSpiTransportEEEE6UpdateEv:0000000000000000 _ZN5daisy11OledDisplayINS_13SSD130xDriverILj128ELj64ENS_24SSD130x4WireSpiTransportEEEE6UpdateEv
/var/folders/fb/yfxt3z4538j6z0vjt03w70vc0000gn/T//ccrD3Rdr.s:501    .text._ZN5daisy25OneBitGraphicsDisplayImplINS_11OledDisplayINS_13SSD130xDriverILj128ELj64ENS_24SSD130x4WireSpiTransportEEEEEE11WriteStringEPKc7FontDefb:0000000000000000 $t
/var/folders/fb/yfxt3z4538j6z0vjt03w70vc0000gn/T//ccrD3Rdr.s:508    .text._ZN5daisy25OneBitGraphicsDisplayImplINS_11OledDisplayINS_13SSD130xDriverILj128ELj64ENS_24SSD130x4WireSpiTransportEEEEEE11WriteStringEPKc7FontDefb:0000000000000000 _ZN5daisy25OneBitGraphicsDisplayImplINS_11OledDisplayINS_13SSD130xDriverILj128ELj64ENS_24SSD130x4WireSpiTransportEEEEEE11WriteStringEPKc7FontDefb
/var/folders/fb/yfxt3z4538j6z0vjt03w70vc0000gn/T//ccrD3Rdr.s:965    .text._ZN5daisy25OneBitGraphicsDisplayImplINS_11OledDisplayINS_13SSD130xDriverILj128ELj64ENS_24SSD130x4WireSpiTransportEEEEEE11WriteStringEPKc7FontDefb:00000000000001b8 $d
/var/folders/fb/yfxt3z4538j6z0vjt03w70vc0000gn/T//ccrD3Rdr.s:975    .text._ZN5daisy25OneBitGraphicsDisplayImplINS_11OledDisplayINS_13SSD130xDriverILj128ELj64ENS_24SSD130x4WireSpiTransportEEEEEE9WriteCharEc7FontDefb:0000000000000000 $t
/var/folders/fb/yfxt3z4538j6z0vjt03w70vc0000gn/T//ccrD3Rdr.s:982    .text._ZN5daisy25OneBitGraphicsDisplayImplINS_11OledDisplayINS_13SSD130xDriverILj128ELj64ENS_24SSD130x4WireSpiTransportEEEEEE9WriteCharEc7FontDefb:0000000000000000 _ZN5daisy25OneBitGraphicsDisplayImplINS_11OledDisplayINS_13SSD130xDriverILj128ELj64ENS_24SSD130x4WireSpiTransportEEEEEE9WriteCharEc7FontDefb
/var/folders/fb/yfxt3z4538j6z0vjt03w70vc0000gn/T//ccrD3Rdr.s:1408   .text._ZN5daisy25OneBitGraphicsDisplayImplINS_11OledDisplayINS_13SSD130xDriverILj128ELj64ENS_24SSD130x4WireSpiTransportEEEEEE9WriteCharEc7FontDefb:0000000000000198 $d
/var/folders/fb/yfxt3z4538j6z0vjt03w70vc0000gn/T//ccrD3Rdr.s:1416   .text._ZN5daisy25OneBitGraphicsDisplayImplINS_11OledDisplayINS_13SSD130xDriverILj128ELj64ENS_24SSD130x4WireSpiTransportEEEEEE18WriteStringAlignedEPKcRK7FontDefNS_9RectangleENS_9AlignmentEb:0000000000000000 $t
/var/folders/fb/yfxt3z4538j6z0vjt03w70vc0000gn/T//ccrD3Rdr.s:1423   .text._ZN5daisy25OneBitGraphicsDisplayImplINS_11OledDisplayINS_13SSD130xDriverILj128ELj64ENS_24SSD130x4WireSpiTransportEEEEEE18WriteStringAlignedEPKcRK7FontDefNS_9RectangleENS_9AlignmentEb:0000000000000000 _ZN5daisy25OneBitGraphicsDisplayImplINS_11OledDisplayINS_13SSD130xDriverILj128ELj64ENS_24SSD130x4WireSpiTransportEEEEEE18WriteStringAlignedEPKcRK7FontDefNS_9RectangleENS_9AlignmentEb
/var/folders/fb/yfxt3z4538j6z0vjt03w70vc0000gn/T//ccrD3Rdr.s:1562   .text._ZN5daisy25OneBitGraphicsDisplayImplINS_11OledDisplayINS_13SSD130xDriverILj128ELj64ENS_24SSD130x4WireSpiTransportEEEEEE18WriteStringAlignedEPKcRK7FontDefNS_9RectangleENS_9AlignmentEb:0000000000000046 $d
/var/folders/fb/yfxt3z4538j6z0vjt03w70vc0000gn/T//ccrD3Rdr.s:1571   .text._ZN5daisy25OneBitGraphicsDisplayImplINS_11OledDisplayINS_13SSD130xDriverILj128ELj64ENS_24SSD130x4WireSpiTransportEEEEEE18WriteStringAlignedEPKcRK7FontDefNS_9RectangleENS_9AlignmentEb:0000000000000058 $t
/var/folders/fb/yfxt3z4538j6z0vjt03w70vc0000gn/T//ccrD3Rdr.s:2779   .text._ZN5daisy25OneBitGraphicsDisplayImplINS_11OledDisplayINS_13SSD130xDriverILj128ELj64ENS_24SSD130x4WireSpiTransportEEEEEE18WriteStringAlignedEPKcRK7FontDefNS_9RectangleENS_9AlignmentEb:000000000000031c $d
/var/folders/fb/yfxt3z4538j6z0vjt03w70vc0000gn/T//ccrD3Rdr.s:2788   .text._ZN5daisy25OneBitGraphicsDisplayImplINS_11OledDisplayINS_13SSD130xDriverILj128ELj64ENS_24SSD130x4WireSpiTransportEEEEEE18WriteStringAlignedEPKcRK7FontDefNS_9RectangleENS_9AlignmentEb:0000000000000324 $t
/var/folders/fb/yfxt3z4538j6z0vjt03w70vc0000gn/T//ccrD3Rdr.s:3104   .text._ZN5daisy25OneBitGraphicsDisplayImplINS_11OledDisplayINS_13SSD130xDriverILj128ELj64ENS_24SSD130x4WireSpiTransportEEEEEE18WriteStringAlignedEPKcRK7FontDefNS_9RectangleENS_9AlignmentEb:00000000000003e4 $d
/var/folders/fb/yfxt3z4538j6z0vjt03w70vc0000gn/T//ccrD3Rdr.s:3112   .text._ZN5daisy11OledDisplayINS_13SSD130xDriverILj128ELj64ENS_24SSD130x4WireSpiTransportEEEE9DrawPixelEjjb:0000000000000000 $t
/var/folders/fb/yfxt3z4538j6z0vjt03w70vc0000gn/T//ccrD3Rdr.s:3119   .text._ZN5daisy11OledDisplayINS_13SSD130xDriverILj128ELj64ENS_24SSD130x4WireSpiTransportEEEE9DrawPixelEjjb:0000000000000000 _ZN5daisy11OledDisplayINS_13SSD130xDriverILj128ELj64ENS_24SSD130x4WireSpiTransportEEEE9DrawPixelEjjb
/var/folders/fb/yfxt3z4538j6z0vjt03w70vc0000gn/T//ccrD3Rdr.s:3196   .text._ZN5daisy25OneBitGraphicsDisplayImplINS_11OledDisplayINS_13SSD130xDriverILj128ELj64ENS_24SSD130x4WireSpiTransportEEEEEE8DrawLineEjjjjb:0000000000000000 $t
/var/folders/fb/yfxt3z4538j6z0vjt03w70vc0000gn/T//ccrD3Rdr.s:3203   .text._ZN5daisy25OneBitGraphicsDisplayImplINS_11OledDisplayINS_13SSD130xDriverILj128ELj64ENS_24SSD130x4WireSpiTransportEEEEEE8DrawLineEjjjjb:0000000000000000 _ZN5daisy25OneBitGraphicsDisplayImplINS_11OledDisplayINS_13SSD130xDriverILj128ELj64ENS_24SSD130x4WireSpiTransportEEEEEE8DrawLineEjjjjb
/var/folders/fb/yfxt3z4538j6z0vjt03w70vc0000gn/T//ccrD3Rdr.s:3488   .text._ZN5daisy25OneBitGraphicsDisplayImplINS_11OledDisplayINS_13SSD130xDriverILj128ELj64ENS_24SSD130x4WireSpiTransportEEEEEE7DrawArcEjjjiib:0000000000000000 $t
/var/folders/fb/yfxt3z4538j6z0vjt03w70vc0000gn/T//ccrD3Rdr.s:3495   .text._ZN5daisy25OneBitGraphicsDisplayImplINS_11OledDisplayINS_13SSD130xDriverILj128ELj64ENS_24SSD130x4WireSpiTransportEEEEEE7DrawArcEjjjiib:0000000000000000 _ZN5daisy25OneBitGraphicsDisplayImplINS_11OledDisplayINS_13SSD130xDriverILj128ELj64ENS_24SSD130x4WireSpiTransportEEEEEE7DrawArcEjjjiib
/var/folders/fb/yfxt3z4538j6z0vjt03w70vc0000gn/T//ccrD3Rdr.s:4180   .text._ZN5daisy25OneBitGraphicsDisplayImplINS_11OledDisplayINS_13SSD130xDriverILj128ELj64ENS_24SSD130x4WireSpiTransportEEEEEE7DrawArcEjjjiib:0000000000000368 $d
/var/folders/fb/yfxt3z4538j6z0vjt03w70vc0000gn/T//ccrD3Rdr.s:4194   .text._ZN5daisy25OneBitGraphicsDisplayImplINS_11OledDisplayINS_13SSD130xDriverILj128ELj64ENS_24SSD130x4WireSpiTransportEEEEEE7DrawArcEjjjiib:0000000000000378 $t
/var/folders/fb/yfxt3z4538j6z0vjt03w70vc0000gn/T//ccrD3Rdr.s:4420   .text._ZN5daisy25OneBitGraphicsDisplayImplINS_11OledDisplayINS_13SSD130xDriverILj128ELj64ENS_24SSD130x4WireSpiTransportEEEEEE8DrawRectEjjjjbb:0000000000000000 $t
/var/folders/fb/yfxt3z4538j6z0vjt03w70vc0000gn/T//ccrD3Rdr.s:4427   .text._ZN5daisy25OneBitGraphicsDisplayImplINS_11OledDisplayINS_13SSD130xDriverILj128ELj64ENS_24SSD130x4WireSpiTransportEEEEEE8DrawRectEjjjjbb:0000000000000000 _ZN5daisy25OneBitGraphicsDisplayImplINS_11OledDisplayINS_13SSD130xDriverILj128ELj64ENS_24SSD130x4WireSpiTransportEEEEEE8DrawRectEjjjjbb
/var/folders/fb/yfxt3z4538j6z0vjt03w70vc0000gn/T//ccrD3Rdr.s:5537   .text._Z11LoopWriteInR27Heavy_grillosychicharrasosc:0000000000000000 $t
/var/folders/fb/yfxt3z4538j6z0vjt03w70vc0000gn/T//ccrD3Rdr.s:5544   .text._Z11LoopWriteInR27Heavy_grillosychicharrasosc:0000000000000000 _Z11LoopWriteInR27Heavy_grillosychicharrasosc
/var/folders/fb/yfxt3z4538j6z0vjt03w70vc0000gn/T//ccrD3Rdr.s:5558   .text._Z15CallbackWriteInR27Heavy_grillosychicharrasosc:0000000000000000 $t
/var/folders/fb/yfxt3z4538j6z0vjt03w70vc0000gn/T//ccrD3Rdr.s:5565   .text._Z15CallbackWriteInR27Heavy_grillosychicharrasosc:0000000000000000 _Z15CallbackWriteInR27Heavy_grillosychicharrasosc
/var/folders/fb/yfxt3z4538j6z0vjt03w70vc0000gn/T//ccrD3Rdr.s:5614   .text._Z15CallbackWriteInR27Heavy_grillosychicharrasosc:000000000000001c $d
/var/folders/fb/yfxt3z4538j6z0vjt03w70vc0000gn/T//ccrD3Rdr.s:5620   .text._Z12LoopWriteOutv:0000000000000000 $t
/var/folders/fb/yfxt3z4538j6z0vjt03w70vc0000gn/T//ccrD3Rdr.s:5627   .text._Z12LoopWriteOutv:0000000000000000 _Z12LoopWriteOutv
/var/folders/fb/yfxt3z4538j6z0vjt03w70vc0000gn/T//ccrD3Rdr.s:5638   .text._Z16CallbackWriteOutv:0000000000000000 $t
/var/folders/fb/yfxt3z4538j6z0vjt03w70vc0000gn/T//ccrD3Rdr.s:5645   .text._Z16CallbackWriteOutv:0000000000000000 _Z16CallbackWriteOutv
/var/folders/fb/yfxt3z4538j6z0vjt03w70vc0000gn/T//ccrD3Rdr.s:5658   .text._Z7Displayv:0000000000000000 $t
/var/folders/fb/yfxt3z4538j6z0vjt03w70vc0000gn/T//ccrD3Rdr.s:5665   .text._Z7Displayv:0000000000000000 _Z7Displayv
/var/folders/fb/yfxt3z4538j6z0vjt03w70vc0000gn/T//ccrD3Rdr.s:5676   .text._ZN5daisy13SSD130xDriverILj128ELj64ENS_24SSD130x4WireSpiTransportEE4InitENS2_6ConfigE:0000000000000000 $t
/var/folders/fb/yfxt3z4538j6z0vjt03w70vc0000gn/T//ccrD3Rdr.s:5683   .text._ZN5daisy13SSD130xDriverILj128ELj64ENS_24SSD130x4WireSpiTransportEE4InitENS2_6ConfigE:0000000000000000 _ZN5daisy13SSD130xDriverILj128ELj64ENS_24SSD130x4WireSpiTransportEE4InitENS2_6ConfigE
/var/folders/fb/yfxt3z4538j6z0vjt03w70vc0000gn/T//ccrD3Rdr.s:6455   .text._ZN10json2daisy8DaisyPod4InitEb:0000000000000000 $t
ARM GAS  /var/folders/fb/yfxt3z4538j6z0vjt03w70vc0000gn/T//ccrD3Rdr.s 			page 208


/var/folders/fb/yfxt3z4538j6z0vjt03w70vc0000gn/T//ccrD3Rdr.s:6462   .text._ZN10json2daisy8DaisyPod4InitEb:0000000000000000 _ZN10json2daisy8DaisyPod4InitEb
/var/folders/fb/yfxt3z4538j6z0vjt03w70vc0000gn/T//ccrD3Rdr.s:6965   .text._ZN10json2daisy8DaisyPod4InitEb:00000000000001d0 $d
/var/folders/fb/yfxt3z4538j6z0vjt03w70vc0000gn/T//ccrD3Rdr.s:6974   .text.startup.main:0000000000000000 $t
/var/folders/fb/yfxt3z4538j6z0vjt03w70vc0000gn/T//ccrD3Rdr.s:6981   .text.startup.main:0000000000000000 main
/var/folders/fb/yfxt3z4538j6z0vjt03w70vc0000gn/T//ccrD3Rdr.s:7038   .text.startup.main:000000000000001c $d
/var/folders/fb/yfxt3z4538j6z0vjt03w70vc0000gn/T//ccrD3Rdr.s:7304   .text._Z13audiocallbackPKPKfPPfj:0000000000000000 _Z13audiocallbackPKPKfPPfj
/var/folders/fb/yfxt3z4538j6z0vjt03w70vc0000gn/T//ccrD3Rdr.s:7046   .text.startup._GLOBAL__sub_I_hardware:0000000000000000 $t
/var/folders/fb/yfxt3z4538j6z0vjt03w70vc0000gn/T//ccrD3Rdr.s:7052   .text.startup._GLOBAL__sub_I_hardware:0000000000000000 _GLOBAL__sub_I_hardware
/var/folders/fb/yfxt3z4538j6z0vjt03w70vc0000gn/T//ccrD3Rdr.s:7280   .text.startup._GLOBAL__sub_I_hardware:0000000000000040 $d
/var/folders/fb/yfxt3z4538j6z0vjt03w70vc0000gn/T//ccrD3Rdr.s:7459   .rodata._ZTVN5daisy11OledDisplayINS_13SSD130xDriverILj128ELj64ENS_24SSD130x4WireSpiTransportEEEEE:0000000000000000 _ZTVN5daisy11OledDisplayINS_13SSD130xDriverILj128ELj64ENS_24SSD130x4WireSpiTransportEEEEE
/var/folders/fb/yfxt3z4538j6z0vjt03w70vc0000gn/T//ccrD3Rdr.s:7294   .init_array:0000000000000000 $d
/var/folders/fb/yfxt3z4538j6z0vjt03w70vc0000gn/T//ccrD3Rdr.s:7297   .text._Z13audiocallbackPKPKfPPfj:0000000000000000 $t
/var/folders/fb/yfxt3z4538j6z0vjt03w70vc0000gn/T//ccrD3Rdr.s:7445   .text._Z13audiocallbackPKPKfPPfj:0000000000000050 $d
/var/folders/fb/yfxt3z4538j6z0vjt03w70vc0000gn/T//ccrD3Rdr.s:7456   .rodata._ZTVN5daisy11OledDisplayINS_13SSD130xDriverILj128ELj64ENS_24SSD130x4WireSpiTransportEEEEE:0000000000000000 $d
/var/folders/fb/yfxt3z4538j6z0vjt03w70vc0000gn/T//ccrD3Rdr.s:7489   .bss.hv:0000000000000000 hv
/var/folders/fb/yfxt3z4538j6z0vjt03w70vc0000gn/T//ccrD3Rdr.s:7482   .bss.hardware:0000000000000000 hardware
/var/folders/fb/yfxt3z4538j6z0vjt03w70vc0000gn/T//ccrD3Rdr.s:7478   .bss.hardware:0000000000000000 $d
/var/folders/fb/yfxt3z4538j6z0vjt03w70vc0000gn/T//ccrD3Rdr.s:7485   .bss.hv:0000000000000000 $d
                           .group:0000000000000000 _ZN5daisy11OledDisplayINS_13SSD130xDriverILj128ELj64ENS_24SSD130x4WireSpiTransportEEEED5Ev
                           .group:0000000000000000 _ZN10json2daisy8DaisyPodD5Ev

UNDEFINED SYMBOLS
memset
_ZdlPvj
dsy_gpio_write
_ZN5daisy9SpiHandle16BlockingTransmitEPhjm
cosf
sinf
dsy_gpio_init
_ZN5daisy9SpiHandle4InitERKNS0_6ConfigE
_ZN5daisy6System5DelayEm
_ZN5daisy9DaisySeed9ConfigureEv
_ZN5daisy9DaisySeed4InitEb
_ZN5daisy9DaisySeed6GetPinEh
_ZNK5daisy9DaisySeed17AudioCallbackRateEv
_ZN5daisy6Switch4InitE12dsy_gpio_pinfNS0_4TypeENS0_8PolarityENS0_4PullE
_ZN5daisy16AdcChannelConfig10InitSingleE12dsy_gpio_pin
_ZN5daisy9AdcHandle4InitEPNS_16AdcChannelConfigEjNS0_12OverSamplingE
_ZNK5daisy9AdcHandle6GetPtrEh
_ZN5daisy13AnalogControl4InitEPtfbbf
_ZN5daisy6RgbLed4InitE12dsy_gpio_pinS1_S1_b
_ZN5daisy6RgbLed3SetEfff
_ZN5daisy9AdcHandle5StartEv
_ZN5daisy9DaisySeed10StartAudioEPFvPKPKfPPfjE
__aeabi_atexit
_ZN27Heavy_grillosychicharrasoscC1Ediii
__dso_handle
_ZN27Heavy_grillosychicharrasoscD1Ev
_ZN5daisy13AnalogControl7ProcessEv
_ZN5daisy6Switch8DebounceEv
_ZN12HeavyContext18sendBangToReceiverEm
_ZN27Heavy_grillosychicharrasosc7processEPPfS1_i
_ZN5daisy6RgbLed6UpdateEv
