ARM GAS  /var/folders/fb/yfxt3z4538j6z0vjt03w70vc0000gn/T//ccrD3Rdr.s 			page 1


   1              		.cpu cortex-m7
   2              		.arch armv7e-m
   3              		.fpu fpv5-d16
   4              		.eabi_attribute 28, 1
   5              		.eabi_attribute 20, 1
   6              		.eabi_attribute 21, 1
   7              		.eabi_attribute 23, 3
   8              		.eabi_attribute 24, 1
   9              		.eabi_attribute 25, 1
  10              		.eabi_attribute 26, 1
  11              		.eabi_attribute 30, 2
  12              		.eabi_attribute 34, 1
  13              		.eabi_attribute 18, 4
  14              		.file	"HeavyDaisy_grillosychicharrasosc.cpp"
  15              		.text
  16              	.Ltext0:
  17              		.cfi_sections	.debug_frame
  18              		.section	.text._ZL8sendHookP21HeavyContextInterfacePKcmPK9HvMessage,"ax",%progbits
  19              		.align	1
  20              		.p2align 2,,3
  21              		.syntax unified
  22              		.thumb
  23              		.thumb_func
  25              	_ZL8sendHookP21HeavyContextInterfacePKcmPK9HvMessage:
  26              	.LVL0:
  27              	.LFB3005:
  28              		.file 1 "HeavyDaisy_grillosychicharrasosc.cpp"
   1:HeavyDaisy_grillosychicharrasosc.cpp **** /**
   2:HeavyDaisy_grillosychicharrasosc.cpp ****  * Copyright (c) 2023 Enzien Audio, Ltd.
   3:HeavyDaisy_grillosychicharrasosc.cpp ****  * 
   4:HeavyDaisy_grillosychicharrasosc.cpp ****  * Redistribution and use in source and binary forms, with or without modification,
   5:HeavyDaisy_grillosychicharrasosc.cpp ****  * are permitted provided that the following conditions are met:
   6:HeavyDaisy_grillosychicharrasosc.cpp ****  * 
   7:HeavyDaisy_grillosychicharrasosc.cpp ****  * 1. Redistributions of source code must retain the above copyright notice,
   8:HeavyDaisy_grillosychicharrasosc.cpp ****  *    this list of conditions, and the following disclaimer.
   9:HeavyDaisy_grillosychicharrasosc.cpp ****  * 
  10:HeavyDaisy_grillosychicharrasosc.cpp ****  * 2. Redistributions in binary form must reproduce the phrase "powered by heavy",
  11:HeavyDaisy_grillosychicharrasosc.cpp ****  *    the heavy logo, and a hyperlink to https://enzienaudio.com, all in a visible
  12:HeavyDaisy_grillosychicharrasosc.cpp ****  *    form.
  13:HeavyDaisy_grillosychicharrasosc.cpp ****  * 
  14:HeavyDaisy_grillosychicharrasosc.cpp ****  *   2.1 If the Application is distributed in a store system (for example,
  15:HeavyDaisy_grillosychicharrasosc.cpp ****  *       the Apple "App Store" or "Google Play"), the phrase "powered by heavy"
  16:HeavyDaisy_grillosychicharrasosc.cpp ****  *       shall be included in the app description or the copyright text as well as
  17:HeavyDaisy_grillosychicharrasosc.cpp ****  *       the in the app itself. The heavy logo will shall be visible in the app
  18:HeavyDaisy_grillosychicharrasosc.cpp ****  *       itself as well.
  19:HeavyDaisy_grillosychicharrasosc.cpp ****  * 
  20:HeavyDaisy_grillosychicharrasosc.cpp ****  * THIS SOFTWARE IS PROVIDED BY THE COPYRIGHT HOLDERS AND CONTRIBUTORS "AS IS"
  21:HeavyDaisy_grillosychicharrasosc.cpp ****  * AND ANY EXPRESS OR IMPLIED WARRANTIES, INCLUDING, BUT NOT LIMITED TO,
  22:HeavyDaisy_grillosychicharrasosc.cpp ****  * THE IMPLIED WARRANTIES OF MERCHANTABILITY AND FITNESS FOR A PARTICULAR PURPOSE
  23:HeavyDaisy_grillosychicharrasosc.cpp ****  * ARE DISCLAIMED. IN NO EVENT SHALL THE COPYRIGHT HOLDER OR CONTRIBUTORS BE LIABLE
  24:HeavyDaisy_grillosychicharrasosc.cpp ****  * FOR ANY DIRECT, INDIRECT, INCIDENTAL, SPECIAL, EXEMPLARY, OR CONSEQUENTIAL
  25:HeavyDaisy_grillosychicharrasosc.cpp ****  * DAMAGES (INCLUDING, BUT NOT LIMITED TO, PROCUREMENT OF SUBSTITUTE GOODS OR
  26:HeavyDaisy_grillosychicharrasosc.cpp ****  * SERVICES; LOSS OF USE, DATA, OR PROFITS; OR BUSINESS INTERRUPTION) HOWEVER
  27:HeavyDaisy_grillosychicharrasosc.cpp ****  * CAUSED AND ON ANY THEORY OF LIABILITY, WHETHER IN CONTRACT, STRICT LIABILITY,
  28:HeavyDaisy_grillosychicharrasosc.cpp ****  * OR TORT (INCLUDING NEGLIGENCE OR OTHERWISE) ARISING IN ANY WAY OUT OF THE USE OF
  29:HeavyDaisy_grillosychicharrasosc.cpp ****  * THIS SOFTWARE, EVEN IF ADVISED OF THE POSSIBILITY OF SUCH DAMAGE.
  30:HeavyDaisy_grillosychicharrasosc.cpp ****  * 
ARM GAS  /var/folders/fb/yfxt3z4538j6z0vjt03w70vc0000gn/T//ccrD3Rdr.s 			page 2


  31:HeavyDaisy_grillosychicharrasosc.cpp ****  */
  32:HeavyDaisy_grillosychicharrasosc.cpp **** 
  33:HeavyDaisy_grillosychicharrasosc.cpp **** #include "Heavy_grillosychicharrasosc.h"
  34:HeavyDaisy_grillosychicharrasosc.cpp **** #include "Heavy_grillosychicharrasosc.hpp" 
  35:HeavyDaisy_grillosychicharrasosc.cpp **** #include "HeavyDaisy_grillosychicharrasosc.hpp"                                                    
  36:HeavyDaisy_grillosychicharrasosc.cpp **** 
  37:HeavyDaisy_grillosychicharrasosc.cpp **** #define SAMPLE_RATE 48000.f
  38:HeavyDaisy_grillosychicharrasosc.cpp **** 
  39:HeavyDaisy_grillosychicharrasosc.cpp **** using namespace daisy;
  40:HeavyDaisy_grillosychicharrasosc.cpp **** 
  41:HeavyDaisy_grillosychicharrasosc.cpp **** json2daisy::DaisyPod hardware;
  42:HeavyDaisy_grillosychicharrasosc.cpp **** 
  43:HeavyDaisy_grillosychicharrasosc.cpp **** Heavy_grillosychicharrasosc hv(SAMPLE_RATE);
  44:HeavyDaisy_grillosychicharrasosc.cpp **** 
  45:HeavyDaisy_grillosychicharrasosc.cpp **** void audiocallback(daisy::AudioHandle::InputBuffer in, daisy::AudioHandle::OutputBuffer out, size_t
  46:HeavyDaisy_grillosychicharrasosc.cpp **** static void sendHook(HeavyContextInterface *c, const char *receiverName, uint32_t receiverHash, con
  47:HeavyDaisy_grillosychicharrasosc.cpp **** void CallbackWriteIn(Heavy_grillosychicharrasosc& hv);
  48:HeavyDaisy_grillosychicharrasosc.cpp **** void LoopWriteIn(Heavy_grillosychicharrasosc& hv);
  49:HeavyDaisy_grillosychicharrasosc.cpp **** void CallbackWriteOut();
  50:HeavyDaisy_grillosychicharrasosc.cpp **** void LoopWriteOut();
  51:HeavyDaisy_grillosychicharrasosc.cpp **** void PostProcess();
  52:HeavyDaisy_grillosychicharrasosc.cpp **** void Display();
  53:HeavyDaisy_grillosychicharrasosc.cpp **** 
  54:HeavyDaisy_grillosychicharrasosc.cpp **** 
  55:HeavyDaisy_grillosychicharrasosc.cpp **** int main(void)
  56:HeavyDaisy_grillosychicharrasosc.cpp **** {
  57:HeavyDaisy_grillosychicharrasosc.cpp ****   hardware.Init(true);
  58:HeavyDaisy_grillosychicharrasosc.cpp ****   hardware.StartAudio(audiocallback);
  59:HeavyDaisy_grillosychicharrasosc.cpp **** 
  60:HeavyDaisy_grillosychicharrasosc.cpp ****   hv.setSendHook(sendHook);
  61:HeavyDaisy_grillosychicharrasosc.cpp **** 
  62:HeavyDaisy_grillosychicharrasosc.cpp ****   for(;;)
  63:HeavyDaisy_grillosychicharrasosc.cpp ****   {
  64:HeavyDaisy_grillosychicharrasosc.cpp ****     hardware.LoopProcess();
  65:HeavyDaisy_grillosychicharrasosc.cpp ****     Display();
  66:HeavyDaisy_grillosychicharrasosc.cpp ****   }
  67:HeavyDaisy_grillosychicharrasosc.cpp **** }
  68:HeavyDaisy_grillosychicharrasosc.cpp **** 
  69:HeavyDaisy_grillosychicharrasosc.cpp **** /** The audio processing function. At the standard 48KHz sample rate and a block
  70:HeavyDaisy_grillosychicharrasosc.cpp ****  *  size of 48, this will fire every millisecond.
  71:HeavyDaisy_grillosychicharrasosc.cpp ****  */
  72:HeavyDaisy_grillosychicharrasosc.cpp **** void audiocallback(daisy::AudioHandle::InputBuffer in, daisy::AudioHandle::OutputBuffer out, size_t
  73:HeavyDaisy_grillosychicharrasosc.cpp **** {
  74:HeavyDaisy_grillosychicharrasosc.cpp ****   hardware.ProcessAllControls();
  75:HeavyDaisy_grillosychicharrasosc.cpp ****   CallbackWriteIn(hv);
  76:HeavyDaisy_grillosychicharrasosc.cpp ****   hv.process((float**)in, (float**)out, size);
  77:HeavyDaisy_grillosychicharrasosc.cpp ****   hardware.PostProcess();
  78:HeavyDaisy_grillosychicharrasosc.cpp **** }
  79:HeavyDaisy_grillosychicharrasosc.cpp **** 
  80:HeavyDaisy_grillosychicharrasosc.cpp **** /** Receives messages from PD and writes them to the appropriate 
  81:HeavyDaisy_grillosychicharrasosc.cpp ****  *  index in the `output_data` array, to be written later.
  82:HeavyDaisy_grillosychicharrasosc.cpp ****  */
  83:HeavyDaisy_grillosychicharrasosc.cpp **** static void sendHook(HeavyContextInterface *c, const char *receiverName, uint32_t receiverHash, con
  84:HeavyDaisy_grillosychicharrasosc.cpp **** {
  29              		.loc 1 84 1 view -0
  30              		.cfi_startproc
  31              		@ args = 0, pretend = 0, frame = 0
ARM GAS  /var/folders/fb/yfxt3z4538j6z0vjt03w70vc0000gn/T//ccrD3Rdr.s 			page 3


  32              		@ frame_needed = 0, uses_anonymous_args = 0
  33              		@ link register save eliminated.
  85:HeavyDaisy_grillosychicharrasosc.cpp **** }
  34              		.loc 1 85 1 is_stmt 0 view .LVU1
  35 0000 7047     		bx	lr
  36              		.cfi_endproc
  37              	.LFE3005:
  39 0002 00BF     		.section	.text._ZN5daisy11OledDisplayINS_13SSD130xDriverILj128ELj64ENS_24SSD130x4WireSpiTransportE
  40              		.align	1
  41              		.p2align 2,,3
  42              		.weak	_ZN5daisy11OledDisplayINS_13SSD130xDriverILj128ELj64ENS_24SSD130x4WireSpiTransportEEEE4FillE
  43              		.syntax unified
  44              		.thumb
  45              		.thumb_func
  47              	_ZN5daisy11OledDisplayINS_13SSD130xDriverILj128ELj64ENS_24SSD130x4WireSpiTransportEEEE4FillEb:
  48              	.LVL1:
  49              	.LFB3039:
  50              		.file 2 "../../../lib/pd2dsy/libdaisy/src/hid/disp/oled_display.h"
   1:../../../lib/pd2dsy/libdaisy/src/hid/disp/oled_display.h **** #pragma once
   2:../../../lib/pd2dsy/libdaisy/src/hid/disp/oled_display.h **** #ifndef DSY_OLED_DISPLAY_H
   3:../../../lib/pd2dsy/libdaisy/src/hid/disp/oled_display.h **** #define DSY_OLED_DISPLAY_H /**< Macro */
   4:../../../lib/pd2dsy/libdaisy/src/hid/disp/oled_display.h **** 
   5:../../../lib/pd2dsy/libdaisy/src/hid/disp/oled_display.h **** #include "display.h"
   6:../../../lib/pd2dsy/libdaisy/src/hid/disp/oled_display.h **** 
   7:../../../lib/pd2dsy/libdaisy/src/hid/disp/oled_display.h **** namespace daisy
   8:../../../lib/pd2dsy/libdaisy/src/hid/disp/oled_display.h **** {
   9:../../../lib/pd2dsy/libdaisy/src/hid/disp/oled_display.h **** /** 
  10:../../../lib/pd2dsy/libdaisy/src/hid/disp/oled_display.h ****  * This class is for drawing to a monochrome OLED display. 
  11:../../../lib/pd2dsy/libdaisy/src/hid/disp/oled_display.h ****  * @ingroup device
  12:../../../lib/pd2dsy/libdaisy/src/hid/disp/oled_display.h **** */
  13:../../../lib/pd2dsy/libdaisy/src/hid/disp/oled_display.h **** template <typename DisplayDriver>
  14:../../../lib/pd2dsy/libdaisy/src/hid/disp/oled_display.h **** class OledDisplay : public OneBitGraphicsDisplayImpl<OledDisplay<DisplayDriver>>
  15:../../../lib/pd2dsy/libdaisy/src/hid/disp/oled_display.h **** {
  16:../../../lib/pd2dsy/libdaisy/src/hid/disp/oled_display.h ****   public:
  17:../../../lib/pd2dsy/libdaisy/src/hid/disp/oled_display.h ****     OledDisplay() {}
  18:../../../lib/pd2dsy/libdaisy/src/hid/disp/oled_display.h ****     virtual ~OledDisplay() {}
  19:../../../lib/pd2dsy/libdaisy/src/hid/disp/oled_display.h **** 
  20:../../../lib/pd2dsy/libdaisy/src/hid/disp/oled_display.h ****     struct Config
  21:../../../lib/pd2dsy/libdaisy/src/hid/disp/oled_display.h ****     {
  22:../../../lib/pd2dsy/libdaisy/src/hid/disp/oled_display.h ****         typename DisplayDriver::Config driver_config;
  23:../../../lib/pd2dsy/libdaisy/src/hid/disp/oled_display.h ****     };
  24:../../../lib/pd2dsy/libdaisy/src/hid/disp/oled_display.h **** 
  25:../../../lib/pd2dsy/libdaisy/src/hid/disp/oled_display.h ****     void Init(Config config) { driver_.Init(config.driver_config); }
  26:../../../lib/pd2dsy/libdaisy/src/hid/disp/oled_display.h **** 
  27:../../../lib/pd2dsy/libdaisy/src/hid/disp/oled_display.h ****     uint16_t Height() const override { return driver_.Height(); }
  28:../../../lib/pd2dsy/libdaisy/src/hid/disp/oled_display.h ****     uint16_t Width() const override { return driver_.Width(); }
  29:../../../lib/pd2dsy/libdaisy/src/hid/disp/oled_display.h **** 
  30:../../../lib/pd2dsy/libdaisy/src/hid/disp/oled_display.h ****     /** 
  31:../../../lib/pd2dsy/libdaisy/src/hid/disp/oled_display.h ****     Fills the entire display with either on/off.
  32:../../../lib/pd2dsy/libdaisy/src/hid/disp/oled_display.h ****     \param on Sets on or off.
  33:../../../lib/pd2dsy/libdaisy/src/hid/disp/oled_display.h ****     */
  34:../../../lib/pd2dsy/libdaisy/src/hid/disp/oled_display.h ****     void Fill(bool on) override { driver_.Fill(on); }
  51              		.loc 2 34 10 is_stmt 1 view -0
  52              		.cfi_startproc
  53              		@ args = 0, pretend = 0, frame = 0
  54              		@ frame_needed = 0, uses_anonymous_args = 0
  55              		@ link register save eliminated.
ARM GAS  /var/folders/fb/yfxt3z4538j6z0vjt03w70vc0000gn/T//ccrD3Rdr.s 			page 4


  56              	.LBB449:
  57              	.LBI449:
  58              		.file 3 "../../../lib/pd2dsy/libdaisy/src/dev/oled_ssd130x.h"
   1:../../../lib/pd2dsy/libdaisy/src/dev/oled_ssd130x.h **** #pragma once
   2:../../../lib/pd2dsy/libdaisy/src/dev/oled_ssd130x.h **** #ifndef SA_OLED_SSD130X_H
   3:../../../lib/pd2dsy/libdaisy/src/dev/oled_ssd130x.h **** #define SA_OLED_SSD130X_H /**< & */
   4:../../../lib/pd2dsy/libdaisy/src/dev/oled_ssd130x.h **** 
   5:../../../lib/pd2dsy/libdaisy/src/dev/oled_ssd130x.h **** #include "per/i2c.h"
   6:../../../lib/pd2dsy/libdaisy/src/dev/oled_ssd130x.h **** #include "per/spi.h"
   7:../../../lib/pd2dsy/libdaisy/src/dev/oled_ssd130x.h **** #include "per/gpio.h"
   8:../../../lib/pd2dsy/libdaisy/src/dev/oled_ssd130x.h **** #include "sys/system.h"
   9:../../../lib/pd2dsy/libdaisy/src/dev/oled_ssd130x.h **** 
  10:../../../lib/pd2dsy/libdaisy/src/dev/oled_ssd130x.h **** namespace daisy
  11:../../../lib/pd2dsy/libdaisy/src/dev/oled_ssd130x.h **** {
  12:../../../lib/pd2dsy/libdaisy/src/dev/oled_ssd130x.h **** /**
  13:../../../lib/pd2dsy/libdaisy/src/dev/oled_ssd130x.h ****  * I2C Transport for SSD1306 / SSD1309 OLED display devices
  14:../../../lib/pd2dsy/libdaisy/src/dev/oled_ssd130x.h ****  */
  15:../../../lib/pd2dsy/libdaisy/src/dev/oled_ssd130x.h **** class SSD130xI2CTransport
  16:../../../lib/pd2dsy/libdaisy/src/dev/oled_ssd130x.h **** {
  17:../../../lib/pd2dsy/libdaisy/src/dev/oled_ssd130x.h ****   public:
  18:../../../lib/pd2dsy/libdaisy/src/dev/oled_ssd130x.h ****     struct Config
  19:../../../lib/pd2dsy/libdaisy/src/dev/oled_ssd130x.h ****     {
  20:../../../lib/pd2dsy/libdaisy/src/dev/oled_ssd130x.h ****         Config()
  21:../../../lib/pd2dsy/libdaisy/src/dev/oled_ssd130x.h ****         {
  22:../../../lib/pd2dsy/libdaisy/src/dev/oled_ssd130x.h ****             // Intialize using defaults
  23:../../../lib/pd2dsy/libdaisy/src/dev/oled_ssd130x.h ****             Defaults();
  24:../../../lib/pd2dsy/libdaisy/src/dev/oled_ssd130x.h ****         }
  25:../../../lib/pd2dsy/libdaisy/src/dev/oled_ssd130x.h ****         I2CHandle::Config i2c_config;
  26:../../../lib/pd2dsy/libdaisy/src/dev/oled_ssd130x.h ****         uint8_t           i2c_address;
  27:../../../lib/pd2dsy/libdaisy/src/dev/oled_ssd130x.h ****         void              Defaults()
  28:../../../lib/pd2dsy/libdaisy/src/dev/oled_ssd130x.h ****         {
  29:../../../lib/pd2dsy/libdaisy/src/dev/oled_ssd130x.h ****             i2c_config.periph         = I2CHandle::Config::Peripheral::I2C_1;
  30:../../../lib/pd2dsy/libdaisy/src/dev/oled_ssd130x.h ****             i2c_config.speed          = I2CHandle::Config::Speed::I2C_1MHZ;
  31:../../../lib/pd2dsy/libdaisy/src/dev/oled_ssd130x.h ****             i2c_config.mode           = I2CHandle::Config::Mode::I2C_MASTER;
  32:../../../lib/pd2dsy/libdaisy/src/dev/oled_ssd130x.h ****             i2c_config.pin_config.scl = {DSY_GPIOB, 8};
  33:../../../lib/pd2dsy/libdaisy/src/dev/oled_ssd130x.h ****             i2c_config.pin_config.sda = {DSY_GPIOB, 9};
  34:../../../lib/pd2dsy/libdaisy/src/dev/oled_ssd130x.h ****             i2c_address               = 0x3C;
  35:../../../lib/pd2dsy/libdaisy/src/dev/oled_ssd130x.h ****         }
  36:../../../lib/pd2dsy/libdaisy/src/dev/oled_ssd130x.h ****     };
  37:../../../lib/pd2dsy/libdaisy/src/dev/oled_ssd130x.h ****     void Init(const Config& config)
  38:../../../lib/pd2dsy/libdaisy/src/dev/oled_ssd130x.h ****     {
  39:../../../lib/pd2dsy/libdaisy/src/dev/oled_ssd130x.h ****         i2c_address_ = config.i2c_address;
  40:../../../lib/pd2dsy/libdaisy/src/dev/oled_ssd130x.h ****         i2c_.Init(config.i2c_config);
  41:../../../lib/pd2dsy/libdaisy/src/dev/oled_ssd130x.h ****     };
  42:../../../lib/pd2dsy/libdaisy/src/dev/oled_ssd130x.h ****     void SendCommand(uint8_t cmd)
  43:../../../lib/pd2dsy/libdaisy/src/dev/oled_ssd130x.h ****     {
  44:../../../lib/pd2dsy/libdaisy/src/dev/oled_ssd130x.h ****         uint8_t buf[2] = {0X00, cmd};
  45:../../../lib/pd2dsy/libdaisy/src/dev/oled_ssd130x.h ****         i2c_.TransmitBlocking(i2c_address_, buf, 2, 1000);
  46:../../../lib/pd2dsy/libdaisy/src/dev/oled_ssd130x.h ****     };
  47:../../../lib/pd2dsy/libdaisy/src/dev/oled_ssd130x.h **** 
  48:../../../lib/pd2dsy/libdaisy/src/dev/oled_ssd130x.h ****     void SendData(uint8_t* buff, size_t size)
  49:../../../lib/pd2dsy/libdaisy/src/dev/oled_ssd130x.h ****     {
  50:../../../lib/pd2dsy/libdaisy/src/dev/oled_ssd130x.h ****         for(size_t i = 0; i < size; i++)
  51:../../../lib/pd2dsy/libdaisy/src/dev/oled_ssd130x.h ****         {
  52:../../../lib/pd2dsy/libdaisy/src/dev/oled_ssd130x.h ****             uint8_t buf[2] = {0X40, buff[i]};
  53:../../../lib/pd2dsy/libdaisy/src/dev/oled_ssd130x.h ****             i2c_.TransmitBlocking(i2c_address_, buf, 2, 1000);
  54:../../../lib/pd2dsy/libdaisy/src/dev/oled_ssd130x.h ****         }
ARM GAS  /var/folders/fb/yfxt3z4538j6z0vjt03w70vc0000gn/T//ccrD3Rdr.s 			page 5


  55:../../../lib/pd2dsy/libdaisy/src/dev/oled_ssd130x.h ****     };
  56:../../../lib/pd2dsy/libdaisy/src/dev/oled_ssd130x.h **** 
  57:../../../lib/pd2dsy/libdaisy/src/dev/oled_ssd130x.h ****   private:
  58:../../../lib/pd2dsy/libdaisy/src/dev/oled_ssd130x.h ****     daisy::I2CHandle i2c_;
  59:../../../lib/pd2dsy/libdaisy/src/dev/oled_ssd130x.h ****     uint8_t          i2c_address_;
  60:../../../lib/pd2dsy/libdaisy/src/dev/oled_ssd130x.h **** };
  61:../../../lib/pd2dsy/libdaisy/src/dev/oled_ssd130x.h **** 
  62:../../../lib/pd2dsy/libdaisy/src/dev/oled_ssd130x.h **** /**
  63:../../../lib/pd2dsy/libdaisy/src/dev/oled_ssd130x.h ****  * 4 Wire SPI Transport for SSD1306 / SSD1309 OLED display devices
  64:../../../lib/pd2dsy/libdaisy/src/dev/oled_ssd130x.h ****  */
  65:../../../lib/pd2dsy/libdaisy/src/dev/oled_ssd130x.h **** class SSD130x4WireSpiTransport
  66:../../../lib/pd2dsy/libdaisy/src/dev/oled_ssd130x.h **** {
  67:../../../lib/pd2dsy/libdaisy/src/dev/oled_ssd130x.h ****   public:
  68:../../../lib/pd2dsy/libdaisy/src/dev/oled_ssd130x.h ****     struct Config
  69:../../../lib/pd2dsy/libdaisy/src/dev/oled_ssd130x.h ****     {
  70:../../../lib/pd2dsy/libdaisy/src/dev/oled_ssd130x.h ****         Config()
  71:../../../lib/pd2dsy/libdaisy/src/dev/oled_ssd130x.h ****         {
  72:../../../lib/pd2dsy/libdaisy/src/dev/oled_ssd130x.h ****             // Initialize using defaults
  73:../../../lib/pd2dsy/libdaisy/src/dev/oled_ssd130x.h ****             Defaults();
  74:../../../lib/pd2dsy/libdaisy/src/dev/oled_ssd130x.h ****         }
  75:../../../lib/pd2dsy/libdaisy/src/dev/oled_ssd130x.h ****         SpiHandle::Config spi_config;
  76:../../../lib/pd2dsy/libdaisy/src/dev/oled_ssd130x.h ****         struct
  77:../../../lib/pd2dsy/libdaisy/src/dev/oled_ssd130x.h ****         {
  78:../../../lib/pd2dsy/libdaisy/src/dev/oled_ssd130x.h ****             dsy_gpio_pin dc;    /**< & */
  79:../../../lib/pd2dsy/libdaisy/src/dev/oled_ssd130x.h ****             dsy_gpio_pin reset; /**< & */
  80:../../../lib/pd2dsy/libdaisy/src/dev/oled_ssd130x.h ****         } pin_config;
  81:../../../lib/pd2dsy/libdaisy/src/dev/oled_ssd130x.h ****         void Defaults()
  82:../../../lib/pd2dsy/libdaisy/src/dev/oled_ssd130x.h ****         {
  83:../../../lib/pd2dsy/libdaisy/src/dev/oled_ssd130x.h ****             // SPI peripheral config
  84:../../../lib/pd2dsy/libdaisy/src/dev/oled_ssd130x.h ****             spi_config.periph = SpiHandle::Config::Peripheral::SPI_1;
  85:../../../lib/pd2dsy/libdaisy/src/dev/oled_ssd130x.h ****             spi_config.mode   = SpiHandle::Config::Mode::MASTER;
  86:../../../lib/pd2dsy/libdaisy/src/dev/oled_ssd130x.h ****             spi_config.direction
  87:../../../lib/pd2dsy/libdaisy/src/dev/oled_ssd130x.h ****                 = SpiHandle::Config::Direction::TWO_LINES_TX_ONLY;
  88:../../../lib/pd2dsy/libdaisy/src/dev/oled_ssd130x.h ****             spi_config.datasize       = 8;
  89:../../../lib/pd2dsy/libdaisy/src/dev/oled_ssd130x.h ****             spi_config.clock_polarity = SpiHandle::Config::ClockPolarity::LOW;
  90:../../../lib/pd2dsy/libdaisy/src/dev/oled_ssd130x.h ****             spi_config.clock_phase    = SpiHandle::Config::ClockPhase::ONE_EDGE;
  91:../../../lib/pd2dsy/libdaisy/src/dev/oled_ssd130x.h ****             spi_config.nss            = SpiHandle::Config::NSS::HARD_OUTPUT;
  92:../../../lib/pd2dsy/libdaisy/src/dev/oled_ssd130x.h ****             spi_config.baud_prescaler = SpiHandle::Config::BaudPrescaler::PS_8;
  93:../../../lib/pd2dsy/libdaisy/src/dev/oled_ssd130x.h ****             // SPI pin config
  94:../../../lib/pd2dsy/libdaisy/src/dev/oled_ssd130x.h ****             spi_config.pin_config.sclk = {DSY_GPIOG, 11};
  95:../../../lib/pd2dsy/libdaisy/src/dev/oled_ssd130x.h ****             spi_config.pin_config.miso = {DSY_GPIOX, 0};
  96:../../../lib/pd2dsy/libdaisy/src/dev/oled_ssd130x.h ****             spi_config.pin_config.mosi = {DSY_GPIOB, 5};
  97:../../../lib/pd2dsy/libdaisy/src/dev/oled_ssd130x.h ****             spi_config.pin_config.nss  = {DSY_GPIOG, 10};
  98:../../../lib/pd2dsy/libdaisy/src/dev/oled_ssd130x.h ****             // SSD130x control pin config
  99:../../../lib/pd2dsy/libdaisy/src/dev/oled_ssd130x.h ****             pin_config.dc    = {DSY_GPIOB, 4};
 100:../../../lib/pd2dsy/libdaisy/src/dev/oled_ssd130x.h ****             pin_config.reset = {DSY_GPIOB, 15};
 101:../../../lib/pd2dsy/libdaisy/src/dev/oled_ssd130x.h ****         }
 102:../../../lib/pd2dsy/libdaisy/src/dev/oled_ssd130x.h ****     };
 103:../../../lib/pd2dsy/libdaisy/src/dev/oled_ssd130x.h ****     void Init(const Config& config)
 104:../../../lib/pd2dsy/libdaisy/src/dev/oled_ssd130x.h ****     {
 105:../../../lib/pd2dsy/libdaisy/src/dev/oled_ssd130x.h ****         // Initialize both GPIO
 106:../../../lib/pd2dsy/libdaisy/src/dev/oled_ssd130x.h ****         pin_dc_.mode = DSY_GPIO_MODE_OUTPUT_PP;
 107:../../../lib/pd2dsy/libdaisy/src/dev/oled_ssd130x.h ****         pin_dc_.pin  = config.pin_config.dc;
 108:../../../lib/pd2dsy/libdaisy/src/dev/oled_ssd130x.h ****         dsy_gpio_init(&pin_dc_);
 109:../../../lib/pd2dsy/libdaisy/src/dev/oled_ssd130x.h ****         pin_reset_.mode = DSY_GPIO_MODE_OUTPUT_PP;
 110:../../../lib/pd2dsy/libdaisy/src/dev/oled_ssd130x.h ****         pin_reset_.pin  = config.pin_config.reset;
 111:../../../lib/pd2dsy/libdaisy/src/dev/oled_ssd130x.h ****         dsy_gpio_init(&pin_reset_);
ARM GAS  /var/folders/fb/yfxt3z4538j6z0vjt03w70vc0000gn/T//ccrD3Rdr.s 			page 6


 112:../../../lib/pd2dsy/libdaisy/src/dev/oled_ssd130x.h **** 
 113:../../../lib/pd2dsy/libdaisy/src/dev/oled_ssd130x.h ****         // Initialize SPI
 114:../../../lib/pd2dsy/libdaisy/src/dev/oled_ssd130x.h ****         spi_.Init(config.spi_config);
 115:../../../lib/pd2dsy/libdaisy/src/dev/oled_ssd130x.h **** 
 116:../../../lib/pd2dsy/libdaisy/src/dev/oled_ssd130x.h ****         // Reset and Configure OLED.
 117:../../../lib/pd2dsy/libdaisy/src/dev/oled_ssd130x.h ****         dsy_gpio_write(&pin_reset_, 0);
 118:../../../lib/pd2dsy/libdaisy/src/dev/oled_ssd130x.h ****         System::Delay(10);
 119:../../../lib/pd2dsy/libdaisy/src/dev/oled_ssd130x.h ****         dsy_gpio_write(&pin_reset_, 1);
 120:../../../lib/pd2dsy/libdaisy/src/dev/oled_ssd130x.h ****         System::Delay(10);
 121:../../../lib/pd2dsy/libdaisy/src/dev/oled_ssd130x.h ****     };
 122:../../../lib/pd2dsy/libdaisy/src/dev/oled_ssd130x.h ****     void SendCommand(uint8_t cmd)
 123:../../../lib/pd2dsy/libdaisy/src/dev/oled_ssd130x.h ****     {
 124:../../../lib/pd2dsy/libdaisy/src/dev/oled_ssd130x.h ****         dsy_gpio_write(&pin_dc_, 0);
 125:../../../lib/pd2dsy/libdaisy/src/dev/oled_ssd130x.h ****         spi_.BlockingTransmit(&cmd, 1);
 126:../../../lib/pd2dsy/libdaisy/src/dev/oled_ssd130x.h ****     };
 127:../../../lib/pd2dsy/libdaisy/src/dev/oled_ssd130x.h **** 
 128:../../../lib/pd2dsy/libdaisy/src/dev/oled_ssd130x.h ****     void SendData(uint8_t* buff, size_t size)
 129:../../../lib/pd2dsy/libdaisy/src/dev/oled_ssd130x.h ****     {
 130:../../../lib/pd2dsy/libdaisy/src/dev/oled_ssd130x.h ****         dsy_gpio_write(&pin_dc_, 1);
 131:../../../lib/pd2dsy/libdaisy/src/dev/oled_ssd130x.h ****         spi_.BlockingTransmit(buff, size);
 132:../../../lib/pd2dsy/libdaisy/src/dev/oled_ssd130x.h ****     };
 133:../../../lib/pd2dsy/libdaisy/src/dev/oled_ssd130x.h **** 
 134:../../../lib/pd2dsy/libdaisy/src/dev/oled_ssd130x.h ****   private:
 135:../../../lib/pd2dsy/libdaisy/src/dev/oled_ssd130x.h ****     SpiHandle spi_;
 136:../../../lib/pd2dsy/libdaisy/src/dev/oled_ssd130x.h ****     dsy_gpio  pin_reset_;
 137:../../../lib/pd2dsy/libdaisy/src/dev/oled_ssd130x.h ****     dsy_gpio  pin_dc_;
 138:../../../lib/pd2dsy/libdaisy/src/dev/oled_ssd130x.h **** };
 139:../../../lib/pd2dsy/libdaisy/src/dev/oled_ssd130x.h **** 
 140:../../../lib/pd2dsy/libdaisy/src/dev/oled_ssd130x.h **** 
 141:../../../lib/pd2dsy/libdaisy/src/dev/oled_ssd130x.h **** /**
 142:../../../lib/pd2dsy/libdaisy/src/dev/oled_ssd130x.h ****  * A driver implementation for the SSD1306/SSD1309
 143:../../../lib/pd2dsy/libdaisy/src/dev/oled_ssd130x.h ****  */
 144:../../../lib/pd2dsy/libdaisy/src/dev/oled_ssd130x.h **** template <size_t width, size_t height, typename Transport>
 145:../../../lib/pd2dsy/libdaisy/src/dev/oled_ssd130x.h **** class SSD130xDriver
 146:../../../lib/pd2dsy/libdaisy/src/dev/oled_ssd130x.h **** {
 147:../../../lib/pd2dsy/libdaisy/src/dev/oled_ssd130x.h ****   public:
 148:../../../lib/pd2dsy/libdaisy/src/dev/oled_ssd130x.h ****     struct Config
 149:../../../lib/pd2dsy/libdaisy/src/dev/oled_ssd130x.h ****     {
 150:../../../lib/pd2dsy/libdaisy/src/dev/oled_ssd130x.h ****         typename Transport::Config transport_config;
 151:../../../lib/pd2dsy/libdaisy/src/dev/oled_ssd130x.h ****     };
 152:../../../lib/pd2dsy/libdaisy/src/dev/oled_ssd130x.h **** 
 153:../../../lib/pd2dsy/libdaisy/src/dev/oled_ssd130x.h ****     void Init(Config config)
 154:../../../lib/pd2dsy/libdaisy/src/dev/oled_ssd130x.h ****     {
 155:../../../lib/pd2dsy/libdaisy/src/dev/oled_ssd130x.h ****         transport_.Init(config.transport_config);
 156:../../../lib/pd2dsy/libdaisy/src/dev/oled_ssd130x.h **** 
 157:../../../lib/pd2dsy/libdaisy/src/dev/oled_ssd130x.h ****         // Init routine...
 158:../../../lib/pd2dsy/libdaisy/src/dev/oled_ssd130x.h **** 
 159:../../../lib/pd2dsy/libdaisy/src/dev/oled_ssd130x.h ****         // Display Off
 160:../../../lib/pd2dsy/libdaisy/src/dev/oled_ssd130x.h ****         transport_.SendCommand(0xaE);
 161:../../../lib/pd2dsy/libdaisy/src/dev/oled_ssd130x.h ****         // Dimension dependent commands...
 162:../../../lib/pd2dsy/libdaisy/src/dev/oled_ssd130x.h ****         switch(height)
 163:../../../lib/pd2dsy/libdaisy/src/dev/oled_ssd130x.h ****         {
 164:../../../lib/pd2dsy/libdaisy/src/dev/oled_ssd130x.h ****             case 16:
 165:../../../lib/pd2dsy/libdaisy/src/dev/oled_ssd130x.h ****                 // Display Clock Divide Ratio
 166:../../../lib/pd2dsy/libdaisy/src/dev/oled_ssd130x.h ****                 transport_.SendCommand(0xD5);
 167:../../../lib/pd2dsy/libdaisy/src/dev/oled_ssd130x.h ****                 transport_.SendCommand(0x60);
 168:../../../lib/pd2dsy/libdaisy/src/dev/oled_ssd130x.h ****                 // Multiplex Ratio
ARM GAS  /var/folders/fb/yfxt3z4538j6z0vjt03w70vc0000gn/T//ccrD3Rdr.s 			page 7


 169:../../../lib/pd2dsy/libdaisy/src/dev/oled_ssd130x.h ****                 transport_.SendCommand(0xA8);
 170:../../../lib/pd2dsy/libdaisy/src/dev/oled_ssd130x.h ****                 transport_.SendCommand(0x0F);
 171:../../../lib/pd2dsy/libdaisy/src/dev/oled_ssd130x.h ****                 // COM Pins
 172:../../../lib/pd2dsy/libdaisy/src/dev/oled_ssd130x.h ****                 transport_.SendCommand(0xDA);
 173:../../../lib/pd2dsy/libdaisy/src/dev/oled_ssd130x.h ****                 transport_.SendCommand(0x02);
 174:../../../lib/pd2dsy/libdaisy/src/dev/oled_ssd130x.h ****                 break;
 175:../../../lib/pd2dsy/libdaisy/src/dev/oled_ssd130x.h ****             case 32:
 176:../../../lib/pd2dsy/libdaisy/src/dev/oled_ssd130x.h ****                 // Display Clock Divide Ratio
 177:../../../lib/pd2dsy/libdaisy/src/dev/oled_ssd130x.h ****                 transport_.SendCommand(0xD5);
 178:../../../lib/pd2dsy/libdaisy/src/dev/oled_ssd130x.h ****                 transport_.SendCommand(0x80);
 179:../../../lib/pd2dsy/libdaisy/src/dev/oled_ssd130x.h ****                 // Multiplex Ratio
 180:../../../lib/pd2dsy/libdaisy/src/dev/oled_ssd130x.h ****                 transport_.SendCommand(0xA8);
 181:../../../lib/pd2dsy/libdaisy/src/dev/oled_ssd130x.h ****                 transport_.SendCommand(0x1F);
 182:../../../lib/pd2dsy/libdaisy/src/dev/oled_ssd130x.h ****                 // COM Pins
 183:../../../lib/pd2dsy/libdaisy/src/dev/oled_ssd130x.h ****                 transport_.SendCommand(0xDA);
 184:../../../lib/pd2dsy/libdaisy/src/dev/oled_ssd130x.h ****                 if(width == 64)
 185:../../../lib/pd2dsy/libdaisy/src/dev/oled_ssd130x.h ****                 {
 186:../../../lib/pd2dsy/libdaisy/src/dev/oled_ssd130x.h ****                     transport_.SendCommand(0x12);
 187:../../../lib/pd2dsy/libdaisy/src/dev/oled_ssd130x.h ****                 }
 188:../../../lib/pd2dsy/libdaisy/src/dev/oled_ssd130x.h ****                 else
 189:../../../lib/pd2dsy/libdaisy/src/dev/oled_ssd130x.h ****                 {
 190:../../../lib/pd2dsy/libdaisy/src/dev/oled_ssd130x.h ****                     transport_.SendCommand(0x02);
 191:../../../lib/pd2dsy/libdaisy/src/dev/oled_ssd130x.h ****                 }
 192:../../../lib/pd2dsy/libdaisy/src/dev/oled_ssd130x.h **** 
 193:../../../lib/pd2dsy/libdaisy/src/dev/oled_ssd130x.h ****                 break;
 194:../../../lib/pd2dsy/libdaisy/src/dev/oled_ssd130x.h ****             case 48:
 195:../../../lib/pd2dsy/libdaisy/src/dev/oled_ssd130x.h ****                 // Display Clock Divide Ratio
 196:../../../lib/pd2dsy/libdaisy/src/dev/oled_ssd130x.h ****                 transport_.SendCommand(0xD5);
 197:../../../lib/pd2dsy/libdaisy/src/dev/oled_ssd130x.h ****                 transport_.SendCommand(0x80);
 198:../../../lib/pd2dsy/libdaisy/src/dev/oled_ssd130x.h ****                 // Multiplex Ratio
 199:../../../lib/pd2dsy/libdaisy/src/dev/oled_ssd130x.h ****                 transport_.SendCommand(0xA8);
 200:../../../lib/pd2dsy/libdaisy/src/dev/oled_ssd130x.h ****                 transport_.SendCommand(0x2F);
 201:../../../lib/pd2dsy/libdaisy/src/dev/oled_ssd130x.h ****                 // COM Pins
 202:../../../lib/pd2dsy/libdaisy/src/dev/oled_ssd130x.h ****                 transport_.SendCommand(0xDA);
 203:../../../lib/pd2dsy/libdaisy/src/dev/oled_ssd130x.h ****                 transport_.SendCommand(0x12);
 204:../../../lib/pd2dsy/libdaisy/src/dev/oled_ssd130x.h ****                 break;
 205:../../../lib/pd2dsy/libdaisy/src/dev/oled_ssd130x.h ****             default: // 128
 206:../../../lib/pd2dsy/libdaisy/src/dev/oled_ssd130x.h ****                 // Display Clock Divide Ratio
 207:../../../lib/pd2dsy/libdaisy/src/dev/oled_ssd130x.h ****                 transport_.SendCommand(0xD5);
 208:../../../lib/pd2dsy/libdaisy/src/dev/oled_ssd130x.h ****                 transport_.SendCommand(0x80);
 209:../../../lib/pd2dsy/libdaisy/src/dev/oled_ssd130x.h ****                 // Multiplex Ratio
 210:../../../lib/pd2dsy/libdaisy/src/dev/oled_ssd130x.h ****                 transport_.SendCommand(0xA8);
 211:../../../lib/pd2dsy/libdaisy/src/dev/oled_ssd130x.h ****                 transport_.SendCommand(0x3F);
 212:../../../lib/pd2dsy/libdaisy/src/dev/oled_ssd130x.h ****                 // COM Pins
 213:../../../lib/pd2dsy/libdaisy/src/dev/oled_ssd130x.h ****                 transport_.SendCommand(0xDA);
 214:../../../lib/pd2dsy/libdaisy/src/dev/oled_ssd130x.h ****                 transport_.SendCommand(0x12);
 215:../../../lib/pd2dsy/libdaisy/src/dev/oled_ssd130x.h ****                 break;
 216:../../../lib/pd2dsy/libdaisy/src/dev/oled_ssd130x.h ****         }
 217:../../../lib/pd2dsy/libdaisy/src/dev/oled_ssd130x.h **** 
 218:../../../lib/pd2dsy/libdaisy/src/dev/oled_ssd130x.h ****         // Display Offset
 219:../../../lib/pd2dsy/libdaisy/src/dev/oled_ssd130x.h ****         transport_.SendCommand(0xD3);
 220:../../../lib/pd2dsy/libdaisy/src/dev/oled_ssd130x.h ****         transport_.SendCommand(0x00);
 221:../../../lib/pd2dsy/libdaisy/src/dev/oled_ssd130x.h ****         // Start Line Address
 222:../../../lib/pd2dsy/libdaisy/src/dev/oled_ssd130x.h ****         transport_.SendCommand(0x40);
 223:../../../lib/pd2dsy/libdaisy/src/dev/oled_ssd130x.h ****         // Normal Display
 224:../../../lib/pd2dsy/libdaisy/src/dev/oled_ssd130x.h ****         transport_.SendCommand(0xA6);
 225:../../../lib/pd2dsy/libdaisy/src/dev/oled_ssd130x.h ****         // All On Resume
ARM GAS  /var/folders/fb/yfxt3z4538j6z0vjt03w70vc0000gn/T//ccrD3Rdr.s 			page 8


 226:../../../lib/pd2dsy/libdaisy/src/dev/oled_ssd130x.h ****         transport_.SendCommand(0xA4);
 227:../../../lib/pd2dsy/libdaisy/src/dev/oled_ssd130x.h ****         // Charge Pump
 228:../../../lib/pd2dsy/libdaisy/src/dev/oled_ssd130x.h ****         transport_.SendCommand(0x8D);
 229:../../../lib/pd2dsy/libdaisy/src/dev/oled_ssd130x.h ****         transport_.SendCommand(0x14);
 230:../../../lib/pd2dsy/libdaisy/src/dev/oled_ssd130x.h ****         // Set Segment Remap
 231:../../../lib/pd2dsy/libdaisy/src/dev/oled_ssd130x.h ****         transport_.SendCommand(0xA1);
 232:../../../lib/pd2dsy/libdaisy/src/dev/oled_ssd130x.h ****         // COM Output Scan Direction
 233:../../../lib/pd2dsy/libdaisy/src/dev/oled_ssd130x.h ****         transport_.SendCommand(0xC8);
 234:../../../lib/pd2dsy/libdaisy/src/dev/oled_ssd130x.h ****         // Contrast Control
 235:../../../lib/pd2dsy/libdaisy/src/dev/oled_ssd130x.h ****         transport_.SendCommand(0x81);
 236:../../../lib/pd2dsy/libdaisy/src/dev/oled_ssd130x.h ****         transport_.SendCommand(0x8F);
 237:../../../lib/pd2dsy/libdaisy/src/dev/oled_ssd130x.h ****         // Pre Charge
 238:../../../lib/pd2dsy/libdaisy/src/dev/oled_ssd130x.h ****         transport_.SendCommand(0xD9);
 239:../../../lib/pd2dsy/libdaisy/src/dev/oled_ssd130x.h ****         transport_.SendCommand(0x25);
 240:../../../lib/pd2dsy/libdaisy/src/dev/oled_ssd130x.h ****         // VCOM Detect
 241:../../../lib/pd2dsy/libdaisy/src/dev/oled_ssd130x.h ****         transport_.SendCommand(0xDB);
 242:../../../lib/pd2dsy/libdaisy/src/dev/oled_ssd130x.h ****         transport_.SendCommand(0x34);
 243:../../../lib/pd2dsy/libdaisy/src/dev/oled_ssd130x.h **** 
 244:../../../lib/pd2dsy/libdaisy/src/dev/oled_ssd130x.h **** 
 245:../../../lib/pd2dsy/libdaisy/src/dev/oled_ssd130x.h ****         // Display On
 246:../../../lib/pd2dsy/libdaisy/src/dev/oled_ssd130x.h ****         transport_.SendCommand(0xAF); //--turn on oled panel
 247:../../../lib/pd2dsy/libdaisy/src/dev/oled_ssd130x.h ****     };
 248:../../../lib/pd2dsy/libdaisy/src/dev/oled_ssd130x.h **** 
 249:../../../lib/pd2dsy/libdaisy/src/dev/oled_ssd130x.h ****     size_t Width() const { return width; };
 250:../../../lib/pd2dsy/libdaisy/src/dev/oled_ssd130x.h ****     size_t Height() const { return height; };
 251:../../../lib/pd2dsy/libdaisy/src/dev/oled_ssd130x.h **** 
 252:../../../lib/pd2dsy/libdaisy/src/dev/oled_ssd130x.h ****     void DrawPixel(uint_fast8_t x, uint_fast8_t y, bool on)
 253:../../../lib/pd2dsy/libdaisy/src/dev/oled_ssd130x.h ****     {
 254:../../../lib/pd2dsy/libdaisy/src/dev/oled_ssd130x.h ****         if(x >= width || y >= height)
 255:../../../lib/pd2dsy/libdaisy/src/dev/oled_ssd130x.h ****             return;
 256:../../../lib/pd2dsy/libdaisy/src/dev/oled_ssd130x.h ****         if(on)
 257:../../../lib/pd2dsy/libdaisy/src/dev/oled_ssd130x.h ****             buffer_[x + (y / 8) * width] |= (1 << (y % 8));
 258:../../../lib/pd2dsy/libdaisy/src/dev/oled_ssd130x.h ****         else
 259:../../../lib/pd2dsy/libdaisy/src/dev/oled_ssd130x.h ****             buffer_[x + (y / 8) * width] &= ~(1 << (y % 8));
 260:../../../lib/pd2dsy/libdaisy/src/dev/oled_ssd130x.h ****     }
 261:../../../lib/pd2dsy/libdaisy/src/dev/oled_ssd130x.h **** 
 262:../../../lib/pd2dsy/libdaisy/src/dev/oled_ssd130x.h ****     void Fill(bool on)
  59              		.loc 3 262 10 view .LVU3
  60              	.LBB450:
 263:../../../lib/pd2dsy/libdaisy/src/dev/oled_ssd130x.h ****     {
 264:../../../lib/pd2dsy/libdaisy/src/dev/oled_ssd130x.h ****         for(size_t i = 0; i < sizeof(buffer_); i++)
  61              		.loc 3 264 29 view .LVU4
 265:../../../lib/pd2dsy/libdaisy/src/dev/oled_ssd130x.h ****         {
 266:../../../lib/pd2dsy/libdaisy/src/dev/oled_ssd130x.h ****             buffer_[i] = on ? 0xff : 0x00;
  62              		.loc 3 266 24 is_stmt 0 view .LVU5
  63 0000 4942     		rsbs	r1, r1, #0
  64              	.LVL2:
  65              		.loc 3 266 24 view .LVU6
  66 0002 4FF48062 		mov	r2, #1024
  67 0006 1430     		adds	r0, r0, #20
  68              	.LVL3:
  69              		.loc 3 266 24 view .LVU7
  70 0008 C9B2     		uxtb	r1, r1
  71 000a FFF7FEBF 		b	memset
  72              	.LVL4:
  73              		.loc 3 266 24 view .LVU8
  74              	.LBE450:
ARM GAS  /var/folders/fb/yfxt3z4538j6z0vjt03w70vc0000gn/T//ccrD3Rdr.s 			page 9


  75              	.LBE449:
  76              		.cfi_endproc
  77              	.LFE3039:
  79 000e 00BF     		.section	.text._ZN5daisy11OledDisplayINS_13SSD130xDriverILj128ELj64ENS_24SSD130x4WireSpiTransportE
  80              		.align	1
  81              		.p2align 2,,3
  82              		.weak	_ZN5daisy11OledDisplayINS_13SSD130xDriverILj128ELj64ENS_24SSD130x4WireSpiTransportEEEED2Ev
  83              		.syntax unified
  84              		.thumb
  85              		.thumb_func
  87              	_ZN5daisy11OledDisplayINS_13SSD130xDriverILj128ELj64ENS_24SSD130x4WireSpiTransportEEEED2Ev:
  88              	.LVL5:
  89              	.LFB3051:
  18:../../../lib/pd2dsy/libdaisy/src/hid/disp/oled_display.h **** 
  90              		.loc 2 18 13 is_stmt 1 view -0
  91              		.cfi_startproc
  92              		@ args = 0, pretend = 0, frame = 0
  93              		@ frame_needed = 0, uses_anonymous_args = 0
  94              		@ link register save eliminated.
  95              	.LBB451:
  96              	.LBI451:
  97              		.file 4 "../../../lib/pd2dsy/libdaisy/src/hid/disp/display.h"
   1:../../../lib/pd2dsy/libdaisy/src/hid/disp/display.h **** #pragma once
   2:../../../lib/pd2dsy/libdaisy/src/hid/disp/display.h **** #ifndef DSY_DISPLAY_H
   3:../../../lib/pd2dsy/libdaisy/src/hid/disp/display.h **** #define DSY_DISPLAY_H /**< Macro */
   4:../../../lib/pd2dsy/libdaisy/src/hid/disp/display.h **** #include <cmath>
   5:../../../lib/pd2dsy/libdaisy/src/hid/disp/display.h **** #include "util/oled_fonts.h"
   6:../../../lib/pd2dsy/libdaisy/src/hid/disp/display.h **** #include "daisy_core.h"
   7:../../../lib/pd2dsy/libdaisy/src/hid/disp/display.h **** #include "graphics_common.h"
   8:../../../lib/pd2dsy/libdaisy/src/hid/disp/display.h **** 
   9:../../../lib/pd2dsy/libdaisy/src/hid/disp/display.h **** #ifndef deg2rad
  10:../../../lib/pd2dsy/libdaisy/src/hid/disp/display.h **** #define deg2rad(deg) ((deg)*3.141592 / 180.0)
  11:../../../lib/pd2dsy/libdaisy/src/hid/disp/display.h **** #endif
  12:../../../lib/pd2dsy/libdaisy/src/hid/disp/display.h **** 
  13:../../../lib/pd2dsy/libdaisy/src/hid/disp/display.h **** namespace daisy
  14:../../../lib/pd2dsy/libdaisy/src/hid/disp/display.h **** {
  15:../../../lib/pd2dsy/libdaisy/src/hid/disp/display.h **** /** 
  16:../../../lib/pd2dsy/libdaisy/src/hid/disp/display.h ****  * This interface is used as a base class for all types of 1bit-per-pixel
  17:../../../lib/pd2dsy/libdaisy/src/hid/disp/display.h ****  * graphics displays.
  18:../../../lib/pd2dsy/libdaisy/src/hid/disp/display.h **** */
  19:../../../lib/pd2dsy/libdaisy/src/hid/disp/display.h **** class OneBitGraphicsDisplay
  20:../../../lib/pd2dsy/libdaisy/src/hid/disp/display.h **** {
  21:../../../lib/pd2dsy/libdaisy/src/hid/disp/display.h ****   public:
  22:../../../lib/pd2dsy/libdaisy/src/hid/disp/display.h ****     OneBitGraphicsDisplay() {}
  23:../../../lib/pd2dsy/libdaisy/src/hid/disp/display.h ****     virtual ~OneBitGraphicsDisplay() {}
  24:../../../lib/pd2dsy/libdaisy/src/hid/disp/display.h **** 
  25:../../../lib/pd2dsy/libdaisy/src/hid/disp/display.h ****     virtual uint16_t Height() const = 0;
  26:../../../lib/pd2dsy/libdaisy/src/hid/disp/display.h ****     virtual uint16_t Width() const  = 0;
  27:../../../lib/pd2dsy/libdaisy/src/hid/disp/display.h **** 
  28:../../../lib/pd2dsy/libdaisy/src/hid/disp/display.h ****     Rectangle GetBounds() const
  29:../../../lib/pd2dsy/libdaisy/src/hid/disp/display.h ****     {
  30:../../../lib/pd2dsy/libdaisy/src/hid/disp/display.h ****         return Rectangle(int16_t(Width()), int16_t(Height()));
  31:../../../lib/pd2dsy/libdaisy/src/hid/disp/display.h ****     }
  32:../../../lib/pd2dsy/libdaisy/src/hid/disp/display.h **** 
  33:../../../lib/pd2dsy/libdaisy/src/hid/disp/display.h **** 
  34:../../../lib/pd2dsy/libdaisy/src/hid/disp/display.h ****     size_t CurrentX() { return currentX_; };
  35:../../../lib/pd2dsy/libdaisy/src/hid/disp/display.h ****     size_t CurrentY() { return currentY_; };
ARM GAS  /var/folders/fb/yfxt3z4538j6z0vjt03w70vc0000gn/T//ccrD3Rdr.s 			page 10


  36:../../../lib/pd2dsy/libdaisy/src/hid/disp/display.h **** 
  37:../../../lib/pd2dsy/libdaisy/src/hid/disp/display.h ****     /** 
  38:../../../lib/pd2dsy/libdaisy/src/hid/disp/display.h ****     Fills the entire display with either on/off.
  39:../../../lib/pd2dsy/libdaisy/src/hid/disp/display.h ****     \param on Sets on or off.
  40:../../../lib/pd2dsy/libdaisy/src/hid/disp/display.h ****     */
  41:../../../lib/pd2dsy/libdaisy/src/hid/disp/display.h ****     virtual void Fill(bool on) = 0;
  42:../../../lib/pd2dsy/libdaisy/src/hid/disp/display.h **** 
  43:../../../lib/pd2dsy/libdaisy/src/hid/disp/display.h ****     /**
  44:../../../lib/pd2dsy/libdaisy/src/hid/disp/display.h ****     Sets the pixel at the specified coordinate to be on/off.
  45:../../../lib/pd2dsy/libdaisy/src/hid/disp/display.h ****     \param x   x Coordinate
  46:../../../lib/pd2dsy/libdaisy/src/hid/disp/display.h ****     \param y   y coordinate
  47:../../../lib/pd2dsy/libdaisy/src/hid/disp/display.h ****     \param on  on or off
  48:../../../lib/pd2dsy/libdaisy/src/hid/disp/display.h ****     */
  49:../../../lib/pd2dsy/libdaisy/src/hid/disp/display.h ****     virtual void DrawPixel(uint_fast8_t x, uint_fast8_t y, bool on) = 0;
  50:../../../lib/pd2dsy/libdaisy/src/hid/disp/display.h **** 
  51:../../../lib/pd2dsy/libdaisy/src/hid/disp/display.h ****     /**
  52:../../../lib/pd2dsy/libdaisy/src/hid/disp/display.h ****     Draws a line from (x1, y1) to (y1, y2)
  53:../../../lib/pd2dsy/libdaisy/src/hid/disp/display.h ****     \param x1  x Coordinate of the starting point
  54:../../../lib/pd2dsy/libdaisy/src/hid/disp/display.h ****     \param y1  y Coordinate of the starting point
  55:../../../lib/pd2dsy/libdaisy/src/hid/disp/display.h ****     \param x2  x Coordinate of the ending point
  56:../../../lib/pd2dsy/libdaisy/src/hid/disp/display.h ****     \param y2  y Coordinate of the ending point
  57:../../../lib/pd2dsy/libdaisy/src/hid/disp/display.h ****     \param on  on or off
  58:../../../lib/pd2dsy/libdaisy/src/hid/disp/display.h ****     */
  59:../../../lib/pd2dsy/libdaisy/src/hid/disp/display.h ****     virtual void DrawLine(uint_fast8_t x1,
  60:../../../lib/pd2dsy/libdaisy/src/hid/disp/display.h ****                           uint_fast8_t y1,
  61:../../../lib/pd2dsy/libdaisy/src/hid/disp/display.h ****                           uint_fast8_t x2,
  62:../../../lib/pd2dsy/libdaisy/src/hid/disp/display.h ****                           uint_fast8_t y2,
  63:../../../lib/pd2dsy/libdaisy/src/hid/disp/display.h ****                           bool         on)
  64:../../../lib/pd2dsy/libdaisy/src/hid/disp/display.h ****         = 0;
  65:../../../lib/pd2dsy/libdaisy/src/hid/disp/display.h **** 
  66:../../../lib/pd2dsy/libdaisy/src/hid/disp/display.h ****     /**
  67:../../../lib/pd2dsy/libdaisy/src/hid/disp/display.h ****     Draws a rectangle based on two coordinates.
  68:../../../lib/pd2dsy/libdaisy/src/hid/disp/display.h ****     \param x1 x Coordinate of the first point
  69:../../../lib/pd2dsy/libdaisy/src/hid/disp/display.h ****     \param y1 y Coordinate of the first point
  70:../../../lib/pd2dsy/libdaisy/src/hid/disp/display.h ****     \param x2 x Coordinate of the second point
  71:../../../lib/pd2dsy/libdaisy/src/hid/disp/display.h ****     \param y2 y Coordinate of the second point
  72:../../../lib/pd2dsy/libdaisy/src/hid/disp/display.h ****     \param on on or off
  73:../../../lib/pd2dsy/libdaisy/src/hid/disp/display.h ****     \param fill fill the rectangle or draw only the outline
  74:../../../lib/pd2dsy/libdaisy/src/hid/disp/display.h ****     */
  75:../../../lib/pd2dsy/libdaisy/src/hid/disp/display.h ****     virtual void DrawRect(uint_fast8_t x1,
  76:../../../lib/pd2dsy/libdaisy/src/hid/disp/display.h ****                           uint_fast8_t y1,
  77:../../../lib/pd2dsy/libdaisy/src/hid/disp/display.h ****                           uint_fast8_t x2,
  78:../../../lib/pd2dsy/libdaisy/src/hid/disp/display.h ****                           uint_fast8_t y2,
  79:../../../lib/pd2dsy/libdaisy/src/hid/disp/display.h ****                           bool         on,
  80:../../../lib/pd2dsy/libdaisy/src/hid/disp/display.h ****                           bool         fill = false)
  81:../../../lib/pd2dsy/libdaisy/src/hid/disp/display.h ****         = 0;
  82:../../../lib/pd2dsy/libdaisy/src/hid/disp/display.h **** 
  83:../../../lib/pd2dsy/libdaisy/src/hid/disp/display.h ****     /**
  84:../../../lib/pd2dsy/libdaisy/src/hid/disp/display.h ****     Draws a rectangle.
  85:../../../lib/pd2dsy/libdaisy/src/hid/disp/display.h ****     \param rect the rectangle
  86:../../../lib/pd2dsy/libdaisy/src/hid/disp/display.h ****     \param on   on or off
  87:../../../lib/pd2dsy/libdaisy/src/hid/disp/display.h ****     \param fill fill the rectangle or draw only the outline
  88:../../../lib/pd2dsy/libdaisy/src/hid/disp/display.h ****     */
  89:../../../lib/pd2dsy/libdaisy/src/hid/disp/display.h ****     void DrawRect(const Rectangle& rect, bool on, bool fill = false)
  90:../../../lib/pd2dsy/libdaisy/src/hid/disp/display.h ****     {
  91:../../../lib/pd2dsy/libdaisy/src/hid/disp/display.h ****         DrawRect(rect.GetX(),
  92:../../../lib/pd2dsy/libdaisy/src/hid/disp/display.h ****                  rect.GetY(),
ARM GAS  /var/folders/fb/yfxt3z4538j6z0vjt03w70vc0000gn/T//ccrD3Rdr.s 			page 11


  93:../../../lib/pd2dsy/libdaisy/src/hid/disp/display.h ****                  rect.GetRight(),
  94:../../../lib/pd2dsy/libdaisy/src/hid/disp/display.h ****                  rect.GetBottom(),
  95:../../../lib/pd2dsy/libdaisy/src/hid/disp/display.h ****                  on,
  96:../../../lib/pd2dsy/libdaisy/src/hid/disp/display.h ****                  fill);
  97:../../../lib/pd2dsy/libdaisy/src/hid/disp/display.h ****     }
  98:../../../lib/pd2dsy/libdaisy/src/hid/disp/display.h **** 
  99:../../../lib/pd2dsy/libdaisy/src/hid/disp/display.h ****     /**
 100:../../../lib/pd2dsy/libdaisy/src/hid/disp/display.h ****     Draws an arc around the specified coordinate
 101:../../../lib/pd2dsy/libdaisy/src/hid/disp/display.h ****     \param x           x Coordinate of the center of the arc
 102:../../../lib/pd2dsy/libdaisy/src/hid/disp/display.h ****     \param y           y Coordinate of the center of the arc
 103:../../../lib/pd2dsy/libdaisy/src/hid/disp/display.h ****     \param radius      radius of the arc
 104:../../../lib/pd2dsy/libdaisy/src/hid/disp/display.h ****     \param start_angle angle where to start the arc
 105:../../../lib/pd2dsy/libdaisy/src/hid/disp/display.h ****     \param sweep       total angle of the arc
 106:../../../lib/pd2dsy/libdaisy/src/hid/disp/display.h ****     \param on  on or off
 107:../../../lib/pd2dsy/libdaisy/src/hid/disp/display.h ****     */
 108:../../../lib/pd2dsy/libdaisy/src/hid/disp/display.h ****     virtual void DrawArc(uint_fast8_t x,
 109:../../../lib/pd2dsy/libdaisy/src/hid/disp/display.h ****                          uint_fast8_t y,
 110:../../../lib/pd2dsy/libdaisy/src/hid/disp/display.h ****                          uint_fast8_t radius,
 111:../../../lib/pd2dsy/libdaisy/src/hid/disp/display.h ****                          int_fast16_t start_angle,
 112:../../../lib/pd2dsy/libdaisy/src/hid/disp/display.h ****                          int_fast16_t sweep,
 113:../../../lib/pd2dsy/libdaisy/src/hid/disp/display.h ****                          bool         on)
 114:../../../lib/pd2dsy/libdaisy/src/hid/disp/display.h ****         = 0;
 115:../../../lib/pd2dsy/libdaisy/src/hid/disp/display.h **** 
 116:../../../lib/pd2dsy/libdaisy/src/hid/disp/display.h ****     /**
 117:../../../lib/pd2dsy/libdaisy/src/hid/disp/display.h ****     Draws a circle around the specified coordinate
 118:../../../lib/pd2dsy/libdaisy/src/hid/disp/display.h ****     \param x           x Coordinate of the center of the circle
 119:../../../lib/pd2dsy/libdaisy/src/hid/disp/display.h ****     \param y           y Coordinate of the center of the circle
 120:../../../lib/pd2dsy/libdaisy/src/hid/disp/display.h ****     \param radius      radius of the circle
 121:../../../lib/pd2dsy/libdaisy/src/hid/disp/display.h ****     \param on  on or off
 122:../../../lib/pd2dsy/libdaisy/src/hid/disp/display.h ****     */
 123:../../../lib/pd2dsy/libdaisy/src/hid/disp/display.h ****     void
 124:../../../lib/pd2dsy/libdaisy/src/hid/disp/display.h ****     DrawCircle(uint_fast8_t x, uint_fast8_t y, uint_fast8_t radius, bool on)
 125:../../../lib/pd2dsy/libdaisy/src/hid/disp/display.h ****     {
 126:../../../lib/pd2dsy/libdaisy/src/hid/disp/display.h ****         DrawArc(x, y, radius, 0, 360, on);
 127:../../../lib/pd2dsy/libdaisy/src/hid/disp/display.h ****     };
 128:../../../lib/pd2dsy/libdaisy/src/hid/disp/display.h **** 
 129:../../../lib/pd2dsy/libdaisy/src/hid/disp/display.h ****     /** 
 130:../../../lib/pd2dsy/libdaisy/src/hid/disp/display.h ****     Writes the character with the specific FontDef
 131:../../../lib/pd2dsy/libdaisy/src/hid/disp/display.h ****     to the display buffer at the current Cursor position.
 132:../../../lib/pd2dsy/libdaisy/src/hid/disp/display.h ****     \param ch character to be written
 133:../../../lib/pd2dsy/libdaisy/src/hid/disp/display.h ****     \param font font to be written in
 134:../../../lib/pd2dsy/libdaisy/src/hid/disp/display.h ****     \param on    on or off
 135:../../../lib/pd2dsy/libdaisy/src/hid/disp/display.h ****     \return &
 136:../../../lib/pd2dsy/libdaisy/src/hid/disp/display.h ****     */
 137:../../../lib/pd2dsy/libdaisy/src/hid/disp/display.h ****     virtual char WriteChar(char ch, FontDef font, bool on) = 0;
 138:../../../lib/pd2dsy/libdaisy/src/hid/disp/display.h **** 
 139:../../../lib/pd2dsy/libdaisy/src/hid/disp/display.h ****     /** 
 140:../../../lib/pd2dsy/libdaisy/src/hid/disp/display.h ****     Similar to WriteChar, except it will handle an entire String.
 141:../../../lib/pd2dsy/libdaisy/src/hid/disp/display.h ****     Wrapping does not happen automatically, so the width
 142:../../../lib/pd2dsy/libdaisy/src/hid/disp/display.h ****     of the string must be kept within the dimensions of the screen.
 143:../../../lib/pd2dsy/libdaisy/src/hid/disp/display.h ****     \param str string to be written
 144:../../../lib/pd2dsy/libdaisy/src/hid/disp/display.h ****     \param font font to use
 145:../../../lib/pd2dsy/libdaisy/src/hid/disp/display.h ****     \param on  on or off
 146:../../../lib/pd2dsy/libdaisy/src/hid/disp/display.h ****     \return &
 147:../../../lib/pd2dsy/libdaisy/src/hid/disp/display.h ****     */
 148:../../../lib/pd2dsy/libdaisy/src/hid/disp/display.h ****     virtual char WriteString(const char* str, FontDef font, bool on) = 0;
 149:../../../lib/pd2dsy/libdaisy/src/hid/disp/display.h **** 
ARM GAS  /var/folders/fb/yfxt3z4538j6z0vjt03w70vc0000gn/T//ccrD3Rdr.s 			page 12


 150:../../../lib/pd2dsy/libdaisy/src/hid/disp/display.h ****     /** 
 151:../../../lib/pd2dsy/libdaisy/src/hid/disp/display.h ****     Similar to WriteString but justified within a bounding box.
 152:../../../lib/pd2dsy/libdaisy/src/hid/disp/display.h ****     \param str          string to be written
 153:../../../lib/pd2dsy/libdaisy/src/hid/disp/display.h ****     \param font         font to use
 154:../../../lib/pd2dsy/libdaisy/src/hid/disp/display.h ****     \param boundingBox  the bounding box to draw the text in
 155:../../../lib/pd2dsy/libdaisy/src/hid/disp/display.h ****     \param alignment    the alignment to use
 156:../../../lib/pd2dsy/libdaisy/src/hid/disp/display.h ****     \param on           on or off
 157:../../../lib/pd2dsy/libdaisy/src/hid/disp/display.h ****     \return The rectangle that was drawn to
 158:../../../lib/pd2dsy/libdaisy/src/hid/disp/display.h ****     */
 159:../../../lib/pd2dsy/libdaisy/src/hid/disp/display.h ****     virtual Rectangle WriteStringAligned(const char*    str,
 160:../../../lib/pd2dsy/libdaisy/src/hid/disp/display.h ****                                          const FontDef& font,
 161:../../../lib/pd2dsy/libdaisy/src/hid/disp/display.h ****                                          Rectangle      boundingBox,
 162:../../../lib/pd2dsy/libdaisy/src/hid/disp/display.h ****                                          Alignment      alignment,
 163:../../../lib/pd2dsy/libdaisy/src/hid/disp/display.h ****                                          bool           on)
 164:../../../lib/pd2dsy/libdaisy/src/hid/disp/display.h ****         = 0;
 165:../../../lib/pd2dsy/libdaisy/src/hid/disp/display.h **** 
 166:../../../lib/pd2dsy/libdaisy/src/hid/disp/display.h ****     /** 
 167:../../../lib/pd2dsy/libdaisy/src/hid/disp/display.h ****     Moves the 'Cursor' position used for WriteChar, and WriteStr to the specified coordinate.
 168:../../../lib/pd2dsy/libdaisy/src/hid/disp/display.h ****     \param x x pos
 169:../../../lib/pd2dsy/libdaisy/src/hid/disp/display.h ****     \param y y pos
 170:../../../lib/pd2dsy/libdaisy/src/hid/disp/display.h ****     */
 171:../../../lib/pd2dsy/libdaisy/src/hid/disp/display.h ****     void SetCursor(uint16_t x, uint16_t y)
 172:../../../lib/pd2dsy/libdaisy/src/hid/disp/display.h ****     {
 173:../../../lib/pd2dsy/libdaisy/src/hid/disp/display.h ****         currentX_ = (x >= Width()) ? Width() - 1 : x;
 174:../../../lib/pd2dsy/libdaisy/src/hid/disp/display.h ****         currentY_ = (y >= Height()) ? Height() - 1 : y;
 175:../../../lib/pd2dsy/libdaisy/src/hid/disp/display.h ****     }
 176:../../../lib/pd2dsy/libdaisy/src/hid/disp/display.h **** 
 177:../../../lib/pd2dsy/libdaisy/src/hid/disp/display.h ****     /** 
 178:../../../lib/pd2dsy/libdaisy/src/hid/disp/display.h ****     Writes the current display buffer to the OLED device using SPI or I2C depending on 
 179:../../../lib/pd2dsy/libdaisy/src/hid/disp/display.h ****     how the object was initialized.
 180:../../../lib/pd2dsy/libdaisy/src/hid/disp/display.h ****     */
 181:../../../lib/pd2dsy/libdaisy/src/hid/disp/display.h ****     virtual void Update() = 0;
 182:../../../lib/pd2dsy/libdaisy/src/hid/disp/display.h **** 
 183:../../../lib/pd2dsy/libdaisy/src/hid/disp/display.h ****   protected:
 184:../../../lib/pd2dsy/libdaisy/src/hid/disp/display.h ****     uint16_t currentX_;
 185:../../../lib/pd2dsy/libdaisy/src/hid/disp/display.h ****     uint16_t currentY_;
 186:../../../lib/pd2dsy/libdaisy/src/hid/disp/display.h **** };
 187:../../../lib/pd2dsy/libdaisy/src/hid/disp/display.h **** 
 188:../../../lib/pd2dsy/libdaisy/src/hid/disp/display.h **** /** This class is intended as a intermediary class for your actual implementation of the OneBitGrap
 189:../../../lib/pd2dsy/libdaisy/src/hid/disp/display.h ****  *  interface. It uses the CRTP design pattern where the template argument is the child class. It p
 190:../../../lib/pd2dsy/libdaisy/src/hid/disp/display.h ****  *  implementations for most of the functions, except DrawPixel(), Update() and Fill(), which you'l
 191:../../../lib/pd2dsy/libdaisy/src/hid/disp/display.h ****  *  to provide in your child class.
 192:../../../lib/pd2dsy/libdaisy/src/hid/disp/display.h ****  *  The main goal of this class is to provide common drawing functions without relying on massive a
 193:../../../lib/pd2dsy/libdaisy/src/hid/disp/display.h ****  *  virtual function calls that would result in a performance loss. To achieve this, any drawing fu
 194:../../../lib/pd2dsy/libdaisy/src/hid/disp/display.h ****  *  is implemented here and internally calls other drawing functions (e.g. DrawRect() which interna
 195:../../../lib/pd2dsy/libdaisy/src/hid/disp/display.h ****  *  DrawPixel() and DrawLine()) makes these calls via the qualified name of these functions to expl
 196:../../../lib/pd2dsy/libdaisy/src/hid/disp/display.h ****  *  suppress the virtual dispatch mechanism like this:
 197:../../../lib/pd2dsy/libdaisy/src/hid/disp/display.h ****  * 
 198:../../../lib/pd2dsy/libdaisy/src/hid/disp/display.h ****  *      ChildType::DrawPixel(...); // no virtual function call; direct call into the child class fu
 199:../../../lib/pd2dsy/libdaisy/src/hid/disp/display.h ****  *  
 200:../../../lib/pd2dsy/libdaisy/src/hid/disp/display.h ****  *  To create a custom OneBitGraphicsDisplay implementation, you can 
 201:../../../lib/pd2dsy/libdaisy/src/hid/disp/display.h ****  *  A) inherit from OneBitGraphicsDisplay directly and provide all the drawing functions yourself
 202:../../../lib/pd2dsy/libdaisy/src/hid/disp/display.h ****  *  B) Inherit from OneBitGraphicsDisplayImpl and only provide DrawPixel(), Fill() and Update()
 203:../../../lib/pd2dsy/libdaisy/src/hid/disp/display.h ****  *     like this:
 204:../../../lib/pd2dsy/libdaisy/src/hid/disp/display.h ****  *  
 205:../../../lib/pd2dsy/libdaisy/src/hid/disp/display.h ****  *      class MyDisplayClass : public OneBitGraphicsDisplayImpl<MyDisplayClass> 
 206:../../../lib/pd2dsy/libdaisy/src/hid/disp/display.h ****  *      {
ARM GAS  /var/folders/fb/yfxt3z4538j6z0vjt03w70vc0000gn/T//ccrD3Rdr.s 			page 13


 207:../../../lib/pd2dsy/libdaisy/src/hid/disp/display.h ****  *      public:
 208:../../../lib/pd2dsy/libdaisy/src/hid/disp/display.h ****  *          void Fill() override { ... };
 209:../../../lib/pd2dsy/libdaisy/src/hid/disp/display.h ****  *          void DrawPixel(uint_fast8_t x, uint_fast8_t y, bool on) override { ... };
 210:../../../lib/pd2dsy/libdaisy/src/hid/disp/display.h ****  *          void Update() override { ... }
 211:../../../lib/pd2dsy/libdaisy/src/hid/disp/display.h ****  *      };
 212:../../../lib/pd2dsy/libdaisy/src/hid/disp/display.h ****  *  
 213:../../../lib/pd2dsy/libdaisy/src/hid/disp/display.h ****  */
 214:../../../lib/pd2dsy/libdaisy/src/hid/disp/display.h **** template <class ChildType>
 215:../../../lib/pd2dsy/libdaisy/src/hid/disp/display.h **** class OneBitGraphicsDisplayImpl : public OneBitGraphicsDisplay
 216:../../../lib/pd2dsy/libdaisy/src/hid/disp/display.h **** {
 217:../../../lib/pd2dsy/libdaisy/src/hid/disp/display.h ****   public:
 218:../../../lib/pd2dsy/libdaisy/src/hid/disp/display.h ****     OneBitGraphicsDisplayImpl() {}
 219:../../../lib/pd2dsy/libdaisy/src/hid/disp/display.h ****     virtual ~OneBitGraphicsDisplayImpl() {}
  98              		.loc 4 219 13 view .LVU10
  99              	.LBB452:
 100              	.LBI452:
  23:../../../lib/pd2dsy/libdaisy/src/hid/disp/display.h **** 
 101              		.loc 4 23 13 view .LVU11
  23:../../../lib/pd2dsy/libdaisy/src/hid/disp/display.h **** 
 102              		.loc 4 23 13 is_stmt 0 view .LVU12
 103              	.LBE452:
 104              	.LBE451:
  18:../../../lib/pd2dsy/libdaisy/src/hid/disp/oled_display.h **** 
 105              		.loc 2 18 29 view .LVU13
 106 0000 7047     		bx	lr
 107              		.cfi_endproc
 108              	.LFE3051:
 110              		.weak	_ZN5daisy11OledDisplayINS_13SSD130xDriverILj128ELj64ENS_24SSD130x4WireSpiTransportEEEED1Ev
 111              		.thumb_set _ZN5daisy11OledDisplayINS_13SSD130xDriverILj128ELj64ENS_24SSD130x4WireSpiTransportEEEED
 112 0002 00BF     		.section	.text._ZN10json2daisy8DaisyPodD2Ev,"axG",%progbits,_ZN10json2daisy8DaisyPodD5Ev,comdat
 113              		.align	1
 114              		.p2align 2,,3
 115              		.weak	_ZN10json2daisy8DaisyPodD2Ev
 116              		.syntax unified
 117              		.thumb
 118              		.thumb_func
 120              	_ZN10json2daisy8DaisyPodD2Ev:
 121              	.LVL6:
 122              	.LFB3071:
 123              		.file 5 "source/HeavyDaisy_grillosychicharrasosc.hpp"
   1:source/HeavyDaisy_grillosychicharrasosc.hpp **** /*
   2:source/HeavyDaisy_grillosychicharrasosc.hpp ****  * MIT License
   3:source/HeavyDaisy_grillosychicharrasosc.hpp ****  * 
   4:source/HeavyDaisy_grillosychicharrasosc.hpp ****  * Copyright (c) 2021 Electrosmith
   5:source/HeavyDaisy_grillosychicharrasosc.hpp ****  * 
   6:source/HeavyDaisy_grillosychicharrasosc.hpp ****  * Permission is hereby granted, free of charge, to any person obtaining a copy
   7:source/HeavyDaisy_grillosychicharrasosc.hpp ****  * of this software and associated documentation files (the "Software"), to deal
   8:source/HeavyDaisy_grillosychicharrasosc.hpp ****  * in the Software without restriction, including without limitation the rights
   9:source/HeavyDaisy_grillosychicharrasosc.hpp ****  * to use, copy, modify, merge, publish, distribute, sublicense, and/or sell
  10:source/HeavyDaisy_grillosychicharrasosc.hpp ****  * copies of the Software, and to permit persons to whom the Software is
  11:source/HeavyDaisy_grillosychicharrasosc.hpp ****  * furnished to do so, subject to the following conditions:
  12:source/HeavyDaisy_grillosychicharrasosc.hpp ****  * 
  13:source/HeavyDaisy_grillosychicharrasosc.hpp ****  * The above copyright notice and this permission notice shall be included in all
  14:source/HeavyDaisy_grillosychicharrasosc.hpp ****  * copies or substantial portions of the Software.
  15:source/HeavyDaisy_grillosychicharrasosc.hpp ****  * 
  16:source/HeavyDaisy_grillosychicharrasosc.hpp ****  * THE SOFTWARE IS PROVIDED "AS IS", WITHOUT WARRANTY OF ANY KIND, EXPRESS OR
  17:source/HeavyDaisy_grillosychicharrasosc.hpp ****  * IMPLIED, INCLUDING BUT NOT LIMITED TO THE WARRANTIES OF MERCHANTABILITY,
ARM GAS  /var/folders/fb/yfxt3z4538j6z0vjt03w70vc0000gn/T//ccrD3Rdr.s 			page 14


  18:source/HeavyDaisy_grillosychicharrasosc.hpp ****  * FITNESS FOR A PARTICULAR PURPOSE AND NONINFRINGEMENT. IN NO EVENT SHALL THE
  19:source/HeavyDaisy_grillosychicharrasosc.hpp ****  * AUTHORS OR COPYRIGHT HOLDERS BE LIABLE FOR ANY CLAIM, DAMAGES OR OTHER
  20:source/HeavyDaisy_grillosychicharrasosc.hpp ****  * LIABILITY, WHETHER IN AN ACTION OF CONTRACT, TORT OR OTHERWISE, ARISING FROM,
  21:source/HeavyDaisy_grillosychicharrasosc.hpp ****  * OUT OF OR IN CONNECTION WITH THE SOFTWARE OR THE USE OR OTHER DEALINGS IN THE
  22:source/HeavyDaisy_grillosychicharrasosc.hpp ****  * SOFTWARE.
  23:source/HeavyDaisy_grillosychicharrasosc.hpp ****  * 
  24:source/HeavyDaisy_grillosychicharrasosc.hpp ****  */
  25:source/HeavyDaisy_grillosychicharrasosc.hpp **** 
  26:source/HeavyDaisy_grillosychicharrasosc.hpp **** #ifndef __JSON2DAISY_POD_H__
  27:source/HeavyDaisy_grillosychicharrasosc.hpp **** #define __JSON2DAISY_POD_H__
  28:source/HeavyDaisy_grillosychicharrasosc.hpp **** 
  29:source/HeavyDaisy_grillosychicharrasosc.hpp **** #include "daisy_seed.h"
  30:source/HeavyDaisy_grillosychicharrasosc.hpp **** #include "dev/codec_ak4556.h"
  31:source/HeavyDaisy_grillosychicharrasosc.hpp **** #include "dev/oled_ssd130x.h"
  32:source/HeavyDaisy_grillosychicharrasosc.hpp **** 
  33:source/HeavyDaisy_grillosychicharrasosc.hpp **** #define ANALOG_COUNT 1
  34:source/HeavyDaisy_grillosychicharrasosc.hpp **** 
  35:source/HeavyDaisy_grillosychicharrasosc.hpp **** namespace json2daisy {
  36:source/HeavyDaisy_grillosychicharrasosc.hpp **** 
  37:source/HeavyDaisy_grillosychicharrasosc.hpp **** 
  38:source/HeavyDaisy_grillosychicharrasosc.hpp **** 
  39:source/HeavyDaisy_grillosychicharrasosc.hpp **** struct DaisyPod {
 124              		.loc 5 39 8 is_stmt 1 view -0
 125              		.cfi_startproc
 126              		@ args = 0, pretend = 0, frame = 0
 127              		@ frame_needed = 0, uses_anonymous_args = 0
 128              		@ link register save eliminated.
 129              	.LBB453:
 130              	.LBI453:
  18:../../../lib/pd2dsy/libdaisy/src/hid/disp/oled_display.h **** 
 131              		.loc 2 18 13 view .LVU15
 132              	.LBB454:
 133              	.LBI454:
 134              		.loc 4 219 13 view .LVU16
 135              	.LBB455:
 136              	.LBI455:
  23:../../../lib/pd2dsy/libdaisy/src/hid/disp/display.h **** 
 137              		.loc 4 23 13 view .LVU17
  23:../../../lib/pd2dsy/libdaisy/src/hid/disp/display.h **** 
 138              		.loc 4 23 13 is_stmt 0 view .LVU18
 139              	.LBE455:
 140              	.LBE454:
 141              	.LBE453:
 142              	.LBB456:
 143              	.LBI456:
 144              		.file 6 "../../../lib/pd2dsy/libdaisy/src/hid/switch.h"
   1:../../../lib/pd2dsy/libdaisy/src/hid/switch.h **** #pragma once
   2:../../../lib/pd2dsy/libdaisy/src/hid/switch.h **** #ifndef DSY_SWITCH_H
   3:../../../lib/pd2dsy/libdaisy/src/hid/switch.h **** #define DSY_SWITCH_H
   4:../../../lib/pd2dsy/libdaisy/src/hid/switch.h **** #include "daisy_core.h"
   5:../../../lib/pd2dsy/libdaisy/src/hid/switch.h **** #include "per/gpio.h"
   6:../../../lib/pd2dsy/libdaisy/src/hid/switch.h **** #include "sys/system.h"
   7:../../../lib/pd2dsy/libdaisy/src/hid/switch.h **** 
   8:../../../lib/pd2dsy/libdaisy/src/hid/switch.h **** namespace daisy
   9:../../../lib/pd2dsy/libdaisy/src/hid/switch.h **** {
  10:../../../lib/pd2dsy/libdaisy/src/hid/switch.h **** /** 
  11:../../../lib/pd2dsy/libdaisy/src/hid/switch.h ****     Generic Class for handling momentary/latching switches \n 
ARM GAS  /var/folders/fb/yfxt3z4538j6z0vjt03w70vc0000gn/T//ccrD3Rdr.s 			page 15


  12:../../../lib/pd2dsy/libdaisy/src/hid/switch.h ****     Inspired/influenced by Mutable Instruments (pichenettes) Switch classes
  13:../../../lib/pd2dsy/libdaisy/src/hid/switch.h ****     @author Stephen Hensley
  14:../../../lib/pd2dsy/libdaisy/src/hid/switch.h ****     @date December 2019
  15:../../../lib/pd2dsy/libdaisy/src/hid/switch.h ****     @ingroup controls
  16:../../../lib/pd2dsy/libdaisy/src/hid/switch.h **** */
  17:../../../lib/pd2dsy/libdaisy/src/hid/switch.h **** class Switch
  18:../../../lib/pd2dsy/libdaisy/src/hid/switch.h **** {
  19:../../../lib/pd2dsy/libdaisy/src/hid/switch.h ****   public:
  20:../../../lib/pd2dsy/libdaisy/src/hid/switch.h ****     /** Specifies the expected behavior of the switch */
  21:../../../lib/pd2dsy/libdaisy/src/hid/switch.h ****     enum Type
  22:../../../lib/pd2dsy/libdaisy/src/hid/switch.h ****     {
  23:../../../lib/pd2dsy/libdaisy/src/hid/switch.h ****         TYPE_TOGGLE,    /**< & */
  24:../../../lib/pd2dsy/libdaisy/src/hid/switch.h ****         TYPE_MOMENTARY, /**< & */
  25:../../../lib/pd2dsy/libdaisy/src/hid/switch.h ****     };
  26:../../../lib/pd2dsy/libdaisy/src/hid/switch.h ****     /** Specifies whether the pressed is HIGH or LOW. */
  27:../../../lib/pd2dsy/libdaisy/src/hid/switch.h ****     enum Polarity
  28:../../../lib/pd2dsy/libdaisy/src/hid/switch.h ****     {
  29:../../../lib/pd2dsy/libdaisy/src/hid/switch.h ****         POLARITY_NORMAL,   /**< & */
  30:../../../lib/pd2dsy/libdaisy/src/hid/switch.h ****         POLARITY_INVERTED, /**< & */
  31:../../../lib/pd2dsy/libdaisy/src/hid/switch.h ****     };
  32:../../../lib/pd2dsy/libdaisy/src/hid/switch.h **** 
  33:../../../lib/pd2dsy/libdaisy/src/hid/switch.h ****     /** Specifies whether to use built-in Pull Up/Down resistors to hold button at a given state wh
  34:../../../lib/pd2dsy/libdaisy/src/hid/switch.h ****     enum Pull
  35:../../../lib/pd2dsy/libdaisy/src/hid/switch.h ****     {
  36:../../../lib/pd2dsy/libdaisy/src/hid/switch.h ****         PULL_UP,   /**< & */
  37:../../../lib/pd2dsy/libdaisy/src/hid/switch.h ****         PULL_DOWN, /**< & */
  38:../../../lib/pd2dsy/libdaisy/src/hid/switch.h ****         PULL_NONE, /**< & */
  39:../../../lib/pd2dsy/libdaisy/src/hid/switch.h ****     };
  40:../../../lib/pd2dsy/libdaisy/src/hid/switch.h **** 
  41:../../../lib/pd2dsy/libdaisy/src/hid/switch.h ****     Switch() {}
  42:../../../lib/pd2dsy/libdaisy/src/hid/switch.h ****     ~Switch() {}
 145              		.loc 6 42 5 is_stmt 1 view .LVU19
 146              		.loc 6 42 5 is_stmt 0 view .LVU20
 147              	.LBE456:
 148              	.LBB457:
 149              	.LBI457:
 150              		.file 7 "../../../lib/pd2dsy/libdaisy/src/hid/rgb_led.h"
   1:../../../lib/pd2dsy/libdaisy/src/hid/rgb_led.h **** #pragma once
   2:../../../lib/pd2dsy/libdaisy/src/hid/rgb_led.h **** #ifndef DSY_RGB_LED_H
   3:../../../lib/pd2dsy/libdaisy/src/hid/rgb_led.h **** #define DSY_RGB_LED_H
   4:../../../lib/pd2dsy/libdaisy/src/hid/rgb_led.h **** #include "hid/led.h"
   5:../../../lib/pd2dsy/libdaisy/src/hid/rgb_led.h **** #include "util/color.h"
   6:../../../lib/pd2dsy/libdaisy/src/hid/rgb_led.h **** 
   7:../../../lib/pd2dsy/libdaisy/src/hid/rgb_led.h **** namespace daisy
   8:../../../lib/pd2dsy/libdaisy/src/hid/rgb_led.h **** {
   9:../../../lib/pd2dsy/libdaisy/src/hid/rgb_led.h **** /** @addtogroup feedback
  10:../../../lib/pd2dsy/libdaisy/src/hid/rgb_led.h ****     @{
  11:../../../lib/pd2dsy/libdaisy/src/hid/rgb_led.h **** */
  12:../../../lib/pd2dsy/libdaisy/src/hid/rgb_led.h **** 
  13:../../../lib/pd2dsy/libdaisy/src/hid/rgb_led.h **** /** 3x LEDs configured as an RGB for ease of use. */
  14:../../../lib/pd2dsy/libdaisy/src/hid/rgb_led.h **** class RgbLed
  15:../../../lib/pd2dsy/libdaisy/src/hid/rgb_led.h **** {
  16:../../../lib/pd2dsy/libdaisy/src/hid/rgb_led.h ****   public:
  17:../../../lib/pd2dsy/libdaisy/src/hid/rgb_led.h ****     RgbLed() {}
  18:../../../lib/pd2dsy/libdaisy/src/hid/rgb_led.h ****     ~RgbLed() {}
 151              		.loc 7 18 5 is_stmt 1 view .LVU21
 152              	.LBB458:
ARM GAS  /var/folders/fb/yfxt3z4538j6z0vjt03w70vc0000gn/T//ccrD3Rdr.s 			page 16


 153              	.LBI458:
 154              		.file 8 "../../../lib/pd2dsy/libdaisy/src/hid/led.h"
   1:../../../lib/pd2dsy/libdaisy/src/hid/led.h **** 
   2:../../../lib/pd2dsy/libdaisy/src/hid/led.h **** #pragma once
   3:../../../lib/pd2dsy/libdaisy/src/hid/led.h **** #ifndef DSY_LED_H
   4:../../../lib/pd2dsy/libdaisy/src/hid/led.h **** #define DSY_LED_H
   5:../../../lib/pd2dsy/libdaisy/src/hid/led.h **** #include "daisy_core.h"
   6:../../../lib/pd2dsy/libdaisy/src/hid/led.h **** #include "per/gpio.h"
   7:../../../lib/pd2dsy/libdaisy/src/hid/led.h **** 
   8:../../../lib/pd2dsy/libdaisy/src/hid/led.h **** /* TODO - Get this set up to work with the dev_leddriver stuff as well
   9:../../../lib/pd2dsy/libdaisy/src/hid/led.h **** - Setup Hardware PWM for pins that have it
  10:../../../lib/pd2dsy/libdaisy/src/hid/led.h **** */
  11:../../../lib/pd2dsy/libdaisy/src/hid/led.h **** 
  12:../../../lib/pd2dsy/libdaisy/src/hid/led.h **** namespace daisy
  13:../../../lib/pd2dsy/libdaisy/src/hid/led.h **** {
  14:../../../lib/pd2dsy/libdaisy/src/hid/led.h **** /**
  15:../../../lib/pd2dsy/libdaisy/src/hid/led.h ****     @brief LED Class providing simple Software PWM ability, etc \n 
  16:../../../lib/pd2dsy/libdaisy/src/hid/led.h ****     Eventually this will work with hardware PWM, and external LED Driver devices as well.
  17:../../../lib/pd2dsy/libdaisy/src/hid/led.h ****     @author shensley
  18:../../../lib/pd2dsy/libdaisy/src/hid/led.h ****     @date March 2020
  19:../../../lib/pd2dsy/libdaisy/src/hid/led.h ****     @ingroup feedback
  20:../../../lib/pd2dsy/libdaisy/src/hid/led.h **** */
  21:../../../lib/pd2dsy/libdaisy/src/hid/led.h **** class Led
  22:../../../lib/pd2dsy/libdaisy/src/hid/led.h **** {
  23:../../../lib/pd2dsy/libdaisy/src/hid/led.h ****   public:
  24:../../../lib/pd2dsy/libdaisy/src/hid/led.h ****     Led() {}
  25:../../../lib/pd2dsy/libdaisy/src/hid/led.h ****     ~Led() {}
 155              		.loc 8 25 5 view .LVU22
 156              		.loc 8 25 5 is_stmt 0 view .LVU23
 157              	.LBE458:
 158              	.LBB459:
 159              	.LBI459:
 160              		.loc 8 25 5 is_stmt 1 view .LVU24
 161              		.loc 8 25 5 is_stmt 0 view .LVU25
 162              	.LBE459:
 163              	.LBB460:
 164              	.LBI460:
 165              		.loc 8 25 5 is_stmt 1 view .LVU26
 166              		.loc 8 25 5 is_stmt 0 view .LVU27
 167              	.LBE460:
 168              	.LBE457:
 169              	.LBB461:
 170              	.LBI461:
 171              		.file 9 "../../../lib/pd2dsy/libdaisy/src/hid/ctrl.h"
   1:../../../lib/pd2dsy/libdaisy/src/hid/ctrl.h **** #pragma once
   2:../../../lib/pd2dsy/libdaisy/src/hid/ctrl.h **** #ifndef DSY_KNOB_H
   3:../../../lib/pd2dsy/libdaisy/src/hid/ctrl.h **** #define DSY_KNOB_H /**< & */
   4:../../../lib/pd2dsy/libdaisy/src/hid/ctrl.h **** #include <stdint.h>
   5:../../../lib/pd2dsy/libdaisy/src/hid/ctrl.h **** 
   6:../../../lib/pd2dsy/libdaisy/src/hid/ctrl.h **** #ifdef __cplusplus
   7:../../../lib/pd2dsy/libdaisy/src/hid/ctrl.h **** namespace daisy
   8:../../../lib/pd2dsy/libdaisy/src/hid/ctrl.h **** {
   9:../../../lib/pd2dsy/libdaisy/src/hid/ctrl.h **** /**
  10:../../../lib/pd2dsy/libdaisy/src/hid/ctrl.h ****     @brief Hardware Interface for control inputs \n 
  11:../../../lib/pd2dsy/libdaisy/src/hid/ctrl.h ****     Primarily designed for ADC input controls such as \n 
  12:../../../lib/pd2dsy/libdaisy/src/hid/ctrl.h ****     potentiometers, and control voltage. \n 
  13:../../../lib/pd2dsy/libdaisy/src/hid/ctrl.h ****     @author Stephen Hensley
ARM GAS  /var/folders/fb/yfxt3z4538j6z0vjt03w70vc0000gn/T//ccrD3Rdr.s 			page 17


  14:../../../lib/pd2dsy/libdaisy/src/hid/ctrl.h ****     @date November 2019
  15:../../../lib/pd2dsy/libdaisy/src/hid/ctrl.h ****     @ingroup controls
  16:../../../lib/pd2dsy/libdaisy/src/hid/ctrl.h **** */
  17:../../../lib/pd2dsy/libdaisy/src/hid/ctrl.h **** class AnalogControl
  18:../../../lib/pd2dsy/libdaisy/src/hid/ctrl.h **** {
  19:../../../lib/pd2dsy/libdaisy/src/hid/ctrl.h ****   public:
  20:../../../lib/pd2dsy/libdaisy/src/hid/ctrl.h ****     /** Constructor */
  21:../../../lib/pd2dsy/libdaisy/src/hid/ctrl.h ****     AnalogControl() {}
  22:../../../lib/pd2dsy/libdaisy/src/hid/ctrl.h ****     /** destructor */
  23:../../../lib/pd2dsy/libdaisy/src/hid/ctrl.h ****     ~AnalogControl() {}
 172              		.loc 9 23 5 is_stmt 1 view .LVU28
 173              		.loc 9 23 5 is_stmt 0 view .LVU29
 174              	.LBE461:
 175              	.LBB462:
 176              	.LBI462:
 177              		.file 10 "../../../lib/pd2dsy/libdaisy/src/daisy_seed.h"
   1:../../../lib/pd2dsy/libdaisy/src/daisy_seed.h **** #pragma once
   2:../../../lib/pd2dsy/libdaisy/src/daisy_seed.h **** #ifndef DSY_SEED_H
   3:../../../lib/pd2dsy/libdaisy/src/daisy_seed.h **** #define DSY_SEED_H
   4:../../../lib/pd2dsy/libdaisy/src/daisy_seed.h **** 
   5:../../../lib/pd2dsy/libdaisy/src/daisy_seed.h **** #include "daisy.h"
   6:../../../lib/pd2dsy/libdaisy/src/daisy_seed.h **** 
   7:../../../lib/pd2dsy/libdaisy/src/daisy_seed.h **** //Uncomment this out if you're still using the rev2 hardware
   8:../../../lib/pd2dsy/libdaisy/src/daisy_seed.h **** //#define SEED_REV2
   9:../../../lib/pd2dsy/libdaisy/src/daisy_seed.h **** 
  10:../../../lib/pd2dsy/libdaisy/src/daisy_seed.h **** namespace daisy
  11:../../../lib/pd2dsy/libdaisy/src/daisy_seed.h **** {
  12:../../../lib/pd2dsy/libdaisy/src/daisy_seed.h **** /**
  13:../../../lib/pd2dsy/libdaisy/src/daisy_seed.h ****    @brief This is the higher-level interface for the Daisy board. \n 
  14:../../../lib/pd2dsy/libdaisy/src/daisy_seed.h ****     All basic peripheral configuration/initialization is setup here. \n
  15:../../../lib/pd2dsy/libdaisy/src/daisy_seed.h **** 
  16:../../../lib/pd2dsy/libdaisy/src/daisy_seed.h ****    @ingroup boards
  17:../../../lib/pd2dsy/libdaisy/src/daisy_seed.h **** */
  18:../../../lib/pd2dsy/libdaisy/src/daisy_seed.h **** class DaisySeed
  19:../../../lib/pd2dsy/libdaisy/src/daisy_seed.h **** {
  20:../../../lib/pd2dsy/libdaisy/src/daisy_seed.h ****   public:
  21:../../../lib/pd2dsy/libdaisy/src/daisy_seed.h ****     DaisySeed() {}
  22:../../../lib/pd2dsy/libdaisy/src/daisy_seed.h ****     ~DaisySeed() {}
 178              		.loc 10 22 5 is_stmt 1 view .LVU30
 179              	.LBB463:
 180              	.LBI463:
 181              		.file 11 "../../../lib/pd2dsy/libdaisy/src/sys/system.h"
   1:../../../lib/pd2dsy/libdaisy/src/sys/system.h **** #ifndef DSY_SYSTEM_H
   2:../../../lib/pd2dsy/libdaisy/src/sys/system.h **** #define DSY_SYSTEM_H
   3:../../../lib/pd2dsy/libdaisy/src/sys/system.h **** 
   4:../../../lib/pd2dsy/libdaisy/src/sys/system.h **** #ifndef UNIT_TEST // for unit tests, a dummy implementation is provided below
   5:../../../lib/pd2dsy/libdaisy/src/sys/system.h **** 
   6:../../../lib/pd2dsy/libdaisy/src/sys/system.h **** #include <cstdint>
   7:../../../lib/pd2dsy/libdaisy/src/sys/system.h **** #include "per/tim.h"
   8:../../../lib/pd2dsy/libdaisy/src/sys/system.h **** 
   9:../../../lib/pd2dsy/libdaisy/src/sys/system.h **** namespace daisy
  10:../../../lib/pd2dsy/libdaisy/src/sys/system.h **** {
  11:../../../lib/pd2dsy/libdaisy/src/sys/system.h **** /** A handle for interacting with the Core System. 
  12:../../../lib/pd2dsy/libdaisy/src/sys/system.h ****  ** This includes the Clock tree, MPU, global DMA initialization,
  13:../../../lib/pd2dsy/libdaisy/src/sys/system.h ****  ** cache handling, and any other necessary global initiailzation
  14:../../../lib/pd2dsy/libdaisy/src/sys/system.h ****  **
  15:../../../lib/pd2dsy/libdaisy/src/sys/system.h ****  ** @author shensley
ARM GAS  /var/folders/fb/yfxt3z4538j6z0vjt03w70vc0000gn/T//ccrD3Rdr.s 			page 18


  16:../../../lib/pd2dsy/libdaisy/src/sys/system.h ****  ** @ingroup system
  17:../../../lib/pd2dsy/libdaisy/src/sys/system.h ****  */
  18:../../../lib/pd2dsy/libdaisy/src/sys/system.h **** class System
  19:../../../lib/pd2dsy/libdaisy/src/sys/system.h **** {
  20:../../../lib/pd2dsy/libdaisy/src/sys/system.h ****   public:
  21:../../../lib/pd2dsy/libdaisy/src/sys/system.h ****     /** Contains settings for initializing the System */
  22:../../../lib/pd2dsy/libdaisy/src/sys/system.h ****     struct Config
  23:../../../lib/pd2dsy/libdaisy/src/sys/system.h ****     {
  24:../../../lib/pd2dsy/libdaisy/src/sys/system.h ****         /** Specifies the system clock frequency that feeds APB/AHB clocks, etc. */
  25:../../../lib/pd2dsy/libdaisy/src/sys/system.h ****         enum class SysClkFreq
  26:../../../lib/pd2dsy/libdaisy/src/sys/system.h ****         {
  27:../../../lib/pd2dsy/libdaisy/src/sys/system.h ****             FREQ_400MHZ,
  28:../../../lib/pd2dsy/libdaisy/src/sys/system.h ****             FREQ_480MHZ,
  29:../../../lib/pd2dsy/libdaisy/src/sys/system.h ****         };
  30:../../../lib/pd2dsy/libdaisy/src/sys/system.h **** 
  31:../../../lib/pd2dsy/libdaisy/src/sys/system.h ****         /** Method to call on the struct to set to defaults
  32:../../../lib/pd2dsy/libdaisy/src/sys/system.h ****          ** CPU Freq set to 400MHz
  33:../../../lib/pd2dsy/libdaisy/src/sys/system.h ****          ** Cache Enabled 
  34:../../../lib/pd2dsy/libdaisy/src/sys/system.h ****          ** */
  35:../../../lib/pd2dsy/libdaisy/src/sys/system.h ****         void Defaults()
  36:../../../lib/pd2dsy/libdaisy/src/sys/system.h ****         {
  37:../../../lib/pd2dsy/libdaisy/src/sys/system.h ****             cpu_freq    = SysClkFreq::FREQ_400MHZ;
  38:../../../lib/pd2dsy/libdaisy/src/sys/system.h ****             use_dcache  = true;
  39:../../../lib/pd2dsy/libdaisy/src/sys/system.h ****             use_icache  = true;
  40:../../../lib/pd2dsy/libdaisy/src/sys/system.h ****             skip_clocks = false;
  41:../../../lib/pd2dsy/libdaisy/src/sys/system.h ****         }
  42:../../../lib/pd2dsy/libdaisy/src/sys/system.h **** 
  43:../../../lib/pd2dsy/libdaisy/src/sys/system.h ****         /** Method to call on the struct to set to boost mode:
  44:../../../lib/pd2dsy/libdaisy/src/sys/system.h ****          ** CPU Freq set to 480MHz
  45:../../../lib/pd2dsy/libdaisy/src/sys/system.h ****          ** Cache Enabled 
  46:../../../lib/pd2dsy/libdaisy/src/sys/system.h ****          ** */
  47:../../../lib/pd2dsy/libdaisy/src/sys/system.h ****         void Boost()
  48:../../../lib/pd2dsy/libdaisy/src/sys/system.h ****         {
  49:../../../lib/pd2dsy/libdaisy/src/sys/system.h ****             cpu_freq    = SysClkFreq::FREQ_480MHZ;
  50:../../../lib/pd2dsy/libdaisy/src/sys/system.h ****             use_dcache  = true;
  51:../../../lib/pd2dsy/libdaisy/src/sys/system.h ****             use_icache  = true;
  52:../../../lib/pd2dsy/libdaisy/src/sys/system.h ****             skip_clocks = false;
  53:../../../lib/pd2dsy/libdaisy/src/sys/system.h ****         }
  54:../../../lib/pd2dsy/libdaisy/src/sys/system.h **** 
  55:../../../lib/pd2dsy/libdaisy/src/sys/system.h ****         SysClkFreq cpu_freq;
  56:../../../lib/pd2dsy/libdaisy/src/sys/system.h ****         bool       use_dcache;
  57:../../../lib/pd2dsy/libdaisy/src/sys/system.h ****         bool       use_icache;
  58:../../../lib/pd2dsy/libdaisy/src/sys/system.h ****         bool       skip_clocks;
  59:../../../lib/pd2dsy/libdaisy/src/sys/system.h ****     };
  60:../../../lib/pd2dsy/libdaisy/src/sys/system.h **** 
  61:../../../lib/pd2dsy/libdaisy/src/sys/system.h ****     /** Describes the different regions of memory available to the Daisy
  62:../../../lib/pd2dsy/libdaisy/src/sys/system.h ****      * 
  63:../../../lib/pd2dsy/libdaisy/src/sys/system.h ****      */
  64:../../../lib/pd2dsy/libdaisy/src/sys/system.h ****     enum MemoryRegion
  65:../../../lib/pd2dsy/libdaisy/src/sys/system.h ****     {
  66:../../../lib/pd2dsy/libdaisy/src/sys/system.h ****         INTERNAL_FLASH = 0,
  67:../../../lib/pd2dsy/libdaisy/src/sys/system.h ****         ITCMRAM,
  68:../../../lib/pd2dsy/libdaisy/src/sys/system.h ****         DTCMRAM,
  69:../../../lib/pd2dsy/libdaisy/src/sys/system.h ****         SRAM_D1,
  70:../../../lib/pd2dsy/libdaisy/src/sys/system.h ****         SRAM_D2,
  71:../../../lib/pd2dsy/libdaisy/src/sys/system.h ****         SRAM_D3,
  72:../../../lib/pd2dsy/libdaisy/src/sys/system.h ****         SDRAM,
ARM GAS  /var/folders/fb/yfxt3z4538j6z0vjt03w70vc0000gn/T//ccrD3Rdr.s 			page 19


  73:../../../lib/pd2dsy/libdaisy/src/sys/system.h ****         QSPI,
  74:../../../lib/pd2dsy/libdaisy/src/sys/system.h ****         INVALID_ADDRESS,
  75:../../../lib/pd2dsy/libdaisy/src/sys/system.h ****     };
  76:../../../lib/pd2dsy/libdaisy/src/sys/system.h **** 
  77:../../../lib/pd2dsy/libdaisy/src/sys/system.h ****     System() {}
  78:../../../lib/pd2dsy/libdaisy/src/sys/system.h ****     ~System() {}
 182              		.loc 11 78 5 view .LVU31
 183              		.loc 11 78 5 is_stmt 0 view .LVU32
 184              	.LBE463:
 185              	.LBB464:
 186              	.LBI464:
 187              		.file 12 "../../../lib/pd2dsy/libdaisy/src/hid/usb.h"
   1:../../../lib/pd2dsy/libdaisy/src/hid/usb.h **** #pragma once
   2:../../../lib/pd2dsy/libdaisy/src/hid/usb.h **** #ifndef DSY_HID_USB_H
   3:../../../lib/pd2dsy/libdaisy/src/hid/usb.h **** #define DSY_HID_USB_H
   4:../../../lib/pd2dsy/libdaisy/src/hid/usb.h **** #include <stdint.h>
   5:../../../lib/pd2dsy/libdaisy/src/hid/usb.h **** #include <stdlib.h>
   6:../../../lib/pd2dsy/libdaisy/src/hid/usb.h **** 
   7:../../../lib/pd2dsy/libdaisy/src/hid/usb.h **** namespace daisy
   8:../../../lib/pd2dsy/libdaisy/src/hid/usb.h **** /** @addtogroup human_interface
   9:../../../lib/pd2dsy/libdaisy/src/hid/usb.h ****     @{
  10:../../../lib/pd2dsy/libdaisy/src/hid/usb.h **** */
  11:../../../lib/pd2dsy/libdaisy/src/hid/usb.h **** 
  12:../../../lib/pd2dsy/libdaisy/src/hid/usb.h **** {
  13:../../../lib/pd2dsy/libdaisy/src/hid/usb.h **** /** 
  14:../../../lib/pd2dsy/libdaisy/src/hid/usb.h ****     @brief Interface for initializing and using the USB Peripherals on the daisy
  15:../../../lib/pd2dsy/libdaisy/src/hid/usb.h ****     @author Stephen Hensley
  16:../../../lib/pd2dsy/libdaisy/src/hid/usb.h ****     @date December 2019
  17:../../../lib/pd2dsy/libdaisy/src/hid/usb.h **** */
  18:../../../lib/pd2dsy/libdaisy/src/hid/usb.h **** class UsbHandle
  19:../../../lib/pd2dsy/libdaisy/src/hid/usb.h **** {
  20:../../../lib/pd2dsy/libdaisy/src/hid/usb.h ****   public:
  21:../../../lib/pd2dsy/libdaisy/src/hid/usb.h ****     /** Return values for USBHandle Functions */
  22:../../../lib/pd2dsy/libdaisy/src/hid/usb.h ****     enum class Result
  23:../../../lib/pd2dsy/libdaisy/src/hid/usb.h ****     {
  24:../../../lib/pd2dsy/libdaisy/src/hid/usb.h ****         OK,
  25:../../../lib/pd2dsy/libdaisy/src/hid/usb.h ****         ERR,
  26:../../../lib/pd2dsy/libdaisy/src/hid/usb.h ****     };
  27:../../../lib/pd2dsy/libdaisy/src/hid/usb.h **** 
  28:../../../lib/pd2dsy/libdaisy/src/hid/usb.h ****     /** Specified which of the two USB Peripherals to initialize. */
  29:../../../lib/pd2dsy/libdaisy/src/hid/usb.h ****     enum UsbPeriph
  30:../../../lib/pd2dsy/libdaisy/src/hid/usb.h ****     {
  31:../../../lib/pd2dsy/libdaisy/src/hid/usb.h ****         FS_INTERNAL, /**< Internal pin */
  32:../../../lib/pd2dsy/libdaisy/src/hid/usb.h ****         FS_EXTERNAL, /**< FS External D+ pin is Pin 38 (GPIO32). FS External D- pin is Pin 37 (GPIO
  33:../../../lib/pd2dsy/libdaisy/src/hid/usb.h ****         FS_BOTH,     /**< Both */
  34:../../../lib/pd2dsy/libdaisy/src/hid/usb.h ****     };
  35:../../../lib/pd2dsy/libdaisy/src/hid/usb.h **** 
  36:../../../lib/pd2dsy/libdaisy/src/hid/usb.h **** 
  37:../../../lib/pd2dsy/libdaisy/src/hid/usb.h ****     /** Function called upon reception of a buffer */
  38:../../../lib/pd2dsy/libdaisy/src/hid/usb.h ****     typedef void (*ReceiveCallback)(uint8_t* buff, uint32_t* len);
  39:../../../lib/pd2dsy/libdaisy/src/hid/usb.h **** 
  40:../../../lib/pd2dsy/libdaisy/src/hid/usb.h ****     UsbHandle() {}
  41:../../../lib/pd2dsy/libdaisy/src/hid/usb.h **** 
  42:../../../lib/pd2dsy/libdaisy/src/hid/usb.h ****     ~UsbHandle() {}
 188              		.loc 12 42 5 is_stmt 1 view .LVU33
 189              		.loc 12 42 5 is_stmt 0 view .LVU34
 190              	.LBE464:
ARM GAS  /var/folders/fb/yfxt3z4538j6z0vjt03w70vc0000gn/T//ccrD3Rdr.s 			page 20


 191              	.LBB465:
 192              	.LBI465:
 193              		.file 13 "../../../lib/pd2dsy/libdaisy/src/per/adc.h"
   1:../../../lib/pd2dsy/libdaisy/src/per/adc.h **** #pragma once
   2:../../../lib/pd2dsy/libdaisy/src/per/adc.h **** #ifndef DSY_ADC_H
   3:../../../lib/pd2dsy/libdaisy/src/per/adc.h **** #define DSY_ADC_H /**< Macro */
   4:../../../lib/pd2dsy/libdaisy/src/per/adc.h **** #include <stdint.h>
   5:../../../lib/pd2dsy/libdaisy/src/per/adc.h **** #include <stdlib.h>
   6:../../../lib/pd2dsy/libdaisy/src/per/adc.h **** #include "daisy_core.h"
   7:../../../lib/pd2dsy/libdaisy/src/per/adc.h **** #include "per/gpio.h"
   8:../../../lib/pd2dsy/libdaisy/src/per/adc.h **** 
   9:../../../lib/pd2dsy/libdaisy/src/per/adc.h **** #define DSY_ADC_MAX_CHANNELS 16 /**< Maximum number of ADC channels */
  10:../../../lib/pd2dsy/libdaisy/src/per/adc.h **** 
  11:../../../lib/pd2dsy/libdaisy/src/per/adc.h **** namespace daisy
  12:../../../lib/pd2dsy/libdaisy/src/per/adc.h **** {
  13:../../../lib/pd2dsy/libdaisy/src/per/adc.h **** /** @addtogroup per_analog
  14:../../../lib/pd2dsy/libdaisy/src/per/adc.h ****     @{
  15:../../../lib/pd2dsy/libdaisy/src/per/adc.h **** */
  16:../../../lib/pd2dsy/libdaisy/src/per/adc.h **** 
  17:../../../lib/pd2dsy/libdaisy/src/per/adc.h **** /* While there may not be many configuration options here,
  18:../../../lib/pd2dsy/libdaisy/src/per/adc.h **** using a struct like this allows us to add more configuration
  19:../../../lib/pd2dsy/libdaisy/src/per/adc.h **** later without breaking existing functionality.
  20:../../../lib/pd2dsy/libdaisy/src/per/adc.h **** */
  21:../../../lib/pd2dsy/libdaisy/src/per/adc.h **** 
  22:../../../lib/pd2dsy/libdaisy/src/per/adc.h **** /** @brief   Configuration Structure for an ADC Channel 
  23:../../../lib/pd2dsy/libdaisy/src/per/adc.h ****  *  @details This can be used to configure a a single input, 
  24:../../../lib/pd2dsy/libdaisy/src/per/adc.h ****  *           or a multiplexed input, allowing up to 8 inputs on 
  25:../../../lib/pd2dsy/libdaisy/src/per/adc.h ****  *           one channel.
  26:../../../lib/pd2dsy/libdaisy/src/per/adc.h ****  *  @note    Sharing data lines to multiple muxes _is_ possible, but
  27:../../../lib/pd2dsy/libdaisy/src/per/adc.h ****  *           each channel sharing data lines must be set to the maximum
  28:../../../lib/pd2dsy/libdaisy/src/per/adc.h ****  *           number of channels, even if some multiplexers have fewer
  29:../../../lib/pd2dsy/libdaisy/src/per/adc.h ****  *           inputs connected.
  30:../../../lib/pd2dsy/libdaisy/src/per/adc.h **** */
  31:../../../lib/pd2dsy/libdaisy/src/per/adc.h **** struct AdcChannelConfig
  32:../../../lib/pd2dsy/libdaisy/src/per/adc.h **** {
  33:../../../lib/pd2dsy/libdaisy/src/per/adc.h ****     /** Which pin to use for multiplexing */
  34:../../../lib/pd2dsy/libdaisy/src/per/adc.h ****     enum MuxPin
  35:../../../lib/pd2dsy/libdaisy/src/per/adc.h ****     {
  36:../../../lib/pd2dsy/libdaisy/src/per/adc.h ****         MUX_SEL_0,    /**< & */
  37:../../../lib/pd2dsy/libdaisy/src/per/adc.h ****         MUX_SEL_1,    /**< & */
  38:../../../lib/pd2dsy/libdaisy/src/per/adc.h ****         MUX_SEL_2,    /**< & */
  39:../../../lib/pd2dsy/libdaisy/src/per/adc.h ****         MUX_SEL_LAST, /**< & */
  40:../../../lib/pd2dsy/libdaisy/src/per/adc.h ****     };
  41:../../../lib/pd2dsy/libdaisy/src/per/adc.h **** 
  42:../../../lib/pd2dsy/libdaisy/src/per/adc.h ****     /** Initializes a single ADC pin as an ADC. 
  43:../../../lib/pd2dsy/libdaisy/src/per/adc.h ****     \param pin Pin to init.
  44:../../../lib/pd2dsy/libdaisy/src/per/adc.h ****      */
  45:../../../lib/pd2dsy/libdaisy/src/per/adc.h ****     void InitSingle(dsy_gpio_pin pin);
  46:../../../lib/pd2dsy/libdaisy/src/per/adc.h **** 
  47:../../../lib/pd2dsy/libdaisy/src/per/adc.h ****     /** 
  48:../../../lib/pd2dsy/libdaisy/src/per/adc.h ****     Initializes a single ADC pin as a Multiplexed ADC.
  49:../../../lib/pd2dsy/libdaisy/src/per/adc.h ****     Requires a CD405X Multiplexer connected to the pin.
  50:../../../lib/pd2dsy/libdaisy/src/per/adc.h ****     You only need to supply the mux pins that are required,
  51:../../../lib/pd2dsy/libdaisy/src/per/adc.h ****     e.g. a 4052 mux would only require mux_0 and mux_1.
  52:../../../lib/pd2dsy/libdaisy/src/per/adc.h ****     Internal Callbacks handle the pin addressing.
  53:../../../lib/pd2dsy/libdaisy/src/per/adc.h ****     \param mux_channels must be 1-8
  54:../../../lib/pd2dsy/libdaisy/src/per/adc.h ****     \param mux_0 First mux pin
ARM GAS  /var/folders/fb/yfxt3z4538j6z0vjt03w70vc0000gn/T//ccrD3Rdr.s 			page 21


  55:../../../lib/pd2dsy/libdaisy/src/per/adc.h ****     \param mux_1 Second mux pin
  56:../../../lib/pd2dsy/libdaisy/src/per/adc.h ****     \param mux_2 Third mux pin
  57:../../../lib/pd2dsy/libdaisy/src/per/adc.h ****     \param adc_pin &
  58:../../../lib/pd2dsy/libdaisy/src/per/adc.h ****     */
  59:../../../lib/pd2dsy/libdaisy/src/per/adc.h ****     void InitMux(dsy_gpio_pin adc_pin,
  60:../../../lib/pd2dsy/libdaisy/src/per/adc.h ****                  size_t       mux_channels,
  61:../../../lib/pd2dsy/libdaisy/src/per/adc.h ****                  dsy_gpio_pin mux_0,
  62:../../../lib/pd2dsy/libdaisy/src/per/adc.h ****                  dsy_gpio_pin mux_1 = {DSY_GPIOX, 0},
  63:../../../lib/pd2dsy/libdaisy/src/per/adc.h ****                  dsy_gpio_pin mux_2 = {DSY_GPIOX, 0});
  64:../../../lib/pd2dsy/libdaisy/src/per/adc.h **** 
  65:../../../lib/pd2dsy/libdaisy/src/per/adc.h ****     dsy_gpio pin_;                   /**< & */
  66:../../../lib/pd2dsy/libdaisy/src/per/adc.h ****     dsy_gpio mux_pin_[MUX_SEL_LAST]; /**< & */
  67:../../../lib/pd2dsy/libdaisy/src/per/adc.h ****     uint8_t  mux_channels_;          /**< & */
  68:../../../lib/pd2dsy/libdaisy/src/per/adc.h **** };
  69:../../../lib/pd2dsy/libdaisy/src/per/adc.h **** 
  70:../../../lib/pd2dsy/libdaisy/src/per/adc.h **** /**
  71:../../../lib/pd2dsy/libdaisy/src/per/adc.h ****    @brief Handler for analog to digital conversion
  72:../../../lib/pd2dsy/libdaisy/src/per/adc.h **** */
  73:../../../lib/pd2dsy/libdaisy/src/per/adc.h **** class AdcHandle
  74:../../../lib/pd2dsy/libdaisy/src/per/adc.h **** {
  75:../../../lib/pd2dsy/libdaisy/src/per/adc.h ****   public:
  76:../../../lib/pd2dsy/libdaisy/src/per/adc.h ****     /** Supported oversampling amounts */
  77:../../../lib/pd2dsy/libdaisy/src/per/adc.h ****     enum OverSampling
  78:../../../lib/pd2dsy/libdaisy/src/per/adc.h ****     {
  79:../../../lib/pd2dsy/libdaisy/src/per/adc.h ****         OVS_NONE, /**< & */
  80:../../../lib/pd2dsy/libdaisy/src/per/adc.h ****         OVS_4,    /**< & */
  81:../../../lib/pd2dsy/libdaisy/src/per/adc.h ****         OVS_8,    /**< & */
  82:../../../lib/pd2dsy/libdaisy/src/per/adc.h ****         OVS_16,   /**< & */
  83:../../../lib/pd2dsy/libdaisy/src/per/adc.h ****         OVS_32,   /**< & */
  84:../../../lib/pd2dsy/libdaisy/src/per/adc.h ****         OVS_64,   /**< & */
  85:../../../lib/pd2dsy/libdaisy/src/per/adc.h ****         OVS_128,  /**< & */
  86:../../../lib/pd2dsy/libdaisy/src/per/adc.h ****         OVS_256,  /**< & */
  87:../../../lib/pd2dsy/libdaisy/src/per/adc.h ****         OVS_512,  /**< & */
  88:../../../lib/pd2dsy/libdaisy/src/per/adc.h ****         OVS_1024, /**< & */
  89:../../../lib/pd2dsy/libdaisy/src/per/adc.h ****         OVS_LAST, /**< & */
  90:../../../lib/pd2dsy/libdaisy/src/per/adc.h ****     };
  91:../../../lib/pd2dsy/libdaisy/src/per/adc.h **** 
  92:../../../lib/pd2dsy/libdaisy/src/per/adc.h ****     AdcHandle() {}
  93:../../../lib/pd2dsy/libdaisy/src/per/adc.h ****     ~AdcHandle() {}
 194              		.loc 13 93 5 is_stmt 1 view .LVU35
 195              		.loc 13 93 5 is_stmt 0 view .LVU36
 196              	.LBE465:
 197              	.LBB466:
 198              	.LBI466:
 199              		.file 14 "../../../lib/pd2dsy/libdaisy/src/hid/audio.h"
   1:../../../lib/pd2dsy/libdaisy/src/hid/audio.h **** #ifndef DSY_AUDIO_H
   2:../../../lib/pd2dsy/libdaisy/src/hid/audio.h **** #define DSY_AUDIO_H /**< & */
   3:../../../lib/pd2dsy/libdaisy/src/hid/audio.h **** 
   4:../../../lib/pd2dsy/libdaisy/src/hid/audio.h **** #include "per/sai.h"
   5:../../../lib/pd2dsy/libdaisy/src/hid/audio.h **** 
   6:../../../lib/pd2dsy/libdaisy/src/hid/audio.h **** namespace daisy
   7:../../../lib/pd2dsy/libdaisy/src/hid/audio.h **** {
   8:../../../lib/pd2dsy/libdaisy/src/hid/audio.h **** /** @brief Audio Engine Handle
   9:../../../lib/pd2dsy/libdaisy/src/hid/audio.h ****  *  @ingroup audio 
  10:../../../lib/pd2dsy/libdaisy/src/hid/audio.h ****  *  @details This class allows for higher level access to an audio engine.
  11:../../../lib/pd2dsy/libdaisy/src/hid/audio.h ****  *           If you're using a SOM like the DaisySeed or DaisyPatchSM (or any 
  12:../../../lib/pd2dsy/libdaisy/src/hid/audio.h ****  *            board that includes one of those objects) then the intialization
ARM GAS  /var/folders/fb/yfxt3z4538j6z0vjt03w70vc0000gn/T//ccrD3Rdr.s 			page 22


  13:../../../lib/pd2dsy/libdaisy/src/hid/audio.h ****  *            is already taken  care of.
  14:../../../lib/pd2dsy/libdaisy/src/hid/audio.h ****  *           If you're setting up your own custom hardware, or need to make changes
  15:../../../lib/pd2dsy/libdaisy/src/hid/audio.h ****  *           you will have to take the following steps:
  16:../../../lib/pd2dsy/libdaisy/src/hid/audio.h ****  *             1. Create and Initialize an SaiHandle or two depending on your requirements
  17:../../../lib/pd2dsy/libdaisy/src/hid/audio.h ****  *             2. Initialize the Audio Handle with the desired settings and the Initialized SaiHand
  18:../../../lib/pd2dsy/libdaisy/src/hid/audio.h ****  *             3. If the connected codec requires special configuration or initialization, do so
  19:../../../lib/pd2dsy/libdaisy/src/hid/audio.h ****  *             4. Write a callback method using either the AudioCallback or the InterleavingAudioCa
  20:../../../lib/pd2dsy/libdaisy/src/hid/audio.h ****  *             5. Start the Audio using one of the StartAudio function
  21:../../../lib/pd2dsy/libdaisy/src/hid/audio.h ****  */
  22:../../../lib/pd2dsy/libdaisy/src/hid/audio.h **** class AudioHandle
  23:../../../lib/pd2dsy/libdaisy/src/hid/audio.h **** {
  24:../../../lib/pd2dsy/libdaisy/src/hid/audio.h ****   public:
  25:../../../lib/pd2dsy/libdaisy/src/hid/audio.h ****     /** Manually configurable details about the Audio Engine */
  26:../../../lib/pd2dsy/libdaisy/src/hid/audio.h ****     /** TODO: Figure out how to get samplerate in here. */
  27:../../../lib/pd2dsy/libdaisy/src/hid/audio.h ****     struct Config
  28:../../../lib/pd2dsy/libdaisy/src/hid/audio.h ****     {
  29:../../../lib/pd2dsy/libdaisy/src/hid/audio.h ****         /** number of samples to process per callback */
  30:../../../lib/pd2dsy/libdaisy/src/hid/audio.h ****         size_t blocksize;
  31:../../../lib/pd2dsy/libdaisy/src/hid/audio.h **** 
  32:../../../lib/pd2dsy/libdaisy/src/hid/audio.h ****         /**< Sample rate of audio */
  33:../../../lib/pd2dsy/libdaisy/src/hid/audio.h ****         SaiHandle::Config::SampleRate samplerate;
  34:../../../lib/pd2dsy/libdaisy/src/hid/audio.h **** 
  35:../../../lib/pd2dsy/libdaisy/src/hid/audio.h ****         /** factor for adjustment before and after callback for hardware that may have extra headro
  36:../../../lib/pd2dsy/libdaisy/src/hid/audio.h ****         float postgain;
  37:../../../lib/pd2dsy/libdaisy/src/hid/audio.h **** 
  38:../../../lib/pd2dsy/libdaisy/src/hid/audio.h ****         /** factor for additional one-sided compensation to audio path for hardware that may
  39:../../../lib/pd2dsy/libdaisy/src/hid/audio.h ****          *  have unequal input/output ranges
  40:../../../lib/pd2dsy/libdaisy/src/hid/audio.h ****          */
  41:../../../lib/pd2dsy/libdaisy/src/hid/audio.h ****         float output_compensation;
  42:../../../lib/pd2dsy/libdaisy/src/hid/audio.h **** 
  43:../../../lib/pd2dsy/libdaisy/src/hid/audio.h ****         /** Sets default values for config struct */
  44:../../../lib/pd2dsy/libdaisy/src/hid/audio.h ****         Config()
  45:../../../lib/pd2dsy/libdaisy/src/hid/audio.h ****         : blocksize(48),
  46:../../../lib/pd2dsy/libdaisy/src/hid/audio.h ****           samplerate(SaiHandle::Config::SampleRate::SAI_48KHZ),
  47:../../../lib/pd2dsy/libdaisy/src/hid/audio.h ****           postgain(1.f),
  48:../../../lib/pd2dsy/libdaisy/src/hid/audio.h ****           output_compensation(1.f)
  49:../../../lib/pd2dsy/libdaisy/src/hid/audio.h ****         {
  50:../../../lib/pd2dsy/libdaisy/src/hid/audio.h ****         }
  51:../../../lib/pd2dsy/libdaisy/src/hid/audio.h ****     };
  52:../../../lib/pd2dsy/libdaisy/src/hid/audio.h **** 
  53:../../../lib/pd2dsy/libdaisy/src/hid/audio.h ****     enum class Result
  54:../../../lib/pd2dsy/libdaisy/src/hid/audio.h ****     {
  55:../../../lib/pd2dsy/libdaisy/src/hid/audio.h ****         OK,
  56:../../../lib/pd2dsy/libdaisy/src/hid/audio.h ****         ERR,
  57:../../../lib/pd2dsy/libdaisy/src/hid/audio.h ****     };
  58:../../../lib/pd2dsy/libdaisy/src/hid/audio.h **** 
  59:../../../lib/pd2dsy/libdaisy/src/hid/audio.h ****     /** Non-Interleaving input buffer
  60:../../../lib/pd2dsy/libdaisy/src/hid/audio.h ****      * Buffer arranged by float[chn][sample] 
  61:../../../lib/pd2dsy/libdaisy/src/hid/audio.h ****      * const so that the user can't modify the input
  62:../../../lib/pd2dsy/libdaisy/src/hid/audio.h ****      */
  63:../../../lib/pd2dsy/libdaisy/src/hid/audio.h ****     typedef const float* const* InputBuffer;
  64:../../../lib/pd2dsy/libdaisy/src/hid/audio.h **** 
  65:../../../lib/pd2dsy/libdaisy/src/hid/audio.h ****     /** Non-Interleaving output buffer
  66:../../../lib/pd2dsy/libdaisy/src/hid/audio.h ****      * Arranged by float[chn][sample] 
  67:../../../lib/pd2dsy/libdaisy/src/hid/audio.h ****      */
  68:../../../lib/pd2dsy/libdaisy/src/hid/audio.h ****     typedef float** OutputBuffer;
  69:../../../lib/pd2dsy/libdaisy/src/hid/audio.h **** 
ARM GAS  /var/folders/fb/yfxt3z4538j6z0vjt03w70vc0000gn/T//ccrD3Rdr.s 			page 23


  70:../../../lib/pd2dsy/libdaisy/src/hid/audio.h ****     /** Type for a Non-Interleaving audio callback 
  71:../../../lib/pd2dsy/libdaisy/src/hid/audio.h ****      * Non-Interleaving audio callbacks in daisy will be of this type
  72:../../../lib/pd2dsy/libdaisy/src/hid/audio.h ****      */
  73:../../../lib/pd2dsy/libdaisy/src/hid/audio.h ****     typedef void (*AudioCallback)(InputBuffer  in,
  74:../../../lib/pd2dsy/libdaisy/src/hid/audio.h ****                                   OutputBuffer out,
  75:../../../lib/pd2dsy/libdaisy/src/hid/audio.h ****                                   size_t       size);
  76:../../../lib/pd2dsy/libdaisy/src/hid/audio.h **** 
  77:../../../lib/pd2dsy/libdaisy/src/hid/audio.h ****     /** Interleaving Input buffer
  78:../../../lib/pd2dsy/libdaisy/src/hid/audio.h ****      ** audio is prepared as { L0, R0, L1, R1, . . . LN, RN }]
  79:../../../lib/pd2dsy/libdaisy/src/hid/audio.h ****      ** this is const, as the user shouldn't modify it
  80:../../../lib/pd2dsy/libdaisy/src/hid/audio.h ****     */
  81:../../../lib/pd2dsy/libdaisy/src/hid/audio.h ****     typedef const float* InterleavingInputBuffer;
  82:../../../lib/pd2dsy/libdaisy/src/hid/audio.h **** 
  83:../../../lib/pd2dsy/libdaisy/src/hid/audio.h ****     /** Interleaving Output buffer 
  84:../../../lib/pd2dsy/libdaisy/src/hid/audio.h ****      ** audio is prepared as { L0, R0, L1, R1, . . . LN, RN }
  85:../../../lib/pd2dsy/libdaisy/src/hid/audio.h ****     */
  86:../../../lib/pd2dsy/libdaisy/src/hid/audio.h ****     typedef float* InterleavingOutputBuffer;
  87:../../../lib/pd2dsy/libdaisy/src/hid/audio.h **** 
  88:../../../lib/pd2dsy/libdaisy/src/hid/audio.h ****     /** Interleaving Audio Callback 
  89:../../../lib/pd2dsy/libdaisy/src/hid/audio.h ****      * Interleaving audio callbacks in daisy must be of this type
  90:../../../lib/pd2dsy/libdaisy/src/hid/audio.h ****      */
  91:../../../lib/pd2dsy/libdaisy/src/hid/audio.h ****     typedef void (*InterleavingAudioCallback)(InterleavingInputBuffer  in,
  92:../../../lib/pd2dsy/libdaisy/src/hid/audio.h ****                                               InterleavingOutputBuffer out,
  93:../../../lib/pd2dsy/libdaisy/src/hid/audio.h ****                                               size_t                   size);
  94:../../../lib/pd2dsy/libdaisy/src/hid/audio.h **** 
  95:../../../lib/pd2dsy/libdaisy/src/hid/audio.h ****     AudioHandle() : pimpl_(nullptr) {}
  96:../../../lib/pd2dsy/libdaisy/src/hid/audio.h ****     ~AudioHandle() {}
 200              		.loc 14 96 5 is_stmt 1 view .LVU37
 201              		.loc 14 96 5 is_stmt 0 view .LVU38
 202              	.LBE466:
 203              	.LBE462:
 204              		.loc 5 39 8 view .LVU39
 205 0000 7047     		bx	lr
 206              		.cfi_endproc
 207              	.LFE3071:
 209              		.weak	_ZN10json2daisy8DaisyPodD1Ev
 210              		.thumb_set _ZN10json2daisy8DaisyPodD1Ev,_ZN10json2daisy8DaisyPodD2Ev
 211 0002 00BF     		.section	.text._ZNK5daisy11OledDisplayINS_13SSD130xDriverILj128ELj64ENS_24SSD130x4WireSpiTransport
 212              		.align	1
 213              		.p2align 2,,3
 214              		.weak	_ZNK5daisy11OledDisplayINS_13SSD130xDriverILj128ELj64ENS_24SSD130x4WireSpiTransportEEEE6Heig
 215              		.syntax unified
 216              		.thumb
 217              		.thumb_func
 219              	_ZNK5daisy11OledDisplayINS_13SSD130xDriverILj128ELj64ENS_24SSD130x4WireSpiTransportEEEE6HeightEv:
 220              	.LVL7:
 221              	.LFB3073:
  27:../../../lib/pd2dsy/libdaisy/src/hid/disp/oled_display.h ****     uint16_t Width() const override { return driver_.Width(); }
 222              		.loc 2 27 14 is_stmt 1 view -0
 223              		.cfi_startproc
 224              		@ args = 0, pretend = 0, frame = 0
 225              		@ frame_needed = 0, uses_anonymous_args = 0
 226              		@ link register save eliminated.
  27:../../../lib/pd2dsy/libdaisy/src/hid/disp/oled_display.h ****     uint16_t Width() const override { return driver_.Width(); }
 227              		.loc 2 27 65 is_stmt 0 view .LVU41
 228 0000 4020     		movs	r0, #64
 229              	.LVL8:
ARM GAS  /var/folders/fb/yfxt3z4538j6z0vjt03w70vc0000gn/T//ccrD3Rdr.s 			page 24


  27:../../../lib/pd2dsy/libdaisy/src/hid/disp/oled_display.h ****     uint16_t Width() const override { return driver_.Width(); }
 230              		.loc 2 27 65 view .LVU42
 231 0002 7047     		bx	lr
 232              		.cfi_endproc
 233              	.LFE3073:
 235              		.section	.text._ZNK5daisy11OledDisplayINS_13SSD130xDriverILj128ELj64ENS_24SSD130x4WireSpiTransport
 236              		.align	1
 237              		.p2align 2,,3
 238              		.weak	_ZNK5daisy11OledDisplayINS_13SSD130xDriverILj128ELj64ENS_24SSD130x4WireSpiTransportEEEE5Widt
 239              		.syntax unified
 240              		.thumb
 241              		.thumb_func
 243              	_ZNK5daisy11OledDisplayINS_13SSD130xDriverILj128ELj64ENS_24SSD130x4WireSpiTransportEEEE5WidthEv:
 244              	.LVL9:
 245              	.LFB3074:
  28:../../../lib/pd2dsy/libdaisy/src/hid/disp/oled_display.h **** 
 246              		.loc 2 28 14 is_stmt 1 view -0
 247              		.cfi_startproc
 248              		@ args = 0, pretend = 0, frame = 0
 249              		@ frame_needed = 0, uses_anonymous_args = 0
 250              		@ link register save eliminated.
  28:../../../lib/pd2dsy/libdaisy/src/hid/disp/oled_display.h **** 
 251              		.loc 2 28 63 is_stmt 0 view .LVU44
 252 0000 8020     		movs	r0, #128
 253              	.LVL10:
  28:../../../lib/pd2dsy/libdaisy/src/hid/disp/oled_display.h **** 
 254              		.loc 2 28 63 view .LVU45
 255 0002 7047     		bx	lr
 256              		.cfi_endproc
 257              	.LFE3074:
 259              		.section	.text._ZN5daisy11OledDisplayINS_13SSD130xDriverILj128ELj64ENS_24SSD130x4WireSpiTransportE
 260              		.align	1
 261              		.p2align 2,,3
 262              		.weak	_ZN5daisy11OledDisplayINS_13SSD130xDriverILj128ELj64ENS_24SSD130x4WireSpiTransportEEEED0Ev
 263              		.syntax unified
 264              		.thumb
 265              		.thumb_func
 267              	_ZN5daisy11OledDisplayINS_13SSD130xDriverILj128ELj64ENS_24SSD130x4WireSpiTransportEEEED0Ev:
 268              	.LVL11:
 269              	.LFB3053:
  18:../../../lib/pd2dsy/libdaisy/src/hid/disp/oled_display.h **** 
 270              		.loc 2 18 13 is_stmt 1 view -0
 271              		.cfi_startproc
 272              		@ args = 0, pretend = 0, frame = 0
 273              		@ frame_needed = 0, uses_anonymous_args = 0
  18:../../../lib/pd2dsy/libdaisy/src/hid/disp/oled_display.h **** 
 274              		.loc 2 18 13 is_stmt 0 view .LVU47
 275 0000 10B5     		push	{r4, lr}
 276              		.cfi_def_cfa_offset 8
 277              		.cfi_offset 4, -8
 278              		.cfi_offset 14, -4
  18:../../../lib/pd2dsy/libdaisy/src/hid/disp/oled_display.h **** 
 279              		.loc 2 18 13 view .LVU48
 280 0002 0446     		mov	r4, r0
 281              	.LVL12:
 282              	.LBB467:
 283              	.LBI467:
ARM GAS  /var/folders/fb/yfxt3z4538j6z0vjt03w70vc0000gn/T//ccrD3Rdr.s 			page 25


  18:../../../lib/pd2dsy/libdaisy/src/hid/disp/oled_display.h **** 
 284              		.loc 2 18 13 is_stmt 1 view .LVU49
 285              	.LBB468:
 286              	.LBI468:
 287              		.loc 4 219 13 view .LVU50
 288              	.LBB469:
 289              	.LBI469:
  23:../../../lib/pd2dsy/libdaisy/src/hid/disp/display.h **** 
 290              		.loc 4 23 13 view .LVU51
  23:../../../lib/pd2dsy/libdaisy/src/hid/disp/display.h **** 
 291              		.loc 4 23 13 is_stmt 0 view .LVU52
 292              	.LBE469:
 293              	.LBE468:
 294              	.LBE467:
  18:../../../lib/pd2dsy/libdaisy/src/hid/disp/oled_display.h **** 
 295              		.loc 2 18 29 view .LVU53
 296 0004 40F21441 		movw	r1, #1044
 297 0008 FFF7FEFF 		bl	_ZdlPvj
 298              	.LVL13:
  18:../../../lib/pd2dsy/libdaisy/src/hid/disp/oled_display.h **** 
 299              		.loc 2 18 29 view .LVU54
 300 000c 2046     		mov	r0, r4
 301 000e 10BD     		pop	{r4, pc}
  18:../../../lib/pd2dsy/libdaisy/src/hid/disp/oled_display.h **** 
 302              		.loc 2 18 29 view .LVU55
 303              		.cfi_endproc
 304              	.LFE3053:
 306              		.section	.text._ZN5daisy11OledDisplayINS_13SSD130xDriverILj128ELj64ENS_24SSD130x4WireSpiTransportE
 307              		.align	1
 308              		.p2align 2,,3
 309              		.weak	_ZN5daisy11OledDisplayINS_13SSD130xDriverILj128ELj64ENS_24SSD130x4WireSpiTransportEEEE6Updat
 310              		.syntax unified
 311              		.thumb
 312              		.thumb_func
 314              	_ZN5daisy11OledDisplayINS_13SSD130xDriverILj128ELj64ENS_24SSD130x4WireSpiTransportEEEE6UpdateEv:
 315              	.LVL14:
 316              	.LFB3040:
  35:../../../lib/pd2dsy/libdaisy/src/hid/disp/oled_display.h **** 
  36:../../../lib/pd2dsy/libdaisy/src/hid/disp/oled_display.h ****     /**
  37:../../../lib/pd2dsy/libdaisy/src/hid/disp/oled_display.h ****     Sets the pixel at the specified coordinate to be on/off.
  38:../../../lib/pd2dsy/libdaisy/src/hid/disp/oled_display.h ****     \param x   x Coordinate
  39:../../../lib/pd2dsy/libdaisy/src/hid/disp/oled_display.h ****     \param y   y coordinate
  40:../../../lib/pd2dsy/libdaisy/src/hid/disp/oled_display.h ****     \param on  on or off
  41:../../../lib/pd2dsy/libdaisy/src/hid/disp/oled_display.h ****     */
  42:../../../lib/pd2dsy/libdaisy/src/hid/disp/oled_display.h ****     void DrawPixel(uint_fast8_t x, uint_fast8_t y, bool on) override
  43:../../../lib/pd2dsy/libdaisy/src/hid/disp/oled_display.h ****     {
  44:../../../lib/pd2dsy/libdaisy/src/hid/disp/oled_display.h ****         driver_.DrawPixel(x, y, on);
  45:../../../lib/pd2dsy/libdaisy/src/hid/disp/oled_display.h ****     }
  46:../../../lib/pd2dsy/libdaisy/src/hid/disp/oled_display.h **** 
  47:../../../lib/pd2dsy/libdaisy/src/hid/disp/oled_display.h ****     /** 
  48:../../../lib/pd2dsy/libdaisy/src/hid/disp/oled_display.h ****     Writes the current display buffer to the OLED device using SPI or I2C depending on 
  49:../../../lib/pd2dsy/libdaisy/src/hid/disp/oled_display.h ****     how the object was initialized.
  50:../../../lib/pd2dsy/libdaisy/src/hid/disp/oled_display.h ****     */
  51:../../../lib/pd2dsy/libdaisy/src/hid/disp/oled_display.h ****     void Update() override { driver_.Update(); }
 317              		.loc 2 51 10 is_stmt 1 view -0
 318              		.cfi_startproc
 319              		@ args = 0, pretend = 0, frame = 8
ARM GAS  /var/folders/fb/yfxt3z4538j6z0vjt03w70vc0000gn/T//ccrD3Rdr.s 			page 26


 320              		@ frame_needed = 0, uses_anonymous_args = 0
 321              	.LBB480:
 322              	.LBI480:
 267:../../../lib/pd2dsy/libdaisy/src/dev/oled_ssd130x.h ****         }
 268:../../../lib/pd2dsy/libdaisy/src/dev/oled_ssd130x.h ****     };
 269:../../../lib/pd2dsy/libdaisy/src/dev/oled_ssd130x.h **** 
 270:../../../lib/pd2dsy/libdaisy/src/dev/oled_ssd130x.h ****     /**
 271:../../../lib/pd2dsy/libdaisy/src/dev/oled_ssd130x.h ****      * Update the display 
 272:../../../lib/pd2dsy/libdaisy/src/dev/oled_ssd130x.h ****     */
 273:../../../lib/pd2dsy/libdaisy/src/dev/oled_ssd130x.h ****     void Update()
 323              		.loc 3 273 10 view .LVU57
 324              	.LBB481:
 274:../../../lib/pd2dsy/libdaisy/src/dev/oled_ssd130x.h ****     {
 275:../../../lib/pd2dsy/libdaisy/src/dev/oled_ssd130x.h ****         uint8_t i;
 276:../../../lib/pd2dsy/libdaisy/src/dev/oled_ssd130x.h ****         uint8_t high_column_addr;
 277:../../../lib/pd2dsy/libdaisy/src/dev/oled_ssd130x.h ****         switch(height)
 278:../../../lib/pd2dsy/libdaisy/src/dev/oled_ssd130x.h ****         {
 279:../../../lib/pd2dsy/libdaisy/src/dev/oled_ssd130x.h ****             case 32: high_column_addr = 0x12; break;
 280:../../../lib/pd2dsy/libdaisy/src/dev/oled_ssd130x.h **** 
 281:../../../lib/pd2dsy/libdaisy/src/dev/oled_ssd130x.h ****             default: high_column_addr = 0x10; break;
 282:../../../lib/pd2dsy/libdaisy/src/dev/oled_ssd130x.h ****         }
 283:../../../lib/pd2dsy/libdaisy/src/dev/oled_ssd130x.h ****         for(i = 0; i < (height / 8); i++)
 325              		.loc 3 283 22 view .LVU58
 326              	.LBE481:
 327              	.LBE480:
 328              		.loc 2 51 10 is_stmt 0 view .LVU59
 329 0000 2DE9F041 		push	{r4, r5, r6, r7, r8, lr}
 330              		.cfi_def_cfa_offset 24
 331              		.cfi_offset 4, -24
 332              		.cfi_offset 5, -20
 333              		.cfi_offset 6, -16
 334              		.cfi_offset 7, -12
 335              		.cfi_offset 8, -8
 336              		.cfi_offset 14, -4
 337              	.LBB503:
 338              	.LBB501:
 339              	.LBB482:
 340              	.LBB483:
 125:../../../lib/pd2dsy/libdaisy/src/dev/oled_ssd130x.h ****     };
 341              		.loc 3 125 30 view .LVU60
 342 0004 B024     		movs	r4, #176
 343              	.LBE483:
 344              	.LBE482:
 345              	.LBE501:
 346              	.LBE503:
 347              		.loc 2 51 10 view .LVU61
 348 0006 82B0     		sub	sp, sp, #8
 349              		.cfi_def_cfa_offset 32
 350              	.LBB504:
 351              	.LBB502:
 352              	.LBB488:
 353              	.LBB484:
 124:../../../lib/pd2dsy/libdaisy/src/dev/oled_ssd130x.h ****         spi_.BlockingTransmit(&cmd, 1);
 354              		.loc 3 124 24 view .LVU62
 355 0008 00F10806 		add	r6, r0, #8
 356 000c 00F11005 		add	r5, r0, #16
 357 0010 00F11408 		add	r8, r0, #20
ARM GAS  /var/folders/fb/yfxt3z4538j6z0vjt03w70vc0000gn/T//ccrD3Rdr.s 			page 27


 358              	.LVL15:
 359              	.L11:
 124:../../../lib/pd2dsy/libdaisy/src/dev/oled_ssd130x.h ****         spi_.BlockingTransmit(&cmd, 1);
 360              		.loc 3 124 24 view .LVU63
 361 0014 0027     		movs	r7, #0
 124:../../../lib/pd2dsy/libdaisy/src/dev/oled_ssd130x.h ****         spi_.BlockingTransmit(&cmd, 1);
 362              		.loc 3 124 23 view .LVU64
 363 0016 2846     		mov	r0, r5
 364 0018 8DF80740 		strb	r4, [sp, #7]
 365              	.LVL16:
 124:../../../lib/pd2dsy/libdaisy/src/dev/oled_ssd130x.h ****         spi_.BlockingTransmit(&cmd, 1);
 366              		.loc 3 124 23 view .LVU65
 367              	.LBE484:
 368              	.LBI482:
 122:../../../lib/pd2dsy/libdaisy/src/dev/oled_ssd130x.h ****     {
 369              		.loc 3 122 10 is_stmt 1 view .LVU66
 370              	.LBB485:
 124:../../../lib/pd2dsy/libdaisy/src/dev/oled_ssd130x.h ****         spi_.BlockingTransmit(&cmd, 1);
 371              		.loc 3 124 9 view .LVU67
 372              	.LBE485:
 373              	.LBE488:
 374              		.loc 3 283 22 is_stmt 0 view .LVU68
 375 001c 0134     		adds	r4, r4, #1
 376              	.LVL17:
 377              	.LBB489:
 378              	.LBB486:
 124:../../../lib/pd2dsy/libdaisy/src/dev/oled_ssd130x.h ****         spi_.BlockingTransmit(&cmd, 1);
 379              		.loc 3 124 23 view .LVU69
 380 001e 3946     		mov	r1, r7
 381 0020 FFF7FEFF 		bl	dsy_gpio_write
 382              	.LVL18:
 125:../../../lib/pd2dsy/libdaisy/src/dev/oled_ssd130x.h ****     };
 383              		.loc 3 125 9 is_stmt 1 view .LVU70
 125:../../../lib/pd2dsy/libdaisy/src/dev/oled_ssd130x.h ****     };
 384              		.loc 3 125 30 is_stmt 0 view .LVU71
 385 0024 6423     		movs	r3, #100
 386 0026 0122     		movs	r2, #1
 387 0028 0DF10701 		add	r1, sp, #7
 388 002c 3046     		mov	r0, r6
 389              	.LBE486:
 390              	.LBE489:
 391              		.loc 3 283 22 view .LVU72
 392 002e E4B2     		uxtb	r4, r4
 393              	.LBB490:
 394              	.LBB487:
 125:../../../lib/pd2dsy/libdaisy/src/dev/oled_ssd130x.h ****     };
 395              		.loc 3 125 30 view .LVU73
 396 0030 FFF7FEFF 		bl	_ZN5daisy9SpiHandle16BlockingTransmitEPhjm
 397              	.LVL19:
 125:../../../lib/pd2dsy/libdaisy/src/dev/oled_ssd130x.h ****     };
 398              		.loc 3 125 30 view .LVU74
 399              	.LBE487:
 400              	.LBE490:
 401              	.LBB491:
 402              	.LBB492:
 124:../../../lib/pd2dsy/libdaisy/src/dev/oled_ssd130x.h ****         spi_.BlockingTransmit(&cmd, 1);
 403              		.loc 3 124 23 view .LVU75
ARM GAS  /var/folders/fb/yfxt3z4538j6z0vjt03w70vc0000gn/T//ccrD3Rdr.s 			page 28


 404 0034 3946     		mov	r1, r7
 405 0036 2846     		mov	r0, r5
 406 0038 8DF80770 		strb	r7, [sp, #7]
 407              	.LVL20:
 124:../../../lib/pd2dsy/libdaisy/src/dev/oled_ssd130x.h ****         spi_.BlockingTransmit(&cmd, 1);
 408              		.loc 3 124 23 view .LVU76
 409              	.LBE492:
 410              	.LBI491:
 122:../../../lib/pd2dsy/libdaisy/src/dev/oled_ssd130x.h ****     {
 411              		.loc 3 122 10 is_stmt 1 view .LVU77
 412              	.LBB493:
 124:../../../lib/pd2dsy/libdaisy/src/dev/oled_ssd130x.h ****         spi_.BlockingTransmit(&cmd, 1);
 413              		.loc 3 124 9 view .LVU78
 124:../../../lib/pd2dsy/libdaisy/src/dev/oled_ssd130x.h ****         spi_.BlockingTransmit(&cmd, 1);
 414              		.loc 3 124 23 is_stmt 0 view .LVU79
 415 003c FFF7FEFF 		bl	dsy_gpio_write
 416              	.LVL21:
 125:../../../lib/pd2dsy/libdaisy/src/dev/oled_ssd130x.h ****     };
 417              		.loc 3 125 9 is_stmt 1 view .LVU80
 125:../../../lib/pd2dsy/libdaisy/src/dev/oled_ssd130x.h ****     };
 418              		.loc 3 125 30 is_stmt 0 view .LVU81
 419 0040 0122     		movs	r2, #1
 420 0042 6423     		movs	r3, #100
 421 0044 0DF10701 		add	r1, sp, #7
 422 0048 3046     		mov	r0, r6
 423 004a FFF7FEFF 		bl	_ZN5daisy9SpiHandle16BlockingTransmitEPhjm
 424              	.LVL22:
 125:../../../lib/pd2dsy/libdaisy/src/dev/oled_ssd130x.h ****     };
 425              		.loc 3 125 30 view .LVU82
 426 004e 1023     		movs	r3, #16
 427              	.LBE493:
 428              	.LBE491:
 429              	.LBB494:
 430              	.LBB495:
 124:../../../lib/pd2dsy/libdaisy/src/dev/oled_ssd130x.h ****         spi_.BlockingTransmit(&cmd, 1);
 431              		.loc 3 124 23 view .LVU83
 432 0050 3946     		mov	r1, r7
 433 0052 2846     		mov	r0, r5
 434 0054 8DF80730 		strb	r3, [sp, #7]
 435              	.LVL23:
 124:../../../lib/pd2dsy/libdaisy/src/dev/oled_ssd130x.h ****         spi_.BlockingTransmit(&cmd, 1);
 436              		.loc 3 124 23 view .LVU84
 437              	.LBE495:
 438              	.LBI494:
 122:../../../lib/pd2dsy/libdaisy/src/dev/oled_ssd130x.h ****     {
 439              		.loc 3 122 10 is_stmt 1 view .LVU85
 440              	.LBB496:
 124:../../../lib/pd2dsy/libdaisy/src/dev/oled_ssd130x.h ****         spi_.BlockingTransmit(&cmd, 1);
 441              		.loc 3 124 9 view .LVU86
 124:../../../lib/pd2dsy/libdaisy/src/dev/oled_ssd130x.h ****         spi_.BlockingTransmit(&cmd, 1);
 442              		.loc 3 124 23 is_stmt 0 view .LVU87
 443 0058 FFF7FEFF 		bl	dsy_gpio_write
 444              	.LVL24:
 125:../../../lib/pd2dsy/libdaisy/src/dev/oled_ssd130x.h ****     };
 445              		.loc 3 125 9 is_stmt 1 view .LVU88
 125:../../../lib/pd2dsy/libdaisy/src/dev/oled_ssd130x.h ****     };
 446              		.loc 3 125 30 is_stmt 0 view .LVU89
ARM GAS  /var/folders/fb/yfxt3z4538j6z0vjt03w70vc0000gn/T//ccrD3Rdr.s 			page 29


 447 005c 6423     		movs	r3, #100
 448 005e 0122     		movs	r2, #1
 449 0060 0DF10701 		add	r1, sp, #7
 450 0064 3046     		mov	r0, r6
 451 0066 FFF7FEFF 		bl	_ZN5daisy9SpiHandle16BlockingTransmitEPhjm
 452              	.LVL25:
 125:../../../lib/pd2dsy/libdaisy/src/dev/oled_ssd130x.h ****     };
 453              		.loc 3 125 30 view .LVU90
 454              	.LBE496:
 455              	.LBE494:
 456              	.LBB497:
 457              	.LBI497:
 128:../../../lib/pd2dsy/libdaisy/src/dev/oled_ssd130x.h ****     {
 458              		.loc 3 128 10 is_stmt 1 view .LVU91
 459              	.LBB498:
 130:../../../lib/pd2dsy/libdaisy/src/dev/oled_ssd130x.h ****         spi_.BlockingTransmit(buff, size);
 460              		.loc 3 130 9 view .LVU92
 130:../../../lib/pd2dsy/libdaisy/src/dev/oled_ssd130x.h ****         spi_.BlockingTransmit(buff, size);
 461              		.loc 3 130 23 is_stmt 0 view .LVU93
 462 006a 0121     		movs	r1, #1
 463 006c 2846     		mov	r0, r5
 464 006e FFF7FEFF 		bl	dsy_gpio_write
 465              	.LVL26:
 131:../../../lib/pd2dsy/libdaisy/src/dev/oled_ssd130x.h ****     };
 466              		.loc 3 131 9 is_stmt 1 view .LVU94
 131:../../../lib/pd2dsy/libdaisy/src/dev/oled_ssd130x.h ****     };
 467              		.loc 3 131 30 is_stmt 0 view .LVU95
 468 0072 8022     		movs	r2, #128
 469 0074 4146     		mov	r1, r8
 470 0076 6423     		movs	r3, #100
 471 0078 3046     		mov	r0, r6
 472              	.LBE498:
 473              	.LBE497:
 474              		.loc 3 283 22 view .LVU96
 475 007a 9044     		add	r8, r8, r2
 476              	.LVL27:
 477              	.LBB500:
 478              	.LBB499:
 131:../../../lib/pd2dsy/libdaisy/src/dev/oled_ssd130x.h ****     };
 479              		.loc 3 131 30 view .LVU97
 480 007c FFF7FEFF 		bl	_ZN5daisy9SpiHandle16BlockingTransmitEPhjm
 481              	.LVL28:
 131:../../../lib/pd2dsy/libdaisy/src/dev/oled_ssd130x.h ****     };
 482              		.loc 3 131 30 view .LVU98
 483              	.LBE499:
 484              	.LBE500:
 485              		.loc 3 283 9 is_stmt 1 view .LVU99
 486              		.loc 3 283 22 view .LVU100
 487 0080 B82C     		cmp	r4, #184
 488 0082 C7D1     		bne	.L11
 489              	.LBE502:
 490              	.LBE504:
 491              		.loc 2 51 48 is_stmt 0 view .LVU101
 492 0084 02B0     		add	sp, sp, #8
 493              		.cfi_def_cfa_offset 24
 494              		@ sp needed
 495 0086 BDE8F081 		pop	{r4, r5, r6, r7, r8, pc}
ARM GAS  /var/folders/fb/yfxt3z4538j6z0vjt03w70vc0000gn/T//ccrD3Rdr.s 			page 30


 496              		.loc 2 51 48 view .LVU102
 497              		.cfi_endproc
 498              	.LFE3040:
 500 008a 00BF     		.section	.text._ZN5daisy25OneBitGraphicsDisplayImplINS_11OledDisplayINS_13SSD130xDriverILj128ELj64
 501              		.align	1
 502              		.p2align 2,,3
 503              		.weak	_ZN5daisy25OneBitGraphicsDisplayImplINS_11OledDisplayINS_13SSD130xDriverILj128ELj64ENS_24SSD
 504              		.syntax unified
 505              		.thumb
 506              		.thumb_func
 508              	_ZN5daisy25OneBitGraphicsDisplayImplINS_11OledDisplayINS_13SSD130xDriverILj128ELj64ENS_24SSD130x4Wi
 509              	.LVL29:
 510              	.LFB3080:
 220:../../../lib/pd2dsy/libdaisy/src/hid/disp/display.h **** 
 221:../../../lib/pd2dsy/libdaisy/src/hid/disp/display.h ****     void DrawLine(uint_fast8_t x1,
 222:../../../lib/pd2dsy/libdaisy/src/hid/disp/display.h ****                   uint_fast8_t y1,
 223:../../../lib/pd2dsy/libdaisy/src/hid/disp/display.h ****                   uint_fast8_t x2,
 224:../../../lib/pd2dsy/libdaisy/src/hid/disp/display.h ****                   uint_fast8_t y2,
 225:../../../lib/pd2dsy/libdaisy/src/hid/disp/display.h ****                   bool         on) override
 226:../../../lib/pd2dsy/libdaisy/src/hid/disp/display.h ****     {
 227:../../../lib/pd2dsy/libdaisy/src/hid/disp/display.h ****         int_fast16_t deltaX = abs((int_fast16_t)x2 - (int_fast16_t)x1);
 228:../../../lib/pd2dsy/libdaisy/src/hid/disp/display.h ****         int_fast16_t deltaY = abs((int_fast16_t)y2 - (int_fast16_t)y1);
 229:../../../lib/pd2dsy/libdaisy/src/hid/disp/display.h ****         int_fast16_t signX  = ((x1 < x2) ? 1 : -1);
 230:../../../lib/pd2dsy/libdaisy/src/hid/disp/display.h ****         int_fast16_t signY  = ((y1 < y2) ? 1 : -1);
 231:../../../lib/pd2dsy/libdaisy/src/hid/disp/display.h ****         int_fast16_t error  = deltaX - deltaY;
 232:../../../lib/pd2dsy/libdaisy/src/hid/disp/display.h ****         int_fast16_t error2;
 233:../../../lib/pd2dsy/libdaisy/src/hid/disp/display.h **** 
 234:../../../lib/pd2dsy/libdaisy/src/hid/disp/display.h ****         // If we write "ChildType::DrawPixel(x2, y2, on);", we end up with
 235:../../../lib/pd2dsy/libdaisy/src/hid/disp/display.h ****         // all sorts of weird compiler errors when the Child class is a template
 236:../../../lib/pd2dsy/libdaisy/src/hid/disp/display.h ****         // class. The only way around this is to use this very verbose syntax:
 237:../../../lib/pd2dsy/libdaisy/src/hid/disp/display.h ****         ((ChildType*)(this))->ChildType::DrawPixel(x2, y2, on);
 238:../../../lib/pd2dsy/libdaisy/src/hid/disp/display.h **** 
 239:../../../lib/pd2dsy/libdaisy/src/hid/disp/display.h ****         while((x1 != x2) || (y1 != y2))
 240:../../../lib/pd2dsy/libdaisy/src/hid/disp/display.h ****         {
 241:../../../lib/pd2dsy/libdaisy/src/hid/disp/display.h ****             ((ChildType*)(this))->ChildType::DrawPixel(x1, y1, on);
 242:../../../lib/pd2dsy/libdaisy/src/hid/disp/display.h ****             error2 = error * 2;
 243:../../../lib/pd2dsy/libdaisy/src/hid/disp/display.h ****             if(error2 > -deltaY)
 244:../../../lib/pd2dsy/libdaisy/src/hid/disp/display.h ****             {
 245:../../../lib/pd2dsy/libdaisy/src/hid/disp/display.h ****                 error -= deltaY;
 246:../../../lib/pd2dsy/libdaisy/src/hid/disp/display.h ****                 x1 += signX;
 247:../../../lib/pd2dsy/libdaisy/src/hid/disp/display.h ****             }
 248:../../../lib/pd2dsy/libdaisy/src/hid/disp/display.h **** 
 249:../../../lib/pd2dsy/libdaisy/src/hid/disp/display.h ****             if(error2 < deltaX)
 250:../../../lib/pd2dsy/libdaisy/src/hid/disp/display.h ****             {
 251:../../../lib/pd2dsy/libdaisy/src/hid/disp/display.h ****                 error += deltaX;
 252:../../../lib/pd2dsy/libdaisy/src/hid/disp/display.h ****                 y1 += signY;
 253:../../../lib/pd2dsy/libdaisy/src/hid/disp/display.h ****             }
 254:../../../lib/pd2dsy/libdaisy/src/hid/disp/display.h ****         }
 255:../../../lib/pd2dsy/libdaisy/src/hid/disp/display.h ****     }
 256:../../../lib/pd2dsy/libdaisy/src/hid/disp/display.h **** 
 257:../../../lib/pd2dsy/libdaisy/src/hid/disp/display.h ****     void DrawRect(uint_fast8_t x1,
 258:../../../lib/pd2dsy/libdaisy/src/hid/disp/display.h ****                   uint_fast8_t y1,
 259:../../../lib/pd2dsy/libdaisy/src/hid/disp/display.h ****                   uint_fast8_t x2,
 260:../../../lib/pd2dsy/libdaisy/src/hid/disp/display.h ****                   uint_fast8_t y2,
 261:../../../lib/pd2dsy/libdaisy/src/hid/disp/display.h ****                   bool         on,
 262:../../../lib/pd2dsy/libdaisy/src/hid/disp/display.h ****                   bool         fill = false) override
 263:../../../lib/pd2dsy/libdaisy/src/hid/disp/display.h ****     {
ARM GAS  /var/folders/fb/yfxt3z4538j6z0vjt03w70vc0000gn/T//ccrD3Rdr.s 			page 31


 264:../../../lib/pd2dsy/libdaisy/src/hid/disp/display.h ****         if(fill)
 265:../../../lib/pd2dsy/libdaisy/src/hid/disp/display.h ****         {
 266:../../../lib/pd2dsy/libdaisy/src/hid/disp/display.h ****             for(uint_fast8_t x = x1; x <= x2; x++)
 267:../../../lib/pd2dsy/libdaisy/src/hid/disp/display.h ****             {
 268:../../../lib/pd2dsy/libdaisy/src/hid/disp/display.h ****                 for(uint_fast8_t y = y1; y <= y2; y++)
 269:../../../lib/pd2dsy/libdaisy/src/hid/disp/display.h ****                 {
 270:../../../lib/pd2dsy/libdaisy/src/hid/disp/display.h ****                     ((ChildType*)(this))->ChildType::DrawPixel(x, y, on);
 271:../../../lib/pd2dsy/libdaisy/src/hid/disp/display.h ****                 }
 272:../../../lib/pd2dsy/libdaisy/src/hid/disp/display.h ****             }
 273:../../../lib/pd2dsy/libdaisy/src/hid/disp/display.h ****         }
 274:../../../lib/pd2dsy/libdaisy/src/hid/disp/display.h ****         else
 275:../../../lib/pd2dsy/libdaisy/src/hid/disp/display.h ****         {
 276:../../../lib/pd2dsy/libdaisy/src/hid/disp/display.h ****             ((ChildType*)(this))->ChildType::DrawLine(x1, y1, x2, y1, on);
 277:../../../lib/pd2dsy/libdaisy/src/hid/disp/display.h ****             ((ChildType*)(this))->ChildType::DrawLine(x2, y1, x2, y2, on);
 278:../../../lib/pd2dsy/libdaisy/src/hid/disp/display.h ****             ((ChildType*)(this))->ChildType::DrawLine(x2, y2, x1, y2, on);
 279:../../../lib/pd2dsy/libdaisy/src/hid/disp/display.h ****             ((ChildType*)(this))->ChildType::DrawLine(x1, y2, x1, y1, on);
 280:../../../lib/pd2dsy/libdaisy/src/hid/disp/display.h ****         }
 281:../../../lib/pd2dsy/libdaisy/src/hid/disp/display.h ****     }
 282:../../../lib/pd2dsy/libdaisy/src/hid/disp/display.h **** 
 283:../../../lib/pd2dsy/libdaisy/src/hid/disp/display.h ****     void DrawArc(uint_fast8_t x,
 284:../../../lib/pd2dsy/libdaisy/src/hid/disp/display.h ****                  uint_fast8_t y,
 285:../../../lib/pd2dsy/libdaisy/src/hid/disp/display.h ****                  uint_fast8_t radius,
 286:../../../lib/pd2dsy/libdaisy/src/hid/disp/display.h ****                  int_fast16_t start_angle,
 287:../../../lib/pd2dsy/libdaisy/src/hid/disp/display.h ****                  int_fast16_t sweep,
 288:../../../lib/pd2dsy/libdaisy/src/hid/disp/display.h ****                  bool         on) override
 289:../../../lib/pd2dsy/libdaisy/src/hid/disp/display.h ****     {
 290:../../../lib/pd2dsy/libdaisy/src/hid/disp/display.h ****         // Values to calculate the circle
 291:../../../lib/pd2dsy/libdaisy/src/hid/disp/display.h ****         int_fast16_t t_x, t_y, err, e2;
 292:../../../lib/pd2dsy/libdaisy/src/hid/disp/display.h **** 
 293:../../../lib/pd2dsy/libdaisy/src/hid/disp/display.h ****         // Temporary values to speed up comparisons
 294:../../../lib/pd2dsy/libdaisy/src/hid/disp/display.h ****         float t_sxy, t_syx, t_sxny, t_synx;
 295:../../../lib/pd2dsy/libdaisy/src/hid/disp/display.h ****         float t_exy, t_eyx, t_exny, t_eynx;
 296:../../../lib/pd2dsy/libdaisy/src/hid/disp/display.h **** 
 297:../../../lib/pd2dsy/libdaisy/src/hid/disp/display.h ****         float start_angle_rad, end_angle_rad;
 298:../../../lib/pd2dsy/libdaisy/src/hid/disp/display.h ****         float start_x, start_y, end_x, end_y;
 299:../../../lib/pd2dsy/libdaisy/src/hid/disp/display.h **** 
 300:../../../lib/pd2dsy/libdaisy/src/hid/disp/display.h ****         bool d1, d2, d3, d4;
 301:../../../lib/pd2dsy/libdaisy/src/hid/disp/display.h **** 
 302:../../../lib/pd2dsy/libdaisy/src/hid/disp/display.h ****         d1 = d2 = d3 = d4 = true;
 303:../../../lib/pd2dsy/libdaisy/src/hid/disp/display.h **** 
 304:../../../lib/pd2dsy/libdaisy/src/hid/disp/display.h ****         bool circle = false;
 305:../../../lib/pd2dsy/libdaisy/src/hid/disp/display.h **** 
 306:../../../lib/pd2dsy/libdaisy/src/hid/disp/display.h ****         if(sweep < 0)
 307:../../../lib/pd2dsy/libdaisy/src/hid/disp/display.h ****         {
 308:../../../lib/pd2dsy/libdaisy/src/hid/disp/display.h ****             start_angle += sweep;
 309:../../../lib/pd2dsy/libdaisy/src/hid/disp/display.h ****             sweep = -sweep;
 310:../../../lib/pd2dsy/libdaisy/src/hid/disp/display.h ****         }
 311:../../../lib/pd2dsy/libdaisy/src/hid/disp/display.h **** 
 312:../../../lib/pd2dsy/libdaisy/src/hid/disp/display.h ****         start_angle_rad = deg2rad(start_angle);
 313:../../../lib/pd2dsy/libdaisy/src/hid/disp/display.h ****         end_angle_rad   = deg2rad(start_angle + sweep);
 314:../../../lib/pd2dsy/libdaisy/src/hid/disp/display.h **** 
 315:../../../lib/pd2dsy/libdaisy/src/hid/disp/display.h ****         start_x = cos(start_angle_rad) * radius;
 316:../../../lib/pd2dsy/libdaisy/src/hid/disp/display.h ****         start_y = -sin(start_angle_rad) * radius;
 317:../../../lib/pd2dsy/libdaisy/src/hid/disp/display.h ****         end_x   = cos(end_angle_rad) * radius;
 318:../../../lib/pd2dsy/libdaisy/src/hid/disp/display.h ****         end_y   = -sin(end_angle_rad) * radius;
 319:../../../lib/pd2dsy/libdaisy/src/hid/disp/display.h **** 
 320:../../../lib/pd2dsy/libdaisy/src/hid/disp/display.h ****         // Check if start and endpoint are very near
ARM GAS  /var/folders/fb/yfxt3z4538j6z0vjt03w70vc0000gn/T//ccrD3Rdr.s 			page 32


 321:../../../lib/pd2dsy/libdaisy/src/hid/disp/display.h ****         if((end_x - start_x) * (end_x - start_x)
 322:../../../lib/pd2dsy/libdaisy/src/hid/disp/display.h ****                + (end_y - start_y) * (end_y - start_y)
 323:../../../lib/pd2dsy/libdaisy/src/hid/disp/display.h ****            < 2.0f)
 324:../../../lib/pd2dsy/libdaisy/src/hid/disp/display.h ****         {
 325:../../../lib/pd2dsy/libdaisy/src/hid/disp/display.h ****             if(sweep > 180)
 326:../../../lib/pd2dsy/libdaisy/src/hid/disp/display.h ****                 circle = true;
 327:../../../lib/pd2dsy/libdaisy/src/hid/disp/display.h ****             else
 328:../../../lib/pd2dsy/libdaisy/src/hid/disp/display.h ****                 // Nothing to draw
 329:../../../lib/pd2dsy/libdaisy/src/hid/disp/display.h ****                 return;
 330:../../../lib/pd2dsy/libdaisy/src/hid/disp/display.h ****         }
 331:../../../lib/pd2dsy/libdaisy/src/hid/disp/display.h **** 
 332:../../../lib/pd2dsy/libdaisy/src/hid/disp/display.h ****         t_x = -radius;
 333:../../../lib/pd2dsy/libdaisy/src/hid/disp/display.h ****         t_y = 0;
 334:../../../lib/pd2dsy/libdaisy/src/hid/disp/display.h ****         err = 2 - 2 * radius;
 335:../../../lib/pd2dsy/libdaisy/src/hid/disp/display.h **** 
 336:../../../lib/pd2dsy/libdaisy/src/hid/disp/display.h ****         do
 337:../../../lib/pd2dsy/libdaisy/src/hid/disp/display.h ****         {
 338:../../../lib/pd2dsy/libdaisy/src/hid/disp/display.h ****             if(!circle)
 339:../../../lib/pd2dsy/libdaisy/src/hid/disp/display.h ****             {
 340:../../../lib/pd2dsy/libdaisy/src/hid/disp/display.h ****                 t_sxy  = start_x * t_y;
 341:../../../lib/pd2dsy/libdaisy/src/hid/disp/display.h ****                 t_syx  = start_y * t_x;
 342:../../../lib/pd2dsy/libdaisy/src/hid/disp/display.h ****                 t_sxny = start_x * -t_y;
 343:../../../lib/pd2dsy/libdaisy/src/hid/disp/display.h ****                 t_synx = start_y * -t_x;
 344:../../../lib/pd2dsy/libdaisy/src/hid/disp/display.h ****                 t_exy  = end_x * t_y;
 345:../../../lib/pd2dsy/libdaisy/src/hid/disp/display.h ****                 t_eyx  = end_y * t_x;
 346:../../../lib/pd2dsy/libdaisy/src/hid/disp/display.h ****                 t_exny = end_x * -t_y;
 347:../../../lib/pd2dsy/libdaisy/src/hid/disp/display.h ****                 t_eynx = end_y * -t_x;
 348:../../../lib/pd2dsy/libdaisy/src/hid/disp/display.h **** 
 349:../../../lib/pd2dsy/libdaisy/src/hid/disp/display.h ****                 if(sweep > 180)
 350:../../../lib/pd2dsy/libdaisy/src/hid/disp/display.h ****                 {
 351:../../../lib/pd2dsy/libdaisy/src/hid/disp/display.h ****                     d1 = (t_sxy - t_synx < 0 || t_exy - t_eynx > 0);
 352:../../../lib/pd2dsy/libdaisy/src/hid/disp/display.h ****                     d2 = (t_sxy - t_syx < 0 || t_exy - t_eyx > 0);
 353:../../../lib/pd2dsy/libdaisy/src/hid/disp/display.h ****                     d3 = (t_sxny - t_syx < 0 || t_exny - t_eyx > 0);
 354:../../../lib/pd2dsy/libdaisy/src/hid/disp/display.h ****                     d4 = (t_sxny - t_synx < 0 || t_exny - t_eynx > 0);
 355:../../../lib/pd2dsy/libdaisy/src/hid/disp/display.h ****                 }
 356:../../../lib/pd2dsy/libdaisy/src/hid/disp/display.h ****                 else
 357:../../../lib/pd2dsy/libdaisy/src/hid/disp/display.h ****                 {
 358:../../../lib/pd2dsy/libdaisy/src/hid/disp/display.h ****                     d1 = (t_sxy - t_synx < 0 && t_exy - t_eynx > 0);
 359:../../../lib/pd2dsy/libdaisy/src/hid/disp/display.h ****                     d2 = (t_sxy - t_syx < 0 && t_exy - t_eyx > 0);
 360:../../../lib/pd2dsy/libdaisy/src/hid/disp/display.h ****                     d3 = (t_sxny - t_syx < 0 && t_exny - t_eyx > 0);
 361:../../../lib/pd2dsy/libdaisy/src/hid/disp/display.h ****                     d4 = (t_sxny - t_synx < 0 && t_exny - t_eynx > 0);
 362:../../../lib/pd2dsy/libdaisy/src/hid/disp/display.h ****                 }
 363:../../../lib/pd2dsy/libdaisy/src/hid/disp/display.h ****             }
 364:../../../lib/pd2dsy/libdaisy/src/hid/disp/display.h **** 
 365:../../../lib/pd2dsy/libdaisy/src/hid/disp/display.h ****             if(d1)
 366:../../../lib/pd2dsy/libdaisy/src/hid/disp/display.h ****                 ((ChildType*)(this))
 367:../../../lib/pd2dsy/libdaisy/src/hid/disp/display.h ****                     ->ChildType::DrawPixel(x - t_x, y + t_y, on);
 368:../../../lib/pd2dsy/libdaisy/src/hid/disp/display.h ****             if(d2)
 369:../../../lib/pd2dsy/libdaisy/src/hid/disp/display.h ****                 ((ChildType*)(this))
 370:../../../lib/pd2dsy/libdaisy/src/hid/disp/display.h ****                     ->ChildType::DrawPixel(x + t_x, y + t_y, on);
 371:../../../lib/pd2dsy/libdaisy/src/hid/disp/display.h ****             if(d3)
 372:../../../lib/pd2dsy/libdaisy/src/hid/disp/display.h ****                 ((ChildType*)(this))
 373:../../../lib/pd2dsy/libdaisy/src/hid/disp/display.h ****                     ->ChildType::DrawPixel(x + t_x, y - t_y, on);
 374:../../../lib/pd2dsy/libdaisy/src/hid/disp/display.h ****             if(d4)
 375:../../../lib/pd2dsy/libdaisy/src/hid/disp/display.h ****                 ((ChildType*)(this))
 376:../../../lib/pd2dsy/libdaisy/src/hid/disp/display.h ****                     ->ChildType::DrawPixel(x - t_x, y - t_y, on);
 377:../../../lib/pd2dsy/libdaisy/src/hid/disp/display.h **** 
ARM GAS  /var/folders/fb/yfxt3z4538j6z0vjt03w70vc0000gn/T//ccrD3Rdr.s 			page 33


 378:../../../lib/pd2dsy/libdaisy/src/hid/disp/display.h ****             e2 = err;
 379:../../../lib/pd2dsy/libdaisy/src/hid/disp/display.h ****             if(e2 <= t_y)
 380:../../../lib/pd2dsy/libdaisy/src/hid/disp/display.h ****             {
 381:../../../lib/pd2dsy/libdaisy/src/hid/disp/display.h ****                 t_y++;
 382:../../../lib/pd2dsy/libdaisy/src/hid/disp/display.h ****                 err = err + (t_y * 2 + 1);
 383:../../../lib/pd2dsy/libdaisy/src/hid/disp/display.h ****                 if(-t_x == t_y && e2 <= t_x)
 384:../../../lib/pd2dsy/libdaisy/src/hid/disp/display.h ****                 {
 385:../../../lib/pd2dsy/libdaisy/src/hid/disp/display.h ****                     e2 = 0;
 386:../../../lib/pd2dsy/libdaisy/src/hid/disp/display.h ****                 }
 387:../../../lib/pd2dsy/libdaisy/src/hid/disp/display.h ****             }
 388:../../../lib/pd2dsy/libdaisy/src/hid/disp/display.h ****             if(e2 > t_x)
 389:../../../lib/pd2dsy/libdaisy/src/hid/disp/display.h ****             {
 390:../../../lib/pd2dsy/libdaisy/src/hid/disp/display.h ****                 t_x++;
 391:../../../lib/pd2dsy/libdaisy/src/hid/disp/display.h ****                 err = err + (t_x * 2 + 1);
 392:../../../lib/pd2dsy/libdaisy/src/hid/disp/display.h ****             }
 393:../../../lib/pd2dsy/libdaisy/src/hid/disp/display.h ****         } while(t_x <= 0);
 394:../../../lib/pd2dsy/libdaisy/src/hid/disp/display.h ****     }
 395:../../../lib/pd2dsy/libdaisy/src/hid/disp/display.h **** 
 396:../../../lib/pd2dsy/libdaisy/src/hid/disp/display.h ****     char WriteChar(char ch, FontDef font, bool on) override
 397:../../../lib/pd2dsy/libdaisy/src/hid/disp/display.h ****     {
 398:../../../lib/pd2dsy/libdaisy/src/hid/disp/display.h ****         uint32_t i, b, j;
 399:../../../lib/pd2dsy/libdaisy/src/hid/disp/display.h **** 
 400:../../../lib/pd2dsy/libdaisy/src/hid/disp/display.h ****         // Check if character is valid
 401:../../../lib/pd2dsy/libdaisy/src/hid/disp/display.h ****         if(ch < 32 || ch > 126)
 402:../../../lib/pd2dsy/libdaisy/src/hid/disp/display.h ****             return 0;
 403:../../../lib/pd2dsy/libdaisy/src/hid/disp/display.h **** 
 404:../../../lib/pd2dsy/libdaisy/src/hid/disp/display.h ****         // Check remaining space on current line
 405:../../../lib/pd2dsy/libdaisy/src/hid/disp/display.h ****         if(Width() < (currentX_ + font.FontWidth)
 406:../../../lib/pd2dsy/libdaisy/src/hid/disp/display.h ****            || Height() < (currentY_ + font.FontHeight))
 407:../../../lib/pd2dsy/libdaisy/src/hid/disp/display.h ****         {
 408:../../../lib/pd2dsy/libdaisy/src/hid/disp/display.h ****             // Not enough space on current line
 409:../../../lib/pd2dsy/libdaisy/src/hid/disp/display.h ****             return 0;
 410:../../../lib/pd2dsy/libdaisy/src/hid/disp/display.h ****         }
 411:../../../lib/pd2dsy/libdaisy/src/hid/disp/display.h **** 
 412:../../../lib/pd2dsy/libdaisy/src/hid/disp/display.h ****         // Use the font to write
 413:../../../lib/pd2dsy/libdaisy/src/hid/disp/display.h ****         for(i = 0; i < font.FontHeight; i++)
 414:../../../lib/pd2dsy/libdaisy/src/hid/disp/display.h ****         {
 415:../../../lib/pd2dsy/libdaisy/src/hid/disp/display.h ****             b = font.data[(ch - 32) * font.FontHeight + i];
 416:../../../lib/pd2dsy/libdaisy/src/hid/disp/display.h ****             for(j = 0; j < font.FontWidth; j++)
 417:../../../lib/pd2dsy/libdaisy/src/hid/disp/display.h ****             {
 418:../../../lib/pd2dsy/libdaisy/src/hid/disp/display.h ****                 if((b << j) & 0x8000)
 419:../../../lib/pd2dsy/libdaisy/src/hid/disp/display.h ****                 {
 420:../../../lib/pd2dsy/libdaisy/src/hid/disp/display.h ****                     ((ChildType*)(this))
 421:../../../lib/pd2dsy/libdaisy/src/hid/disp/display.h ****                         ->ChildType::DrawPixel(
 422:../../../lib/pd2dsy/libdaisy/src/hid/disp/display.h ****                             currentX_ + j, (currentY_ + i), on);
 423:../../../lib/pd2dsy/libdaisy/src/hid/disp/display.h ****                 }
 424:../../../lib/pd2dsy/libdaisy/src/hid/disp/display.h ****                 else
 425:../../../lib/pd2dsy/libdaisy/src/hid/disp/display.h ****                 {
 426:../../../lib/pd2dsy/libdaisy/src/hid/disp/display.h ****                     ((ChildType*)(this))
 427:../../../lib/pd2dsy/libdaisy/src/hid/disp/display.h ****                         ->ChildType::DrawPixel(
 428:../../../lib/pd2dsy/libdaisy/src/hid/disp/display.h ****                             currentX_ + j, (currentY_ + i), !on);
 429:../../../lib/pd2dsy/libdaisy/src/hid/disp/display.h ****                 }
 430:../../../lib/pd2dsy/libdaisy/src/hid/disp/display.h ****             }
 431:../../../lib/pd2dsy/libdaisy/src/hid/disp/display.h ****         }
 432:../../../lib/pd2dsy/libdaisy/src/hid/disp/display.h **** 
 433:../../../lib/pd2dsy/libdaisy/src/hid/disp/display.h ****         // The current space is now taken
 434:../../../lib/pd2dsy/libdaisy/src/hid/disp/display.h ****         SetCursor(currentX_ + font.FontWidth, currentY_);
ARM GAS  /var/folders/fb/yfxt3z4538j6z0vjt03w70vc0000gn/T//ccrD3Rdr.s 			page 34


 435:../../../lib/pd2dsy/libdaisy/src/hid/disp/display.h **** 
 436:../../../lib/pd2dsy/libdaisy/src/hid/disp/display.h ****         // Return written char for validation
 437:../../../lib/pd2dsy/libdaisy/src/hid/disp/display.h ****         return ch;
 438:../../../lib/pd2dsy/libdaisy/src/hid/disp/display.h ****     }
 439:../../../lib/pd2dsy/libdaisy/src/hid/disp/display.h **** 
 440:../../../lib/pd2dsy/libdaisy/src/hid/disp/display.h ****     char WriteString(const char* str, FontDef font, bool on) override
 511              		.loc 4 440 10 is_stmt 1 view -0
 512              		.cfi_startproc
 513              		@ args = 4, pretend = 0, frame = 32
 514              		@ frame_needed = 0, uses_anonymous_args = 0
 515              		.loc 4 440 10 is_stmt 0 view .LVU104
 516 0000 2DE9F04F 		push	{r4, r5, r6, r7, r8, r9, r10, fp, lr}
 517              		.cfi_def_cfa_offset 36
 518              		.cfi_offset 4, -36
 519              		.cfi_offset 5, -32
 520              		.cfi_offset 6, -28
 521              		.cfi_offset 7, -24
 522              		.cfi_offset 8, -20
 523              		.cfi_offset 9, -16
 524              		.cfi_offset 10, -12
 525              		.cfi_offset 11, -8
 526              		.cfi_offset 14, -4
 527 0004 89B0     		sub	sp, sp, #36
 528              		.cfi_def_cfa_offset 72
 529              		.loc 4 440 10 view .LVU105
 530 0006 08AC     		add	r4, sp, #32
 531 0008 9DF84870 		ldrb	r7, [sp, #72]	@ zero_extendqisi2
 532 000c 0191     		str	r1, [sp, #4]
 533 000e 04E90C00 		stmdb	r4, {r2, r3}
 441:../../../lib/pd2dsy/libdaisy/src/hid/disp/display.h ****     {
 442:../../../lib/pd2dsy/libdaisy/src/hid/disp/display.h ****         // Write until null-byte
 443:../../../lib/pd2dsy/libdaisy/src/hid/disp/display.h ****         while(*str)
 534              		.loc 4 443 9 is_stmt 1 view .LVU106
 535 0012 0B78     		ldrb	r3, [r1]	@ zero_extendqisi2
 536 0014 002B     		cmp	r3, #0
 537 0016 00F0AB80 		beq	.L38
 538 001a 1A46     		mov	r2, r3
 539 001c 9DF81880 		ldrb	r8, [sp, #24]	@ zero_extendqisi2
 540 0020 9DF81930 		ldrb	r3, [sp, #25]	@ zero_extendqisi2
 541 0024 0646     		mov	r6, r0
 542 0026 4546     		mov	r5, r8
 543 0028 9046     		mov	r8, r2
 544 002a 0393     		str	r3, [sp, #12]
 545 002c 079B     		ldr	r3, [sp, #28]
 546 002e 0593     		str	r3, [sp, #20]
 547              	.LVL30:
 548              	.L39:
 549              	.LBB533:
 550              	.LBI533:
 396:../../../lib/pd2dsy/libdaisy/src/hid/disp/display.h ****     {
 551              		.loc 4 396 10 view .LVU107
 552              	.LBB534:
 401:../../../lib/pd2dsy/libdaisy/src/hid/disp/display.h ****             return 0;
 553              		.loc 4 401 20 is_stmt 0 view .LVU108
 554 0030 A8F12004 		sub	r4, r8, #32
 401:../../../lib/pd2dsy/libdaisy/src/hid/disp/display.h ****             return 0;
 555              		.loc 4 401 9 view .LVU109
ARM GAS  /var/folders/fb/yfxt3z4538j6z0vjt03w70vc0000gn/T//ccrD3Rdr.s 			page 35


 556 0034 E3B2     		uxtb	r3, r4
 557 0036 5E2B     		cmp	r3, #94
 558 0038 00F29E80 		bhi	.L20
 405:../../../lib/pd2dsy/libdaisy/src/hid/disp/display.h ****            || Height() < (currentY_ + font.FontHeight))
 559              		.loc 4 405 17 view .LVU110
 560 003c 3368     		ldr	r3, [r6]
 561 003e 5E4A     		ldr	r2, .L60
 562 0040 DB68     		ldr	r3, [r3, #12]
 563 0042 9342     		cmp	r3, r2
 564 0044 40F09B80 		bne	.L53
 565 0048 8020     		movs	r0, #128
 566              	.L19:
 405:../../../lib/pd2dsy/libdaisy/src/hid/disp/display.h ****            || Height() < (currentY_ + font.FontHeight))
 567              		.loc 4 405 23 view .LVU111
 568 004a B388     		ldrh	r3, [r6, #4]
 405:../../../lib/pd2dsy/libdaisy/src/hid/disp/display.h ****            || Height() < (currentY_ + font.FontHeight))
 569              		.loc 4 405 33 view .LVU112
 570 004c 2B44     		add	r3, r3, r5
 406:../../../lib/pd2dsy/libdaisy/src/hid/disp/display.h ****         {
 571              		.loc 4 406 12 view .LVU113
 572 004e 8342     		cmp	r3, r0
 573 0050 00F39280 		bgt	.L20
 406:../../../lib/pd2dsy/libdaisy/src/hid/disp/display.h ****         {
 574              		.loc 4 406 21 view .LVU114
 575 0054 3368     		ldr	r3, [r6]
 576 0056 594A     		ldr	r2, .L60+4
 577 0058 9B68     		ldr	r3, [r3, #8]
 578 005a 9342     		cmp	r3, r2
 579 005c 40F09280 		bne	.L54
 580 0060 4020     		movs	r0, #64
 581              	.L21:
 406:../../../lib/pd2dsy/libdaisy/src/hid/disp/display.h ****         {
 582              		.loc 4 406 27 view .LVU115
 583 0062 F188     		ldrh	r1, [r6, #6]
 406:../../../lib/pd2dsy/libdaisy/src/hid/disp/display.h ****         {
 584              		.loc 4 406 37 view .LVU116
 585 0064 039A     		ldr	r2, [sp, #12]
 406:../../../lib/pd2dsy/libdaisy/src/hid/disp/display.h ****         {
 586              		.loc 4 406 27 view .LVU117
 587 0066 0291     		str	r1, [sp, #8]
 406:../../../lib/pd2dsy/libdaisy/src/hid/disp/display.h ****         {
 588              		.loc 4 406 37 view .LVU118
 589 0068 8B18     		adds	r3, r1, r2
 406:../../../lib/pd2dsy/libdaisy/src/hid/disp/display.h ****         {
 590              		.loc 4 406 12 view .LVU119
 591 006a 8342     		cmp	r3, r0
 592 006c 00F38480 		bgt	.L20
 593              	.LVL31:
 413:../../../lib/pd2dsy/libdaisy/src/hid/disp/display.h ****         {
 594              		.loc 4 413 22 is_stmt 1 view .LVU120
 595 0070 002A     		cmp	r2, #0
 596 0072 00F09180 		beq	.L22
 415:../../../lib/pd2dsy/libdaisy/src/hid/disp/display.h ****             for(j = 0; j < font.FontWidth; j++)
 597              		.loc 4 415 37 is_stmt 0 view .LVU121
 598 0076 02FB04F4 		mul	r4, r2, r4
 599 007a 6FF00049 		mvn	r9, #-2147483648
 600 007e 059B     		ldr	r3, [sp, #20]
ARM GAS  /var/folders/fb/yfxt3z4538j6z0vjt03w70vc0000gn/T//ccrD3Rdr.s 			page 36


 601 0080 A144     		add	r9, r9, r4
 602 0082 1444     		add	r4, r4, r2
 434:../../../lib/pd2dsy/libdaisy/src/hid/disp/display.h **** 
 603              		.loc 4 434 19 view .LVU122
 604 0084 B6F804B0 		ldrh	fp, [r6, #4]
 605 0088 03EB4909 		add	r9, r3, r9, lsl #1
 606 008c 023B     		subs	r3, r3, #2
 607 008e CDF81080 		str	r8, [sp, #16]
 608 0092 03EB4403 		add	r3, r3, r4, lsl #1
 609 0096 0C46     		mov	r4, r1
 610 0098 9A46     		mov	r10, r3
 611              	.LVL32:
 612              	.L25:
 415:../../../lib/pd2dsy/libdaisy/src/hid/disp/display.h ****             for(j = 0; j < font.FontWidth; j++)
 613              		.loc 4 415 15 view .LVU123
 614 009a 39F802CF 		ldrh	ip, [r9, #2]!
 615              	.LVL33:
 416:../../../lib/pd2dsy/libdaisy/src/hid/disp/display.h ****             {
 616              		.loc 4 416 26 is_stmt 1 view .LVU124
 617 009e A5B3     		cbz	r5, .L30
 618              	.LBB535:
 619              	.LBB536:
 620              	.LBB537:
 621              	.LBB538:
 622              	.LBB539:
 259:../../../lib/pd2dsy/libdaisy/src/dev/oled_ssd130x.h ****     }
 623              		.loc 3 259 55 is_stmt 0 view .LVU125
 624 00a0 04F00703 		and	r3, r4, #7
 259:../../../lib/pd2dsy/libdaisy/src/dev/oled_ssd130x.h ****     }
 625              		.loc 3 259 49 view .LVU126
 626 00a4 4FF0010E 		mov	lr, #1
 259:../../../lib/pd2dsy/libdaisy/src/dev/oled_ssd130x.h ****     }
 627              		.loc 3 259 28 view .LVU127
 628 00a8 E208     		lsrs	r2, r4, #3
 629 00aa 5946     		mov	r1, fp
 259:../../../lib/pd2dsy/libdaisy/src/dev/oled_ssd130x.h ****     }
 630              		.loc 3 259 49 view .LVU128
 631 00ac 0EFA03FE 		lsl	lr, lr, r3
 632 00b0 0BF11403 		add	r3, fp, #20
 259:../../../lib/pd2dsy/libdaisy/src/dev/oled_ssd130x.h ****     }
 633              		.loc 3 259 42 view .LVU129
 634 00b4 4FFA8EFE 		sxtb	lr, lr
 635 00b8 03EBC212 		add	r2, r3, r2, lsl #7
 636              	.LBE539:
 637              	.LBE538:
 638              	.LBE537:
 639              	.LBE536:
 640              	.LBE535:
 416:../../../lib/pd2dsy/libdaisy/src/hid/disp/display.h ****             {
 641              		.loc 4 416 19 view .LVU130
 642 00bc 0023     		movs	r3, #0
 643              	.LBB557:
 644              	.LBB552:
 645              	.LBB547:
 646              	.LBB543:
 647              	.LBB540:
 259:../../../lib/pd2dsy/libdaisy/src/dev/oled_ssd130x.h ****     }
ARM GAS  /var/folders/fb/yfxt3z4538j6z0vjt03w70vc0000gn/T//ccrD3Rdr.s 			page 37


 648              		.loc 3 259 42 view .LVU131
 649 00be 6FEA0E08 		mvn	r8, lr
 650 00c2 3244     		add	r2, r2, r6
 651 00c4 0DE0     		b	.L31
 652              	.LVL34:
 653              	.L55:
 259:../../../lib/pd2dsy/libdaisy/src/dev/oled_ssd130x.h ****     }
 654              		.loc 3 259 42 view .LVU132
 655              	.LBE540:
 656              	.LBE543:
 657              	.LBE547:
 658              	.LBE552:
 659              	.LBE557:
 660              	.LBB558:
 661              	.LBI558:
  42:../../../lib/pd2dsy/libdaisy/src/hid/disp/oled_display.h ****     {
 662              		.loc 2 42 10 is_stmt 1 view .LVU133
 663              	.LBB559:
 664              	.LBI559:
 252:../../../lib/pd2dsy/libdaisy/src/dev/oled_ssd130x.h ****     {
 665              		.loc 3 252 10 view .LVU134
 666              	.LBB560:
 254:../../../lib/pd2dsy/libdaisy/src/dev/oled_ssd130x.h ****             return;
 667              		.loc 3 254 9 is_stmt 0 view .LVU135
 668 00c6 7F29     		cmp	r1, #127
 669 00c8 06D8     		bhi	.L27
 670 00ca 3F2C     		cmp	r4, #63
 671 00cc 04D8     		bhi	.L27
 257:../../../lib/pd2dsy/libdaisy/src/dev/oled_ssd130x.h ****         else
 672              		.loc 3 257 42 view .LVU136
 673 00ce 1078     		ldrb	r0, [r2]	@ zero_extendqisi2
 256:../../../lib/pd2dsy/libdaisy/src/dev/oled_ssd130x.h ****             buffer_[x + (y / 8) * width] |= (1 << (y % 8));
 674              		.loc 3 256 9 view .LVU137
 675 00d0 97B1     		cbz	r7, .L29
 676              	.L52:
 256:../../../lib/pd2dsy/libdaisy/src/dev/oled_ssd130x.h ****             buffer_[x + (y / 8) * width] |= (1 << (y % 8));
 677              		.loc 3 256 9 view .LVU138
 678              	.LBE560:
 679              	.LBE559:
 680              	.LBE558:
 681              	.LBB561:
 682              	.LBB553:
 683              	.LBB548:
 257:../../../lib/pd2dsy/libdaisy/src/dev/oled_ssd130x.h ****         else
 684              		.loc 3 257 42 view .LVU139
 685 00d2 4EEA0000 		orr	r0, lr, r0
 686 00d6 1070     		strb	r0, [r2]
 687              	.L27:
 688              	.LBE548:
 689              	.LBE553:
 690              	.LBE561:
 416:../../../lib/pd2dsy/libdaisy/src/hid/disp/display.h ****             {
 691              		.loc 4 416 13 is_stmt 1 view .LVU140
 692 00d8 0133     		adds	r3, r3, #1
 693              	.LVL35:
 416:../../../lib/pd2dsy/libdaisy/src/hid/disp/display.h ****             {
 694              		.loc 4 416 26 view .LVU141
ARM GAS  /var/folders/fb/yfxt3z4538j6z0vjt03w70vc0000gn/T//ccrD3Rdr.s 			page 38


 695 00da 0132     		adds	r2, r2, #1
 696 00dc 0131     		adds	r1, r1, #1
 697 00de AB42     		cmp	r3, r5
 698 00e0 13D0     		beq	.L30
 699              	.LVL36:
 700              	.L31:
 418:../../../lib/pd2dsy/libdaisy/src/hid/disp/display.h ****                 {
 701              		.loc 4 418 23 is_stmt 0 view .LVU142
 702 00e2 0CFA03F0 		lsl	r0, ip, r3
 418:../../../lib/pd2dsy/libdaisy/src/hid/disp/display.h ****                 {
 703              		.loc 4 418 17 view .LVU143
 704 00e6 0004     		lsls	r0, r0, #16
 705 00e8 EDD4     		bmi	.L55
 706              	.LVL37:
 707              	.LBB562:
 708              	.LBI535:
  42:../../../lib/pd2dsy/libdaisy/src/hid/disp/oled_display.h ****     {
 709              		.loc 2 42 10 is_stmt 1 view .LVU144
 710              	.LBB554:
 711              	.LBI536:
 252:../../../lib/pd2dsy/libdaisy/src/dev/oled_ssd130x.h ****     {
 712              		.loc 3 252 10 view .LVU145
 713              	.LBB549:
 254:../../../lib/pd2dsy/libdaisy/src/dev/oled_ssd130x.h ****             return;
 714              		.loc 3 254 9 is_stmt 0 view .LVU146
 715 00ea 7F29     		cmp	r1, #127
 716 00ec F4D8     		bhi	.L27
 717 00ee 3F2C     		cmp	r4, #63
 718 00f0 F2D8     		bhi	.L27
 257:../../../lib/pd2dsy/libdaisy/src/dev/oled_ssd130x.h ****         else
 719              		.loc 3 257 42 view .LVU147
 720 00f2 1078     		ldrb	r0, [r2]	@ zero_extendqisi2
 256:../../../lib/pd2dsy/libdaisy/src/dev/oled_ssd130x.h ****             buffer_[x + (y / 8) * width] |= (1 << (y % 8));
 721              		.loc 3 256 9 view .LVU148
 722 00f4 002F     		cmp	r7, #0
 723 00f6 ECD0     		beq	.L52
 724              	.L29:
 725              	.LVL38:
 726              	.LBB544:
 727              	.LBI538:
 252:../../../lib/pd2dsy/libdaisy/src/dev/oled_ssd130x.h ****     {
 728              		.loc 3 252 10 is_stmt 1 view .LVU149
 252:../../../lib/pd2dsy/libdaisy/src/dev/oled_ssd130x.h ****     {
 729              		.loc 3 252 10 is_stmt 0 view .LVU150
 730              	.LBE544:
 731              	.LBE549:
 732              	.LBE554:
 733              	.LBE562:
 416:../../../lib/pd2dsy/libdaisy/src/hid/disp/display.h ****             {
 734              		.loc 4 416 13 view .LVU151
 735 00f8 0133     		adds	r3, r3, #1
 736              	.LVL39:
 737              	.LBB563:
 738              	.LBB555:
 739              	.LBB550:
 740              	.LBB545:
 741              	.LBB541:
ARM GAS  /var/folders/fb/yfxt3z4538j6z0vjt03w70vc0000gn/T//ccrD3Rdr.s 			page 39


 259:../../../lib/pd2dsy/libdaisy/src/dev/oled_ssd130x.h ****     }
 742              		.loc 3 259 42 view .LVU152
 743 00fa 08EA0000 		and	r0, r8, r0
 744              	.LBE541:
 745              	.LBE545:
 746              	.LBE550:
 747              	.LBE555:
 748              	.LBE563:
 416:../../../lib/pd2dsy/libdaisy/src/hid/disp/display.h ****             {
 749              		.loc 4 416 26 view .LVU153
 750 00fe 0132     		adds	r2, r2, #1
 751 0100 0131     		adds	r1, r1, #1
 752 0102 AB42     		cmp	r3, r5
 753              	.LBB564:
 754              	.LBB556:
 755              	.LBB551:
 756              	.LBB546:
 757              	.LBB542:
 259:../../../lib/pd2dsy/libdaisy/src/dev/oled_ssd130x.h ****     }
 758              		.loc 3 259 42 view .LVU154
 759 0104 02F8010C 		strb	r0, [r2, #-1]
 259:../../../lib/pd2dsy/libdaisy/src/dev/oled_ssd130x.h ****     }
 760              		.loc 3 259 42 view .LVU155
 761              	.LBE542:
 762              	.LBE546:
 763              	.LBE551:
 764              	.LBE556:
 765              	.LBE564:
 416:../../../lib/pd2dsy/libdaisy/src/hid/disp/display.h ****             {
 766              		.loc 4 416 13 is_stmt 1 view .LVU156
 767              	.LVL40:
 416:../../../lib/pd2dsy/libdaisy/src/hid/disp/display.h ****             {
 768              		.loc 4 416 26 view .LVU157
 769 0108 EBD1     		bne	.L31
 770              	.LVL41:
 771              	.L30:
 413:../../../lib/pd2dsy/libdaisy/src/hid/disp/display.h ****         {
 772              		.loc 4 413 9 view .LVU158
 413:../../../lib/pd2dsy/libdaisy/src/hid/disp/display.h ****         {
 773              		.loc 4 413 22 view .LVU159
 774 010a D145     		cmp	r9, r10
 775 010c 04F10104 		add	r4, r4, #1
 776 0110 C3D1     		bne	.L25
 777 0112 DDF81080 		ldr	r8, [sp, #16]
 778              	.LVL42:
 779              	.L24:
 780              	.LBB565:
 781              	.LBB566:
 173:../../../lib/pd2dsy/libdaisy/src/hid/disp/display.h ****         currentY_ = (y >= Height()) ? Height() - 1 : y;
 782              		.loc 4 173 33 is_stmt 0 view .LVU160
 783 0116 3268     		ldr	r2, [r6]
 784              	.LBE566:
 785              	.LBE565:
 434:../../../lib/pd2dsy/libdaisy/src/hid/disp/display.h **** 
 786              		.loc 4 434 18 view .LVU161
 787 0118 0BEB0504 		add	r4, fp, r5
 788 011c 2649     		ldr	r1, .L60
ARM GAS  /var/folders/fb/yfxt3z4538j6z0vjt03w70vc0000gn/T//ccrD3Rdr.s 			page 40


 789              	.LBB571:
 790              	.LBB567:
 173:../../../lib/pd2dsy/libdaisy/src/hid/disp/display.h ****         currentY_ = (y >= Height()) ? Height() - 1 : y;
 791              		.loc 4 173 33 view .LVU162
 792 011e D368     		ldr	r3, [r2, #12]
 793              	.LBE567:
 794              	.LBE571:
 434:../../../lib/pd2dsy/libdaisy/src/hid/disp/display.h **** 
 795              		.loc 4 434 18 view .LVU163
 796 0120 A4B2     		uxth	r4, r4
 797              	.LVL43:
 798              	.LBB572:
 799              	.LBI565:
 171:../../../lib/pd2dsy/libdaisy/src/hid/disp/display.h ****     {
 800              		.loc 4 171 10 is_stmt 1 view .LVU164
 801              	.LBB568:
 173:../../../lib/pd2dsy/libdaisy/src/hid/disp/display.h ****         currentY_ = (y >= Height()) ? Height() - 1 : y;
 802              		.loc 4 173 9 view .LVU165
 803 0122 8B42     		cmp	r3, r1
 804 0124 34D1     		bne	.L56
 173:../../../lib/pd2dsy/libdaisy/src/hid/disp/display.h ****         currentY_ = (y >= Height()) ? Height() - 1 : y;
 805              		.loc 4 173 33 is_stmt 0 view .LVU166
 806 0126 8020     		movs	r0, #128
 807              	.L32:
 173:../../../lib/pd2dsy/libdaisy/src/hid/disp/display.h ****         currentY_ = (y >= Height()) ? Height() - 1 : y;
 808              		.loc 4 173 19 view .LVU167
 809 0128 8442     		cmp	r4, r0
 810 012a 04D3     		bcc	.L33
 173:../../../lib/pd2dsy/libdaisy/src/hid/disp/display.h ****         currentY_ = (y >= Height()) ? Height() - 1 : y;
 811              		.loc 4 173 44 view .LVU168
 812 012c D368     		ldr	r3, [r2, #12]
 813 012e 2249     		ldr	r1, .L60
 814 0130 8B42     		cmp	r3, r1
 815 0132 3AD1     		bne	.L57
 816 0134 7F24     		movs	r4, #127
 817              	.LVL44:
 818              	.L33:
 174:../../../lib/pd2dsy/libdaisy/src/hid/disp/display.h ****     }
 819              		.loc 4 174 34 view .LVU169
 820 0136 9368     		ldr	r3, [r2, #8]
 821 0138 204A     		ldr	r2, .L60+4
 173:../../../lib/pd2dsy/libdaisy/src/hid/disp/display.h ****         currentY_ = (y >= Height()) ? Height() - 1 : y;
 822              		.loc 4 173 19 view .LVU170
 823 013a B480     		strh	r4, [r6, #4]	@ movhi
 174:../../../lib/pd2dsy/libdaisy/src/hid/disp/display.h ****     }
 824              		.loc 4 174 9 is_stmt 1 view .LVU171
 825 013c 9342     		cmp	r3, r2
 826 013e 24D1     		bne	.L58
 174:../../../lib/pd2dsy/libdaisy/src/hid/disp/display.h ****     }
 827              		.loc 4 174 34 is_stmt 0 view .LVU172
 828 0140 4020     		movs	r0, #64
 829              	.L35:
 174:../../../lib/pd2dsy/libdaisy/src/hid/disp/display.h ****     }
 830              		.loc 4 174 19 view .LVU173
 831 0142 029B     		ldr	r3, [sp, #8]
 832 0144 8342     		cmp	r3, r0
 833 0146 06D3     		bcc	.L36
ARM GAS  /var/folders/fb/yfxt3z4538j6z0vjt03w70vc0000gn/T//ccrD3Rdr.s 			page 41


 174:../../../lib/pd2dsy/libdaisy/src/hid/disp/display.h ****     }
 834              		.loc 4 174 46 view .LVU174
 835 0148 3368     		ldr	r3, [r6]
 836 014a 1C4A     		ldr	r2, .L60+4
 837 014c 9B68     		ldr	r3, [r3, #8]
 838 014e 9342     		cmp	r3, r2
 839 0150 25D1     		bne	.L59
 840 0152 3F23     		movs	r3, #63
 841 0154 0293     		str	r3, [sp, #8]
 842              	.LVL45:
 843              	.L36:
 174:../../../lib/pd2dsy/libdaisy/src/hid/disp/display.h ****     }
 844              		.loc 4 174 19 view .LVU175
 845 0156 029B     		ldr	r3, [sp, #8]
 846 0158 F380     		strh	r3, [r6, #6]	@ movhi
 847              	.LVL46:
 848              	.L18:
 174:../../../lib/pd2dsy/libdaisy/src/hid/disp/display.h ****     }
 849              		.loc 4 174 19 view .LVU176
 850              	.LBE568:
 851              	.LBE572:
 852              	.LBE534:
 853              	.LBE533:
 444:../../../lib/pd2dsy/libdaisy/src/hid/disp/display.h ****         {
 445:../../../lib/pd2dsy/libdaisy/src/hid/disp/display.h ****             if(((ChildType*)(this))->ChildType::WriteChar(*str, font, on)
 446:../../../lib/pd2dsy/libdaisy/src/hid/disp/display.h ****                != *str)
 854              		.loc 4 446 16 view .LVU177
 855 015a 019B     		ldr	r3, [sp, #4]
 856 015c 1878     		ldrb	r0, [r3]	@ zero_extendqisi2
 445:../../../lib/pd2dsy/libdaisy/src/hid/disp/display.h ****                != *str)
 857              		.loc 4 445 13 view .LVU178
 858 015e 4045     		cmp	r0, r8
 859 0160 07D1     		bne	.L16
 860              	.LVL47:
 443:../../../lib/pd2dsy/libdaisy/src/hid/disp/display.h ****         {
 861              		.loc 4 443 9 is_stmt 1 view .LVU179
 862 0162 13F8018F 		ldrb	r8, [r3, #1]!	@ zero_extendqisi2
 863              	.LVL48:
 443:../../../lib/pd2dsy/libdaisy/src/hid/disp/display.h ****         {
 864              		.loc 4 443 9 is_stmt 0 view .LVU180
 865 0166 0193     		str	r3, [sp, #4]
 866 0168 B8F1000F 		cmp	r8, #0
 867 016c 7FF460AF 		bne	.L39
 868              	.LVL49:
 869              	.L38:
 870              	.LBB577:
 871              	.LBB575:
 402:../../../lib/pd2dsy/libdaisy/src/hid/disp/display.h **** 
 872              		.loc 4 402 20 view .LVU181
 873 0170 0020     		movs	r0, #0
 874              	.L16:
 875              	.LBE575:
 876              	.LBE577:
 447:../../../lib/pd2dsy/libdaisy/src/hid/disp/display.h ****             {
 448:../../../lib/pd2dsy/libdaisy/src/hid/disp/display.h ****                 // Char could not be written
 449:../../../lib/pd2dsy/libdaisy/src/hid/disp/display.h ****                 return *str;
 450:../../../lib/pd2dsy/libdaisy/src/hid/disp/display.h ****             }
ARM GAS  /var/folders/fb/yfxt3z4538j6z0vjt03w70vc0000gn/T//ccrD3Rdr.s 			page 42


 451:../../../lib/pd2dsy/libdaisy/src/hid/disp/display.h **** 
 452:../../../lib/pd2dsy/libdaisy/src/hid/disp/display.h ****             // Next char
 453:../../../lib/pd2dsy/libdaisy/src/hid/disp/display.h ****             str++;
 454:../../../lib/pd2dsy/libdaisy/src/hid/disp/display.h ****         }
 455:../../../lib/pd2dsy/libdaisy/src/hid/disp/display.h **** 
 456:../../../lib/pd2dsy/libdaisy/src/hid/disp/display.h ****         // Everything ok
 457:../../../lib/pd2dsy/libdaisy/src/hid/disp/display.h ****         return *str;
 458:../../../lib/pd2dsy/libdaisy/src/hid/disp/display.h ****     }
 877              		.loc 4 458 5 view .LVU182
 878 0172 09B0     		add	sp, sp, #36
 879              		.cfi_remember_state
 880              		.cfi_def_cfa_offset 36
 881              		@ sp needed
 882 0174 BDE8F08F 		pop	{r4, r5, r6, r7, r8, r9, r10, fp, pc}
 883              	.LVL50:
 884              	.L20:
 885              		.cfi_restore_state
 886              	.LBB578:
 887              	.LBB576:
 402:../../../lib/pd2dsy/libdaisy/src/hid/disp/display.h **** 
 888              		.loc 4 402 20 view .LVU183
 889 0178 4FF00008 		mov	r8, #0
 890              	.LVL51:
 402:../../../lib/pd2dsy/libdaisy/src/hid/disp/display.h **** 
 891              		.loc 4 402 20 view .LVU184
 892 017c EDE7     		b	.L18
 893              	.LVL52:
 894              	.L53:
 405:../../../lib/pd2dsy/libdaisy/src/hid/disp/display.h ****            || Height() < (currentY_ + font.FontHeight))
 895              		.loc 4 405 17 view .LVU185
 896 017e 3046     		mov	r0, r6
 897 0180 9847     		blx	r3
 898              	.LVL53:
 899 0182 62E7     		b	.L19
 900              	.L54:
 406:../../../lib/pd2dsy/libdaisy/src/hid/disp/display.h ****         {
 901              		.loc 4 406 21 view .LVU186
 902 0184 3046     		mov	r0, r6
 903 0186 9847     		blx	r3
 904              	.LVL54:
 905 0188 6BE7     		b	.L21
 906              	.LVL55:
 907              	.L58:
 908              	.LBB573:
 909              	.LBB569:
 174:../../../lib/pd2dsy/libdaisy/src/hid/disp/display.h ****     }
 910              		.loc 4 174 33 view .LVU187
 911 018a 3046     		mov	r0, r6
 912 018c 9847     		blx	r3
 913              	.LVL56:
 914 018e D8E7     		b	.L35
 915              	.LVL57:
 916              	.L56:
 173:../../../lib/pd2dsy/libdaisy/src/hid/disp/display.h ****         currentY_ = (y >= Height()) ? Height() - 1 : y;
 917              		.loc 4 173 32 view .LVU188
 918 0190 3046     		mov	r0, r6
 919 0192 9847     		blx	r3
ARM GAS  /var/folders/fb/yfxt3z4538j6z0vjt03w70vc0000gn/T//ccrD3Rdr.s 			page 43


 920              	.LVL58:
 173:../../../lib/pd2dsy/libdaisy/src/hid/disp/display.h ****         currentY_ = (y >= Height()) ? Height() - 1 : y;
 921              		.loc 4 173 44 view .LVU189
 922 0194 3268     		ldr	r2, [r6]
 923 0196 C7E7     		b	.L32
 924              	.LVL59:
 925              	.L22:
 173:../../../lib/pd2dsy/libdaisy/src/hid/disp/display.h ****         currentY_ = (y >= Height()) ? Height() - 1 : y;
 926              		.loc 4 173 44 view .LVU190
 927              	.LBE569:
 928              	.LBE573:
 434:../../../lib/pd2dsy/libdaisy/src/hid/disp/display.h **** 
 929              		.loc 4 434 19 view .LVU191
 930 0198 B6F804B0 		ldrh	fp, [r6, #4]
 931 019c BBE7     		b	.L24
 932              	.LVL60:
 933              	.L59:
 934              	.LBB574:
 935              	.LBB570:
 174:../../../lib/pd2dsy/libdaisy/src/hid/disp/display.h ****     }
 936              		.loc 4 174 45 view .LVU192
 937 019e 3046     		mov	r0, r6
 938 01a0 9847     		blx	r3
 939              	.LVL61:
 174:../../../lib/pd2dsy/libdaisy/src/hid/disp/display.h ****     }
 940              		.loc 4 174 19 view .LVU193
 941 01a2 0138     		subs	r0, r0, #1
 942 01a4 83B2     		uxth	r3, r0
 943 01a6 0293     		str	r3, [sp, #8]
 944              	.LVL62:
 174:../../../lib/pd2dsy/libdaisy/src/hid/disp/display.h ****     }
 945              		.loc 4 174 19 view .LVU194
 946 01a8 D5E7     		b	.L36
 947              	.LVL63:
 948              	.L57:
 173:../../../lib/pd2dsy/libdaisy/src/hid/disp/display.h ****         currentY_ = (y >= Height()) ? Height() - 1 : y;
 949              		.loc 4 173 43 view .LVU195
 950 01aa 3046     		mov	r0, r6
 951 01ac 9847     		blx	r3
 952              	.LVL64:
 173:../../../lib/pd2dsy/libdaisy/src/hid/disp/display.h ****         currentY_ = (y >= Height()) ? Height() - 1 : y;
 953              		.loc 4 173 19 view .LVU196
 954 01ae 0138     		subs	r0, r0, #1
 174:../../../lib/pd2dsy/libdaisy/src/hid/disp/display.h ****     }
 955              		.loc 4 174 34 view .LVU197
 956 01b0 3268     		ldr	r2, [r6]
 173:../../../lib/pd2dsy/libdaisy/src/hid/disp/display.h ****         currentY_ = (y >= Height()) ? Height() - 1 : y;
 957              		.loc 4 173 19 view .LVU198
 958 01b2 84B2     		uxth	r4, r0
 959              	.LVL65:
 173:../../../lib/pd2dsy/libdaisy/src/hid/disp/display.h ****         currentY_ = (y >= Height()) ? Height() - 1 : y;
 960              		.loc 4 173 19 view .LVU199
 961 01b4 BFE7     		b	.L33
 962              	.L61:
 963 01b6 00BF     		.align	2
 964              	.L60:
 965 01b8 00000000 		.word	_ZNK5daisy11OledDisplayINS_13SSD130xDriverILj128ELj64ENS_24SSD130x4WireSpiTransportEEEE5Widt
ARM GAS  /var/folders/fb/yfxt3z4538j6z0vjt03w70vc0000gn/T//ccrD3Rdr.s 			page 44


 966 01bc 00000000 		.word	_ZNK5daisy11OledDisplayINS_13SSD130xDriverILj128ELj64ENS_24SSD130x4WireSpiTransportEEEE6Heig
 967              	.LBE570:
 968              	.LBE574:
 969              	.LBE576:
 970              	.LBE578:
 971              		.cfi_endproc
 972              	.LFE3080:
 974              		.section	.text._ZN5daisy25OneBitGraphicsDisplayImplINS_11OledDisplayINS_13SSD130xDriverILj128ELj64
 975              		.align	1
 976              		.p2align 2,,3
 977              		.weak	_ZN5daisy25OneBitGraphicsDisplayImplINS_11OledDisplayINS_13SSD130xDriverILj128ELj64ENS_24SSD
 978              		.syntax unified
 979              		.thumb
 980              		.thumb_func
 982              	_ZN5daisy25OneBitGraphicsDisplayImplINS_11OledDisplayINS_13SSD130xDriverILj128ELj64ENS_24SSD130x4Wi
 983              	.LVL66:
 984              	.LFB3079:
 396:../../../lib/pd2dsy/libdaisy/src/hid/disp/display.h ****     {
 985              		.loc 4 396 10 is_stmt 1 view -0
 986              		.cfi_startproc
 987              		@ args = 4, pretend = 0, frame = 16
 988              		@ frame_needed = 0, uses_anonymous_args = 0
 396:../../../lib/pd2dsy/libdaisy/src/hid/disp/display.h ****     {
 989              		.loc 4 396 10 is_stmt 0 view .LVU201
 990 0000 2DE9F04F 		push	{r4, r5, r6, r7, r8, r9, r10, fp, lr}
 991              		.cfi_def_cfa_offset 36
 992              		.cfi_offset 4, -36
 993              		.cfi_offset 5, -32
 994              		.cfi_offset 6, -28
 995              		.cfi_offset 7, -24
 996              		.cfi_offset 8, -20
 997              		.cfi_offset 9, -16
 998              		.cfi_offset 10, -12
 999              		.cfi_offset 11, -8
 1000              		.cfi_offset 14, -4
 1001 0004 85B0     		sub	sp, sp, #20
 1002              		.cfi_def_cfa_offset 56
 1003              	.LVL67:
 401:../../../lib/pd2dsy/libdaisy/src/hid/disp/display.h ****             return 0;
 1004              		.loc 4 401 20 view .LVU202
 1005 0006 A1F12005 		sub	r5, r1, #32
 396:../../../lib/pd2dsy/libdaisy/src/hid/disp/display.h ****     {
 1006              		.loc 4 396 10 view .LVU203
 1007 000a 04AC     		add	r4, sp, #16
 1008 000c 9DF83870 		ldrb	r7, [sp, #56]	@ zero_extendqisi2
 1009 0010 0091     		str	r1, [sp]
 1010 0012 04E90C00 		stmdb	r4, {r2, r3}
 1011              	.LVL68:
 401:../../../lib/pd2dsy/libdaisy/src/hid/disp/display.h ****             return 0;
 1012              		.loc 4 401 9 view .LVU204
 1013 0016 EBB2     		uxtb	r3, r5
 1014 0018 5E2B     		cmp	r3, #94
 1015 001a 00F29580 		bhi	.L66
 405:../../../lib/pd2dsy/libdaisy/src/hid/disp/display.h ****            || Height() < (currentY_ + font.FontHeight))
 1016              		.loc 4 405 17 view .LVU205
 1017 001e 0368     		ldr	r3, [r0]
 1018 0020 8046     		mov	r8, r0
ARM GAS  /var/folders/fb/yfxt3z4538j6z0vjt03w70vc0000gn/T//ccrD3Rdr.s 			page 45


 1019 0022 5D4A     		ldr	r2, .L101
 1020 0024 DB68     		ldr	r3, [r3, #12]
 1021 0026 9DF80840 		ldrb	r4, [sp, #8]	@ zero_extendqisi2
 1022 002a 9342     		cmp	r3, r2
 1023 002c 9DF80960 		ldrb	r6, [sp, #9]	@ zero_extendqisi2
 1024 0030 40F09480 		bne	.L93
 1025 0034 8020     		movs	r0, #128
 1026              	.LVL69:
 1027              	.L65:
 405:../../../lib/pd2dsy/libdaisy/src/hid/disp/display.h ****            || Height() < (currentY_ + font.FontHeight))
 1028              		.loc 4 405 23 view .LVU206
 1029 0036 B8F80430 		ldrh	r3, [r8, #4]
 405:../../../lib/pd2dsy/libdaisy/src/hid/disp/display.h ****            || Height() < (currentY_ + font.FontHeight))
 1030              		.loc 4 405 33 view .LVU207
 1031 003a 2344     		add	r3, r3, r4
 406:../../../lib/pd2dsy/libdaisy/src/hid/disp/display.h ****         {
 1032              		.loc 4 406 12 view .LVU208
 1033 003c 8342     		cmp	r3, r0
 1034 003e 00F38380 		bgt	.L66
 406:../../../lib/pd2dsy/libdaisy/src/hid/disp/display.h ****         {
 1035              		.loc 4 406 21 discriminator 2 view .LVU209
 1036 0042 D8F80030 		ldr	r3, [r8]
 1037 0046 554A     		ldr	r2, .L101+4
 1038 0048 9B68     		ldr	r3, [r3, #8]
 1039 004a 9342     		cmp	r3, r2
 1040 004c 40F08880 		bne	.L94
 406:../../../lib/pd2dsy/libdaisy/src/hid/disp/display.h ****         {
 1041              		.loc 4 406 21 view .LVU210
 1042 0050 4020     		movs	r0, #64
 1043              	.L67:
 406:../../../lib/pd2dsy/libdaisy/src/hid/disp/display.h ****         {
 1044              		.loc 4 406 27 discriminator 2 view .LVU211
 1045 0052 B8F80620 		ldrh	r2, [r8, #6]
 406:../../../lib/pd2dsy/libdaisy/src/hid/disp/display.h ****         {
 1046              		.loc 4 406 37 discriminator 2 view .LVU212
 1047 0056 9319     		adds	r3, r2, r6
 406:../../../lib/pd2dsy/libdaisy/src/hid/disp/display.h ****         {
 1048              		.loc 4 406 27 discriminator 2 view .LVU213
 1049 0058 0192     		str	r2, [sp, #4]
 406:../../../lib/pd2dsy/libdaisy/src/hid/disp/display.h ****         {
 1050              		.loc 4 406 12 discriminator 2 view .LVU214
 1051 005a 8342     		cmp	r3, r0
 1052 005c 74DC     		bgt	.L66
 1053              	.LVL70:
 413:../../../lib/pd2dsy/libdaisy/src/hid/disp/display.h ****         {
 1054              		.loc 4 413 22 is_stmt 1 view .LVU215
 1055 005e 002E     		cmp	r6, #0
 1056 0060 00F08980 		beq	.L68
 415:../../../lib/pd2dsy/libdaisy/src/hid/disp/display.h ****             for(j = 0; j < font.FontWidth; j++)
 1057              		.loc 4 415 37 is_stmt 0 view .LVU216
 1058 0064 06FB05F5 		mul	r5, r6, r5
 1059 0068 6FF00040 		mvn	r0, #-2147483648
 415:../../../lib/pd2dsy/libdaisy/src/hid/disp/display.h ****             for(j = 0; j < font.FontWidth; j++)
 1060              		.loc 4 415 22 view .LVU217
 1061 006c 039B     		ldr	r3, [sp, #12]
 1062 006e 9646     		mov	lr, r2
 1063 0070 2844     		add	r0, r0, r5
ARM GAS  /var/folders/fb/yfxt3z4538j6z0vjt03w70vc0000gn/T//ccrD3Rdr.s 			page 46


 1064 0072 2E44     		add	r6, r6, r5
 434:../../../lib/pd2dsy/libdaisy/src/hid/disp/display.h **** 
 1065              		.loc 4 434 19 view .LVU218
 1066 0074 B8F804A0 		ldrh	r10, [r8, #4]
 1067 0078 03EB4000 		add	r0, r3, r0, lsl #1
 1068 007c 023B     		subs	r3, r3, #2
 1069 007e 03EB460B 		add	fp, r3, r6, lsl #1
 1070              	.LVL71:
 1071              	.L71:
 415:../../../lib/pd2dsy/libdaisy/src/hid/disp/display.h ****             for(j = 0; j < font.FontWidth; j++)
 1072              		.loc 4 415 15 view .LVU219
 1073 0082 30F8026F 		ldrh	r6, [r0, #2]!
 1074              	.LVL72:
 416:../../../lib/pd2dsy/libdaisy/src/hid/disp/display.h ****             {
 1075              		.loc 4 416 26 is_stmt 1 view .LVU220
 1076 0086 BCB3     		cbz	r4, .L76
 1077              	.LBB609:
 1078              	.LBB610:
 1079              	.LBB611:
 1080              	.LBB612:
 1081              	.LBB613:
 259:../../../lib/pd2dsy/libdaisy/src/dev/oled_ssd130x.h ****     }
 1082              		.loc 3 259 55 is_stmt 0 view .LVU221
 1083 0088 0EF00703 		and	r3, lr, #7
 259:../../../lib/pd2dsy/libdaisy/src/dev/oled_ssd130x.h ****     }
 1084              		.loc 3 259 49 view .LVU222
 1085 008c 4FF0010C 		mov	ip, #1
 259:../../../lib/pd2dsy/libdaisy/src/dev/oled_ssd130x.h ****     }
 1086              		.loc 3 259 28 view .LVU223
 1087 0090 4FEADE02 		lsr	r2, lr, #3
 1088 0094 5146     		mov	r1, r10
 259:../../../lib/pd2dsy/libdaisy/src/dev/oled_ssd130x.h ****     }
 1089              		.loc 3 259 49 view .LVU224
 1090 0096 0CFA03FC 		lsl	ip, ip, r3
 1091 009a 0AF11403 		add	r3, r10, #20
 259:../../../lib/pd2dsy/libdaisy/src/dev/oled_ssd130x.h ****     }
 1092              		.loc 3 259 42 view .LVU225
 1093 009e 4FFA8CFC 		sxtb	ip, ip
 1094 00a2 03EBC212 		add	r2, r3, r2, lsl #7
 1095              	.LBE613:
 1096              	.LBE612:
 1097              	.LBE611:
 1098              	.LBE610:
 1099              	.LBE609:
 416:../../../lib/pd2dsy/libdaisy/src/hid/disp/display.h ****             {
 1100              		.loc 4 416 19 view .LVU226
 1101 00a6 0023     		movs	r3, #0
 1102              	.LBB631:
 1103              	.LBB626:
 1104              	.LBB621:
 1105              	.LBB617:
 1106              	.LBB614:
 259:../../../lib/pd2dsy/libdaisy/src/dev/oled_ssd130x.h ****     }
 1107              		.loc 3 259 42 view .LVU227
 1108 00a8 6FEA0C09 		mvn	r9, ip
 1109 00ac 4244     		add	r2, r2, r8
 1110 00ae 0EE0     		b	.L77
ARM GAS  /var/folders/fb/yfxt3z4538j6z0vjt03w70vc0000gn/T//ccrD3Rdr.s 			page 47


 1111              	.LVL73:
 1112              	.L95:
 259:../../../lib/pd2dsy/libdaisy/src/dev/oled_ssd130x.h ****     }
 1113              		.loc 3 259 42 view .LVU228
 1114              	.LBE614:
 1115              	.LBE617:
 1116              	.LBE621:
 1117              	.LBE626:
 1118              	.LBE631:
 1119              	.LBB632:
 1120              	.LBI632:
  42:../../../lib/pd2dsy/libdaisy/src/hid/disp/oled_display.h ****     {
 1121              		.loc 2 42 10 is_stmt 1 view .LVU229
 1122              	.LBB633:
 1123              	.LBI633:
 252:../../../lib/pd2dsy/libdaisy/src/dev/oled_ssd130x.h ****     {
 1124              		.loc 3 252 10 view .LVU230
 1125              	.LBB634:
 254:../../../lib/pd2dsy/libdaisy/src/dev/oled_ssd130x.h ****             return;
 1126              		.loc 3 254 9 is_stmt 0 view .LVU231
 1127 00b0 7F29     		cmp	r1, #127
 1128 00b2 07D8     		bhi	.L73
 1129 00b4 BEF13F0F 		cmp	lr, #63
 1130 00b8 04D8     		bhi	.L73
 257:../../../lib/pd2dsy/libdaisy/src/dev/oled_ssd130x.h ****         else
 1131              		.loc 3 257 42 view .LVU232
 1132 00ba 1578     		ldrb	r5, [r2]	@ zero_extendqisi2
 256:../../../lib/pd2dsy/libdaisy/src/dev/oled_ssd130x.h ****             buffer_[x + (y / 8) * width] |= (1 << (y % 8));
 1133              		.loc 3 256 9 view .LVU233
 1134 00bc 9FB1     		cbz	r7, .L75
 1135              	.L92:
 256:../../../lib/pd2dsy/libdaisy/src/dev/oled_ssd130x.h ****             buffer_[x + (y / 8) * width] |= (1 << (y % 8));
 1136              		.loc 3 256 9 view .LVU234
 1137              	.LBE634:
 1138              	.LBE633:
 1139              	.LBE632:
 1140              	.LBB635:
 1141              	.LBB627:
 1142              	.LBB622:
 257:../../../lib/pd2dsy/libdaisy/src/dev/oled_ssd130x.h ****         else
 1143              		.loc 3 257 42 view .LVU235
 1144 00be 4CEA0505 		orr	r5, ip, r5
 1145 00c2 1570     		strb	r5, [r2]
 1146              	.L73:
 1147              	.LBE622:
 1148              	.LBE627:
 1149              	.LBE635:
 416:../../../lib/pd2dsy/libdaisy/src/hid/disp/display.h ****             {
 1150              		.loc 4 416 13 is_stmt 1 discriminator 2 view .LVU236
 1151 00c4 0133     		adds	r3, r3, #1
 1152              	.LVL74:
 416:../../../lib/pd2dsy/libdaisy/src/hid/disp/display.h ****             {
 1153              		.loc 4 416 26 discriminator 2 view .LVU237
 1154 00c6 0132     		adds	r2, r2, #1
 1155 00c8 0131     		adds	r1, r1, #1
 1156 00ca 9C42     		cmp	r4, r3
 1157 00cc 14D0     		beq	.L76
ARM GAS  /var/folders/fb/yfxt3z4538j6z0vjt03w70vc0000gn/T//ccrD3Rdr.s 			page 48


 1158              	.LVL75:
 1159              	.L77:
 418:../../../lib/pd2dsy/libdaisy/src/hid/disp/display.h ****                 {
 1160              		.loc 4 418 23 is_stmt 0 view .LVU238
 1161 00ce 06FA03F5 		lsl	r5, r6, r3
 418:../../../lib/pd2dsy/libdaisy/src/hid/disp/display.h ****                 {
 1162              		.loc 4 418 17 view .LVU239
 1163 00d2 2D04     		lsls	r5, r5, #16
 1164 00d4 ECD4     		bmi	.L95
 1165              	.LVL76:
 1166              	.LBB636:
 1167              	.LBI609:
  42:../../../lib/pd2dsy/libdaisy/src/hid/disp/oled_display.h ****     {
 1168              		.loc 2 42 10 is_stmt 1 view .LVU240
 1169              	.LBB628:
 1170              	.LBI610:
 252:../../../lib/pd2dsy/libdaisy/src/dev/oled_ssd130x.h ****     {
 1171              		.loc 3 252 10 view .LVU241
 1172              	.LBB623:
 254:../../../lib/pd2dsy/libdaisy/src/dev/oled_ssd130x.h ****             return;
 1173              		.loc 3 254 9 is_stmt 0 view .LVU242
 1174 00d6 7F29     		cmp	r1, #127
 1175 00d8 F4D8     		bhi	.L73
 1176 00da BEF13F0F 		cmp	lr, #63
 1177 00de F1D8     		bhi	.L73
 257:../../../lib/pd2dsy/libdaisy/src/dev/oled_ssd130x.h ****         else
 1178              		.loc 3 257 42 view .LVU243
 1179 00e0 1578     		ldrb	r5, [r2]	@ zero_extendqisi2
 256:../../../lib/pd2dsy/libdaisy/src/dev/oled_ssd130x.h ****             buffer_[x + (y / 8) * width] |= (1 << (y % 8));
 1180              		.loc 3 256 9 view .LVU244
 1181 00e2 002F     		cmp	r7, #0
 1182 00e4 EBD0     		beq	.L92
 1183              	.L75:
 1184              	.LVL77:
 1185              	.LBB618:
 1186              	.LBI612:
 252:../../../lib/pd2dsy/libdaisy/src/dev/oled_ssd130x.h ****     {
 1187              		.loc 3 252 10 is_stmt 1 view .LVU245
 252:../../../lib/pd2dsy/libdaisy/src/dev/oled_ssd130x.h ****     {
 1188              		.loc 3 252 10 is_stmt 0 view .LVU246
 1189              	.LBE618:
 1190              	.LBE623:
 1191              	.LBE628:
 1192              	.LBE636:
 416:../../../lib/pd2dsy/libdaisy/src/hid/disp/display.h ****             {
 1193              		.loc 4 416 13 view .LVU247
 1194 00e6 0133     		adds	r3, r3, #1
 1195              	.LVL78:
 1196              	.LBB637:
 1197              	.LBB629:
 1198              	.LBB624:
 1199              	.LBB619:
 1200              	.LBB615:
 259:../../../lib/pd2dsy/libdaisy/src/dev/oled_ssd130x.h ****     }
 1201              		.loc 3 259 42 view .LVU248
 1202 00e8 09EA0505 		and	r5, r9, r5
 1203              	.LBE615:
ARM GAS  /var/folders/fb/yfxt3z4538j6z0vjt03w70vc0000gn/T//ccrD3Rdr.s 			page 49


 1204              	.LBE619:
 1205              	.LBE624:
 1206              	.LBE629:
 1207              	.LBE637:
 416:../../../lib/pd2dsy/libdaisy/src/hid/disp/display.h ****             {
 1208              		.loc 4 416 26 view .LVU249
 1209 00ec 0132     		adds	r2, r2, #1
 1210 00ee 0131     		adds	r1, r1, #1
 1211 00f0 9C42     		cmp	r4, r3
 1212              	.LBB638:
 1213              	.LBB630:
 1214              	.LBB625:
 1215              	.LBB620:
 1216              	.LBB616:
 259:../../../lib/pd2dsy/libdaisy/src/dev/oled_ssd130x.h ****     }
 1217              		.loc 3 259 42 view .LVU250
 1218 00f2 02F8015C 		strb	r5, [r2, #-1]
 259:../../../lib/pd2dsy/libdaisy/src/dev/oled_ssd130x.h ****     }
 1219              		.loc 3 259 42 view .LVU251
 1220              	.LBE616:
 1221              	.LBE620:
 1222              	.LBE625:
 1223              	.LBE630:
 1224              	.LBE638:
 416:../../../lib/pd2dsy/libdaisy/src/hid/disp/display.h ****             {
 1225              		.loc 4 416 13 is_stmt 1 view .LVU252
 1226              	.LVL79:
 416:../../../lib/pd2dsy/libdaisy/src/hid/disp/display.h ****             {
 1227              		.loc 4 416 26 view .LVU253
 1228 00f6 EAD1     		bne	.L77
 1229              	.LVL80:
 1230              	.L76:
 413:../../../lib/pd2dsy/libdaisy/src/hid/disp/display.h ****         {
 1231              		.loc 4 413 9 view .LVU254
 413:../../../lib/pd2dsy/libdaisy/src/hid/disp/display.h ****         {
 1232              		.loc 4 413 22 view .LVU255
 1233 00f8 5845     		cmp	r0, fp
 1234 00fa 0EF1010E 		add	lr, lr, #1
 1235 00fe C0D1     		bne	.L71
 1236              	.LVL81:
 1237              	.L70:
 1238              	.LBB639:
 1239              	.LBB640:
 173:../../../lib/pd2dsy/libdaisy/src/hid/disp/display.h ****         currentY_ = (y >= Height()) ? Height() - 1 : y;
 1240              		.loc 4 173 33 is_stmt 0 view .LVU256
 1241 0100 D8F80030 		ldr	r3, [r8]
 1242              	.LBE640:
 1243              	.LBE639:
 434:../../../lib/pd2dsy/libdaisy/src/hid/disp/display.h **** 
 1244              		.loc 4 434 18 view .LVU257
 1245 0104 5444     		add	r4, r4, r10
 1246 0106 2449     		ldr	r1, .L101
 1247              	.LBB646:
 1248              	.LBB641:
 173:../../../lib/pd2dsy/libdaisy/src/hid/disp/display.h ****         currentY_ = (y >= Height()) ? Height() - 1 : y;
 1249              		.loc 4 173 33 view .LVU258
 1250 0108 DA68     		ldr	r2, [r3, #12]
ARM GAS  /var/folders/fb/yfxt3z4538j6z0vjt03w70vc0000gn/T//ccrD3Rdr.s 			page 50


 1251              	.LBE641:
 1252              	.LBE646:
 434:../../../lib/pd2dsy/libdaisy/src/hid/disp/display.h **** 
 1253              		.loc 4 434 18 view .LVU259
 1254 010a A4B2     		uxth	r4, r4
 1255              	.LVL82:
 1256              	.LBB647:
 1257              	.LBI639:
 171:../../../lib/pd2dsy/libdaisy/src/hid/disp/display.h ****     {
 1258              		.loc 4 171 10 is_stmt 1 view .LVU260
 1259              	.LBB642:
 173:../../../lib/pd2dsy/libdaisy/src/hid/disp/display.h ****         currentY_ = (y >= Height()) ? Height() - 1 : y;
 1260              		.loc 4 173 9 view .LVU261
 1261 010c 8A42     		cmp	r2, r1
 1262 010e 2DD1     		bne	.L96
 173:../../../lib/pd2dsy/libdaisy/src/hid/disp/display.h ****         currentY_ = (y >= Height()) ? Height() - 1 : y;
 1263              		.loc 4 173 33 is_stmt 0 view .LVU262
 1264 0110 8020     		movs	r0, #128
 1265              	.L78:
 173:../../../lib/pd2dsy/libdaisy/src/hid/disp/display.h ****         currentY_ = (y >= Height()) ? Height() - 1 : y;
 1266              		.loc 4 173 19 view .LVU263
 1267 0112 8442     		cmp	r4, r0
 1268 0114 1CD2     		bcs	.L97
 1269              	.LVL83:
 1270              	.L79:
 174:../../../lib/pd2dsy/libdaisy/src/hid/disp/display.h ****     }
 1271              		.loc 4 174 34 view .LVU264
 1272 0116 9B68     		ldr	r3, [r3, #8]
 1273 0118 204A     		ldr	r2, .L101+4
 173:../../../lib/pd2dsy/libdaisy/src/hid/disp/display.h ****         currentY_ = (y >= Height()) ? Height() - 1 : y;
 1274              		.loc 4 173 19 view .LVU265
 1275 011a A8F80440 		strh	r4, [r8, #4]	@ movhi
 174:../../../lib/pd2dsy/libdaisy/src/hid/disp/display.h ****     }
 1276              		.loc 4 174 9 is_stmt 1 view .LVU266
 1277 011e 9342     		cmp	r3, r2
 1278 0120 21D1     		bne	.L98
 174:../../../lib/pd2dsy/libdaisy/src/hid/disp/display.h ****     }
 1279              		.loc 4 174 34 is_stmt 0 view .LVU267
 1280 0122 4020     		movs	r0, #64
 1281              	.L81:
 174:../../../lib/pd2dsy/libdaisy/src/hid/disp/display.h ****     }
 1282              		.loc 4 174 19 view .LVU268
 1283 0124 019B     		ldr	r3, [sp, #4]
 1284 0126 8342     		cmp	r3, r0
 1285 0128 07D3     		bcc	.L82
 174:../../../lib/pd2dsy/libdaisy/src/hid/disp/display.h ****     }
 1286              		.loc 4 174 46 view .LVU269
 1287 012a D8F80030 		ldr	r3, [r8]
 1288 012e 1B4A     		ldr	r2, .L101+4
 1289 0130 9B68     		ldr	r3, [r3, #8]
 1290 0132 9342     		cmp	r3, r2
 1291 0134 29D1     		bne	.L99
 1292 0136 3F23     		movs	r3, #63
 1293 0138 0193     		str	r3, [sp, #4]
 1294              	.LVL84:
 1295              	.L82:
 174:../../../lib/pd2dsy/libdaisy/src/hid/disp/display.h ****     }
ARM GAS  /var/folders/fb/yfxt3z4538j6z0vjt03w70vc0000gn/T//ccrD3Rdr.s 			page 51


 1296              		.loc 4 174 19 view .LVU270
 1297 013a DDE90003 		ldrd	r0, r3, [sp]
 1298 013e A8F80630 		strh	r3, [r8, #6]	@ movhi
 1299              	.LVL85:
 174:../../../lib/pd2dsy/libdaisy/src/hid/disp/display.h ****     }
 1300              		.loc 4 174 19 view .LVU271
 1301              	.LBE642:
 1302              	.LBE647:
 438:../../../lib/pd2dsy/libdaisy/src/hid/disp/display.h **** 
 1303              		.loc 4 438 5 view .LVU272
 1304 0142 05B0     		add	sp, sp, #20
 1305              		.cfi_remember_state
 1306              		.cfi_def_cfa_offset 36
 1307              		@ sp needed
 1308 0144 BDE8F08F 		pop	{r4, r5, r6, r7, r8, r9, r10, fp, pc}
 1309              	.LVL86:
 1310              	.L66:
 1311              		.cfi_restore_state
 402:../../../lib/pd2dsy/libdaisy/src/hid/disp/display.h **** 
 1312              		.loc 4 402 20 view .LVU273
 1313 0148 0020     		movs	r0, #0
 438:../../../lib/pd2dsy/libdaisy/src/hid/disp/display.h **** 
 1314              		.loc 4 438 5 view .LVU274
 1315 014a 05B0     		add	sp, sp, #20
 1316              		.cfi_remember_state
 1317              		.cfi_def_cfa_offset 36
 1318              		@ sp needed
 1319 014c BDE8F08F 		pop	{r4, r5, r6, r7, r8, r9, r10, fp, pc}
 1320              	.LVL87:
 1321              	.L97:
 1322              		.cfi_restore_state
 1323              	.LBB648:
 1324              	.LBB643:
 173:../../../lib/pd2dsy/libdaisy/src/hid/disp/display.h ****         currentY_ = (y >= Height()) ? Height() - 1 : y;
 1325              		.loc 4 173 44 view .LVU275
 1326 0150 DA68     		ldr	r2, [r3, #12]
 1327 0152 1149     		ldr	r1, .L101
 1328 0154 8A42     		cmp	r2, r1
 1329 0156 11D1     		bne	.L100
 1330 0158 7F24     		movs	r4, #127
 1331              	.LVL88:
 173:../../../lib/pd2dsy/libdaisy/src/hid/disp/display.h ****         currentY_ = (y >= Height()) ? Height() - 1 : y;
 1332              		.loc 4 173 44 view .LVU276
 1333 015a DCE7     		b	.L79
 1334              	.LVL89:
 1335              	.L93:
 173:../../../lib/pd2dsy/libdaisy/src/hid/disp/display.h ****         currentY_ = (y >= Height()) ? Height() - 1 : y;
 1336              		.loc 4 173 44 view .LVU277
 1337              	.LBE643:
 1338              	.LBE648:
 405:../../../lib/pd2dsy/libdaisy/src/hid/disp/display.h ****            || Height() < (currentY_ + font.FontHeight))
 1339              		.loc 4 405 17 view .LVU278
 1340 015c 9847     		blx	r3
 1341              	.LVL90:
 405:../../../lib/pd2dsy/libdaisy/src/hid/disp/display.h ****            || Height() < (currentY_ + font.FontHeight))
 1342              		.loc 4 405 17 view .LVU279
 1343 015e 6AE7     		b	.L65
ARM GAS  /var/folders/fb/yfxt3z4538j6z0vjt03w70vc0000gn/T//ccrD3Rdr.s 			page 52


 1344              	.L94:
 406:../../../lib/pd2dsy/libdaisy/src/hid/disp/display.h ****         {
 1345              		.loc 4 406 21 discriminator 2 view .LVU280
 1346 0160 4046     		mov	r0, r8
 1347 0162 9847     		blx	r3
 1348              	.LVL91:
 1349 0164 75E7     		b	.L67
 1350              	.LVL92:
 1351              	.L98:
 1352              	.LBB649:
 1353              	.LBB644:
 174:../../../lib/pd2dsy/libdaisy/src/hid/disp/display.h ****     }
 1354              		.loc 4 174 33 view .LVU281
 1355 0166 4046     		mov	r0, r8
 1356 0168 9847     		blx	r3
 1357              	.LVL93:
 1358 016a DBE7     		b	.L81
 1359              	.LVL94:
 1360              	.L96:
 173:../../../lib/pd2dsy/libdaisy/src/hid/disp/display.h ****         currentY_ = (y >= Height()) ? Height() - 1 : y;
 1361              		.loc 4 173 32 view .LVU282
 1362 016c 4046     		mov	r0, r8
 1363 016e 9047     		blx	r2
 1364              	.LVL95:
 173:../../../lib/pd2dsy/libdaisy/src/hid/disp/display.h ****         currentY_ = (y >= Height()) ? Height() - 1 : y;
 1365              		.loc 4 173 44 view .LVU283
 1366 0170 D8F80030 		ldr	r3, [r8]
 1367 0174 CDE7     		b	.L78
 1368              	.LVL96:
 1369              	.L68:
 173:../../../lib/pd2dsy/libdaisy/src/hid/disp/display.h ****         currentY_ = (y >= Height()) ? Height() - 1 : y;
 1370              		.loc 4 173 44 view .LVU284
 1371              	.LBE644:
 1372              	.LBE649:
 434:../../../lib/pd2dsy/libdaisy/src/hid/disp/display.h **** 
 1373              		.loc 4 434 19 view .LVU285
 1374 0176 B8F804A0 		ldrh	r10, [r8, #4]
 1375 017a C1E7     		b	.L70
 1376              	.LVL97:
 1377              	.L100:
 1378              	.LBB650:
 1379              	.LBB645:
 173:../../../lib/pd2dsy/libdaisy/src/hid/disp/display.h ****         currentY_ = (y >= Height()) ? Height() - 1 : y;
 1380              		.loc 4 173 43 view .LVU286
 1381 017c 4046     		mov	r0, r8
 1382 017e 9047     		blx	r2
 1383              	.LVL98:
 173:../../../lib/pd2dsy/libdaisy/src/hid/disp/display.h ****         currentY_ = (y >= Height()) ? Height() - 1 : y;
 1384              		.loc 4 173 19 view .LVU287
 1385 0180 0138     		subs	r0, r0, #1
 174:../../../lib/pd2dsy/libdaisy/src/hid/disp/display.h ****     }
 1386              		.loc 4 174 34 view .LVU288
 1387 0182 D8F80030 		ldr	r3, [r8]
 173:../../../lib/pd2dsy/libdaisy/src/hid/disp/display.h ****         currentY_ = (y >= Height()) ? Height() - 1 : y;
 1388              		.loc 4 173 19 view .LVU289
 1389 0186 84B2     		uxth	r4, r0
 1390              	.LVL99:
ARM GAS  /var/folders/fb/yfxt3z4538j6z0vjt03w70vc0000gn/T//ccrD3Rdr.s 			page 53


 173:../../../lib/pd2dsy/libdaisy/src/hid/disp/display.h ****         currentY_ = (y >= Height()) ? Height() - 1 : y;
 1391              		.loc 4 173 19 view .LVU290
 1392 0188 C5E7     		b	.L79
 1393              	.L99:
 174:../../../lib/pd2dsy/libdaisy/src/hid/disp/display.h ****     }
 1394              		.loc 4 174 45 view .LVU291
 1395 018a 4046     		mov	r0, r8
 1396 018c 9847     		blx	r3
 1397              	.LVL100:
 174:../../../lib/pd2dsy/libdaisy/src/hid/disp/display.h ****     }
 1398              		.loc 4 174 19 view .LVU292
 1399 018e 0138     		subs	r0, r0, #1
 1400 0190 83B2     		uxth	r3, r0
 1401 0192 0193     		str	r3, [sp, #4]
 1402              	.LVL101:
 174:../../../lib/pd2dsy/libdaisy/src/hid/disp/display.h ****     }
 1403              		.loc 4 174 19 view .LVU293
 1404 0194 D1E7     		b	.L82
 1405              	.L102:
 1406 0196 00BF     		.align	2
 1407              	.L101:
 1408 0198 00000000 		.word	_ZNK5daisy11OledDisplayINS_13SSD130xDriverILj128ELj64ENS_24SSD130x4WireSpiTransportEEEE5Widt
 1409 019c 00000000 		.word	_ZNK5daisy11OledDisplayINS_13SSD130xDriverILj128ELj64ENS_24SSD130x4WireSpiTransportEEEE6Heig
 1410              	.LBE645:
 1411              	.LBE650:
 1412              		.cfi_endproc
 1413              	.LFE3079:
 1415              		.section	.text._ZN5daisy25OneBitGraphicsDisplayImplINS_11OledDisplayINS_13SSD130xDriverILj128ELj64
 1416              		.align	1
 1417              		.p2align 2,,3
 1418              		.weak	_ZN5daisy25OneBitGraphicsDisplayImplINS_11OledDisplayINS_13SSD130xDriverILj128ELj64ENS_24SSD
 1419              		.syntax unified
 1420              		.thumb
 1421              		.thumb_func
 1423              	_ZN5daisy25OneBitGraphicsDisplayImplINS_11OledDisplayINS_13SSD130xDriverILj128ELj64ENS_24SSD130x4Wi
 1424              	.LVL102:
 1425              	.LFB3081:
 459:../../../lib/pd2dsy/libdaisy/src/hid/disp/display.h **** 
 460:../../../lib/pd2dsy/libdaisy/src/hid/disp/display.h ****     Rectangle WriteStringAligned(const char*    str,
 1426              		.loc 4 460 15 is_stmt 1 view -0
 1427              		.cfi_startproc
 1428              		@ args = 12, pretend = 0, frame = 32
 1429              		@ frame_needed = 0, uses_anonymous_args = 0
 1430              		.loc 4 460 15 is_stmt 0 view .LVU295
 1431 0000 2DE9F04F 		push	{r4, r5, r6, r7, r8, r9, r10, fp, lr}
 1432              		.cfi_def_cfa_offset 36
 1433              		.cfi_offset 4, -36
 1434              		.cfi_offset 5, -32
 1435              		.cfi_offset 6, -28
 1436              		.cfi_offset 7, -24
 1437              		.cfi_offset 8, -20
 1438              		.cfi_offset 9, -16
 1439              		.cfi_offset 10, -12
 1440              		.cfi_offset 11, -8
 1441              		.cfi_offset 14, -4
 1442 0004 89B0     		sub	sp, sp, #36
 1443              		.cfi_def_cfa_offset 72
ARM GAS  /var/folders/fb/yfxt3z4538j6z0vjt03w70vc0000gn/T//ccrD3Rdr.s 			page 54


 1444              		.loc 4 460 15 view .LVU296
 1445 0006 1D46     		mov	r5, r3
 1446 0008 8846     		mov	r8, r1
 1447              	.LVL103:
 1448              	.LBB789:
 1449              	.LBI789:
 461:../../../lib/pd2dsy/libdaisy/src/hid/disp/display.h ****                                  const FontDef& font,
 462:../../../lib/pd2dsy/libdaisy/src/hid/disp/display.h ****                                  Rectangle      boundingBox,
 463:../../../lib/pd2dsy/libdaisy/src/hid/disp/display.h ****                                  Alignment      alignment,
 464:../../../lib/pd2dsy/libdaisy/src/hid/disp/display.h ****                                  bool           on) override
 465:../../../lib/pd2dsy/libdaisy/src/hid/disp/display.h ****     {
 466:../../../lib/pd2dsy/libdaisy/src/hid/disp/display.h ****         const auto alignedRect
 467:../../../lib/pd2dsy/libdaisy/src/hid/disp/display.h ****             = GetTextRect(str, font).AlignedWithin(boundingBox, alignment);
 468:../../../lib/pd2dsy/libdaisy/src/hid/disp/display.h ****         SetCursor(alignedRect.GetX(), alignedRect.GetY());
 469:../../../lib/pd2dsy/libdaisy/src/hid/disp/display.h ****         ((ChildType*)(this))->ChildType::WriteString(str, font, on);
 470:../../../lib/pd2dsy/libdaisy/src/hid/disp/display.h ****         return alignedRect;
 471:../../../lib/pd2dsy/libdaisy/src/hid/disp/display.h ****     }
 472:../../../lib/pd2dsy/libdaisy/src/hid/disp/display.h **** 
 473:../../../lib/pd2dsy/libdaisy/src/hid/disp/display.h ****   private:
 474:../../../lib/pd2dsy/libdaisy/src/hid/disp/display.h ****     uint32_t strlen(const char* string)
 475:../../../lib/pd2dsy/libdaisy/src/hid/disp/display.h ****     {
 476:../../../lib/pd2dsy/libdaisy/src/hid/disp/display.h ****         uint32_t result = 0;
 477:../../../lib/pd2dsy/libdaisy/src/hid/disp/display.h ****         while(*string++ != '\0')
 478:../../../lib/pd2dsy/libdaisy/src/hid/disp/display.h ****             result++;
 479:../../../lib/pd2dsy/libdaisy/src/hid/disp/display.h ****         return result;
 480:../../../lib/pd2dsy/libdaisy/src/hid/disp/display.h ****     }
 481:../../../lib/pd2dsy/libdaisy/src/hid/disp/display.h **** 
 482:../../../lib/pd2dsy/libdaisy/src/hid/disp/display.h ****     Rectangle GetTextRect(const char* text, const FontDef& font)
 1450              		.loc 4 482 15 is_stmt 1 view .LVU297
 1451              	.LBB790:
 1452              	.LBB791:
 1453              	.LBI791:
 474:../../../lib/pd2dsy/libdaisy/src/hid/disp/display.h ****     {
 1454              		.loc 4 474 14 view .LVU298
 1455              	.LBB792:
 477:../../../lib/pd2dsy/libdaisy/src/hid/disp/display.h ****             result++;
 1456              		.loc 4 477 25 view .LVU299
 1457              	.LBE792:
 1458              	.LBE791:
 1459              	.LBE790:
 1460              	.LBE789:
 460:../../../lib/pd2dsy/libdaisy/src/hid/disp/display.h ****                                  const FontDef& font,
 1461              		.loc 4 460 15 is_stmt 0 view .LVU300
 1462 000a 0690     		str	r0, [sp, #24]
 1463              	.LBB807:
 1464              	.LBB803:
 1465              	.LBB796:
 1466              	.LBB793:
 477:../../../lib/pd2dsy/libdaisy/src/hid/disp/display.h ****             result++;
 1467              		.loc 4 477 25 view .LVU301
 1468 000c 1046     		mov	r0, r2
 1469              	.LVL104:
 477:../../../lib/pd2dsy/libdaisy/src/hid/disp/display.h ****             result++;
 1470              		.loc 4 477 25 view .LVU302
 1471              	.LBE793:
 1472              	.LBE796:
 1473              	.LBE803:
ARM GAS  /var/folders/fb/yfxt3z4538j6z0vjt03w70vc0000gn/T//ccrD3Rdr.s 			page 55


 1474              	.LBE807:
 460:../../../lib/pd2dsy/libdaisy/src/hid/disp/display.h ****                                  const FontDef& font,
 1475              		.loc 4 460 15 view .LVU303
 1476 000e 129C     		ldr	r4, [sp, #72]
 1477              	.LBB808:
 1478              	.LBB804:
 1479              	.LBB797:
 1480              	.LBB794:
 477:../../../lib/pd2dsy/libdaisy/src/hid/disp/display.h ****             result++;
 1481              		.loc 4 477 25 view .LVU304
 1482 0010 10F8013B 		ldrb	r3, [r0], #1	@ zero_extendqisi2
 1483              	.LVL105:
 477:../../../lib/pd2dsy/libdaisy/src/hid/disp/display.h ****             result++;
 1484              		.loc 4 477 25 view .LVU305
 1485              	.LBE794:
 1486              	.LBE797:
 1487              	.LBE804:
 1488              	.LBE808:
 460:../../../lib/pd2dsy/libdaisy/src/hid/disp/display.h ****                                  const FontDef& font,
 1489              		.loc 4 460 15 view .LVU306
 1490 0014 1399     		ldr	r1, [sp, #76]
 1491              	.LVL106:
 460:../../../lib/pd2dsy/libdaisy/src/hid/disp/display.h ****                                  const FontDef& font,
 1492              		.loc 4 460 15 view .LVU307
 1493 0016 9DF85060 		ldrb	r6, [sp, #80]	@ zero_extendqisi2
 1494 001a 0092     		str	r2, [sp]
 1495              	.LBB809:
 1496              	.LBB805:
 1497              	.LBB798:
 1498              	.LBB795:
 477:../../../lib/pd2dsy/libdaisy/src/hid/disp/display.h ****             result++;
 1499              		.loc 4 477 25 view .LVU308
 1500 001c 33B1     		cbz	r3, .L104
 476:../../../lib/pd2dsy/libdaisy/src/hid/disp/display.h ****         while(*string++ != '\0')
 1501              		.loc 4 476 18 view .LVU309
 1502 001e 0022     		movs	r2, #0
 1503              	.LVL107:
 1504              	.L105:
 477:../../../lib/pd2dsy/libdaisy/src/hid/disp/display.h ****             result++;
 1505              		.loc 4 477 25 view .LVU310
 1506 0020 10F8013B 		ldrb	r3, [r0], #1	@ zero_extendqisi2
 1507              	.LVL108:
 478:../../../lib/pd2dsy/libdaisy/src/hid/disp/display.h ****         return result;
 1508              		.loc 4 478 13 view .LVU311
 1509 0024 0132     		adds	r2, r2, #1
 1510              	.LVL109:
 477:../../../lib/pd2dsy/libdaisy/src/hid/disp/display.h ****             result++;
 1511              		.loc 4 477 25 is_stmt 1 view .LVU312
 1512 0026 002B     		cmp	r3, #0
 1513 0028 FAD1     		bne	.L105
 1514              	.LBE795:
 1515              	.LBE798:
 483:../../../lib/pd2dsy/libdaisy/src/hid/disp/display.h ****     {
 484:../../../lib/pd2dsy/libdaisy/src/hid/disp/display.h ****         const auto numChars = strlen(text);
 485:../../../lib/pd2dsy/libdaisy/src/hid/disp/display.h ****         return {int16_t(numChars * font.FontWidth), font.FontHeight};
 1516              		.loc 4 485 68 is_stmt 0 view .LVU313
 1517 002a 93B2     		uxth	r3, r2
ARM GAS  /var/folders/fb/yfxt3z4538j6z0vjt03w70vc0000gn/T//ccrD3Rdr.s 			page 56


 1518              	.LVL110:
 1519              	.L104:
 1520              		.loc 4 485 68 view .LVU314
 1521 002c 2A78     		ldrb	r2, [r5]	@ zero_extendqisi2
 1522              		.loc 4 485 58 view .LVU315
 1523 002e 6878     		ldrb	r0, [r5, #1]	@ zero_extendqisi2
 1524              		.loc 4 485 68 view .LVU316
 1525 0030 12FB03F3 		smulbb	r3, r2, r3
 1526 0034 02B2     		sxth	r2, r0
 1527              	.LVL111:
 1528              	.LBB799:
 1529              	.LBI799:
 1530              		.file 15 "../../../lib/pd2dsy/libdaisy/src/hid/disp/graphics_common.h"
   1:../../../lib/pd2dsy/libdaisy/src/hid/disp/graphics_common.h **** #pragma once
   2:../../../lib/pd2dsy/libdaisy/src/hid/disp/graphics_common.h **** 
   3:../../../lib/pd2dsy/libdaisy/src/hid/disp/graphics_common.h **** #include <cstdint>
   4:../../../lib/pd2dsy/libdaisy/src/hid/disp/graphics_common.h **** 
   5:../../../lib/pd2dsy/libdaisy/src/hid/disp/graphics_common.h **** namespace daisy
   6:../../../lib/pd2dsy/libdaisy/src/hid/disp/graphics_common.h **** {
   7:../../../lib/pd2dsy/libdaisy/src/hid/disp/graphics_common.h **** /** Justifications */
   8:../../../lib/pd2dsy/libdaisy/src/hid/disp/graphics_common.h **** enum class Alignment
   9:../../../lib/pd2dsy/libdaisy/src/hid/disp/graphics_common.h **** {
  10:../../../lib/pd2dsy/libdaisy/src/hid/disp/graphics_common.h ****     centered,
  11:../../../lib/pd2dsy/libdaisy/src/hid/disp/graphics_common.h ****     topLeft,
  12:../../../lib/pd2dsy/libdaisy/src/hid/disp/graphics_common.h ****     topCentered,
  13:../../../lib/pd2dsy/libdaisy/src/hid/disp/graphics_common.h ****     topRight,
  14:../../../lib/pd2dsy/libdaisy/src/hid/disp/graphics_common.h ****     bottomLeft,
  15:../../../lib/pd2dsy/libdaisy/src/hid/disp/graphics_common.h ****     bottomCentered,
  16:../../../lib/pd2dsy/libdaisy/src/hid/disp/graphics_common.h ****     bottomRight,
  17:../../../lib/pd2dsy/libdaisy/src/hid/disp/graphics_common.h ****     centeredLeft,
  18:../../../lib/pd2dsy/libdaisy/src/hid/disp/graphics_common.h ****     centeredRight
  19:../../../lib/pd2dsy/libdaisy/src/hid/disp/graphics_common.h **** };
  20:../../../lib/pd2dsy/libdaisy/src/hid/disp/graphics_common.h **** 
  21:../../../lib/pd2dsy/libdaisy/src/hid/disp/graphics_common.h **** class Rectangle
  22:../../../lib/pd2dsy/libdaisy/src/hid/disp/graphics_common.h **** {
  23:../../../lib/pd2dsy/libdaisy/src/hid/disp/graphics_common.h ****   public:
  24:../../../lib/pd2dsy/libdaisy/src/hid/disp/graphics_common.h ****     Rectangle() : x_(0), y_(0), width_(0), height_(0) {}
  25:../../../lib/pd2dsy/libdaisy/src/hid/disp/graphics_common.h **** 
  26:../../../lib/pd2dsy/libdaisy/src/hid/disp/graphics_common.h ****     Rectangle(int16_t width, int16_t height)
 1531              		.loc 15 26 5 is_stmt 1 view .LVU317
 1532              	.LBB800:
 1533              	.LBI800:
  27:../../../lib/pd2dsy/libdaisy/src/hid/disp/graphics_common.h ****     : x_(0), y_(0), width_(max(0, width)), height_(max(0, height))
  28:../../../lib/pd2dsy/libdaisy/src/hid/disp/graphics_common.h ****     {
  29:../../../lib/pd2dsy/libdaisy/src/hid/disp/graphics_common.h ****     }
  30:../../../lib/pd2dsy/libdaisy/src/hid/disp/graphics_common.h **** 
  31:../../../lib/pd2dsy/libdaisy/src/hid/disp/graphics_common.h ****     Rectangle(int16_t x, int16_t y, int16_t width, int16_t height)
  32:../../../lib/pd2dsy/libdaisy/src/hid/disp/graphics_common.h ****     : x_(x), y_(y), width_(max(0, width)), height_(max(0, height))
  33:../../../lib/pd2dsy/libdaisy/src/hid/disp/graphics_common.h ****     {
  34:../../../lib/pd2dsy/libdaisy/src/hid/disp/graphics_common.h ****     }
  35:../../../lib/pd2dsy/libdaisy/src/hid/disp/graphics_common.h **** 
  36:../../../lib/pd2dsy/libdaisy/src/hid/disp/graphics_common.h ****     Rectangle(const Rectangle& other) { *this = other; }
  37:../../../lib/pd2dsy/libdaisy/src/hid/disp/graphics_common.h **** 
  38:../../../lib/pd2dsy/libdaisy/src/hid/disp/graphics_common.h ****     Rectangle& operator=(const Rectangle& other)
  39:../../../lib/pd2dsy/libdaisy/src/hid/disp/graphics_common.h ****     {
  40:../../../lib/pd2dsy/libdaisy/src/hid/disp/graphics_common.h ****         x_      = other.x_;
  41:../../../lib/pd2dsy/libdaisy/src/hid/disp/graphics_common.h ****         y_      = other.y_;
ARM GAS  /var/folders/fb/yfxt3z4538j6z0vjt03w70vc0000gn/T//ccrD3Rdr.s 			page 57


  42:../../../lib/pd2dsy/libdaisy/src/hid/disp/graphics_common.h ****         width_  = other.width_;
  43:../../../lib/pd2dsy/libdaisy/src/hid/disp/graphics_common.h ****         height_ = other.height_;
  44:../../../lib/pd2dsy/libdaisy/src/hid/disp/graphics_common.h ****         return *this;
  45:../../../lib/pd2dsy/libdaisy/src/hid/disp/graphics_common.h ****     }
  46:../../../lib/pd2dsy/libdaisy/src/hid/disp/graphics_common.h **** 
  47:../../../lib/pd2dsy/libdaisy/src/hid/disp/graphics_common.h ****     bool operator==(const Rectangle& other) const
  48:../../../lib/pd2dsy/libdaisy/src/hid/disp/graphics_common.h ****     {
  49:../../../lib/pd2dsy/libdaisy/src/hid/disp/graphics_common.h ****         return (x_ == other.x_) && (y_ == other.y_) && (width_ == other.width_)
  50:../../../lib/pd2dsy/libdaisy/src/hid/disp/graphics_common.h ****                && (height_ == other.height_);
  51:../../../lib/pd2dsy/libdaisy/src/hid/disp/graphics_common.h ****     }
  52:../../../lib/pd2dsy/libdaisy/src/hid/disp/graphics_common.h ****     bool operator!=(const Rectangle& other) const { return !(*this == other); }
  53:../../../lib/pd2dsy/libdaisy/src/hid/disp/graphics_common.h **** 
  54:../../../lib/pd2dsy/libdaisy/src/hid/disp/graphics_common.h ****     bool IsEmpty() const { return (width_ <= 0) || (height_ <= 0); }
  55:../../../lib/pd2dsy/libdaisy/src/hid/disp/graphics_common.h **** 
  56:../../../lib/pd2dsy/libdaisy/src/hid/disp/graphics_common.h ****     int16_t GetX() const { return x_; }
  57:../../../lib/pd2dsy/libdaisy/src/hid/disp/graphics_common.h ****     int16_t GetY() const { return y_; }
  58:../../../lib/pd2dsy/libdaisy/src/hid/disp/graphics_common.h ****     int16_t GetWidth() const { return width_; }
  59:../../../lib/pd2dsy/libdaisy/src/hid/disp/graphics_common.h ****     int16_t GetHeight() const { return height_; }
  60:../../../lib/pd2dsy/libdaisy/src/hid/disp/graphics_common.h ****     int16_t GetRight() const { return x_ + width_; }
  61:../../../lib/pd2dsy/libdaisy/src/hid/disp/graphics_common.h ****     int16_t GetBottom() const { return y_ + height_; }
  62:../../../lib/pd2dsy/libdaisy/src/hid/disp/graphics_common.h ****     int16_t GetCenterX() const { return x_ + width_ / 2; }
  63:../../../lib/pd2dsy/libdaisy/src/hid/disp/graphics_common.h ****     int16_t GetCenterY() const { return y_ + height_ / 2; }
  64:../../../lib/pd2dsy/libdaisy/src/hid/disp/graphics_common.h **** 
  65:../../../lib/pd2dsy/libdaisy/src/hid/disp/graphics_common.h ****     Rectangle WithX(int16_t x) const { return {x, y_, width_, height_}; }
  66:../../../lib/pd2dsy/libdaisy/src/hid/disp/graphics_common.h ****     Rectangle WithY(int16_t y) const { return {x_, y, width_, height_}; }
  67:../../../lib/pd2dsy/libdaisy/src/hid/disp/graphics_common.h ****     Rectangle WithWidth(int16_t width) const
  68:../../../lib/pd2dsy/libdaisy/src/hid/disp/graphics_common.h ****     {
  69:../../../lib/pd2dsy/libdaisy/src/hid/disp/graphics_common.h ****         return {x_, y_, width, height_};
  70:../../../lib/pd2dsy/libdaisy/src/hid/disp/graphics_common.h ****     }
  71:../../../lib/pd2dsy/libdaisy/src/hid/disp/graphics_common.h ****     Rectangle WithHeight(int16_t height) const
  72:../../../lib/pd2dsy/libdaisy/src/hid/disp/graphics_common.h ****     {
  73:../../../lib/pd2dsy/libdaisy/src/hid/disp/graphics_common.h ****         return {x_, y_, width_, height};
  74:../../../lib/pd2dsy/libdaisy/src/hid/disp/graphics_common.h ****     }
  75:../../../lib/pd2dsy/libdaisy/src/hid/disp/graphics_common.h ****     Rectangle WithSize(int16_t width, int16_t height) const
  76:../../../lib/pd2dsy/libdaisy/src/hid/disp/graphics_common.h ****     {
  77:../../../lib/pd2dsy/libdaisy/src/hid/disp/graphics_common.h ****         return {x_, y_, width, height};
  78:../../../lib/pd2dsy/libdaisy/src/hid/disp/graphics_common.h ****     }
  79:../../../lib/pd2dsy/libdaisy/src/hid/disp/graphics_common.h ****     Rectangle WithWidthKeepingCenter(int16_t width) const
  80:../../../lib/pd2dsy/libdaisy/src/hid/disp/graphics_common.h ****     {
  81:../../../lib/pd2dsy/libdaisy/src/hid/disp/graphics_common.h ****         return Rectangle(x_, y_, width, height_)
  82:../../../lib/pd2dsy/libdaisy/src/hid/disp/graphics_common.h ****             .WithCenter(GetCenterX(), GetCenterY());
  83:../../../lib/pd2dsy/libdaisy/src/hid/disp/graphics_common.h ****     }
  84:../../../lib/pd2dsy/libdaisy/src/hid/disp/graphics_common.h ****     Rectangle WithHeightKeepingCenter(int16_t height) const
  85:../../../lib/pd2dsy/libdaisy/src/hid/disp/graphics_common.h ****     {
  86:../../../lib/pd2dsy/libdaisy/src/hid/disp/graphics_common.h ****         return Rectangle(x_, y_, width_, height)
  87:../../../lib/pd2dsy/libdaisy/src/hid/disp/graphics_common.h ****             .WithCenter(GetCenterX(), GetCenterY());
  88:../../../lib/pd2dsy/libdaisy/src/hid/disp/graphics_common.h ****     }
  89:../../../lib/pd2dsy/libdaisy/src/hid/disp/graphics_common.h ****     Rectangle WithSizeKeepingCenter(int16_t width, int16_t height) const
  90:../../../lib/pd2dsy/libdaisy/src/hid/disp/graphics_common.h ****     {
  91:../../../lib/pd2dsy/libdaisy/src/hid/disp/graphics_common.h ****         return Rectangle(x_, y_, width, height)
  92:../../../lib/pd2dsy/libdaisy/src/hid/disp/graphics_common.h ****             .WithCenter(GetCenterX(), GetCenterY());
  93:../../../lib/pd2dsy/libdaisy/src/hid/disp/graphics_common.h ****     }
  94:../../../lib/pd2dsy/libdaisy/src/hid/disp/graphics_common.h **** 
  95:../../../lib/pd2dsy/libdaisy/src/hid/disp/graphics_common.h ****     Rectangle Reduced(int16_t sizeToReduce) const
  96:../../../lib/pd2dsy/libdaisy/src/hid/disp/graphics_common.h ****     {
  97:../../../lib/pd2dsy/libdaisy/src/hid/disp/graphics_common.h ****         return {int16_t(x_ + sizeToReduce),
  98:../../../lib/pd2dsy/libdaisy/src/hid/disp/graphics_common.h ****                 int16_t(y_ + sizeToReduce),
ARM GAS  /var/folders/fb/yfxt3z4538j6z0vjt03w70vc0000gn/T//ccrD3Rdr.s 			page 58


  99:../../../lib/pd2dsy/libdaisy/src/hid/disp/graphics_common.h ****                 int16_t(width_ - 2 * sizeToReduce),
 100:../../../lib/pd2dsy/libdaisy/src/hid/disp/graphics_common.h ****                 int16_t(height_ - 2 * sizeToReduce)};
 101:../../../lib/pd2dsy/libdaisy/src/hid/disp/graphics_common.h ****     }
 102:../../../lib/pd2dsy/libdaisy/src/hid/disp/graphics_common.h ****     Rectangle Reduced(int16_t xToReduce, int16_t yToReduce) const
 103:../../../lib/pd2dsy/libdaisy/src/hid/disp/graphics_common.h ****     {
 104:../../../lib/pd2dsy/libdaisy/src/hid/disp/graphics_common.h ****         return {int16_t(x_ + xToReduce),
 105:../../../lib/pd2dsy/libdaisy/src/hid/disp/graphics_common.h ****                 int16_t(y_ + yToReduce),
 106:../../../lib/pd2dsy/libdaisy/src/hid/disp/graphics_common.h ****                 int16_t(width_ - 2 * xToReduce),
 107:../../../lib/pd2dsy/libdaisy/src/hid/disp/graphics_common.h ****                 int16_t(height_ - 2 * yToReduce)};
 108:../../../lib/pd2dsy/libdaisy/src/hid/disp/graphics_common.h ****     }
 109:../../../lib/pd2dsy/libdaisy/src/hid/disp/graphics_common.h **** 
 110:../../../lib/pd2dsy/libdaisy/src/hid/disp/graphics_common.h ****     Rectangle Translated(int16_t x, int16_t y) const
 111:../../../lib/pd2dsy/libdaisy/src/hid/disp/graphics_common.h ****     {
 112:../../../lib/pd2dsy/libdaisy/src/hid/disp/graphics_common.h ****         return {int16_t(x_ + x), int16_t(y_ + y), width_, height_};
 113:../../../lib/pd2dsy/libdaisy/src/hid/disp/graphics_common.h ****     }
 114:../../../lib/pd2dsy/libdaisy/src/hid/disp/graphics_common.h **** 
 115:../../../lib/pd2dsy/libdaisy/src/hid/disp/graphics_common.h ****     Rectangle WithLeft(int16_t left) const
 116:../../../lib/pd2dsy/libdaisy/src/hid/disp/graphics_common.h ****     {
 117:../../../lib/pd2dsy/libdaisy/src/hid/disp/graphics_common.h ****         const auto newWidth = int16_t((x_ - left) + width_);
 118:../../../lib/pd2dsy/libdaisy/src/hid/disp/graphics_common.h ****         return {left, y_, newWidth, height_};
 119:../../../lib/pd2dsy/libdaisy/src/hid/disp/graphics_common.h ****     }
 120:../../../lib/pd2dsy/libdaisy/src/hid/disp/graphics_common.h **** 
 121:../../../lib/pd2dsy/libdaisy/src/hid/disp/graphics_common.h ****     Rectangle WithRight(int16_t right) const
 122:../../../lib/pd2dsy/libdaisy/src/hid/disp/graphics_common.h ****     {
 123:../../../lib/pd2dsy/libdaisy/src/hid/disp/graphics_common.h ****         const auto newWidth = int16_t(right - x_);
 124:../../../lib/pd2dsy/libdaisy/src/hid/disp/graphics_common.h ****         return {x_, y_, newWidth, height_};
 125:../../../lib/pd2dsy/libdaisy/src/hid/disp/graphics_common.h ****     }
 126:../../../lib/pd2dsy/libdaisy/src/hid/disp/graphics_common.h **** 
 127:../../../lib/pd2dsy/libdaisy/src/hid/disp/graphics_common.h ****     Rectangle WithTop(int16_t top) const
 128:../../../lib/pd2dsy/libdaisy/src/hid/disp/graphics_common.h ****     {
 129:../../../lib/pd2dsy/libdaisy/src/hid/disp/graphics_common.h ****         const auto newHeight = int16_t((y_ - top) + height_);
 130:../../../lib/pd2dsy/libdaisy/src/hid/disp/graphics_common.h ****         return {x_, top, width_, newHeight};
 131:../../../lib/pd2dsy/libdaisy/src/hid/disp/graphics_common.h ****     }
 132:../../../lib/pd2dsy/libdaisy/src/hid/disp/graphics_common.h **** 
 133:../../../lib/pd2dsy/libdaisy/src/hid/disp/graphics_common.h ****     Rectangle WithBottom(int16_t bottom) const
 134:../../../lib/pd2dsy/libdaisy/src/hid/disp/graphics_common.h ****     {
 135:../../../lib/pd2dsy/libdaisy/src/hid/disp/graphics_common.h ****         const auto newHeight = int16_t(bottom - y_);
 136:../../../lib/pd2dsy/libdaisy/src/hid/disp/graphics_common.h ****         return {x_, y_, width_, newHeight};
 137:../../../lib/pd2dsy/libdaisy/src/hid/disp/graphics_common.h ****     }
 138:../../../lib/pd2dsy/libdaisy/src/hid/disp/graphics_common.h **** 
 139:../../../lib/pd2dsy/libdaisy/src/hid/disp/graphics_common.h ****     Rectangle WithTrimmedLeft(int16_t pxToTrim) const
 140:../../../lib/pd2dsy/libdaisy/src/hid/disp/graphics_common.h ****     {
 141:../../../lib/pd2dsy/libdaisy/src/hid/disp/graphics_common.h ****         return {
 142:../../../lib/pd2dsy/libdaisy/src/hid/disp/graphics_common.h ****             int16_t(x_ + pxToTrim), y_, int16_t(width_ - pxToTrim), height_};
 143:../../../lib/pd2dsy/libdaisy/src/hid/disp/graphics_common.h ****     }
 144:../../../lib/pd2dsy/libdaisy/src/hid/disp/graphics_common.h **** 
 145:../../../lib/pd2dsy/libdaisy/src/hid/disp/graphics_common.h ****     Rectangle WithTrimmedRight(int16_t pxToTrim) const
 146:../../../lib/pd2dsy/libdaisy/src/hid/disp/graphics_common.h ****     {
 147:../../../lib/pd2dsy/libdaisy/src/hid/disp/graphics_common.h ****         return {x_, y_, int16_t(width_ - pxToTrim), height_};
 148:../../../lib/pd2dsy/libdaisy/src/hid/disp/graphics_common.h ****     }
 149:../../../lib/pd2dsy/libdaisy/src/hid/disp/graphics_common.h **** 
 150:../../../lib/pd2dsy/libdaisy/src/hid/disp/graphics_common.h ****     Rectangle WithTrimmedTop(int16_t pxToTrim) const
 151:../../../lib/pd2dsy/libdaisy/src/hid/disp/graphics_common.h ****     {
 152:../../../lib/pd2dsy/libdaisy/src/hid/disp/graphics_common.h ****         return {
 153:../../../lib/pd2dsy/libdaisy/src/hid/disp/graphics_common.h ****             x_, int16_t(y_ + pxToTrim), width_, int16_t(height_ - pxToTrim)};
 154:../../../lib/pd2dsy/libdaisy/src/hid/disp/graphics_common.h ****     }
 155:../../../lib/pd2dsy/libdaisy/src/hid/disp/graphics_common.h **** 
ARM GAS  /var/folders/fb/yfxt3z4538j6z0vjt03w70vc0000gn/T//ccrD3Rdr.s 			page 59


 156:../../../lib/pd2dsy/libdaisy/src/hid/disp/graphics_common.h ****     Rectangle WithTrimmedBottom(int16_t pxToTrim) const
 157:../../../lib/pd2dsy/libdaisy/src/hid/disp/graphics_common.h ****     {
 158:../../../lib/pd2dsy/libdaisy/src/hid/disp/graphics_common.h ****         return {x_, y_, width_, int16_t(height_ - pxToTrim)};
 159:../../../lib/pd2dsy/libdaisy/src/hid/disp/graphics_common.h ****     }
 160:../../../lib/pd2dsy/libdaisy/src/hid/disp/graphics_common.h **** 
 161:../../../lib/pd2dsy/libdaisy/src/hid/disp/graphics_common.h ****     Rectangle WithCenterX(int16_t centerX) const
 162:../../../lib/pd2dsy/libdaisy/src/hid/disp/graphics_common.h ****     {
 163:../../../lib/pd2dsy/libdaisy/src/hid/disp/graphics_common.h ****         return {int16_t(x_ + centerX - GetCenterX()), y_, width_, height_};
 164:../../../lib/pd2dsy/libdaisy/src/hid/disp/graphics_common.h ****     }
 165:../../../lib/pd2dsy/libdaisy/src/hid/disp/graphics_common.h **** 
 166:../../../lib/pd2dsy/libdaisy/src/hid/disp/graphics_common.h ****     Rectangle WithCenterY(int16_t centerY) const
 167:../../../lib/pd2dsy/libdaisy/src/hid/disp/graphics_common.h ****     {
 168:../../../lib/pd2dsy/libdaisy/src/hid/disp/graphics_common.h ****         return {x_, int16_t(y_ + centerY - GetCenterY()), width_, height_};
 169:../../../lib/pd2dsy/libdaisy/src/hid/disp/graphics_common.h ****     }
 170:../../../lib/pd2dsy/libdaisy/src/hid/disp/graphics_common.h **** 
 171:../../../lib/pd2dsy/libdaisy/src/hid/disp/graphics_common.h ****     Rectangle WithCenter(int16_t centerX, int16_t centerY) const
 172:../../../lib/pd2dsy/libdaisy/src/hid/disp/graphics_common.h ****     {
 173:../../../lib/pd2dsy/libdaisy/src/hid/disp/graphics_common.h ****         return {int16_t(x_ + centerX - GetCenterX()),
 174:../../../lib/pd2dsy/libdaisy/src/hid/disp/graphics_common.h ****                 int16_t(y_ + centerY - GetCenterY()),
 175:../../../lib/pd2dsy/libdaisy/src/hid/disp/graphics_common.h ****                 width_,
 176:../../../lib/pd2dsy/libdaisy/src/hid/disp/graphics_common.h ****                 height_};
 177:../../../lib/pd2dsy/libdaisy/src/hid/disp/graphics_common.h ****     }
 178:../../../lib/pd2dsy/libdaisy/src/hid/disp/graphics_common.h **** 
 179:../../../lib/pd2dsy/libdaisy/src/hid/disp/graphics_common.h ****     Rectangle RemoveFromLeft(int16_t pxToRemove)
 180:../../../lib/pd2dsy/libdaisy/src/hid/disp/graphics_common.h ****     {
 181:../../../lib/pd2dsy/libdaisy/src/hid/disp/graphics_common.h ****         const auto result = this->WithWidth(min(pxToRemove, width_));
 182:../../../lib/pd2dsy/libdaisy/src/hid/disp/graphics_common.h ****         x_ += min(pxToRemove, width_);
 183:../../../lib/pd2dsy/libdaisy/src/hid/disp/graphics_common.h ****         width_ = max(int16_t(width_ - pxToRemove), 0);
 184:../../../lib/pd2dsy/libdaisy/src/hid/disp/graphics_common.h ****         return result;
 185:../../../lib/pd2dsy/libdaisy/src/hid/disp/graphics_common.h ****     }
 186:../../../lib/pd2dsy/libdaisy/src/hid/disp/graphics_common.h **** 
 187:../../../lib/pd2dsy/libdaisy/src/hid/disp/graphics_common.h ****     Rectangle RemoveFromRight(int16_t pxToRemove)
 188:../../../lib/pd2dsy/libdaisy/src/hid/disp/graphics_common.h ****     {
 189:../../../lib/pd2dsy/libdaisy/src/hid/disp/graphics_common.h ****         const auto canRemove = min(pxToRemove, width_);
 190:../../../lib/pd2dsy/libdaisy/src/hid/disp/graphics_common.h ****         width_ -= canRemove;
 191:../../../lib/pd2dsy/libdaisy/src/hid/disp/graphics_common.h ****         return {int16_t(x_ + width_), y_, canRemove, height_};
 192:../../../lib/pd2dsy/libdaisy/src/hid/disp/graphics_common.h ****     }
 193:../../../lib/pd2dsy/libdaisy/src/hid/disp/graphics_common.h **** 
 194:../../../lib/pd2dsy/libdaisy/src/hid/disp/graphics_common.h ****     Rectangle RemoveFromTop(int16_t pxToRemove)
 195:../../../lib/pd2dsy/libdaisy/src/hid/disp/graphics_common.h ****     {
 196:../../../lib/pd2dsy/libdaisy/src/hid/disp/graphics_common.h ****         const auto result = this->WithHeight(min(pxToRemove, height_));
 197:../../../lib/pd2dsy/libdaisy/src/hid/disp/graphics_common.h ****         y_ += min(pxToRemove, height_);
 198:../../../lib/pd2dsy/libdaisy/src/hid/disp/graphics_common.h ****         height_ = max(height_ - pxToRemove, 0);
 199:../../../lib/pd2dsy/libdaisy/src/hid/disp/graphics_common.h ****         return result;
 200:../../../lib/pd2dsy/libdaisy/src/hid/disp/graphics_common.h ****     }
 201:../../../lib/pd2dsy/libdaisy/src/hid/disp/graphics_common.h **** 
 202:../../../lib/pd2dsy/libdaisy/src/hid/disp/graphics_common.h ****     Rectangle RemoveFromBottom(int16_t pxToRemove)
 203:../../../lib/pd2dsy/libdaisy/src/hid/disp/graphics_common.h ****     {
 204:../../../lib/pd2dsy/libdaisy/src/hid/disp/graphics_common.h ****         const auto canRemove = min(pxToRemove, height_);
 205:../../../lib/pd2dsy/libdaisy/src/hid/disp/graphics_common.h ****         height_ -= canRemove;
 206:../../../lib/pd2dsy/libdaisy/src/hid/disp/graphics_common.h ****         return {x_, int16_t(y_ + height_), width_, canRemove};
 207:../../../lib/pd2dsy/libdaisy/src/hid/disp/graphics_common.h ****     }
 208:../../../lib/pd2dsy/libdaisy/src/hid/disp/graphics_common.h **** 
 209:../../../lib/pd2dsy/libdaisy/src/hid/disp/graphics_common.h ****     Rectangle AlignedWithin(const Rectangle& other, Alignment alignment) const
 210:../../../lib/pd2dsy/libdaisy/src/hid/disp/graphics_common.h ****     {
 211:../../../lib/pd2dsy/libdaisy/src/hid/disp/graphics_common.h ****         switch(alignment)
 212:../../../lib/pd2dsy/libdaisy/src/hid/disp/graphics_common.h ****         {
ARM GAS  /var/folders/fb/yfxt3z4538j6z0vjt03w70vc0000gn/T//ccrD3Rdr.s 			page 60


 213:../../../lib/pd2dsy/libdaisy/src/hid/disp/graphics_common.h ****             case Alignment::topLeft:
 214:../../../lib/pd2dsy/libdaisy/src/hid/disp/graphics_common.h ****                 return {other.x_, other.y_, width_, height_};
 215:../../../lib/pd2dsy/libdaisy/src/hid/disp/graphics_common.h ****             case Alignment::topRight:
 216:../../../lib/pd2dsy/libdaisy/src/hid/disp/graphics_common.h ****                 return {int16_t(other.GetRight() - width_),
 217:../../../lib/pd2dsy/libdaisy/src/hid/disp/graphics_common.h ****                         other.y_,
 218:../../../lib/pd2dsy/libdaisy/src/hid/disp/graphics_common.h ****                         width_,
 219:../../../lib/pd2dsy/libdaisy/src/hid/disp/graphics_common.h ****                         height_};
 220:../../../lib/pd2dsy/libdaisy/src/hid/disp/graphics_common.h ****             case Alignment::topCentered:
 221:../../../lib/pd2dsy/libdaisy/src/hid/disp/graphics_common.h ****                 return {int16_t(x_ + (other.GetCenterX() - GetCenterX())),
 222:../../../lib/pd2dsy/libdaisy/src/hid/disp/graphics_common.h ****                         other.y_,
 223:../../../lib/pd2dsy/libdaisy/src/hid/disp/graphics_common.h ****                         width_,
 224:../../../lib/pd2dsy/libdaisy/src/hid/disp/graphics_common.h ****                         height_};
 225:../../../lib/pd2dsy/libdaisy/src/hid/disp/graphics_common.h ****             case Alignment::bottomLeft:
 226:../../../lib/pd2dsy/libdaisy/src/hid/disp/graphics_common.h ****                 return {other.x_,
 227:../../../lib/pd2dsy/libdaisy/src/hid/disp/graphics_common.h ****                         int16_t(other.GetBottom() - height_),
 228:../../../lib/pd2dsy/libdaisy/src/hid/disp/graphics_common.h ****                         width_,
 229:../../../lib/pd2dsy/libdaisy/src/hid/disp/graphics_common.h ****                         height_};
 230:../../../lib/pd2dsy/libdaisy/src/hid/disp/graphics_common.h ****             case Alignment::bottomRight:
 231:../../../lib/pd2dsy/libdaisy/src/hid/disp/graphics_common.h ****                 return {int16_t(other.GetRight() - width_),
 232:../../../lib/pd2dsy/libdaisy/src/hid/disp/graphics_common.h ****                         int16_t(other.GetBottom() - height_),
 233:../../../lib/pd2dsy/libdaisy/src/hid/disp/graphics_common.h ****                         width_,
 234:../../../lib/pd2dsy/libdaisy/src/hid/disp/graphics_common.h ****                         height_};
 235:../../../lib/pd2dsy/libdaisy/src/hid/disp/graphics_common.h ****             case Alignment::bottomCentered:
 236:../../../lib/pd2dsy/libdaisy/src/hid/disp/graphics_common.h ****                 return {int16_t(x_ + (other.GetCenterX() - GetCenterX())),
 237:../../../lib/pd2dsy/libdaisy/src/hid/disp/graphics_common.h ****                         int16_t(other.GetBottom() - height_),
 238:../../../lib/pd2dsy/libdaisy/src/hid/disp/graphics_common.h ****                         width_,
 239:../../../lib/pd2dsy/libdaisy/src/hid/disp/graphics_common.h ****                         height_};
 240:../../../lib/pd2dsy/libdaisy/src/hid/disp/graphics_common.h ****             case Alignment::centeredLeft:
 241:../../../lib/pd2dsy/libdaisy/src/hid/disp/graphics_common.h ****                 return {other.x_,
 242:../../../lib/pd2dsy/libdaisy/src/hid/disp/graphics_common.h ****                         int16_t(y_ + (other.GetCenterY() - GetCenterY())),
 243:../../../lib/pd2dsy/libdaisy/src/hid/disp/graphics_common.h ****                         width_,
 244:../../../lib/pd2dsy/libdaisy/src/hid/disp/graphics_common.h ****                         height_};
 245:../../../lib/pd2dsy/libdaisy/src/hid/disp/graphics_common.h ****             case Alignment::centeredRight:
 246:../../../lib/pd2dsy/libdaisy/src/hid/disp/graphics_common.h ****                 return {int16_t(other.GetRight() - width_),
 247:../../../lib/pd2dsy/libdaisy/src/hid/disp/graphics_common.h ****                         int16_t(y_ + (other.GetCenterY() - GetCenterY())),
 248:../../../lib/pd2dsy/libdaisy/src/hid/disp/graphics_common.h ****                         width_,
 249:../../../lib/pd2dsy/libdaisy/src/hid/disp/graphics_common.h ****                         height_};
 250:../../../lib/pd2dsy/libdaisy/src/hid/disp/graphics_common.h ****             case Alignment::centered:
 251:../../../lib/pd2dsy/libdaisy/src/hid/disp/graphics_common.h ****                 return {int16_t(x_ + (other.GetCenterX() - GetCenterX())),
 252:../../../lib/pd2dsy/libdaisy/src/hid/disp/graphics_common.h ****                         int16_t(y_ + (other.GetCenterY() - GetCenterY())),
 253:../../../lib/pd2dsy/libdaisy/src/hid/disp/graphics_common.h ****                         width_,
 254:../../../lib/pd2dsy/libdaisy/src/hid/disp/graphics_common.h ****                         height_};
 255:../../../lib/pd2dsy/libdaisy/src/hid/disp/graphics_common.h ****             default: return {};
 256:../../../lib/pd2dsy/libdaisy/src/hid/disp/graphics_common.h ****         }
 257:../../../lib/pd2dsy/libdaisy/src/hid/disp/graphics_common.h ****     }
 258:../../../lib/pd2dsy/libdaisy/src/hid/disp/graphics_common.h **** 
 259:../../../lib/pd2dsy/libdaisy/src/hid/disp/graphics_common.h ****   private:
 260:../../../lib/pd2dsy/libdaisy/src/hid/disp/graphics_common.h ****     int16_t x_, y_, width_, height_;
 261:../../../lib/pd2dsy/libdaisy/src/hid/disp/graphics_common.h ****     int16_t max(int16_t a, int16_t b) { return (a > b) ? a : b; }
 1534              		.loc 15 261 13 view .LVU318
 1535              	.LBE800:
 1536              	.LBE799:
 1537              	.LBE805:
 1538              	.LBE809:
 1539              		.loc 15 261 41 view .LVU319
 1540              	.LBB810:
 1541              	.LBB806:
ARM GAS  /var/folders/fb/yfxt3z4538j6z0vjt03w70vc0000gn/T//ccrD3Rdr.s 			page 61


 1542              	.LBB802:
 1543              	.LBB801:
 1544              	.LBI801:
 1545              		.loc 15 261 13 view .LVU320
 1546              	.LBE801:
 1547              	.LBE802:
 1548              	.LBE806:
 1549              	.LBE810:
 1550              		.loc 15 261 41 view .LVU321
 1551              	.LBB811:
 1552              	.LBI811:
 209:../../../lib/pd2dsy/libdaisy/src/hid/disp/graphics_common.h ****     {
 1553              		.loc 15 209 15 view .LVU322
 1554              	.LBB812:
 211:../../../lib/pd2dsy/libdaisy/src/hid/disp/graphics_common.h ****         {
 1555              		.loc 15 211 9 view .LVU323
 1556 0036 1BB2     		sxth	r3, r3
 1557 0038 23EAE373 		bic	r3, r3, r3, asr #31
 1558 003c 0829     		cmp	r1, #8
 1559 003e 00F2A681 		bhi	.L106
 1560 0042 DFE811F0 		tbh	[pc, r1, lsl #1]
 1561              	.L108:
 1562 0046 0101     		.2byte	(.L116-.L108)/2
 1563 0048 1301     		.2byte	(.L115-.L108)/2
 1564 004a 1F01     		.2byte	(.L114-.L108)/2
 1565 004c 3301     		.2byte	(.L113-.L108)/2
 1566 004e 4101     		.2byte	(.L112-.L108)/2
 1567 0050 4F01     		.2byte	(.L111-.L108)/2
 1568 0052 6601     		.2byte	(.L110-.L108)/2
 1569 0054 6F01     		.2byte	(.L109-.L108)/2
 1570 0056 0900     		.2byte	(.L107-.L108)/2
 1571              		.p2align 1
 1572              	.L107:
 245:../../../lib/pd2dsy/libdaisy/src/hid/disp/graphics_common.h ****                 return {int16_t(other.GetRight() - width_),
 1573              		.loc 15 245 13 view .LVU324
 246:../../../lib/pd2dsy/libdaisy/src/hid/disp/graphics_common.h ****                         int16_t(y_ + (other.GetCenterY() - GetCenterY())),
 1574              		.loc 15 246 17 view .LVU325
 1575              	.LVL112:
 1576              	.LBB813:
 1577              	.LBI813:
  60:../../../lib/pd2dsy/libdaisy/src/hid/disp/graphics_common.h ****     int16_t GetBottom() const { return y_ + height_; }
 1578              		.loc 15 60 13 view .LVU326
 1579              	.LBB814:
  60:../../../lib/pd2dsy/libdaisy/src/hid/disp/graphics_common.h ****     int16_t GetBottom() const { return y_ + height_; }
 1580              		.loc 15 60 32 view .LVU327
  60:../../../lib/pd2dsy/libdaisy/src/hid/disp/graphics_common.h ****     int16_t GetBottom() const { return y_ + height_; }
 1581              		.loc 15 60 42 is_stmt 0 view .LVU328
 1582 0058 A188     		ldrh	r1, [r4, #4]
 1583              	.LVL113:
  60:../../../lib/pd2dsy/libdaisy/src/hid/disp/graphics_common.h ****     int16_t GetBottom() const { return y_ + height_; }
 1584              		.loc 15 60 42 view .LVU329
 1585 005a 2788     		ldrh	r7, [r4]
 1586 005c 0F44     		add	r7, r7, r1
 1587              	.LBE814:
 1588              	.LBE813:
 1589              	.LBB815:
 1590              	.LBB816:
ARM GAS  /var/folders/fb/yfxt3z4538j6z0vjt03w70vc0000gn/T//ccrD3Rdr.s 			page 62


  63:../../../lib/pd2dsy/libdaisy/src/hid/disp/graphics_common.h **** 
 1591              		.loc 15 63 54 view .LVU330
 1592 005e B4F90610 		ldrsh	r1, [r4, #6]
 1593              	.LBE816:
 1594              	.LBE815:
 246:../../../lib/pd2dsy/libdaisy/src/hid/disp/graphics_common.h ****                         int16_t(y_ + (other.GetCenterY() - GetCenterY())),
 1595              		.loc 15 246 50 view .LVU331
 1596 0062 FF1A     		subs	r7, r7, r3
 1597              	.LBB820:
 1598              	.LBB817:
  63:../../../lib/pd2dsy/libdaisy/src/hid/disp/graphics_common.h **** 
 1599              		.loc 15 63 54 view .LVU332
 1600 0064 0029     		cmp	r1, #0
 1601              	.LBE817:
 1602              	.LBE820:
 246:../../../lib/pd2dsy/libdaisy/src/hid/disp/graphics_common.h ****                         int16_t(y_ + (other.GetCenterY() - GetCenterY())),
 1603              		.loc 15 246 50 view .LVU333
 1604 0066 BFB2     		uxth	r7, r7
 1605              	.LVL114:
 1606              	.LBB821:
 1607              	.LBI815:
  63:../../../lib/pd2dsy/libdaisy/src/hid/disp/graphics_common.h **** 
 1608              		.loc 15 63 13 is_stmt 1 view .LVU334
 1609              	.LBB818:
  63:../../../lib/pd2dsy/libdaisy/src/hid/disp/graphics_common.h **** 
 1610              		.loc 15 63 34 view .LVU335
  63:../../../lib/pd2dsy/libdaisy/src/hid/disp/graphics_common.h **** 
 1611              		.loc 15 63 34 is_stmt 0 view .LVU336
 1612              	.LBE818:
 1613              	.LBE821:
 1614              	.LBB822:
 1615              	.LBI822:
  63:../../../lib/pd2dsy/libdaisy/src/hid/disp/graphics_common.h **** 
 1616              		.loc 15 63 13 is_stmt 1 view .LVU337
 1617              	.LBB823:
  63:../../../lib/pd2dsy/libdaisy/src/hid/disp/graphics_common.h **** 
 1618              		.loc 15 63 34 view .LVU338
  63:../../../lib/pd2dsy/libdaisy/src/hid/disp/graphics_common.h **** 
 1619              		.loc 15 63 34 is_stmt 0 view .LVU339
 1620              	.LBE823:
 1621              	.LBE822:
 1622              	.LBB824:
 1623              	.LBB819:
  63:../../../lib/pd2dsy/libdaisy/src/hid/disp/graphics_common.h **** 
 1624              		.loc 15 63 54 view .LVU340
 1625 0068 C0F2FE80 		blt	.L179
 1626              	.L123:
  63:../../../lib/pd2dsy/libdaisy/src/hid/disp/graphics_common.h **** 
 1627              		.loc 15 63 54 view .LVU341
 1628              	.LBE819:
 1629              	.LBE824:
 1630              	.LBB825:
 1631              	.LBB826:
  63:../../../lib/pd2dsy/libdaisy/src/hid/disp/graphics_common.h **** 
 1632              		.loc 15 63 44 view .LVU342
 1633 006c 6488     		ldrh	r4, [r4, #2]
 1634              	.LVL115:
ARM GAS  /var/folders/fb/yfxt3z4538j6z0vjt03w70vc0000gn/T//ccrD3Rdr.s 			page 63


  63:../../../lib/pd2dsy/libdaisy/src/hid/disp/graphics_common.h **** 
 1635              		.loc 15 63 44 view .LVU343
 1636              	.LBE826:
 1637              	.LBE825:
 1638              	.LBB832:
 1639              	.LBB833:
 1640              	.LBB834:
  32:../../../lib/pd2dsy/libdaisy/src/hid/disp/graphics_common.h ****     {
 1641              		.loc 15 32 66 view .LVU344
 1642 006e 0698     		ldr	r0, [sp, #24]
 1643              	.LBE834:
 1644              	.LBE833:
 1645              	.LBE832:
 1646              	.LBB845:
 1647              	.LBB827:
  63:../../../lib/pd2dsy/libdaisy/src/hid/disp/graphics_common.h **** 
 1648              		.loc 15 63 44 view .LVU345
 1649 0070 04EB6104 		add	r4, r4, r1, asr #1
 1650              	.LBE827:
 1651              	.LBE845:
 1652              	.LBB846:
 1653              	.LBB841:
 1654              	.LBB837:
  32:../../../lib/pd2dsy/libdaisy/src/hid/disp/graphics_common.h ****     {
 1655              		.loc 15 32 66 view .LVU346
 1656 0074 C280     		strh	r2, [r0, #6]	@ movhi
 1657              	.LBE837:
 1658              	.LBE841:
 1659              	.LBE846:
 252:../../../lib/pd2dsy/libdaisy/src/hid/disp/graphics_common.h ****                         width_,
 1660              		.loc 15 252 58 view .LVU347
 1661 0076 A4EB5202 		sub	r2, r4, r2, lsr #1
 1662              	.LBB847:
 1663              	.LBB842:
 1664              	.LBB838:
  32:../../../lib/pd2dsy/libdaisy/src/hid/disp/graphics_common.h ****     {
 1665              		.loc 15 32 66 view .LVU348
 1666 007a 8380     		strh	r3, [r0, #4]	@ movhi
 1667 007c 0780     		strh	r7, [r0]	@ movhi
 1668              	.LBE838:
 1669              	.LBE842:
 1670              	.LBE847:
 252:../../../lib/pd2dsy/libdaisy/src/hid/disp/graphics_common.h ****                         width_,
 1671              		.loc 15 252 58 view .LVU349
 1672 007e 94B2     		uxth	r4, r2
 1673              	.LVL116:
 1674              	.LBB848:
 1675              	.LBI832:
  31:../../../lib/pd2dsy/libdaisy/src/hid/disp/graphics_common.h ****     : x_(x), y_(y), width_(max(0, width)), height_(max(0, height))
 1676              		.loc 15 31 5 is_stmt 1 view .LVU350
 1677              	.LBB843:
 1678              	.LBB839:
  32:../../../lib/pd2dsy/libdaisy/src/hid/disp/graphics_common.h ****     {
 1679              		.loc 15 32 66 is_stmt 0 view .LVU351
 1680 0080 4480     		strh	r4, [r0, #2]	@ movhi
 1681              	.LVL117:
 1682              	.LBB835:
ARM GAS  /var/folders/fb/yfxt3z4538j6z0vjt03w70vc0000gn/T//ccrD3Rdr.s 			page 64


 1683              	.LBI835:
 1684              		.loc 15 261 13 is_stmt 1 view .LVU352
 1685              	.LBE835:
 1686              	.LBE839:
 1687              	.LBE843:
 1688              	.LBE848:
 1689              	.LBE812:
 1690              	.LBE811:
 1691              		.loc 15 261 41 view .LVU353
 1692              	.LBB1037:
 1693              	.LBB1015:
 1694              	.LBB849:
 1695              	.LBB844:
 1696              	.LBB840:
 1697              	.LBB836:
 1698              	.LBI836:
 1699              		.loc 15 261 13 view .LVU354
 1700              	.LBE836:
 1701              	.LBE840:
 1702              	.LBE844:
 1703              	.LBE849:
 1704              	.LBE1015:
 1705              	.LBE1037:
 1706              		.loc 15 261 41 view .LVU355
 1707              	.L117:
  56:../../../lib/pd2dsy/libdaisy/src/hid/disp/graphics_common.h ****     int16_t GetY() const { return y_; }
 1708              		.loc 15 56 28 view .LVU356
  57:../../../lib/pd2dsy/libdaisy/src/hid/disp/graphics_common.h ****     int16_t GetWidth() const { return width_; }
 1709              		.loc 15 57 28 view .LVU357
 1710              	.LBB1038:
 1711              	.LBI1038:
 171:../../../lib/pd2dsy/libdaisy/src/hid/disp/display.h ****     {
 1712              		.loc 4 171 10 view .LVU358
 1713              	.LBB1039:
 173:../../../lib/pd2dsy/libdaisy/src/hid/disp/display.h ****         currentY_ = (y >= Height()) ? Height() - 1 : y;
 1714              		.loc 4 173 9 view .LVU359
 1715 0082 A64A     		ldr	r2, .L189
 173:../../../lib/pd2dsy/libdaisy/src/hid/disp/display.h ****         currentY_ = (y >= Height()) ? Height() - 1 : y;
 1716              		.loc 4 173 33 is_stmt 0 view .LVU360
 1717 0084 D8F80030 		ldr	r3, [r8]
 1718 0088 1146     		mov	r1, r2
 1719 008a 0192     		str	r2, [sp, #4]
 1720 008c DA68     		ldr	r2, [r3, #12]
 1721 008e 8A42     		cmp	r2, r1
 1722 0090 40F08B81 		bne	.L125
 1723 0094 8020     		movs	r0, #128
 1724              	.LVL118:
 1725              	.L126:
 173:../../../lib/pd2dsy/libdaisy/src/hid/disp/display.h ****         currentY_ = (y >= Height()) ? Height() - 1 : y;
 1726              		.loc 4 173 19 view .LVU361
 1727 0096 B842     		cmp	r0, r7
 1728 0098 05D8     		bhi	.L127
 173:../../../lib/pd2dsy/libdaisy/src/hid/disp/display.h ****         currentY_ = (y >= Height()) ? Height() - 1 : y;
 1729              		.loc 4 173 44 view .LVU362
 1730 009a DA68     		ldr	r2, [r3, #12]
 1731 009c 0199     		ldr	r1, [sp, #4]
 1732 009e 8A42     		cmp	r2, r1
ARM GAS  /var/folders/fb/yfxt3z4538j6z0vjt03w70vc0000gn/T//ccrD3Rdr.s 			page 65


 1733 00a0 40F09881 		bne	.L180
 1734 00a4 7F27     		movs	r7, #127
 1735              	.L127:
 1736 00a6 9E4A     		ldr	r2, .L189+4
 174:../../../lib/pd2dsy/libdaisy/src/hid/disp/display.h ****     }
 1737              		.loc 4 174 34 view .LVU363
 1738 00a8 9B68     		ldr	r3, [r3, #8]
 173:../../../lib/pd2dsy/libdaisy/src/hid/disp/display.h ****         currentY_ = (y >= Height()) ? Height() - 1 : y;
 1739              		.loc 4 173 19 view .LVU364
 1740 00aa A8F80470 		strh	r7, [r8, #4]	@ movhi
 174:../../../lib/pd2dsy/libdaisy/src/hid/disp/display.h ****     }
 1741              		.loc 4 174 9 is_stmt 1 view .LVU365
 1742 00ae 9342     		cmp	r3, r2
 1743 00b0 0392     		str	r2, [sp, #12]
 1744 00b2 40F08781 		bne	.L157
 174:../../../lib/pd2dsy/libdaisy/src/hid/disp/display.h ****     }
 1745              		.loc 4 174 34 is_stmt 0 view .LVU366
 1746 00b6 4020     		movs	r0, #64
 1747              	.L129:
 174:../../../lib/pd2dsy/libdaisy/src/hid/disp/display.h ****     }
 1748              		.loc 4 174 19 view .LVU367
 1749 00b8 A042     		cmp	r0, r4
 1750 00ba 07D8     		bhi	.L131
 174:../../../lib/pd2dsy/libdaisy/src/hid/disp/display.h ****     }
 1751              		.loc 4 174 46 view .LVU368
 1752 00bc D8F80030 		ldr	r3, [r8]
 1753 00c0 039A     		ldr	r2, [sp, #12]
 1754 00c2 9B68     		ldr	r3, [r3, #8]
 1755 00c4 9342     		cmp	r3, r2
 1756 00c6 40F08081 		bne	.L181
 1757 00ca 3F24     		movs	r4, #63
 1758              	.L131:
 174:../../../lib/pd2dsy/libdaisy/src/hid/disp/display.h ****     }
 1759              		.loc 4 174 46 view .LVU369
 1760              	.LBE1039:
 1761              	.LBE1038:
 1762              	.LBB1043:
 1763              	.LBB1044:
 443:../../../lib/pd2dsy/libdaisy/src/hid/disp/display.h ****         {
 1764              		.loc 4 443 9 view .LVU370
 1765 00cc 009B     		ldr	r3, [sp]
 1766              	.LBE1044:
 1767              	.LBE1043:
 1768              	.LBB1092:
 1769              	.LBB1040:
 174:../../../lib/pd2dsy/libdaisy/src/hid/disp/display.h ****     }
 1770              		.loc 4 174 19 view .LVU371
 1771 00ce A8F80640 		strh	r4, [r8, #6]	@ movhi
 1772              	.LVL119:
 174:../../../lib/pd2dsy/libdaisy/src/hid/disp/display.h ****     }
 1773              		.loc 4 174 19 view .LVU372
 1774              	.LBE1040:
 1775              	.LBE1092:
 1776              	.LBB1093:
 1777              	.LBB1089:
 443:../../../lib/pd2dsy/libdaisy/src/hid/disp/display.h ****         {
 1778              		.loc 4 443 9 view .LVU373
ARM GAS  /var/folders/fb/yfxt3z4538j6z0vjt03w70vc0000gn/T//ccrD3Rdr.s 			page 66


 1779 00d2 93F800B0 		ldrb	fp, [r3]	@ zero_extendqisi2
 1780 00d6 6B78     		ldrb	r3, [r5, #1]	@ zero_extendqisi2
 1781              	.LVL120:
 443:../../../lib/pd2dsy/libdaisy/src/hid/disp/display.h ****         {
 1782              		.loc 4 443 9 view .LVU374
 1783 00d8 2C78     		ldrb	r4, [r5]	@ zero_extendqisi2
 1784              	.LVL121:
 443:../../../lib/pd2dsy/libdaisy/src/hid/disp/display.h ****         {
 1785              		.loc 4 443 9 view .LVU375
 1786 00da 0493     		str	r3, [sp, #16]
 1787              	.LVL122:
 443:../../../lib/pd2dsy/libdaisy/src/hid/disp/display.h ****         {
 1788              		.loc 4 443 9 view .LVU376
 1789 00dc 6B68     		ldr	r3, [r5, #4]
 1790 00de 0793     		str	r3, [sp, #28]
 1791              	.LVL123:
 443:../../../lib/pd2dsy/libdaisy/src/hid/disp/display.h ****         {
 1792              		.loc 4 443 9 view .LVU377
 1793              	.LBE1089:
 1794              	.LBI1043:
 440:../../../lib/pd2dsy/libdaisy/src/hid/disp/display.h ****     {
 1795              		.loc 4 440 10 is_stmt 1 view .LVU378
 1796              	.LBB1090:
 443:../../../lib/pd2dsy/libdaisy/src/hid/disp/display.h ****         {
 1797              		.loc 4 443 9 view .LVU379
 1798 00e0 BBF1000F 		cmp	fp, #0
 1799 00e4 00F0AC80 		beq	.L103
 1800              	.LVL124:
 1801              	.L133:
 1802              	.LBB1045:
 1803              	.LBI1045:
 396:../../../lib/pd2dsy/libdaisy/src/hid/disp/display.h ****     {
 1804              		.loc 4 396 10 view .LVU380
 1805              	.LBB1046:
 401:../../../lib/pd2dsy/libdaisy/src/hid/disp/display.h ****             return 0;
 1806              		.loc 4 401 20 is_stmt 0 view .LVU381
 1807 00e8 ABF12005 		sub	r5, fp, #32
 401:../../../lib/pd2dsy/libdaisy/src/hid/disp/display.h ****             return 0;
 1808              		.loc 4 401 9 view .LVU382
 1809 00ec EBB2     		uxtb	r3, r5
 1810 00ee 5E2B     		cmp	r3, #94
 1811 00f0 00F22C81 		bhi	.L137
 405:../../../lib/pd2dsy/libdaisy/src/hid/disp/display.h ****            || Height() < (currentY_ + font.FontHeight))
 1812              		.loc 4 405 17 view .LVU383
 1813 00f4 D8F80030 		ldr	r3, [r8]
 1814 00f8 019A     		ldr	r2, [sp, #4]
 1815 00fa DB68     		ldr	r3, [r3, #12]
 1816 00fc 9342     		cmp	r3, r2
 1817 00fe 40F02881 		bne	.L182
 1818 0102 8020     		movs	r0, #128
 1819              	.L136:
 405:../../../lib/pd2dsy/libdaisy/src/hid/disp/display.h ****            || Height() < (currentY_ + font.FontHeight))
 1820              		.loc 4 405 23 view .LVU384
 1821 0104 B8F80430 		ldrh	r3, [r8, #4]
